
AuroraV_Payload_F439.elf:     file format elf32-littlearm

Sections:
Idx Name          Size      VMA       LMA       File off  Algn
  0 .isr_vector   000001ac  08000000  08000000  00001000  2**0
                  CONTENTS, ALLOC, LOAD, READONLY, DATA
  1 .text         0000536c  080001ac  080001ac  000011ac  2**2
                  CONTENTS, ALLOC, LOAD, READONLY, CODE
  2 .rodata       000000b4  08005518  08005518  00006518  2**0
                  CONTENTS, ALLOC, LOAD, READONLY, DATA
  3 .ARM.extab    00000000  080055cc  080055cc  00007028  2**0
                  CONTENTS
  4 .ARM          00000008  080055cc  080055cc  000065cc  2**2
                  CONTENTS, ALLOC, LOAD, READONLY, DATA
  5 .preinit_array 00000000  080055d4  080055d4  00007028  2**0
                  CONTENTS, ALLOC, LOAD, DATA
  6 .init_array   00000004  080055d4  080055d4  000065d4  2**2
                  CONTENTS, ALLOC, LOAD, DATA
  7 .fini_array   00000004  080055d8  080055d8  000065d8  2**2
                  CONTENTS, ALLOC, LOAD, DATA
  8 .data         00000028  20000000  080055dc  00007000  2**2
                  CONTENTS, ALLOC, LOAD, DATA
  9 .ccmram       00000000  10000000  10000000  00007028  2**0
                  CONTENTS
 10 .bss          00000604  20000028  20000028  00007028  2**2
                  ALLOC
 11 ._user_heap_stack 00000604  2000062c  2000062c  00007028  2**0
                  ALLOC
 12 .ARM.attributes 00000030  00000000  00000000  00007028  2**0
                  CONTENTS, READONLY
 13 .comment      00000043  00000000  00000000  00007058  2**0
                  CONTENTS, READONLY
 14 .debug_frame  000000ac  00000000  00000000  0000709c  2**2
                  CONTENTS, READONLY, DEBUGGING, OCTETS

Disassembly of section .text:

080001ac <__do_global_dtors_aux>:
 80001ac:	b510      	push	{r4, lr}
 80001ae:	4c05      	ldr	r4, [pc, #20]	@ (80001c4 <__do_global_dtors_aux+0x18>)
 80001b0:	7823      	ldrb	r3, [r4, #0]
 80001b2:	b933      	cbnz	r3, 80001c2 <__do_global_dtors_aux+0x16>
 80001b4:	4b04      	ldr	r3, [pc, #16]	@ (80001c8 <__do_global_dtors_aux+0x1c>)
 80001b6:	b113      	cbz	r3, 80001be <__do_global_dtors_aux+0x12>
 80001b8:	4804      	ldr	r0, [pc, #16]	@ (80001cc <__do_global_dtors_aux+0x20>)
 80001ba:	f3af 8000 	nop.w
 80001be:	2301      	movs	r3, #1
 80001c0:	7023      	strb	r3, [r4, #0]
 80001c2:	bd10      	pop	{r4, pc}
 80001c4:	20000028 	.word	0x20000028
 80001c8:	00000000 	.word	0x00000000
 80001cc:	08005500 	.word	0x08005500

080001d0 <frame_dummy>:
 80001d0:	b508      	push	{r3, lr}
 80001d2:	4b03      	ldr	r3, [pc, #12]	@ (80001e0 <frame_dummy+0x10>)
 80001d4:	b11b      	cbz	r3, 80001de <frame_dummy+0xe>
 80001d6:	4903      	ldr	r1, [pc, #12]	@ (80001e4 <frame_dummy+0x14>)
 80001d8:	4803      	ldr	r0, [pc, #12]	@ (80001e8 <frame_dummy+0x18>)
 80001da:	f3af 8000 	nop.w
 80001de:	bd08      	pop	{r3, pc}
 80001e0:	00000000 	.word	0x00000000
 80001e4:	2000002c 	.word	0x2000002c
 80001e8:	08005500 	.word	0x08005500

080001ec <strlen>:
 80001ec:	4603      	mov	r3, r0
 80001ee:	f813 2b01 	ldrb.w	r2, [r3], #1
 80001f2:	2a00      	cmp	r2, #0
 80001f4:	d1fb      	bne.n	80001ee <strlen+0x2>
 80001f6:	1a18      	subs	r0, r3, r0
 80001f8:	3801      	subs	r0, #1
 80001fa:	4770      	bx	lr

080001fc <__aeabi_uldivmod>:
 80001fc:	b953      	cbnz	r3, 8000214 <__aeabi_uldivmod+0x18>
 80001fe:	b94a      	cbnz	r2, 8000214 <__aeabi_uldivmod+0x18>
 8000200:	2900      	cmp	r1, #0
 8000202:	bf08      	it	eq
 8000204:	2800      	cmpeq	r0, #0
 8000206:	bf1c      	itt	ne
 8000208:	f04f 31ff 	movne.w	r1, #4294967295	@ 0xffffffff
 800020c:	f04f 30ff 	movne.w	r0, #4294967295	@ 0xffffffff
 8000210:	f000 b96a 	b.w	80004e8 <__aeabi_idiv0>
 8000214:	f1ad 0c08 	sub.w	ip, sp, #8
 8000218:	e96d ce04 	strd	ip, lr, [sp, #-16]!
 800021c:	f000 f806 	bl	800022c <__udivmoddi4>
 8000220:	f8dd e004 	ldr.w	lr, [sp, #4]
 8000224:	e9dd 2302 	ldrd	r2, r3, [sp, #8]
 8000228:	b004      	add	sp, #16
 800022a:	4770      	bx	lr

0800022c <__udivmoddi4>:
 800022c:	e92d 47f0 	stmdb	sp!, {r4, r5, r6, r7, r8, r9, sl, lr}
 8000230:	9d08      	ldr	r5, [sp, #32]
 8000232:	460c      	mov	r4, r1
 8000234:	2b00      	cmp	r3, #0
 8000236:	d14e      	bne.n	80002d6 <__udivmoddi4+0xaa>
 8000238:	4694      	mov	ip, r2
 800023a:	458c      	cmp	ip, r1
 800023c:	4686      	mov	lr, r0
 800023e:	fab2 f282 	clz	r2, r2
 8000242:	d962      	bls.n	800030a <__udivmoddi4+0xde>
 8000244:	b14a      	cbz	r2, 800025a <__udivmoddi4+0x2e>
 8000246:	f1c2 0320 	rsb	r3, r2, #32
 800024a:	4091      	lsls	r1, r2
 800024c:	fa20 f303 	lsr.w	r3, r0, r3
 8000250:	fa0c fc02 	lsl.w	ip, ip, r2
 8000254:	4319      	orrs	r1, r3
 8000256:	fa00 fe02 	lsl.w	lr, r0, r2
 800025a:	ea4f 471c 	mov.w	r7, ip, lsr #16
 800025e:	fa1f f68c 	uxth.w	r6, ip
 8000262:	fbb1 f4f7 	udiv	r4, r1, r7
 8000266:	ea4f 431e 	mov.w	r3, lr, lsr #16
 800026a:	fb07 1114 	mls	r1, r7, r4, r1
 800026e:	ea43 4301 	orr.w	r3, r3, r1, lsl #16
 8000272:	fb04 f106 	mul.w	r1, r4, r6
 8000276:	4299      	cmp	r1, r3
 8000278:	d90a      	bls.n	8000290 <__udivmoddi4+0x64>
 800027a:	eb1c 0303 	adds.w	r3, ip, r3
 800027e:	f104 30ff 	add.w	r0, r4, #4294967295	@ 0xffffffff
 8000282:	f080 8112 	bcs.w	80004aa <__udivmoddi4+0x27e>
 8000286:	4299      	cmp	r1, r3
 8000288:	f240 810f 	bls.w	80004aa <__udivmoddi4+0x27e>
 800028c:	3c02      	subs	r4, #2
 800028e:	4463      	add	r3, ip
 8000290:	1a59      	subs	r1, r3, r1
 8000292:	fa1f f38e 	uxth.w	r3, lr
 8000296:	fbb1 f0f7 	udiv	r0, r1, r7
 800029a:	fb07 1110 	mls	r1, r7, r0, r1
 800029e:	ea43 4301 	orr.w	r3, r3, r1, lsl #16
 80002a2:	fb00 f606 	mul.w	r6, r0, r6
 80002a6:	429e      	cmp	r6, r3
 80002a8:	d90a      	bls.n	80002c0 <__udivmoddi4+0x94>
 80002aa:	eb1c 0303 	adds.w	r3, ip, r3
 80002ae:	f100 31ff 	add.w	r1, r0, #4294967295	@ 0xffffffff
 80002b2:	f080 80fc 	bcs.w	80004ae <__udivmoddi4+0x282>
 80002b6:	429e      	cmp	r6, r3
 80002b8:	f240 80f9 	bls.w	80004ae <__udivmoddi4+0x282>
 80002bc:	4463      	add	r3, ip
 80002be:	3802      	subs	r0, #2
 80002c0:	1b9b      	subs	r3, r3, r6
 80002c2:	ea40 4004 	orr.w	r0, r0, r4, lsl #16
 80002c6:	2100      	movs	r1, #0
 80002c8:	b11d      	cbz	r5, 80002d2 <__udivmoddi4+0xa6>
 80002ca:	40d3      	lsrs	r3, r2
 80002cc:	2200      	movs	r2, #0
 80002ce:	e9c5 3200 	strd	r3, r2, [r5]
 80002d2:	e8bd 87f0 	ldmia.w	sp!, {r4, r5, r6, r7, r8, r9, sl, pc}
 80002d6:	428b      	cmp	r3, r1
 80002d8:	d905      	bls.n	80002e6 <__udivmoddi4+0xba>
 80002da:	b10d      	cbz	r5, 80002e0 <__udivmoddi4+0xb4>
 80002dc:	e9c5 0100 	strd	r0, r1, [r5]
 80002e0:	2100      	movs	r1, #0
 80002e2:	4608      	mov	r0, r1
 80002e4:	e7f5      	b.n	80002d2 <__udivmoddi4+0xa6>
 80002e6:	fab3 f183 	clz	r1, r3
 80002ea:	2900      	cmp	r1, #0
 80002ec:	d146      	bne.n	800037c <__udivmoddi4+0x150>
 80002ee:	42a3      	cmp	r3, r4
 80002f0:	d302      	bcc.n	80002f8 <__udivmoddi4+0xcc>
 80002f2:	4290      	cmp	r0, r2
 80002f4:	f0c0 80f0 	bcc.w	80004d8 <__udivmoddi4+0x2ac>
 80002f8:	1a86      	subs	r6, r0, r2
 80002fa:	eb64 0303 	sbc.w	r3, r4, r3
 80002fe:	2001      	movs	r0, #1
 8000300:	2d00      	cmp	r5, #0
 8000302:	d0e6      	beq.n	80002d2 <__udivmoddi4+0xa6>
 8000304:	e9c5 6300 	strd	r6, r3, [r5]
 8000308:	e7e3      	b.n	80002d2 <__udivmoddi4+0xa6>
 800030a:	2a00      	cmp	r2, #0
 800030c:	f040 8090 	bne.w	8000430 <__udivmoddi4+0x204>
 8000310:	eba1 040c 	sub.w	r4, r1, ip
 8000314:	ea4f 481c 	mov.w	r8, ip, lsr #16
 8000318:	fa1f f78c 	uxth.w	r7, ip
 800031c:	2101      	movs	r1, #1
 800031e:	fbb4 f6f8 	udiv	r6, r4, r8
 8000322:	ea4f 431e 	mov.w	r3, lr, lsr #16
 8000326:	fb08 4416 	mls	r4, r8, r6, r4
 800032a:	ea43 4304 	orr.w	r3, r3, r4, lsl #16
 800032e:	fb07 f006 	mul.w	r0, r7, r6
 8000332:	4298      	cmp	r0, r3
 8000334:	d908      	bls.n	8000348 <__udivmoddi4+0x11c>
 8000336:	eb1c 0303 	adds.w	r3, ip, r3
 800033a:	f106 34ff 	add.w	r4, r6, #4294967295	@ 0xffffffff
 800033e:	d202      	bcs.n	8000346 <__udivmoddi4+0x11a>
 8000340:	4298      	cmp	r0, r3
 8000342:	f200 80cd 	bhi.w	80004e0 <__udivmoddi4+0x2b4>
 8000346:	4626      	mov	r6, r4
 8000348:	1a1c      	subs	r4, r3, r0
 800034a:	fa1f f38e 	uxth.w	r3, lr
 800034e:	fbb4 f0f8 	udiv	r0, r4, r8
 8000352:	fb08 4410 	mls	r4, r8, r0, r4
 8000356:	ea43 4304 	orr.w	r3, r3, r4, lsl #16
 800035a:	fb00 f707 	mul.w	r7, r0, r7
 800035e:	429f      	cmp	r7, r3
 8000360:	d908      	bls.n	8000374 <__udivmoddi4+0x148>
 8000362:	eb1c 0303 	adds.w	r3, ip, r3
 8000366:	f100 34ff 	add.w	r4, r0, #4294967295	@ 0xffffffff
 800036a:	d202      	bcs.n	8000372 <__udivmoddi4+0x146>
 800036c:	429f      	cmp	r7, r3
 800036e:	f200 80b0 	bhi.w	80004d2 <__udivmoddi4+0x2a6>
 8000372:	4620      	mov	r0, r4
 8000374:	1bdb      	subs	r3, r3, r7
 8000376:	ea40 4006 	orr.w	r0, r0, r6, lsl #16
 800037a:	e7a5      	b.n	80002c8 <__udivmoddi4+0x9c>
 800037c:	f1c1 0620 	rsb	r6, r1, #32
 8000380:	408b      	lsls	r3, r1
 8000382:	fa22 f706 	lsr.w	r7, r2, r6
 8000386:	431f      	orrs	r7, r3
 8000388:	fa20 fc06 	lsr.w	ip, r0, r6
 800038c:	fa04 f301 	lsl.w	r3, r4, r1
 8000390:	ea43 030c 	orr.w	r3, r3, ip
 8000394:	40f4      	lsrs	r4, r6
 8000396:	fa00 f801 	lsl.w	r8, r0, r1
 800039a:	0c38      	lsrs	r0, r7, #16
 800039c:	ea4f 4913 	mov.w	r9, r3, lsr #16
 80003a0:	fbb4 fef0 	udiv	lr, r4, r0
 80003a4:	fa1f fc87 	uxth.w	ip, r7
 80003a8:	fb00 441e 	mls	r4, r0, lr, r4
 80003ac:	ea49 4404 	orr.w	r4, r9, r4, lsl #16
 80003b0:	fb0e f90c 	mul.w	r9, lr, ip
 80003b4:	45a1      	cmp	r9, r4
 80003b6:	fa02 f201 	lsl.w	r2, r2, r1
 80003ba:	d90a      	bls.n	80003d2 <__udivmoddi4+0x1a6>
 80003bc:	193c      	adds	r4, r7, r4
 80003be:	f10e 3aff 	add.w	sl, lr, #4294967295	@ 0xffffffff
 80003c2:	f080 8084 	bcs.w	80004ce <__udivmoddi4+0x2a2>
 80003c6:	45a1      	cmp	r9, r4
 80003c8:	f240 8081 	bls.w	80004ce <__udivmoddi4+0x2a2>
 80003cc:	f1ae 0e02 	sub.w	lr, lr, #2
 80003d0:	443c      	add	r4, r7
 80003d2:	eba4 0409 	sub.w	r4, r4, r9
 80003d6:	fa1f f983 	uxth.w	r9, r3
 80003da:	fbb4 f3f0 	udiv	r3, r4, r0
 80003de:	fb00 4413 	mls	r4, r0, r3, r4
 80003e2:	ea49 4404 	orr.w	r4, r9, r4, lsl #16
 80003e6:	fb03 fc0c 	mul.w	ip, r3, ip
 80003ea:	45a4      	cmp	ip, r4
 80003ec:	d907      	bls.n	80003fe <__udivmoddi4+0x1d2>
 80003ee:	193c      	adds	r4, r7, r4
 80003f0:	f103 30ff 	add.w	r0, r3, #4294967295	@ 0xffffffff
 80003f4:	d267      	bcs.n	80004c6 <__udivmoddi4+0x29a>
 80003f6:	45a4      	cmp	ip, r4
 80003f8:	d965      	bls.n	80004c6 <__udivmoddi4+0x29a>
 80003fa:	3b02      	subs	r3, #2
 80003fc:	443c      	add	r4, r7
 80003fe:	ea43 400e 	orr.w	r0, r3, lr, lsl #16
 8000402:	fba0 9302 	umull	r9, r3, r0, r2
 8000406:	eba4 040c 	sub.w	r4, r4, ip
 800040a:	429c      	cmp	r4, r3
 800040c:	46ce      	mov	lr, r9
 800040e:	469c      	mov	ip, r3
 8000410:	d351      	bcc.n	80004b6 <__udivmoddi4+0x28a>
 8000412:	d04e      	beq.n	80004b2 <__udivmoddi4+0x286>
 8000414:	b155      	cbz	r5, 800042c <__udivmoddi4+0x200>
 8000416:	ebb8 030e 	subs.w	r3, r8, lr
 800041a:	eb64 040c 	sbc.w	r4, r4, ip
 800041e:	fa04 f606 	lsl.w	r6, r4, r6
 8000422:	40cb      	lsrs	r3, r1
 8000424:	431e      	orrs	r6, r3
 8000426:	40cc      	lsrs	r4, r1
 8000428:	e9c5 6400 	strd	r6, r4, [r5]
 800042c:	2100      	movs	r1, #0
 800042e:	e750      	b.n	80002d2 <__udivmoddi4+0xa6>
 8000430:	f1c2 0320 	rsb	r3, r2, #32
 8000434:	fa20 f103 	lsr.w	r1, r0, r3
 8000438:	fa0c fc02 	lsl.w	ip, ip, r2
 800043c:	fa24 f303 	lsr.w	r3, r4, r3
 8000440:	4094      	lsls	r4, r2
 8000442:	430c      	orrs	r4, r1
 8000444:	ea4f 481c 	mov.w	r8, ip, lsr #16
 8000448:	fa00 fe02 	lsl.w	lr, r0, r2
 800044c:	fa1f f78c 	uxth.w	r7, ip
 8000450:	fbb3 f0f8 	udiv	r0, r3, r8
 8000454:	fb08 3110 	mls	r1, r8, r0, r3
 8000458:	0c23      	lsrs	r3, r4, #16
 800045a:	ea43 4301 	orr.w	r3, r3, r1, lsl #16
 800045e:	fb00 f107 	mul.w	r1, r0, r7
 8000462:	4299      	cmp	r1, r3
 8000464:	d908      	bls.n	8000478 <__udivmoddi4+0x24c>
 8000466:	eb1c 0303 	adds.w	r3, ip, r3
 800046a:	f100 36ff 	add.w	r6, r0, #4294967295	@ 0xffffffff
 800046e:	d22c      	bcs.n	80004ca <__udivmoddi4+0x29e>
 8000470:	4299      	cmp	r1, r3
 8000472:	d92a      	bls.n	80004ca <__udivmoddi4+0x29e>
 8000474:	3802      	subs	r0, #2
 8000476:	4463      	add	r3, ip
 8000478:	1a5b      	subs	r3, r3, r1
 800047a:	b2a4      	uxth	r4, r4
 800047c:	fbb3 f1f8 	udiv	r1, r3, r8
 8000480:	fb08 3311 	mls	r3, r8, r1, r3
 8000484:	ea44 4403 	orr.w	r4, r4, r3, lsl #16
 8000488:	fb01 f307 	mul.w	r3, r1, r7
 800048c:	42a3      	cmp	r3, r4
 800048e:	d908      	bls.n	80004a2 <__udivmoddi4+0x276>
 8000490:	eb1c 0404 	adds.w	r4, ip, r4
 8000494:	f101 36ff 	add.w	r6, r1, #4294967295	@ 0xffffffff
 8000498:	d213      	bcs.n	80004c2 <__udivmoddi4+0x296>
 800049a:	42a3      	cmp	r3, r4
 800049c:	d911      	bls.n	80004c2 <__udivmoddi4+0x296>
 800049e:	3902      	subs	r1, #2
 80004a0:	4464      	add	r4, ip
 80004a2:	1ae4      	subs	r4, r4, r3
 80004a4:	ea41 4100 	orr.w	r1, r1, r0, lsl #16
 80004a8:	e739      	b.n	800031e <__udivmoddi4+0xf2>
 80004aa:	4604      	mov	r4, r0
 80004ac:	e6f0      	b.n	8000290 <__udivmoddi4+0x64>
 80004ae:	4608      	mov	r0, r1
 80004b0:	e706      	b.n	80002c0 <__udivmoddi4+0x94>
 80004b2:	45c8      	cmp	r8, r9
 80004b4:	d2ae      	bcs.n	8000414 <__udivmoddi4+0x1e8>
 80004b6:	ebb9 0e02 	subs.w	lr, r9, r2
 80004ba:	eb63 0c07 	sbc.w	ip, r3, r7
 80004be:	3801      	subs	r0, #1
 80004c0:	e7a8      	b.n	8000414 <__udivmoddi4+0x1e8>
 80004c2:	4631      	mov	r1, r6
 80004c4:	e7ed      	b.n	80004a2 <__udivmoddi4+0x276>
 80004c6:	4603      	mov	r3, r0
 80004c8:	e799      	b.n	80003fe <__udivmoddi4+0x1d2>
 80004ca:	4630      	mov	r0, r6
 80004cc:	e7d4      	b.n	8000478 <__udivmoddi4+0x24c>
 80004ce:	46d6      	mov	lr, sl
 80004d0:	e77f      	b.n	80003d2 <__udivmoddi4+0x1a6>
 80004d2:	4463      	add	r3, ip
 80004d4:	3802      	subs	r0, #2
 80004d6:	e74d      	b.n	8000374 <__udivmoddi4+0x148>
 80004d8:	4606      	mov	r6, r0
 80004da:	4623      	mov	r3, r4
 80004dc:	4608      	mov	r0, r1
 80004de:	e70f      	b.n	8000300 <__udivmoddi4+0xd4>
 80004e0:	3e02      	subs	r6, #2
 80004e2:	4463      	add	r3, ip
 80004e4:	e730      	b.n	8000348 <__udivmoddi4+0x11c>
 80004e6:	bf00      	nop

080004e8 <__aeabi_idiv0>:
 80004e8:	4770      	bx	lr
 80004ea:	bf00      	nop

080004ec <readAccelerometer>:
 80004ec:	b507      	push	{r0, r1, r2, lr}
 80004ee:	4603      	mov	r3, r0
 80004f0:	2200      	movs	r2, #0
 80004f2:	601a      	str	r2, [r3, #0]
 80004f4:	809a      	strh	r2, [r3, #4]
 80004f6:	4608      	mov	r0, r1
 80004f8:	4a05      	ldr	r2, [pc, #20]	@ (8000510 <readAccelerometer+0x24>)
 80004fa:	4906      	ldr	r1, [pc, #24]	@ (8000514 <readAccelerometer+0x28>)
 80004fc:	9300      	str	r3, [sp, #0]
 80004fe:	7812      	ldrb	r2, [r2, #0]
 8000500:	7809      	ldrb	r1, [r1, #0]
 8000502:	2306      	movs	r3, #6
 8000504:	f000 fa64 	bl	80009d0 <i2c_burst_read>
 8000508:	b003      	add	sp, #12
 800050a:	f85d fb04 	ldr.w	pc, [sp], #4
 800050e:	bf00      	nop
 8000510:	20000000 	.word	0x20000000
 8000514:	20000007 	.word	0x20000007

08000518 <readAccel_whoami>:
 8000518:	b507      	push	{r0, r1, r2, lr}
 800051a:	4a07      	ldr	r2, [pc, #28]	@ (8000538 <readAccel_whoami+0x20>)
 800051c:	2300      	movs	r3, #0
 800051e:	f88d 3007 	strb.w	r3, [sp, #7]
 8000522:	7812      	ldrb	r2, [r2, #0]
 8000524:	4b05      	ldr	r3, [pc, #20]	@ (800053c <readAccel_whoami+0x24>)
 8000526:	f10d 0107 	add.w	r1, sp, #7
 800052a:	f000 fa3a 	bl	80009a2 <i2c_read_reg>
 800052e:	f89d 0007 	ldrb.w	r0, [sp, #7]
 8000532:	b003      	add	sp, #12
 8000534:	f85d fb04 	ldr.w	pc, [sp], #4
 8000538:	20000007 	.word	0x20000007
 800053c:	20000044 	.word	0x20000044

08000540 <writeOffset>:
 8000540:	b570      	push	{r4, r5, r6, lr}
 8000542:	4d0a      	ldr	r5, [pc, #40]	@ (800056c <writeOffset+0x2c>)
 8000544:	4a0a      	ldr	r2, [pc, #40]	@ (8000570 <writeOffset+0x30>)
 8000546:	7829      	ldrb	r1, [r5, #0]
 8000548:	4604      	mov	r4, r0
 800054a:	2302      	movs	r3, #2
 800054c:	f000 fa5b 	bl	8000a06 <i2c_write_reg>
 8000550:	7829      	ldrb	r1, [r5, #0]
 8000552:	4a08      	ldr	r2, [pc, #32]	@ (8000574 <writeOffset+0x34>)
 8000554:	2301      	movs	r3, #1
 8000556:	4620      	mov	r0, r4
 8000558:	f000 fa55 	bl	8000a06 <i2c_write_reg>
 800055c:	7829      	ldrb	r1, [r5, #0]
 800055e:	4a06      	ldr	r2, [pc, #24]	@ (8000578 <writeOffset+0x38>)
 8000560:	4620      	mov	r0, r4
 8000562:	2301      	movs	r3, #1
 8000564:	e8bd 4070 	ldmia.w	sp!, {r4, r5, r6, lr}
 8000568:	f000 ba4d 	b.w	8000a06 <i2c_write_reg>
 800056c:	20000007 	.word	0x20000007
 8000570:	20000003 	.word	0x20000003
 8000574:	20000002 	.word	0x20000002
 8000578:	20000001 	.word	0x20000001

0800057c <init_accel>:
 800057c:	b570      	push	{r4, r5, r6, lr}
 800057e:	4d0f      	ldr	r5, [pc, #60]	@ (80005bc <init_accel+0x40>)
 8000580:	4e0f      	ldr	r6, [pc, #60]	@ (80005c0 <init_accel+0x44>)
 8000582:	7829      	ldrb	r1, [r5, #0]
 8000584:	4604      	mov	r4, r0
 8000586:	4632      	mov	r2, r6
 8000588:	2300      	movs	r3, #0
 800058a:	f000 fa3c 	bl	8000a06 <i2c_write_reg>
 800058e:	7829      	ldrb	r1, [r5, #0]
 8000590:	4a0c      	ldr	r2, [pc, #48]	@ (80005c4 <init_accel+0x48>)
 8000592:	230b      	movs	r3, #11
 8000594:	4620      	mov	r0, r4
 8000596:	f000 fa36 	bl	8000a06 <i2c_write_reg>
 800059a:	7829      	ldrb	r1, [r5, #0]
 800059c:	4a0a      	ldr	r2, [pc, #40]	@ (80005c8 <init_accel+0x4c>)
 800059e:	230a      	movs	r3, #10
 80005a0:	4620      	mov	r0, r4
 80005a2:	f000 fa30 	bl	8000a06 <i2c_write_reg>
 80005a6:	4620      	mov	r0, r4
 80005a8:	f7ff ffca 	bl	8000540 <writeOffset>
 80005ac:	7829      	ldrb	r1, [r5, #0]
 80005ae:	4632      	mov	r2, r6
 80005b0:	4620      	mov	r0, r4
 80005b2:	2308      	movs	r3, #8
 80005b4:	e8bd 4070 	ldmia.w	sp!, {r4, r5, r6, lr}
 80005b8:	f000 ba25 	b.w	8000a06 <i2c_write_reg>
 80005bc:	20000007 	.word	0x20000007
 80005c0:	20000005 	.word	0x20000005
 80005c4:	20000004 	.word	0x20000004
 80005c8:	20000006 	.word	0x20000006

080005cc <getBME280Config>:
 80005cc:	2300      	movs	r3, #0
 80005ce:	b120      	cbz	r0, 80005da <getBME280Config+0xe>
 80005d0:	2801      	cmp	r0, #1
 80005d2:	bf08      	it	eq
 80005d4:	2377      	moveq	r3, #119	@ 0x77
 80005d6:	4618      	mov	r0, r3
 80005d8:	4770      	bx	lr
 80005da:	2376      	movs	r3, #118	@ 0x76
 80005dc:	e7fb      	b.n	80005d6 <getBME280Config+0xa>
	...

080005e0 <init_bme280>:
 80005e0:	b5f7      	push	{r0, r1, r2, r4, r5, r6, r7, lr}
 80005e2:	4604      	mov	r4, r0
 80005e4:	4608      	mov	r0, r1
 80005e6:	f7ff fff1 	bl	80005cc <getBME280Config>
 80005ea:	4f16      	ldr	r7, [pc, #88]	@ (8000644 <init_bme280+0x64>)
 80005ec:	4a16      	ldr	r2, [pc, #88]	@ (8000648 <init_bme280+0x68>)
 80005ee:	b2c5      	uxtb	r5, r0
 80005f0:	2600      	movs	r6, #0
 80005f2:	4629      	mov	r1, r5
 80005f4:	23b6      	movs	r3, #182	@ 0xb6
 80005f6:	4620      	mov	r0, r4
 80005f8:	f88d 6007 	strb.w	r6, [sp, #7]
 80005fc:	f000 fa03 	bl	8000a06 <i2c_write_reg>
 8000600:	463b      	mov	r3, r7
 8000602:	462a      	mov	r2, r5
 8000604:	f10d 0107 	add.w	r1, sp, #7
 8000608:	4620      	mov	r0, r4
 800060a:	f000 f9ca 	bl	80009a2 <i2c_read_reg>
 800060e:	f89d 3007 	ldrb.w	r3, [sp, #7]
 8000612:	f023 0307 	bic.w	r3, r3, #7
 8000616:	f043 0301 	orr.w	r3, r3, #1
 800061a:	463a      	mov	r2, r7
 800061c:	4629      	mov	r1, r5
 800061e:	4620      	mov	r0, r4
 8000620:	f88d 3007 	strb.w	r3, [sp, #7]
 8000624:	f000 f9ef 	bl	8000a06 <i2c_write_reg>
 8000628:	4629      	mov	r1, r5
 800062a:	4a08      	ldr	r2, [pc, #32]	@ (800064c <init_bme280+0x6c>)
 800062c:	2327      	movs	r3, #39	@ 0x27
 800062e:	4620      	mov	r0, r4
 8000630:	f000 f9e9 	bl	8000a06 <i2c_write_reg>
 8000634:	4a06      	ldr	r2, [pc, #24]	@ (8000650 <init_bme280+0x70>)
 8000636:	4633      	mov	r3, r6
 8000638:	4629      	mov	r1, r5
 800063a:	4620      	mov	r0, r4
 800063c:	f000 f9e3 	bl	8000a06 <i2c_write_reg>
 8000640:	b003      	add	sp, #12
 8000642:	bdf0      	pop	{r4, r5, r6, r7, pc}
 8000644:	2000000d 	.word	0x2000000d
 8000648:	2000000e 	.word	0x2000000e
 800064c:	2000000c 	.word	0x2000000c
 8000650:	2000000b 	.word	0x2000000b

08000654 <readBME280_id_reg>:
 8000654:	b513      	push	{r0, r1, r4, lr}
 8000656:	4604      	mov	r4, r0
 8000658:	4608      	mov	r0, r1
 800065a:	f7ff ffb7 	bl	80005cc <getBME280Config>
 800065e:	2300      	movs	r3, #0
 8000660:	f88d 3007 	strb.w	r3, [sp, #7]
 8000664:	b2c2      	uxtb	r2, r0
 8000666:	4b05      	ldr	r3, [pc, #20]	@ (800067c <readBME280_id_reg+0x28>)
 8000668:	f10d 0107 	add.w	r1, sp, #7
 800066c:	4620      	mov	r0, r4
 800066e:	f000 f998 	bl	80009a2 <i2c_read_reg>
 8000672:	f89d 0007 	ldrb.w	r0, [sp, #7]
 8000676:	b002      	add	sp, #8
 8000678:	bd10      	pop	{r4, pc}
 800067a:	bf00      	nop
 800067c:	2000000f 	.word	0x2000000f

08000680 <readBME280_calib>:
 8000680:	b573      	push	{r0, r1, r4, r5, r6, lr}
 8000682:	4604      	mov	r4, r0
 8000684:	4608      	mov	r0, r1
 8000686:	461e      	mov	r6, r3
 8000688:	f7ff ffa0 	bl	80005cc <getBME280Config>
 800068c:	9200      	str	r2, [sp, #0]
 800068e:	4a09      	ldr	r2, [pc, #36]	@ (80006b4 <readBME280_calib+0x34>)
 8000690:	b2c5      	uxtb	r5, r0
 8000692:	4629      	mov	r1, r5
 8000694:	7812      	ldrb	r2, [r2, #0]
 8000696:	2319      	movs	r3, #25
 8000698:	4620      	mov	r0, r4
 800069a:	f000 f999 	bl	80009d0 <i2c_burst_read>
 800069e:	4a06      	ldr	r2, [pc, #24]	@ (80006b8 <readBME280_calib+0x38>)
 80006a0:	9600      	str	r6, [sp, #0]
 80006a2:	7812      	ldrb	r2, [r2, #0]
 80006a4:	2307      	movs	r3, #7
 80006a6:	4629      	mov	r1, r5
 80006a8:	4620      	mov	r0, r4
 80006aa:	f000 f991 	bl	80009d0 <i2c_burst_read>
 80006ae:	b002      	add	sp, #8
 80006b0:	bd70      	pop	{r4, r5, r6, pc}
 80006b2:	bf00      	nop
 80006b4:	20000009 	.word	0x20000009
 80006b8:	20000008 	.word	0x20000008

080006bc <readTempHumPres>:
 80006bc:	b57f      	push	{r0, r1, r2, r3, r4, r5, r6, lr}
 80006be:	460d      	mov	r5, r1
 80006c0:	4917      	ldr	r1, [pc, #92]	@ (8000720 <readTempHumPres+0x64>)
 80006c2:	4604      	mov	r4, r0
 80006c4:	6808      	ldr	r0, [r1, #0]
 80006c6:	6849      	ldr	r1, [r1, #4]
 80006c8:	ab02      	add	r3, sp, #8
 80006ca:	c303      	stmia	r3!, {r0, r1}
 80006cc:	4610      	mov	r0, r2
 80006ce:	f7ff ff7d 	bl	80005cc <getBME280Config>
 80006d2:	4a14      	ldr	r2, [pc, #80]	@ (8000724 <readTempHumPres+0x68>)
 80006d4:	ae02      	add	r6, sp, #8
 80006d6:	9600      	str	r6, [sp, #0]
 80006d8:	b2c1      	uxtb	r1, r0
 80006da:	7812      	ldrb	r2, [r2, #0]
 80006dc:	2308      	movs	r3, #8
 80006de:	4628      	mov	r0, r5
 80006e0:	f000 f976 	bl	80009d0 <i2c_burst_read>
 80006e4:	2300      	movs	r3, #0
 80006e6:	461a      	mov	r2, r3
 80006e8:	2124      	movs	r1, #36	@ 0x24
 80006ea:	fa21 f003 	lsr.w	r0, r1, r3
 80006ee:	07c0      	lsls	r0, r0, #31
 80006f0:	bf5c      	itt	pl
 80006f2:	5cf0      	ldrbpl	r0, [r6, r3]
 80006f4:	54a0      	strbpl	r0, [r4, r2]
 80006f6:	f103 0301 	add.w	r3, r3, #1
 80006fa:	bf5c      	itt	pl
 80006fc:	3201      	addpl	r2, #1
 80006fe:	b2d2      	uxtbpl	r2, r2
 8000700:	2b08      	cmp	r3, #8
 8000702:	d1f2      	bne.n	80006ea <readTempHumPres+0x2e>
 8000704:	7823      	ldrb	r3, [r4, #0]
 8000706:	7862      	ldrb	r2, [r4, #1]
 8000708:	7022      	strb	r2, [r4, #0]
 800070a:	7063      	strb	r3, [r4, #1]
 800070c:	78e2      	ldrb	r2, [r4, #3]
 800070e:	78a3      	ldrb	r3, [r4, #2]
 8000710:	70e3      	strb	r3, [r4, #3]
 8000712:	70a2      	strb	r2, [r4, #2]
 8000714:	7923      	ldrb	r3, [r4, #4]
 8000716:	7962      	ldrb	r2, [r4, #5]
 8000718:	7122      	strb	r2, [r4, #4]
 800071a:	7163      	strb	r3, [r4, #5]
 800071c:	b004      	add	sp, #16
 800071e:	bd70      	pop	{r4, r5, r6, pc}
 8000720:	08005518 	.word	0x08005518
 8000724:	2000000a 	.word	0x2000000a

08000728 <sendCAN_TxMessage>:
 8000728:	b510      	push	{r4, lr}
 800072a:	b086      	sub	sp, #24
 800072c:	f8bd 4020 	ldrh.w	r4, [sp, #32]
 8000730:	9400      	str	r4, [sp, #0]
 8000732:	9104      	str	r1, [sp, #16]
 8000734:	2400      	movs	r4, #0
 8000736:	4669      	mov	r1, sp
 8000738:	e9cd 4402 	strd	r4, r4, [sp, #8]
 800073c:	f88d 4014 	strb.w	r4, [sp, #20]
 8000740:	f001 fedb 	bl	80024fa <HAL_CAN_AddTxMessage>
 8000744:	b006      	add	sp, #24
 8000746:	bd10      	pop	{r4, pc}

08000748 <check_status_register>:
 8000748:	b57f      	push	{r0, r1, r2, r3, r4, r5, r6, lr}
 800074a:	ab02      	add	r3, sp, #8
 800074c:	e883 0006 	stmia.w	r3, {r1, r2}
 8000750:	2300      	movs	r3, #0
 8000752:	f88d 3017 	strb.w	r3, [sp, #23]
 8000756:	f8bd 300c 	ldrh.w	r3, [sp, #12]
 800075a:	9300      	str	r3, [sp, #0]
 800075c:	f10d 0217 	add.w	r2, sp, #23
 8000760:	460b      	mov	r3, r1
 8000762:	4601      	mov	r1, r0
 8000764:	4803      	ldr	r0, [pc, #12]	@ (8000774 <check_status_register+0x2c>)
 8000766:	f001 f971 	bl	8001a4c <spi_sendOp_readByte>
 800076a:	f89d 0017 	ldrb.w	r0, [sp, #23]
 800076e:	b007      	add	sp, #28
 8000770:	f85d fb04 	ldr.w	pc, [sp], #4
 8000774:	20000015 	.word	0x20000015

08000778 <check_busy>:
 8000778:	e92d 41f3 	stmdb	sp!, {r0, r1, r4, r5, r6, r7, r8, lr}
 800077c:	466d      	mov	r5, sp
 800077e:	e885 0006 	stmia.w	r5, {r1, r2}
 8000782:	4607      	mov	r7, r0
 8000784:	4698      	mov	r8, r3
 8000786:	f001 fd71 	bl	800226c <HAL_GetTick>
 800078a:	4606      	mov	r6, r0
 800078c:	e895 0006 	ldmia.w	r5, {r1, r2}
 8000790:	4638      	mov	r0, r7
 8000792:	f7ff ffd9 	bl	8000748 <check_status_register>
 8000796:	f000 0401 	and.w	r4, r0, #1
 800079a:	f001 fd67 	bl	800226c <HAL_GetTick>
 800079e:	1b80      	subs	r0, r0, r6
 80007a0:	4540      	cmp	r0, r8
 80007a2:	d205      	bcs.n	80007b0 <check_busy+0x38>
 80007a4:	2c00      	cmp	r4, #0
 80007a6:	d1f1      	bne.n	800078c <check_busy+0x14>
 80007a8:	4620      	mov	r0, r4
 80007aa:	b002      	add	sp, #8
 80007ac:	e8bd 81f0 	ldmia.w	sp!, {r4, r5, r6, r7, r8, pc}
 80007b0:	2401      	movs	r4, #1
 80007b2:	e7f9      	b.n	80007a8 <check_busy+0x30>

080007b4 <write_enable_spi>:
 80007b4:	b082      	sub	sp, #8
 80007b6:	ab02      	add	r3, sp, #8
 80007b8:	e903 0006 	stmdb	r3, {r1, r2}
 80007bc:	460a      	mov	r2, r1
 80007be:	f8bd 3004 	ldrh.w	r3, [sp, #4]
 80007c2:	4601      	mov	r1, r0
 80007c4:	4801      	ldr	r0, [pc, #4]	@ (80007cc <write_enable_spi+0x18>)
 80007c6:	b002      	add	sp, #8
 80007c8:	f001 b962 	b.w	8001a90 <perform_operation>
 80007cc:	20000017 	.word	0x20000017

080007d0 <erase_chip_spi>:
 80007d0:	b537      	push	{r0, r1, r2, r4, r5, lr}
 80007d2:	466c      	mov	r4, sp
 80007d4:	e884 0006 	stmia.w	r4, {r1, r2}
 80007d8:	4605      	mov	r5, r0
 80007da:	e894 0006 	ldmia.w	r4, {r1, r2}
 80007de:	2305      	movs	r3, #5
 80007e0:	f7ff ffca 	bl	8000778 <check_busy>
 80007e4:	e894 0006 	ldmia.w	r4, {r1, r2}
 80007e8:	4628      	mov	r0, r5
 80007ea:	f7ff ffe3 	bl	80007b4 <write_enable_spi>
 80007ee:	f8bd 3004 	ldrh.w	r3, [sp, #4]
 80007f2:	9a00      	ldr	r2, [sp, #0]
 80007f4:	4806      	ldr	r0, [pc, #24]	@ (8000810 <erase_chip_spi+0x40>)
 80007f6:	4629      	mov	r1, r5
 80007f8:	f001 f94a 	bl	8001a90 <perform_operation>
 80007fc:	e894 0006 	ldmia.w	r4, {r1, r2}
 8000800:	4b04      	ldr	r3, [pc, #16]	@ (8000814 <erase_chip_spi+0x44>)
 8000802:	4628      	mov	r0, r5
 8000804:	f7ff ffb8 	bl	8000778 <check_busy>
 8000808:	2000      	movs	r0, #0
 800080a:	b003      	add	sp, #12
 800080c:	bd30      	pop	{r4, r5, pc}
 800080e:	bf00      	nop
 8000810:	20000012 	.word	0x20000012
 8000814:	00030d40 	.word	0x00030d40

08000818 <software_reset>:
 8000818:	b5f7      	push	{r0, r1, r2, r4, r5, r6, r7, lr}
 800081a:	466d      	mov	r5, sp
 800081c:	e885 0006 	stmia.w	r5, {r1, r2}
 8000820:	f8bd 7004 	ldrh.w	r7, [sp, #4]
 8000824:	4604      	mov	r4, r0
 8000826:	460e      	mov	r6, r1
 8000828:	2305      	movs	r3, #5
 800082a:	e895 0006 	ldmia.w	r5, {r1, r2}
 800082e:	f7ff ffa3 	bl	8000778 <check_busy>
 8000832:	463b      	mov	r3, r7
 8000834:	4632      	mov	r2, r6
 8000836:	4621      	mov	r1, r4
 8000838:	4807      	ldr	r0, [pc, #28]	@ (8000858 <software_reset+0x40>)
 800083a:	f001 f929 	bl	8001a90 <perform_operation>
 800083e:	463b      	mov	r3, r7
 8000840:	4632      	mov	r2, r6
 8000842:	4621      	mov	r1, r4
 8000844:	4805      	ldr	r0, [pc, #20]	@ (800085c <software_reset+0x44>)
 8000846:	f001 f923 	bl	8001a90 <perform_operation>
 800084a:	2005      	movs	r0, #5
 800084c:	b003      	add	sp, #12
 800084e:	e8bd 40f0 	ldmia.w	sp!, {r4, r5, r6, r7, lr}
 8000852:	f001 bd11 	b.w	8002278 <HAL_Delay>
 8000856:	bf00      	nop
 8000858:	20000011 	.word	0x20000011
 800085c:	20000010 	.word	0x20000010

08000860 <write_data_spi_dma>:
 8000860:	b082      	sub	sp, #8
 8000862:	b5f0      	push	{r4, r5, r6, r7, lr}
 8000864:	b085      	sub	sp, #20
 8000866:	ac0a      	add	r4, sp, #40	@ 0x28
 8000868:	460d      	mov	r5, r1
 800086a:	f844 3f04 	str.w	r3, [r4, #4]!
 800086e:	4606      	mov	r6, r0
 8000870:	4617      	mov	r7, r2
 8000872:	2305      	movs	r3, #5
 8000874:	e894 0006 	ldmia.w	r4, {r1, r2}
 8000878:	4628      	mov	r0, r5
 800087a:	f7ff ff7d 	bl	8000778 <check_busy>
 800087e:	e894 0006 	ldmia.w	r4, {r1, r2}
 8000882:	4628      	mov	r0, r5
 8000884:	f7ff ff96 	bl	80007b4 <write_enable_spi>
 8000888:	f8bd 3030 	ldrh.w	r3, [sp, #48]	@ 0x30
 800088c:	9302      	str	r3, [sp, #8]
 800088e:	9b0b      	ldr	r3, [sp, #44]	@ 0x2c
 8000890:	4807      	ldr	r0, [pc, #28]	@ (80008b0 <write_data_spi_dma+0x50>)
 8000892:	e9cd 7300 	strd	r7, r3, [sp]
 8000896:	4632      	mov	r2, r6
 8000898:	462b      	mov	r3, r5
 800089a:	f44f 7180 	mov.w	r1, #256	@ 0x100
 800089e:	f001 f951 	bl	8001b44 <spi_write_data_dma>
 80008a2:	2000      	movs	r0, #0
 80008a4:	b005      	add	sp, #20
 80008a6:	e8bd 40f0 	ldmia.w	sp!, {r4, r5, r6, r7, lr}
 80008aa:	b002      	add	sp, #8
 80008ac:	4770      	bx	lr
 80008ae:	bf00      	nop
 80008b0:	20000016 	.word	0x20000016

080008b4 <find_next_blank_page>:
 80008b4:	e92d 41f0 	stmdb	sp!, {r4, r5, r6, r7, r8, lr}
 80008b8:	b088      	sub	sp, #32
 80008ba:	ae04      	add	r6, sp, #16
 80008bc:	e886 000c 	stmia.w	r6, {r2, r3}
 80008c0:	2400      	movs	r4, #0
 80008c2:	f8df 8054 	ldr.w	r8, [pc, #84]	@ 8000918 <find_next_blank_page+0x64>
 80008c6:	9407      	str	r4, [sp, #28]
 80008c8:	4605      	mov	r5, r0
 80008ca:	460f      	mov	r7, r1
 80008cc:	e896 0006 	ldmia.w	r6, {r1, r2}
 80008d0:	2305      	movs	r3, #5
 80008d2:	4628      	mov	r0, r5
 80008d4:	f7ff ff50 	bl	8000778 <check_busy>
 80008d8:	f8bd 3014 	ldrh.w	r3, [sp, #20]
 80008dc:	9302      	str	r3, [sp, #8]
 80008de:	9b04      	ldr	r3, [sp, #16]
 80008e0:	aa07      	add	r2, sp, #28
 80008e2:	e9cd 4300 	strd	r4, r3, [sp]
 80008e6:	2104      	movs	r1, #4
 80008e8:	462b      	mov	r3, r5
 80008ea:	4640      	mov	r0, r8
 80008ec:	f001 f8e8 	bl	8001ac0 <spi_read_data>
 80008f0:	9b07      	ldr	r3, [sp, #28]
 80008f2:	3301      	adds	r3, #1
 80008f4:	f504 7280 	add.w	r2, r4, #256	@ 0x100
 80008f8:	d10c      	bne.n	8000914 <find_next_blank_page+0x60>
 80008fa:	f5b2 3f80 	cmp.w	r2, #65536	@ 0x10000
 80008fe:	d009      	beq.n	8000914 <find_next_blank_page+0x60>
 8000900:	f1b4 7f80 	cmp.w	r4, #16777216	@ 0x1000000
 8000904:	bf08      	it	eq
 8000906:	2300      	moveq	r3, #0
 8000908:	4620      	mov	r0, r4
 800090a:	bf08      	it	eq
 800090c:	703b      	strbeq	r3, [r7, #0]
 800090e:	b008      	add	sp, #32
 8000910:	e8bd 81f0 	ldmia.w	sp!, {r4, r5, r6, r7, r8, pc}
 8000914:	4614      	mov	r4, r2
 8000916:	e7d9      	b.n	80008cc <find_next_blank_page+0x18>
 8000918:	20000014 	.word	0x20000014

0800091c <read_page_spi>:
 800091c:	b082      	sub	sp, #8
 800091e:	b57f      	push	{r0, r1, r2, r3, r4, r5, r6, lr}
 8000920:	460c      	mov	r4, r1
 8000922:	a908      	add	r1, sp, #32
 8000924:	4605      	mov	r5, r0
 8000926:	f841 3f04 	str.w	r3, [r1, #4]!
 800092a:	4616      	mov	r6, r2
 800092c:	2305      	movs	r3, #5
 800092e:	c906      	ldmia	r1, {r1, r2}
 8000930:	4620      	mov	r0, r4
 8000932:	f7ff ff21 	bl	8000778 <check_busy>
 8000936:	f8bd 3028 	ldrh.w	r3, [sp, #40]	@ 0x28
 800093a:	9302      	str	r3, [sp, #8]
 800093c:	9b09      	ldr	r3, [sp, #36]	@ 0x24
 800093e:	4807      	ldr	r0, [pc, #28]	@ (800095c <read_page_spi+0x40>)
 8000940:	e9cd 6300 	strd	r6, r3, [sp]
 8000944:	462a      	mov	r2, r5
 8000946:	4623      	mov	r3, r4
 8000948:	f44f 7180 	mov.w	r1, #256	@ 0x100
 800094c:	f001 f8b8 	bl	8001ac0 <spi_read_data>
 8000950:	b004      	add	sp, #16
 8000952:	e8bd 4070 	ldmia.w	sp!, {r4, r5, r6, lr}
 8000956:	b002      	add	sp, #8
 8000958:	4770      	bx	lr
 800095a:	bf00      	nop
 800095c:	20000014 	.word	0x20000014

08000960 <read_manufacturer_id>:
 8000960:	b530      	push	{r4, r5, lr}
 8000962:	b087      	sub	sp, #28
 8000964:	460c      	mov	r4, r1
 8000966:	a904      	add	r1, sp, #16
 8000968:	e881 000c 	stmia.w	r1, {r2, r3}
 800096c:	4605      	mov	r5, r0
 800096e:	c906      	ldmia	r1, {r1, r2}
 8000970:	2305      	movs	r3, #5
 8000972:	4620      	mov	r0, r4
 8000974:	f7ff ff00 	bl	8000778 <check_busy>
 8000978:	f8bd 3014 	ldrh.w	r3, [sp, #20]
 800097c:	9302      	str	r3, [sp, #8]
 800097e:	9b04      	ldr	r3, [sp, #16]
 8000980:	9301      	str	r3, [sp, #4]
 8000982:	2300      	movs	r3, #0
 8000984:	9300      	str	r3, [sp, #0]
 8000986:	462a      	mov	r2, r5
 8000988:	4623      	mov	r3, r4
 800098a:	2102      	movs	r1, #2
 800098c:	4802      	ldr	r0, [pc, #8]	@ (8000998 <read_manufacturer_id+0x38>)
 800098e:	f001 f897 	bl	8001ac0 <spi_read_data>
 8000992:	b007      	add	sp, #28
 8000994:	bd30      	pop	{r4, r5, pc}
 8000996:	bf00      	nop
 8000998:	20000013 	.word	0x20000013

0800099c <create_GPIO_Config>:
 800099c:	6001      	str	r1, [r0, #0]
 800099e:	8082      	strh	r2, [r0, #4]
 80009a0:	4770      	bx	lr

080009a2 <i2c_read_reg>:
 80009a2:	b5f7      	push	{r0, r1, r2, r4, r5, r6, r7, lr}
 80009a4:	4614      	mov	r4, r2
 80009a6:	2501      	movs	r5, #1
 80009a8:	0064      	lsls	r4, r4, #1
 80009aa:	4606      	mov	r6, r0
 80009ac:	460f      	mov	r7, r1
 80009ae:	461a      	mov	r2, r3
 80009b0:	f004 01fe 	and.w	r1, r4, #254	@ 0xfe
 80009b4:	462b      	mov	r3, r5
 80009b6:	9500      	str	r5, [sp, #0]
 80009b8:	f002 fc9a 	bl	80032f0 <HAL_I2C_Master_Transmit>
 80009bc:	9500      	str	r5, [sp, #0]
 80009be:	462b      	mov	r3, r5
 80009c0:	463a      	mov	r2, r7
 80009c2:	ea44 0105 	orr.w	r1, r4, r5
 80009c6:	4630      	mov	r0, r6
 80009c8:	f002 fd6c 	bl	80034a4 <HAL_I2C_Master_Receive>
 80009cc:	b003      	add	sp, #12
 80009ce:	bdf0      	pop	{r4, r5, r6, r7, pc}

080009d0 <i2c_burst_read>:
 80009d0:	b57f      	push	{r0, r1, r2, r3, r4, r5, r6, lr}
 80009d2:	461e      	mov	r6, r3
 80009d4:	004c      	lsls	r4, r1, #1
 80009d6:	2301      	movs	r3, #1
 80009d8:	f062 027f 	orn	r2, r2, #127	@ 0x7f
 80009dc:	f88d 200f 	strb.w	r2, [sp, #15]
 80009e0:	9300      	str	r3, [sp, #0]
 80009e2:	f10d 020f 	add.w	r2, sp, #15
 80009e6:	f004 01fe 	and.w	r1, r4, #254	@ 0xfe
 80009ea:	4605      	mov	r5, r0
 80009ec:	f002 fc80 	bl	80032f0 <HAL_I2C_Master_Transmit>
 80009f0:	230a      	movs	r3, #10
 80009f2:	9300      	str	r3, [sp, #0]
 80009f4:	9a08      	ldr	r2, [sp, #32]
 80009f6:	4633      	mov	r3, r6
 80009f8:	f044 0101 	orr.w	r1, r4, #1
 80009fc:	4628      	mov	r0, r5
 80009fe:	f002 fd51 	bl	80034a4 <HAL_I2C_Master_Receive>
 8000a02:	b004      	add	sp, #16
 8000a04:	bd70      	pop	{r4, r5, r6, pc}

08000a06 <i2c_write_reg>:
 8000a06:	b51f      	push	{r0, r1, r2, r3, r4, lr}
 8000a08:	0049      	lsls	r1, r1, #1
 8000a0a:	7812      	ldrb	r2, [r2, #0]
 8000a0c:	f88d 300d 	strb.w	r3, [sp, #13]
 8000a10:	2301      	movs	r3, #1
 8000a12:	f88d 200c 	strb.w	r2, [sp, #12]
 8000a16:	9300      	str	r3, [sp, #0]
 8000a18:	aa03      	add	r2, sp, #12
 8000a1a:	2302      	movs	r3, #2
 8000a1c:	f001 01fe 	and.w	r1, r1, #254	@ 0xfe
 8000a20:	f002 fc66 	bl	80032f0 <HAL_I2C_Master_Transmit>
 8000a24:	b005      	add	sp, #20
 8000a26:	f85d fb04 	ldr.w	pc, [sp], #4
	...

08000a2c <SystemClock_Config>:
 8000a2c:	b530      	push	{r4, r5, lr}
 8000a2e:	2400      	movs	r4, #0
 8000a30:	b095      	sub	sp, #84	@ 0x54
 8000a32:	2214      	movs	r2, #20
 8000a34:	4621      	mov	r1, r4
 8000a36:	a803      	add	r0, sp, #12
 8000a38:	e9cd 4409 	strd	r4, r4, [sp, #36]	@ 0x24
 8000a3c:	f004 fd34 	bl	80054a8 <memset>
 8000a40:	4b1f      	ldr	r3, [pc, #124]	@ (8000ac0 <SystemClock_Config+0x94>)
 8000a42:	9401      	str	r4, [sp, #4]
 8000a44:	6c1a      	ldr	r2, [r3, #64]	@ 0x40
 8000a46:	f042 5280 	orr.w	r2, r2, #268435456	@ 0x10000000
 8000a4a:	641a      	str	r2, [r3, #64]	@ 0x40
 8000a4c:	6c1b      	ldr	r3, [r3, #64]	@ 0x40
 8000a4e:	f003 5380 	and.w	r3, r3, #268435456	@ 0x10000000
 8000a52:	9301      	str	r3, [sp, #4]
 8000a54:	9b01      	ldr	r3, [sp, #4]
 8000a56:	4b1b      	ldr	r3, [pc, #108]	@ (8000ac4 <SystemClock_Config+0x98>)
 8000a58:	9402      	str	r4, [sp, #8]
 8000a5a:	681a      	ldr	r2, [r3, #0]
 8000a5c:	f442 4240 	orr.w	r2, r2, #49152	@ 0xc000
 8000a60:	601a      	str	r2, [r3, #0]
 8000a62:	681b      	ldr	r3, [r3, #0]
 8000a64:	f403 4340 	and.w	r3, r3, #49152	@ 0xc000
 8000a68:	9302      	str	r3, [sp, #8]
 8000a6a:	9b02      	ldr	r3, [sp, #8]
 8000a6c:	230a      	movs	r3, #10
 8000a6e:	2201      	movs	r2, #1
 8000a70:	9308      	str	r3, [sp, #32]
 8000a72:	2310      	movs	r3, #16
 8000a74:	2502      	movs	r5, #2
 8000a76:	e9cd 230b 	strd	r2, r3, [sp, #44]	@ 0x2c
 8000a7a:	9310      	str	r3, [sp, #64]	@ 0x40
 8000a7c:	f44f 73a8 	mov.w	r3, #336	@ 0x150
 8000a80:	e9cd 3511 	strd	r3, r5, [sp, #68]	@ 0x44
 8000a84:	a808      	add	r0, sp, #32
 8000a86:	2304      	movs	r3, #4
 8000a88:	e9cd 540e 	strd	r5, r4, [sp, #56]	@ 0x38
 8000a8c:	920d      	str	r2, [sp, #52]	@ 0x34
 8000a8e:	9313      	str	r3, [sp, #76]	@ 0x4c
 8000a90:	f002 fedc 	bl	800384c <HAL_RCC_OscConfig>
 8000a94:	b108      	cbz	r0, 8000a9a <SystemClock_Config+0x6e>
 8000a96:	b672      	cpsid	i
 8000a98:	e7fe      	b.n	8000a98 <SystemClock_Config+0x6c>
 8000a9a:	230f      	movs	r3, #15
 8000a9c:	e9cd 3503 	strd	r3, r5, [sp, #12]
 8000aa0:	9005      	str	r0, [sp, #20]
 8000aa2:	f44f 52a0 	mov.w	r2, #5120	@ 0x1400
 8000aa6:	f44f 5380 	mov.w	r3, #4096	@ 0x1000
 8000aaa:	2105      	movs	r1, #5
 8000aac:	a803      	add	r0, sp, #12
 8000aae:	e9cd 2306 	strd	r2, r3, [sp, #24]
 8000ab2:	f003 f8a7 	bl	8003c04 <HAL_RCC_ClockConfig>
 8000ab6:	b108      	cbz	r0, 8000abc <SystemClock_Config+0x90>
 8000ab8:	b672      	cpsid	i
 8000aba:	e7fe      	b.n	8000aba <SystemClock_Config+0x8e>
 8000abc:	b015      	add	sp, #84	@ 0x54
 8000abe:	bd30      	pop	{r4, r5, pc}
 8000ac0:	40023800 	.word	0x40023800
 8000ac4:	40007000 	.word	0x40007000

08000ac8 <clean_data_buffer>:
 8000ac8:	4602      	mov	r2, r0
 8000aca:	4608      	mov	r0, r1
 8000acc:	21ff      	movs	r1, #255	@ 0xff
 8000ace:	f004 bceb 	b.w	80054a8 <memset>
	...

08000ad4 <gpio_set_config>:
 8000ad4:	b5f7      	push	{r0, r1, r2, r4, r5, r6, r7, lr}
 8000ad6:	4d2c      	ldr	r5, [pc, #176]	@ (8000b88 <gpio_set_config+0xb4>)
 8000ad8:	4e2c      	ldr	r6, [pc, #176]	@ (8000b8c <gpio_set_config+0xb8>)
 8000ada:	4f2d      	ldr	r7, [pc, #180]	@ (8000b90 <gpio_set_config+0xbc>)
 8000adc:	466c      	mov	r4, sp
 8000ade:	4629      	mov	r1, r5
 8000ae0:	4620      	mov	r0, r4
 8000ae2:	f44f 4280 	mov.w	r2, #16384	@ 0x4000
 8000ae6:	f7ff ff59 	bl	800099c <create_GPIO_Config>
 8000aea:	e894 0003 	ldmia.w	r4, {r0, r1}
 8000aee:	f44f 5200 	mov.w	r2, #8192	@ 0x2000
 8000af2:	e886 0003 	stmia.w	r6, {r0, r1}
 8000af6:	4629      	mov	r1, r5
 8000af8:	4620      	mov	r0, r4
 8000afa:	f7ff ff4f 	bl	800099c <create_GPIO_Config>
 8000afe:	e894 0003 	ldmia.w	r4, {r0, r1}
 8000b02:	4e24      	ldr	r6, [pc, #144]	@ (8000b94 <gpio_set_config+0xc0>)
 8000b04:	f44f 5280 	mov.w	r2, #4096	@ 0x1000
 8000b08:	e886 0003 	stmia.w	r6, {r0, r1}
 8000b0c:	4629      	mov	r1, r5
 8000b0e:	4620      	mov	r0, r4
 8000b10:	f7ff ff44 	bl	800099c <create_GPIO_Config>
 8000b14:	e894 0003 	ldmia.w	r4, {r0, r1}
 8000b18:	4e1f      	ldr	r6, [pc, #124]	@ (8000b98 <gpio_set_config+0xc4>)
 8000b1a:	e886 0003 	stmia.w	r6, {r0, r1}
 8000b1e:	4e1f      	ldr	r6, [pc, #124]	@ (8000b9c <gpio_set_config+0xc8>)
 8000b20:	4620      	mov	r0, r4
 8000b22:	4631      	mov	r1, r6
 8000b24:	2210      	movs	r2, #16
 8000b26:	f7ff ff39 	bl	800099c <create_GPIO_Config>
 8000b2a:	e894 0003 	ldmia.w	r4, {r0, r1}
 8000b2e:	2210      	movs	r2, #16
 8000b30:	e887 0003 	stmia.w	r7, {r0, r1}
 8000b34:	4620      	mov	r0, r4
 8000b36:	491a      	ldr	r1, [pc, #104]	@ (8000ba0 <gpio_set_config+0xcc>)
 8000b38:	4f1a      	ldr	r7, [pc, #104]	@ (8000ba4 <gpio_set_config+0xd0>)
 8000b3a:	f7ff ff2f 	bl	800099c <create_GPIO_Config>
 8000b3e:	e894 0003 	ldmia.w	r4, {r0, r1}
 8000b42:	2202      	movs	r2, #2
 8000b44:	e887 0003 	stmia.w	r7, {r0, r1}
 8000b48:	4631      	mov	r1, r6
 8000b4a:	4620      	mov	r0, r4
 8000b4c:	f7ff ff26 	bl	800099c <create_GPIO_Config>
 8000b50:	e894 0003 	ldmia.w	r4, {r0, r1}
 8000b54:	4f14      	ldr	r7, [pc, #80]	@ (8000ba8 <gpio_set_config+0xd4>)
 8000b56:	2201      	movs	r2, #1
 8000b58:	e887 0003 	stmia.w	r7, {r0, r1}
 8000b5c:	4631      	mov	r1, r6
 8000b5e:	4620      	mov	r0, r4
 8000b60:	f7ff ff1c 	bl	800099c <create_GPIO_Config>
 8000b64:	e894 0003 	ldmia.w	r4, {r0, r1}
 8000b68:	4f10      	ldr	r7, [pc, #64]	@ (8000bac <gpio_set_config+0xd8>)
 8000b6a:	4e11      	ldr	r6, [pc, #68]	@ (8000bb0 <gpio_set_config+0xdc>)
 8000b6c:	e887 0003 	stmia.w	r7, {r0, r1}
 8000b70:	2202      	movs	r2, #2
 8000b72:	4629      	mov	r1, r5
 8000b74:	4620      	mov	r0, r4
 8000b76:	f7ff ff11 	bl	800099c <create_GPIO_Config>
 8000b7a:	e894 0003 	ldmia.w	r4, {r0, r1}
 8000b7e:	e886 0003 	stmia.w	r6, {r0, r1}
 8000b82:	b003      	add	sp, #12
 8000b84:	bdf0      	pop	{r4, r5, r6, r7, pc}
 8000b86:	bf00      	nop
 8000b88:	40020400 	.word	0x40020400
 8000b8c:	20000080 	.word	0x20000080
 8000b90:	20000068 	.word	0x20000068
 8000b94:	20000078 	.word	0x20000078
 8000b98:	20000070 	.word	0x20000070
 8000b9c:	40020800 	.word	0x40020800
 8000ba0:	40020000 	.word	0x40020000
 8000ba4:	20000060 	.word	0x20000060
 8000ba8:	20000058 	.word	0x20000058
 8000bac:	20000050 	.word	0x20000050
 8000bb0:	20000048 	.word	0x20000048

08000bb4 <handleCAN>:
 8000bb4:	b51f      	push	{r0, r1, r2, r3, r4, lr}
 8000bb6:	4b1c      	ldr	r3, [pc, #112]	@ (8000c28 <handleCAN+0x74>)
 8000bb8:	681b      	ldr	r3, [r3, #0]
 8000bba:	f240 72ff 	movw	r2, #2047	@ 0x7ff
 8000bbe:	4293      	cmp	r3, r2
 8000bc0:	d10e      	bne.n	8000be0 <handleCAN+0x2c>
 8000bc2:	4a1a      	ldr	r2, [pc, #104]	@ (8000c2c <handleCAN+0x78>)
 8000bc4:	2101      	movs	r1, #1
 8000bc6:	7011      	strb	r1, [r2, #0]
 8000bc8:	2200      	movs	r2, #0
 8000bca:	9300      	str	r3, [sp, #0]
 8000bcc:	4b18      	ldr	r3, [pc, #96]	@ (8000c30 <handleCAN+0x7c>)
 8000bce:	f88d 200c 	strb.w	r2, [sp, #12]
 8000bd2:	aa03      	add	r2, sp, #12
 8000bd4:	4817      	ldr	r0, [pc, #92]	@ (8000c34 <handleCAN+0x80>)
 8000bd6:	f7ff fda7 	bl	8000728 <sendCAN_TxMessage>
 8000bda:	b005      	add	sp, #20
 8000bdc:	f85d fb04 	ldr.w	pc, [sp], #4
 8000be0:	f240 5201 	movw	r2, #1281	@ 0x501
 8000be4:	4293      	cmp	r3, r2
 8000be6:	d104      	bne.n	8000bf2 <handleCAN+0x3e>
 8000be8:	9300      	str	r3, [sp, #0]
 8000bea:	4a13      	ldr	r2, [pc, #76]	@ (8000c38 <handleCAN+0x84>)
 8000bec:	4b10      	ldr	r3, [pc, #64]	@ (8000c30 <handleCAN+0x7c>)
 8000bee:	2106      	movs	r1, #6
 8000bf0:	e7f0      	b.n	8000bd4 <handleCAN+0x20>
 8000bf2:	f240 5202 	movw	r2, #1282	@ 0x502
 8000bf6:	4293      	cmp	r3, r2
 8000bf8:	d103      	bne.n	8000c02 <handleCAN+0x4e>
 8000bfa:	9300      	str	r3, [sp, #0]
 8000bfc:	4a0f      	ldr	r2, [pc, #60]	@ (8000c3c <handleCAN+0x88>)
 8000bfe:	4b0c      	ldr	r3, [pc, #48]	@ (8000c30 <handleCAN+0x7c>)
 8000c00:	e7f5      	b.n	8000bee <handleCAN+0x3a>
 8000c02:	f240 5203 	movw	r2, #1283	@ 0x503
 8000c06:	4293      	cmp	r3, r2
 8000c08:	d103      	bne.n	8000c12 <handleCAN+0x5e>
 8000c0a:	9300      	str	r3, [sp, #0]
 8000c0c:	4a0c      	ldr	r2, [pc, #48]	@ (8000c40 <handleCAN+0x8c>)
 8000c0e:	4b08      	ldr	r3, [pc, #32]	@ (8000c30 <handleCAN+0x7c>)
 8000c10:	e7ed      	b.n	8000bee <handleCAN+0x3a>
 8000c12:	f5b3 6fe0 	cmp.w	r3, #1792	@ 0x700
 8000c16:	d1e0      	bne.n	8000bda <handleCAN+0x26>
 8000c18:	4b0a      	ldr	r3, [pc, #40]	@ (8000c44 <handleCAN+0x90>)
 8000c1a:	480b      	ldr	r0, [pc, #44]	@ (8000c48 <handleCAN+0x94>)
 8000c1c:	7819      	ldrb	r1, [r3, #0]
 8000c1e:	b005      	add	sp, #20
 8000c20:	f85d eb04 	ldr.w	lr, [sp], #4
 8000c24:	f001 baa1 	b.w	800216a <send_uart_hex>
 8000c28:	200002b0 	.word	0x200002b0
 8000c2c:	20000045 	.word	0x20000045
 8000c30:	200002cc 	.word	0x200002cc
 8000c34:	200005ec 	.word	0x200005ec
 8000c38:	20000097 	.word	0x20000097
 8000c3c:	20000091 	.word	0x20000091
 8000c40:	2000009d 	.word	0x2000009d
 8000c44:	20000046 	.word	0x20000046
 8000c48:	200002dc 	.word	0x200002dc

08000c4c <decodeASCII>:
 8000c4c:	3830      	subs	r0, #48	@ 0x30
 8000c4e:	b2c3      	uxtb	r3, r0
 8000c50:	2b09      	cmp	r3, #9
 8000c52:	bf88      	it	hi
 8000c54:	f04f 30ff 	movhi.w	r0, #4294967295	@ 0xffffffff
 8000c58:	b2c0      	uxtb	r0, r0
 8000c5a:	4770      	bx	lr

08000c5c <handleUART>:
 8000c5c:	b5f0      	push	{r4, r5, r6, r7, lr}
 8000c5e:	4c7d      	ldr	r4, [pc, #500]	@ (8000e54 <handleUART+0x1f8>)
 8000c60:	7823      	ldrb	r3, [r4, #0]
 8000c62:	2b68      	cmp	r3, #104	@ 0x68
 8000c64:	b085      	sub	sp, #20
 8000c66:	d10c      	bne.n	8000c82 <handleUART+0x26>
 8000c68:	487b      	ldr	r0, [pc, #492]	@ (8000e58 <handleUART+0x1fc>)
 8000c6a:	f000 fd0f 	bl	800168c <heartbeatUART>
 8000c6e:	4b7b      	ldr	r3, [pc, #492]	@ (8000e5c <handleUART+0x200>)
 8000c70:	4879      	ldr	r0, [pc, #484]	@ (8000e58 <handleUART+0x1fc>)
 8000c72:	7819      	ldrb	r1, [r3, #0]
 8000c74:	f001 fa79 	bl	800216a <send_uart_hex>
 8000c78:	2300      	movs	r3, #0
 8000c7a:	7023      	strb	r3, [r4, #0]
 8000c7c:	7063      	strb	r3, [r4, #1]
 8000c7e:	b005      	add	sp, #20
 8000c80:	bdf0      	pop	{r4, r5, r6, r7, pc}
 8000c82:	3b61      	subs	r3, #97	@ 0x61
 8000c84:	2b17      	cmp	r3, #23
 8000c86:	d8f7      	bhi.n	8000c78 <handleUART+0x1c>
 8000c88:	a201      	add	r2, pc, #4	@ (adr r2, 8000c90 <handleUART+0x34>)
 8000c8a:	f852 f023 	ldr.w	pc, [r2, r3, lsl #2]
 8000c8e:	bf00      	nop
 8000c90:	08000df5 	.word	0x08000df5
 8000c94:	08000dfd 	.word	0x08000dfd
 8000c98:	08000de9 	.word	0x08000de9
 8000c9c:	08000c79 	.word	0x08000c79
 8000ca0:	08000cf1 	.word	0x08000cf1
 8000ca4:	08000c79 	.word	0x08000c79
 8000ca8:	08000c79 	.word	0x08000c79
 8000cac:	08000c79 	.word	0x08000c79
 8000cb0:	08000c79 	.word	0x08000c79
 8000cb4:	08000c79 	.word	0x08000c79
 8000cb8:	08000c79 	.word	0x08000c79
 8000cbc:	08000c79 	.word	0x08000c79
 8000cc0:	08000d77 	.word	0x08000d77
 8000cc4:	08000e39 	.word	0x08000e39
 8000cc8:	08000c79 	.word	0x08000c79
 8000ccc:	08000e13 	.word	0x08000e13
 8000cd0:	08000c79 	.word	0x08000c79
 8000cd4:	08000d53 	.word	0x08000d53
 8000cd8:	08000c79 	.word	0x08000c79
 8000cdc:	08000e29 	.word	0x08000e29
 8000ce0:	08000c79 	.word	0x08000c79
 8000ce4:	08000c79 	.word	0x08000c79
 8000ce8:	08000d9d 	.word	0x08000d9d
 8000cec:	08000dc3 	.word	0x08000dc3
 8000cf0:	4d5b      	ldr	r5, [pc, #364]	@ (8000e60 <handleUART+0x204>)
 8000cf2:	4f5c      	ldr	r7, [pc, #368]	@ (8000e64 <handleUART+0x208>)
 8000cf4:	6828      	ldr	r0, [r5, #0]
 8000cf6:	88a9      	ldrh	r1, [r5, #4]
 8000cf8:	4e5b      	ldr	r6, [pc, #364]	@ (8000e68 <handleUART+0x20c>)
 8000cfa:	2201      	movs	r2, #1
 8000cfc:	f002 f912 	bl	8002f24 <HAL_GPIO_WritePin>
 8000d00:	7860      	ldrb	r0, [r4, #1]
 8000d02:	f7ff ffa3 	bl	8000c4c <decodeASCII>
 8000d06:	b9e8      	cbnz	r0, 8000d44 <handleUART+0xe8>
 8000d08:	e897 000c 	ldmia.w	r7, {r2, r3}
 8000d0c:	4952      	ldr	r1, [pc, #328]	@ (8000e58 <handleUART+0x1fc>)
 8000d0e:	4857      	ldr	r0, [pc, #348]	@ (8000e6c <handleUART+0x210>)
 8000d10:	f000 fcc0 	bl	8001694 <eraseFlashSPI>
 8000d14:	e897 000c 	ldmia.w	r7, {r2, r3}
 8000d18:	4955      	ldr	r1, [pc, #340]	@ (8000e70 <handleUART+0x214>)
 8000d1a:	4854      	ldr	r0, [pc, #336]	@ (8000e6c <handleUART+0x210>)
 8000d1c:	f7ff fdca 	bl	80008b4 <find_next_blank_page>
 8000d20:	e896 000c 	ldmia.w	r6, {r2, r3}
 8000d24:	4607      	mov	r7, r0
 8000d26:	4952      	ldr	r1, [pc, #328]	@ (8000e70 <handleUART+0x214>)
 8000d28:	4852      	ldr	r0, [pc, #328]	@ (8000e74 <handleUART+0x218>)
 8000d2a:	f7ff fdc3 	bl	80008b4 <find_next_blank_page>
 8000d2e:	4b52      	ldr	r3, [pc, #328]	@ (8000e78 <handleUART+0x21c>)
 8000d30:	88a9      	ldrh	r1, [r5, #4]
 8000d32:	4287      	cmp	r7, r0
 8000d34:	bfac      	ite	ge
 8000d36:	601f      	strge	r7, [r3, #0]
 8000d38:	6018      	strlt	r0, [r3, #0]
 8000d3a:	2200      	movs	r2, #0
 8000d3c:	6828      	ldr	r0, [r5, #0]
 8000d3e:	f002 f8f1 	bl	8002f24 <HAL_GPIO_WritePin>
 8000d42:	e799      	b.n	8000c78 <handleUART+0x1c>
 8000d44:	2801      	cmp	r0, #1
 8000d46:	d1e5      	bne.n	8000d14 <handleUART+0xb8>
 8000d48:	e896 000c 	ldmia.w	r6, {r2, r3}
 8000d4c:	4942      	ldr	r1, [pc, #264]	@ (8000e58 <handleUART+0x1fc>)
 8000d4e:	4849      	ldr	r0, [pc, #292]	@ (8000e74 <handleUART+0x218>)
 8000d50:	e7de      	b.n	8000d10 <handleUART+0xb4>
 8000d52:	7860      	ldrb	r0, [r4, #1]
 8000d54:	f7ff ff7a 	bl	8000c4c <decodeASCII>
 8000d58:	b930      	cbnz	r0, 8000d68 <handleUART+0x10c>
 8000d5a:	4b42      	ldr	r3, [pc, #264]	@ (8000e64 <handleUART+0x208>)
 8000d5c:	493e      	ldr	r1, [pc, #248]	@ (8000e58 <handleUART+0x1fc>)
 8000d5e:	4843      	ldr	r0, [pc, #268]	@ (8000e6c <handleUART+0x210>)
 8000d60:	cb0c      	ldmia	r3, {r2, r3}
 8000d62:	f000 fcad 	bl	80016c0 <readFlashToUART>
 8000d66:	e787      	b.n	8000c78 <handleUART+0x1c>
 8000d68:	2801      	cmp	r0, #1
 8000d6a:	d185      	bne.n	8000c78 <handleUART+0x1c>
 8000d6c:	4b3e      	ldr	r3, [pc, #248]	@ (8000e68 <handleUART+0x20c>)
 8000d6e:	493a      	ldr	r1, [pc, #232]	@ (8000e58 <handleUART+0x1fc>)
 8000d70:	4840      	ldr	r0, [pc, #256]	@ (8000e74 <handleUART+0x218>)
 8000d72:	cb0c      	ldmia	r3, {r2, r3}
 8000d74:	e7f5      	b.n	8000d62 <handleUART+0x106>
 8000d76:	7860      	ldrb	r0, [r4, #1]
 8000d78:	f7ff ff68 	bl	8000c4c <decodeASCII>
 8000d7c:	b930      	cbnz	r0, 8000d8c <handleUART+0x130>
 8000d7e:	4b39      	ldr	r3, [pc, #228]	@ (8000e64 <handleUART+0x208>)
 8000d80:	4935      	ldr	r1, [pc, #212]	@ (8000e58 <handleUART+0x1fc>)
 8000d82:	483a      	ldr	r0, [pc, #232]	@ (8000e6c <handleUART+0x210>)
 8000d84:	cb0c      	ldmia	r3, {r2, r3}
 8000d86:	f000 fccf 	bl	8001728 <readFlashManuSPI>
 8000d8a:	e775      	b.n	8000c78 <handleUART+0x1c>
 8000d8c:	2801      	cmp	r0, #1
 8000d8e:	f47f af73 	bne.w	8000c78 <handleUART+0x1c>
 8000d92:	4b35      	ldr	r3, [pc, #212]	@ (8000e68 <handleUART+0x20c>)
 8000d94:	4930      	ldr	r1, [pc, #192]	@ (8000e58 <handleUART+0x1fc>)
 8000d96:	4837      	ldr	r0, [pc, #220]	@ (8000e74 <handleUART+0x218>)
 8000d98:	cb0c      	ldmia	r3, {r2, r3}
 8000d9a:	e7f4      	b.n	8000d86 <handleUART+0x12a>
 8000d9c:	7860      	ldrb	r0, [r4, #1]
 8000d9e:	f7ff ff55 	bl	8000c4c <decodeASCII>
 8000da2:	b930      	cbnz	r0, 8000db2 <handleUART+0x156>
 8000da4:	4b2f      	ldr	r3, [pc, #188]	@ (8000e64 <handleUART+0x208>)
 8000da6:	492c      	ldr	r1, [pc, #176]	@ (8000e58 <handleUART+0x1fc>)
 8000da8:	4830      	ldr	r0, [pc, #192]	@ (8000e6c <handleUART+0x210>)
 8000daa:	cb0c      	ldmia	r3, {r2, r3}
 8000dac:	f000 fcd6 	bl	800175c <writePageSPI_W>
 8000db0:	e762      	b.n	8000c78 <handleUART+0x1c>
 8000db2:	2801      	cmp	r0, #1
 8000db4:	f47f af60 	bne.w	8000c78 <handleUART+0x1c>
 8000db8:	4b2b      	ldr	r3, [pc, #172]	@ (8000e68 <handleUART+0x20c>)
 8000dba:	4927      	ldr	r1, [pc, #156]	@ (8000e58 <handleUART+0x1fc>)
 8000dbc:	482d      	ldr	r0, [pc, #180]	@ (8000e74 <handleUART+0x218>)
 8000dbe:	cb0c      	ldmia	r3, {r2, r3}
 8000dc0:	e7f4      	b.n	8000dac <handleUART+0x150>
 8000dc2:	7860      	ldrb	r0, [r4, #1]
 8000dc4:	f7ff ff42 	bl	8000c4c <decodeASCII>
 8000dc8:	b930      	cbnz	r0, 8000dd8 <handleUART+0x17c>
 8000dca:	4b26      	ldr	r3, [pc, #152]	@ (8000e64 <handleUART+0x208>)
 8000dcc:	4922      	ldr	r1, [pc, #136]	@ (8000e58 <handleUART+0x1fc>)
 8000dce:	4827      	ldr	r0, [pc, #156]	@ (8000e6c <handleUART+0x210>)
 8000dd0:	cb0c      	ldmia	r3, {r2, r3}
 8000dd2:	f000 fce7 	bl	80017a4 <resetSPIFlash>
 8000dd6:	e74f      	b.n	8000c78 <handleUART+0x1c>
 8000dd8:	2801      	cmp	r0, #1
 8000dda:	f47f af4d 	bne.w	8000c78 <handleUART+0x1c>
 8000dde:	4b22      	ldr	r3, [pc, #136]	@ (8000e68 <handleUART+0x20c>)
 8000de0:	491d      	ldr	r1, [pc, #116]	@ (8000e58 <handleUART+0x1fc>)
 8000de2:	4824      	ldr	r0, [pc, #144]	@ (8000e74 <handleUART+0x218>)
 8000de4:	cb0c      	ldmia	r3, {r2, r3}
 8000de6:	e7f4      	b.n	8000dd2 <handleUART+0x176>
 8000de8:	4b24      	ldr	r3, [pc, #144]	@ (8000e7c <handleUART+0x220>)
 8000dea:	491b      	ldr	r1, [pc, #108]	@ (8000e58 <handleUART+0x1fc>)
 8000dec:	6818      	ldr	r0, [r3, #0]
 8000dee:	f000 fceb 	bl	80017c8 <checkAccelWhoAmI>
 8000df2:	e741      	b.n	8000c78 <handleUART+0x1c>
 8000df4:	4818      	ldr	r0, [pc, #96]	@ (8000e58 <handleUART+0x1fc>)
 8000df6:	f000 fcf1 	bl	80017dc <accelToUART>
 8000dfa:	e73d      	b.n	8000c78 <handleUART+0x1c>
 8000dfc:	4b20      	ldr	r3, [pc, #128]	@ (8000e80 <handleUART+0x224>)
 8000dfe:	7860      	ldrb	r0, [r4, #1]
 8000e00:	681d      	ldr	r5, [r3, #0]
 8000e02:	4915      	ldr	r1, [pc, #84]	@ (8000e58 <handleUART+0x1fc>)
 8000e04:	f7ff ff22 	bl	8000c4c <decodeASCII>
 8000e08:	4602      	mov	r2, r0
 8000e0a:	4628      	mov	r0, r5
 8000e0c:	f000 fcf6 	bl	80017fc <readTempSensorID>
 8000e10:	e732      	b.n	8000c78 <handleUART+0x1c>
 8000e12:	4b1b      	ldr	r3, [pc, #108]	@ (8000e80 <handleUART+0x224>)
 8000e14:	7860      	ldrb	r0, [r4, #1]
 8000e16:	681d      	ldr	r5, [r3, #0]
 8000e18:	490f      	ldr	r1, [pc, #60]	@ (8000e58 <handleUART+0x1fc>)
 8000e1a:	f7ff ff17 	bl	8000c4c <decodeASCII>
 8000e1e:	4602      	mov	r2, r0
 8000e20:	4628      	mov	r0, r5
 8000e22:	f000 fcf6 	bl	8001812 <readTempCalibration>
 8000e26:	e727      	b.n	8000c78 <handleUART+0x1c>
 8000e28:	7860      	ldrb	r0, [r4, #1]
 8000e2a:	f7ff ff0f 	bl	8000c4c <decodeASCII>
 8000e2e:	4601      	mov	r1, r0
 8000e30:	4809      	ldr	r0, [pc, #36]	@ (8000e58 <handleUART+0x1fc>)
 8000e32:	f000 fd21 	bl	8001878 <readTempSensor>
 8000e36:	e71f      	b.n	8000c78 <handleUART+0x1c>
 8000e38:	7863      	ldrb	r3, [r4, #1]
 8000e3a:	f88d 300c 	strb.w	r3, [sp, #12]
 8000e3e:	f44f 63e0 	mov.w	r3, #1792	@ 0x700
 8000e42:	9300      	str	r3, [sp, #0]
 8000e44:	480f      	ldr	r0, [pc, #60]	@ (8000e84 <handleUART+0x228>)
 8000e46:	4b10      	ldr	r3, [pc, #64]	@ (8000e88 <handleUART+0x22c>)
 8000e48:	aa03      	add	r2, sp, #12
 8000e4a:	2101      	movs	r1, #1
 8000e4c:	f7ff fc6c 	bl	8000728 <sendCAN_TxMessage>
 8000e50:	e712      	b.n	8000c78 <handleUART+0x1c>
 8000e52:	bf00      	nop
 8000e54:	200002d1 	.word	0x200002d1
 8000e58:	200002dc 	.word	0x200002dc
 8000e5c:	20000046 	.word	0x20000046
 8000e60:	20000078 	.word	0x20000078
 8000e64:	20000068 	.word	0x20000068
 8000e68:	20000058 	.word	0x20000058
 8000e6c:	200004cc 	.word	0x200004cc
 8000e70:	20000088 	.word	0x20000088
 8000e74:	20000474 	.word	0x20000474
 8000e78:	2000008c 	.word	0x2000008c
 8000e7c:	200002d8 	.word	0x200002d8
 8000e80:	200002d4 	.word	0x200002d4
 8000e84:	200005ec 	.word	0x200005ec
 8000e88:	200002cc 	.word	0x200002cc

08000e8c <combine_system_status>:
 8000e8c:	4b04      	ldr	r3, [pc, #16]	@ (8000ea0 <combine_system_status+0x14>)
 8000e8e:	7818      	ldrb	r0, [r3, #0]
 8000e90:	4b04      	ldr	r3, [pc, #16]	@ (8000ea4 <combine_system_status+0x18>)
 8000e92:	781b      	ldrb	r3, [r3, #0]
 8000e94:	f000 001f 	and.w	r0, r0, #31
 8000e98:	ea40 1043 	orr.w	r0, r0, r3, lsl #5
 8000e9c:	b2c0      	uxtb	r0, r0
 8000e9e:	4770      	bx	lr
 8000ea0:	20000046 	.word	0x20000046
 8000ea4:	20000045 	.word	0x20000045

08000ea8 <configureCAN>:
 8000ea8:	b500      	push	{lr}
 8000eaa:	2300      	movs	r3, #0
 8000eac:	b08b      	sub	sp, #44	@ 0x2c
 8000eae:	210a      	movs	r1, #10
 8000eb0:	e9cd 3104 	strd	r3, r1, [sp, #16]
 8000eb4:	f44f 4120 	mov.w	r1, #40960	@ 0xa000
 8000eb8:	2201      	movs	r2, #1
 8000eba:	e9cd 1300 	strd	r1, r3, [sp]
 8000ebe:	e9cd 1302 	strd	r1, r3, [sp, #8]
 8000ec2:	4805      	ldr	r0, [pc, #20]	@ (8000ed8 <configureCAN+0x30>)
 8000ec4:	9208      	str	r2, [sp, #32]
 8000ec6:	4669      	mov	r1, sp
 8000ec8:	e9cd 3206 	strd	r3, r2, [sp, #24]
 8000ecc:	9309      	str	r3, [sp, #36]	@ 0x24
 8000ece:	f001 fa63 	bl	8002398 <HAL_CAN_ConfigFilter>
 8000ed2:	b00b      	add	sp, #44	@ 0x2c
 8000ed4:	f85d fb04 	ldr.w	pc, [sp], #4
 8000ed8:	200005ec 	.word	0x200005ec

08000edc <systemInit>:
 8000edc:	e92d 47f0 	stmdb	sp!, {r4, r5, r6, r7, r8, r9, sl, lr}
 8000ee0:	f8df 91b4 	ldr.w	r9, [pc, #436]	@ 8001098 <systemInit+0x1bc>
 8000ee4:	4e4e      	ldr	r6, [pc, #312]	@ (8001020 <systemInit+0x144>)
 8000ee6:	4b4f      	ldr	r3, [pc, #316]	@ (8001024 <systemInit+0x148>)
 8000ee8:	f8c9 3000 	str.w	r3, [r9]
 8000eec:	4b4e      	ldr	r3, [pc, #312]	@ (8001028 <systemInit+0x14c>)
 8000eee:	6033      	str	r3, [r6, #0]
 8000ef0:	f7ff ffda 	bl	8000ea8 <configureCAN>
 8000ef4:	4b4d      	ldr	r3, [pc, #308]	@ (800102c <systemInit+0x150>)
 8000ef6:	494e      	ldr	r1, [pc, #312]	@ (8001030 <systemInit+0x154>)
 8000ef8:	4d4e      	ldr	r5, [pc, #312]	@ (8001034 <systemInit+0x158>)
 8000efa:	4f4f      	ldr	r7, [pc, #316]	@ (8001038 <systemInit+0x15c>)
 8000efc:	f8df 819c 	ldr.w	r8, [pc, #412]	@ 800109c <systemInit+0x1c0>
 8000f00:	f8df a19c 	ldr.w	sl, [pc, #412]	@ 80010a0 <systemInit+0x1c4>
 8000f04:	2400      	movs	r4, #0
 8000f06:	601c      	str	r4, [r3, #0]
 8000f08:	4b4c      	ldr	r3, [pc, #304]	@ (800103c <systemInit+0x160>)
 8000f0a:	2008      	movs	r0, #8
 8000f0c:	701c      	strb	r4, [r3, #0]
 8000f0e:	f7ff fddb 	bl	8000ac8 <clean_data_buffer>
 8000f12:	f7ff fddf 	bl	8000ad4 <gpio_set_config>
 8000f16:	4b4a      	ldr	r3, [pc, #296]	@ (8001040 <systemInit+0x164>)
 8000f18:	4622      	mov	r2, r4
 8000f1a:	8899      	ldrh	r1, [r3, #4]
 8000f1c:	6818      	ldr	r0, [r3, #0]
 8000f1e:	f002 f801 	bl	8002f24 <HAL_GPIO_WritePin>
 8000f22:	4b48      	ldr	r3, [pc, #288]	@ (8001044 <systemInit+0x168>)
 8000f24:	4622      	mov	r2, r4
 8000f26:	8899      	ldrh	r1, [r3, #4]
 8000f28:	6818      	ldr	r0, [r3, #0]
 8000f2a:	f001 fffb 	bl	8002f24 <HAL_GPIO_WritePin>
 8000f2e:	88a9      	ldrh	r1, [r5, #4]
 8000f30:	6828      	ldr	r0, [r5, #0]
 8000f32:	2201      	movs	r2, #1
 8000f34:	f001 fff6 	bl	8002f24 <HAL_GPIO_WritePin>
 8000f38:	2201      	movs	r2, #1
 8000f3a:	88b9      	ldrh	r1, [r7, #4]
 8000f3c:	6838      	ldr	r0, [r7, #0]
 8000f3e:	f001 fff1 	bl	8002f24 <HAL_GPIO_WritePin>
 8000f42:	4641      	mov	r1, r8
 8000f44:	f44f 7080 	mov.w	r0, #256	@ 0x100
 8000f48:	f7ff fdbe 	bl	8000ac8 <clean_data_buffer>
 8000f4c:	f508 7180 	add.w	r1, r8, #256	@ 0x100
 8000f50:	f44f 7080 	mov.w	r0, #256	@ 0x100
 8000f54:	f7ff fdb8 	bl	8000ac8 <clean_data_buffer>
 8000f58:	4b3b      	ldr	r3, [pc, #236]	@ (8001048 <systemInit+0x16c>)
 8000f5a:	f8d9 0000 	ldr.w	r0, [r9]
 8000f5e:	601c      	str	r4, [r3, #0]
 8000f60:	809c      	strh	r4, [r3, #4]
 8000f62:	4b3a      	ldr	r3, [pc, #232]	@ (800104c <systemInit+0x170>)
 8000f64:	f8df 813c 	ldr.w	r8, [pc, #316]	@ 80010a4 <systemInit+0x1c8>
 8000f68:	601c      	str	r4, [r3, #0]
 8000f6a:	809c      	strh	r4, [r3, #4]
 8000f6c:	4b38      	ldr	r3, [pc, #224]	@ (8001050 <systemInit+0x174>)
 8000f6e:	601c      	str	r4, [r3, #0]
 8000f70:	809c      	strh	r4, [r3, #4]
 8000f72:	f7ff fb03 	bl	800057c <init_accel>
 8000f76:	4621      	mov	r1, r4
 8000f78:	6830      	ldr	r0, [r6, #0]
 8000f7a:	f7ff fb31 	bl	80005e0 <init_bme280>
 8000f7e:	6830      	ldr	r0, [r6, #0]
 8000f80:	2101      	movs	r1, #1
 8000f82:	f7ff fb2d 	bl	80005e0 <init_bme280>
 8000f86:	e895 0006 	ldmia.w	r5, {r1, r2}
 8000f8a:	4640      	mov	r0, r8
 8000f8c:	f7ff fc44 	bl	8000818 <software_reset>
 8000f90:	e897 0006 	ldmia.w	r7, {r1, r2}
 8000f94:	4f2f      	ldr	r7, [pc, #188]	@ (8001054 <systemInit+0x178>)
 8000f96:	4650      	mov	r0, sl
 8000f98:	f7ff fc3e 	bl	8000818 <software_reset>
 8000f9c:	e895 000c 	ldmia.w	r5, {r2, r3}
 8000fa0:	4639      	mov	r1, r7
 8000fa2:	4640      	mov	r0, r8
 8000fa4:	f7ff fc86 	bl	80008b4 <find_next_blank_page>
 8000fa8:	4b2b      	ldr	r3, [pc, #172]	@ (8001058 <systemInit+0x17c>)
 8000faa:	6832      	ldr	r2, [r6, #0]
 8000fac:	703c      	strb	r4, [r7, #0]
 8000fae:	ea20 70e0 	bic.w	r0, r0, r0, asr #31
 8000fb2:	6018      	str	r0, [r3, #0]
 8000fb4:	4b29      	ldr	r3, [pc, #164]	@ (800105c <systemInit+0x180>)
 8000fb6:	701c      	strb	r4, [r3, #0]
 8000fb8:	4b29      	ldr	r3, [pc, #164]	@ (8001060 <systemInit+0x184>)
 8000fba:	801c      	strh	r4, [r3, #0]
 8000fbc:	4b29      	ldr	r3, [pc, #164]	@ (8001064 <systemInit+0x188>)
 8000fbe:	701c      	strb	r4, [r3, #0]
 8000fc0:	4b29      	ldr	r3, [pc, #164]	@ (8001068 <systemInit+0x18c>)
 8000fc2:	701c      	strb	r4, [r3, #0]
 8000fc4:	4b29      	ldr	r3, [pc, #164]	@ (800106c <systemInit+0x190>)
 8000fc6:	701c      	strb	r4, [r3, #0]
 8000fc8:	4b29      	ldr	r3, [pc, #164]	@ (8001070 <systemInit+0x194>)
 8000fca:	701c      	strb	r4, [r3, #0]
 8000fcc:	4b29      	ldr	r3, [pc, #164]	@ (8001074 <systemInit+0x198>)
 8000fce:	701c      	strb	r4, [r3, #0]
 8000fd0:	4b29      	ldr	r3, [pc, #164]	@ (8001078 <systemInit+0x19c>)
 8000fd2:	4651      	mov	r1, sl
 8000fd4:	701c      	strb	r4, [r3, #0]
 8000fd6:	4640      	mov	r0, r8
 8000fd8:	f8d9 3000 	ldr.w	r3, [r9]
 8000fdc:	4c27      	ldr	r4, [pc, #156]	@ (800107c <systemInit+0x1a0>)
 8000fde:	f000 fb11 	bl	8001604 <systemStatus>
 8000fe2:	4b27      	ldr	r3, [pc, #156]	@ (8001080 <systemInit+0x1a4>)
 8000fe4:	4601      	mov	r1, r0
 8000fe6:	7018      	strb	r0, [r3, #0]
 8000fe8:	4620      	mov	r0, r4
 8000fea:	f001 f8be 	bl	800216a <send_uart_hex>
 8000fee:	4620      	mov	r0, r4
 8000ff0:	4c24      	ldr	r4, [pc, #144]	@ (8001084 <systemInit+0x1a8>)
 8000ff2:	4925      	ldr	r1, [pc, #148]	@ (8001088 <systemInit+0x1ac>)
 8000ff4:	2202      	movs	r2, #2
 8000ff6:	f004 fa46 	bl	8005486 <HAL_UART_Receive_IT>
 8000ffa:	4620      	mov	r0, r4
 8000ffc:	f001 fa52 	bl	80024a4 <HAL_CAN_Start>
 8001000:	2102      	movs	r1, #2
 8001002:	4620      	mov	r0, r4
 8001004:	f001 fb40 	bl	8002688 <HAL_CAN_ActivateNotification>
 8001008:	4820      	ldr	r0, [pc, #128]	@ (800108c <systemInit+0x1b0>)
 800100a:	f000 fcb5 	bl	8001978 <initialise_rtc_default>
 800100e:	4820      	ldr	r0, [pc, #128]	@ (8001090 <systemInit+0x1b4>)
 8001010:	f003 fd88 	bl	8004b24 <HAL_TIM_Base_Start_IT>
 8001014:	e8bd 47f0 	ldmia.w	sp!, {r4, r5, r6, r7, r8, r9, sl, lr}
 8001018:	481e      	ldr	r0, [pc, #120]	@ (8001094 <systemInit+0x1b8>)
 800101a:	f003 bd83 	b.w	8004b24 <HAL_TIM_Base_Start_IT>
 800101e:	bf00      	nop
 8001020:	200002d4 	.word	0x200002d4
 8001024:	20000544 	.word	0x20000544
 8001028:	20000598 	.word	0x20000598
 800102c:	200002cc 	.word	0x200002cc
 8001030:	200002a8 	.word	0x200002a8
 8001034:	20000068 	.word	0x20000068
 8001038:	20000058 	.word	0x20000058
 800103c:	200002a6 	.word	0x200002a6
 8001040:	20000080 	.word	0x20000080
 8001044:	20000070 	.word	0x20000070
 8001048:	2000009d 	.word	0x2000009d
 800104c:	20000097 	.word	0x20000097
 8001050:	20000091 	.word	0x20000091
 8001054:	20000088 	.word	0x20000088
 8001058:	2000008c 	.word	0x2000008c
 800105c:	20000090 	.word	0x20000090
 8001060:	2000008a 	.word	0x2000008a
 8001064:	200002d0 	.word	0x200002d0
 8001068:	200002a7 	.word	0x200002a7
 800106c:	200002a5 	.word	0x200002a5
 8001070:	200002a4 	.word	0x200002a4
 8001074:	20000045 	.word	0x20000045
 8001078:	20000047 	.word	0x20000047
 800107c:	200002dc 	.word	0x200002dc
 8001080:	20000046 	.word	0x20000046
 8001084:	200005ec 	.word	0x200005ec
 8001088:	200002d1 	.word	0x200002d1
 800108c:	20000524 	.word	0x20000524
 8001090:	2000036c 	.word	0x2000036c
 8001094:	20000324 	.word	0x20000324
 8001098:	200002d8 	.word	0x200002d8
 800109c:	200000a4 	.word	0x200000a4
 80010a0:	20000474 	.word	0x20000474
 80010a4:	200004cc 	.word	0x200004cc

080010a8 <main>:
 80010a8:	e92d 4ff0 	stmdb	sp!, {r4, r5, r6, r7, r8, r9, sl, fp, lr}
 80010ac:	b08f      	sub	sp, #60	@ 0x3c
 80010ae:	2400      	movs	r4, #0
 80010b0:	4dae      	ldr	r5, [pc, #696]	@ (800136c <main+0x2c4>)
 80010b2:	f8df 92fc 	ldr.w	r9, [pc, #764]	@ 80013b0 <main+0x308>
 80010b6:	f001 f8b3 	bl	8002220 <HAL_Init>
 80010ba:	f7ff fcb7 	bl	8000a2c <SystemClock_Config>
 80010be:	2214      	movs	r2, #20
 80010c0:	2100      	movs	r1, #0
 80010c2:	a809      	add	r0, sp, #36	@ 0x24
 80010c4:	f004 f9f0 	bl	80054a8 <memset>
 80010c8:	9404      	str	r4, [sp, #16]
 80010ca:	6b2b      	ldr	r3, [r5, #48]	@ 0x30
 80010cc:	48a8      	ldr	r0, [pc, #672]	@ (8001370 <main+0x2c8>)
 80010ce:	f043 0304 	orr.w	r3, r3, #4
 80010d2:	632b      	str	r3, [r5, #48]	@ 0x30
 80010d4:	6b2b      	ldr	r3, [r5, #48]	@ 0x30
 80010d6:	f003 0304 	and.w	r3, r3, #4
 80010da:	9304      	str	r3, [sp, #16]
 80010dc:	9b04      	ldr	r3, [sp, #16]
 80010de:	9405      	str	r4, [sp, #20]
 80010e0:	6b2b      	ldr	r3, [r5, #48]	@ 0x30
 80010e2:	f043 0380 	orr.w	r3, r3, #128	@ 0x80
 80010e6:	632b      	str	r3, [r5, #48]	@ 0x30
 80010e8:	6b2b      	ldr	r3, [r5, #48]	@ 0x30
 80010ea:	f003 0380 	and.w	r3, r3, #128	@ 0x80
 80010ee:	9305      	str	r3, [sp, #20]
 80010f0:	9b05      	ldr	r3, [sp, #20]
 80010f2:	9406      	str	r4, [sp, #24]
 80010f4:	6b2b      	ldr	r3, [r5, #48]	@ 0x30
 80010f6:	f043 0301 	orr.w	r3, r3, #1
 80010fa:	632b      	str	r3, [r5, #48]	@ 0x30
 80010fc:	6b2b      	ldr	r3, [r5, #48]	@ 0x30
 80010fe:	f003 0301 	and.w	r3, r3, #1
 8001102:	9306      	str	r3, [sp, #24]
 8001104:	9b06      	ldr	r3, [sp, #24]
 8001106:	9407      	str	r4, [sp, #28]
 8001108:	6b2b      	ldr	r3, [r5, #48]	@ 0x30
 800110a:	f043 0302 	orr.w	r3, r3, #2
 800110e:	632b      	str	r3, [r5, #48]	@ 0x30
 8001110:	6b2b      	ldr	r3, [r5, #48]	@ 0x30
 8001112:	f003 0302 	and.w	r3, r3, #2
 8001116:	9307      	str	r3, [sp, #28]
 8001118:	9b07      	ldr	r3, [sp, #28]
 800111a:	9408      	str	r4, [sp, #32]
 800111c:	6b2b      	ldr	r3, [r5, #48]	@ 0x30
 800111e:	f043 0308 	orr.w	r3, r3, #8
 8001122:	632b      	str	r3, [r5, #48]	@ 0x30
 8001124:	6b2b      	ldr	r3, [r5, #48]	@ 0x30
 8001126:	f003 0308 	and.w	r3, r3, #8
 800112a:	9308      	str	r3, [sp, #32]
 800112c:	4622      	mov	r2, r4
 800112e:	2113      	movs	r1, #19
 8001130:	9b08      	ldr	r3, [sp, #32]
 8001132:	f001 fef7 	bl	8002f24 <HAL_GPIO_WritePin>
 8001136:	488f      	ldr	r0, [pc, #572]	@ (8001374 <main+0x2cc>)
 8001138:	4622      	mov	r2, r4
 800113a:	2110      	movs	r1, #16
 800113c:	f001 fef2 	bl	8002f24 <HAL_GPIO_WritePin>
 8001140:	4622      	mov	r2, r4
 8001142:	488d      	ldr	r0, [pc, #564]	@ (8001378 <main+0x2d0>)
 8001144:	f44f 41e0 	mov.w	r1, #28672	@ 0x7000
 8001148:	f001 feec 	bl	8002f24 <HAL_GPIO_WritePin>
 800114c:	2601      	movs	r6, #1
 800114e:	4888      	ldr	r0, [pc, #544]	@ (8001370 <main+0x2c8>)
 8001150:	a909      	add	r1, sp, #36	@ 0x24
 8001152:	e9cd 6609 	strd	r6, r6, [sp, #36]	@ 0x24
 8001156:	e9cd 640b 	strd	r6, r4, [sp, #44]	@ 0x2c
 800115a:	f001 fdf9 	bl	8002d50 <HAL_GPIO_Init>
 800115e:	2312      	movs	r3, #18
 8001160:	4883      	ldr	r0, [pc, #524]	@ (8001370 <main+0x2c8>)
 8001162:	a909      	add	r1, sp, #36	@ 0x24
 8001164:	e9cd 3609 	strd	r3, r6, [sp, #36]	@ 0x24
 8001168:	e9cd 440b 	strd	r4, r4, [sp, #44]	@ 0x2c
 800116c:	f001 fdf0 	bl	8002d50 <HAL_GPIO_Init>
 8001170:	2310      	movs	r3, #16
 8001172:	4880      	ldr	r0, [pc, #512]	@ (8001374 <main+0x2cc>)
 8001174:	a909      	add	r1, sp, #36	@ 0x24
 8001176:	2702      	movs	r7, #2
 8001178:	e9cd 3609 	strd	r3, r6, [sp, #36]	@ 0x24
 800117c:	e9cd 640b 	strd	r6, r4, [sp, #44]	@ 0x2c
 8001180:	f001 fde6 	bl	8002d50 <HAL_GPIO_Init>
 8001184:	f44f 1388 	mov.w	r3, #1114112	@ 0x110000
 8001188:	487b      	ldr	r0, [pc, #492]	@ (8001378 <main+0x2d0>)
 800118a:	940b      	str	r4, [sp, #44]	@ 0x2c
 800118c:	a909      	add	r1, sp, #36	@ 0x24
 800118e:	e9cd 7309 	strd	r7, r3, [sp, #36]	@ 0x24
 8001192:	f001 fddd 	bl	8002d50 <HAL_GPIO_Init>
 8001196:	f44f 43e0 	mov.w	r3, #28672	@ 0x7000
 800119a:	4877      	ldr	r0, [pc, #476]	@ (8001378 <main+0x2d0>)
 800119c:	a909      	add	r1, sp, #36	@ 0x24
 800119e:	e9cd 3609 	strd	r3, r6, [sp, #36]	@ 0x24
 80011a2:	e9cd 740b 	strd	r7, r4, [sp, #44]	@ 0x2c
 80011a6:	f001 fdd3 	bl	8002d50 <HAL_GPIO_Init>
 80011aa:	f44f 53c0 	mov.w	r3, #6144	@ 0x1800
 80011ae:	e9cd 3709 	strd	r3, r7, [sp, #36]	@ 0x24
 80011b2:	4870      	ldr	r0, [pc, #448]	@ (8001374 <main+0x2cc>)
 80011b4:	940b      	str	r4, [sp, #44]	@ 0x2c
 80011b6:	2309      	movs	r3, #9
 80011b8:	a909      	add	r1, sp, #36	@ 0x24
 80011ba:	f04f 0803 	mov.w	r8, #3
 80011be:	e9cd 830c 	strd	r8, r3, [sp, #48]	@ 0x30
 80011c2:	f001 fdc5 	bl	8002d50 <HAL_GPIO_Init>
 80011c6:	4622      	mov	r2, r4
 80011c8:	4621      	mov	r1, r4
 80011ca:	2007      	movs	r0, #7
 80011cc:	f001 fb90 	bl	80028f0 <HAL_NVIC_SetPriority>
 80011d0:	2007      	movs	r0, #7
 80011d2:	f001 fbbf 	bl	8002954 <HAL_NVIC_EnableIRQ>
 80011d6:	9402      	str	r4, [sp, #8]
 80011d8:	6b2b      	ldr	r3, [r5, #48]	@ 0x30
 80011da:	f443 0380 	orr.w	r3, r3, #4194304	@ 0x400000
 80011de:	632b      	str	r3, [r5, #48]	@ 0x30
 80011e0:	6b2b      	ldr	r3, [r5, #48]	@ 0x30
 80011e2:	f403 0380 	and.w	r3, r3, #4194304	@ 0x400000
 80011e6:	9302      	str	r3, [sp, #8]
 80011e8:	9b02      	ldr	r3, [sp, #8]
 80011ea:	9403      	str	r4, [sp, #12]
 80011ec:	6b2b      	ldr	r3, [r5, #48]	@ 0x30
 80011ee:	f443 1300 	orr.w	r3, r3, #2097152	@ 0x200000
 80011f2:	632b      	str	r3, [r5, #48]	@ 0x30
 80011f4:	6b2b      	ldr	r3, [r5, #48]	@ 0x30
 80011f6:	4d61      	ldr	r5, [pc, #388]	@ (800137c <main+0x2d4>)
 80011f8:	f403 1300 	and.w	r3, r3, #2097152	@ 0x200000
 80011fc:	4622      	mov	r2, r4
 80011fe:	4621      	mov	r1, r4
 8001200:	9303      	str	r3, [sp, #12]
 8001202:	200f      	movs	r0, #15
 8001204:	9b03      	ldr	r3, [sp, #12]
 8001206:	f001 fb73 	bl	80028f0 <HAL_NVIC_SetPriority>
 800120a:	200f      	movs	r0, #15
 800120c:	f001 fba2 	bl	8002954 <HAL_NVIC_EnableIRQ>
 8001210:	4621      	mov	r1, r4
 8001212:	4622      	mov	r2, r4
 8001214:	203b      	movs	r0, #59	@ 0x3b
 8001216:	f001 fb6b 	bl	80028f0 <HAL_NVIC_SetPriority>
 800121a:	203b      	movs	r0, #59	@ 0x3b
 800121c:	f001 fb9a 	bl	8002954 <HAL_NVIC_EnableIRQ>
 8001220:	4b57      	ldr	r3, [pc, #348]	@ (8001380 <main+0x2d8>)
 8001222:	622c      	str	r4, [r5, #32]
 8001224:	e9c5 9300 	strd	r9, r3, [r5]
 8001228:	4628      	mov	r0, r5
 800122a:	f44f 4380 	mov.w	r3, #16384	@ 0x4000
 800122e:	e9c5 4402 	strd	r4, r4, [r5, #8]
 8001232:	e9c5 3404 	strd	r3, r4, [r5, #16]
 8001236:	e9c5 4406 	strd	r4, r4, [r5, #24]
 800123a:	f001 ffb1 	bl	80031a0 <HAL_I2C_Init>
 800123e:	4601      	mov	r1, r0
 8001240:	b108      	cbz	r0, 8001246 <main+0x19e>
 8001242:	b672      	cpsid	i
 8001244:	e7fe      	b.n	8001244 <main+0x19c>
 8001246:	4628      	mov	r0, r5
 8001248:	f002 faa6 	bl	8003798 <HAL_I2CEx_ConfigAnalogFilter>
 800124c:	4601      	mov	r1, r0
 800124e:	b108      	cbz	r0, 8001254 <main+0x1ac>
 8001250:	b672      	cpsid	i
 8001252:	e7fe      	b.n	8001252 <main+0x1aa>
 8001254:	4628      	mov	r0, r5
 8001256:	f002 fabe 	bl	80037d6 <HAL_I2CEx_ConfigDigitalFilter>
 800125a:	4603      	mov	r3, r0
 800125c:	b108      	cbz	r0, 8001262 <main+0x1ba>
 800125e:	b672      	cpsid	i
 8001260:	e7fe      	b.n	8001260 <main+0x1b8>
 8001262:	4848      	ldr	r0, [pc, #288]	@ (8001384 <main+0x2dc>)
 8001264:	4a48      	ldr	r2, [pc, #288]	@ (8001388 <main+0x2e0>)
 8001266:	6183      	str	r3, [r0, #24]
 8001268:	e9c0 2300 	strd	r2, r3, [r0]
 800126c:	f04f 0e7f 	mov.w	lr, #127	@ 0x7f
 8001270:	22ff      	movs	r2, #255	@ 0xff
 8001272:	e9c0 3304 	strd	r3, r3, [r0, #16]
 8001276:	e9c0 e202 	strd	lr, r2, [r0, #8]
 800127a:	f002 fef6 	bl	800406a <HAL_RTC_Init>
 800127e:	4603      	mov	r3, r0
 8001280:	b108      	cbz	r0, 8001286 <main+0x1de>
 8001282:	b672      	cpsid	i
 8001284:	e7fe      	b.n	8001284 <main+0x1dc>
 8001286:	4841      	ldr	r0, [pc, #260]	@ (800138c <main+0x2e4>)
 8001288:	4a41      	ldr	r2, [pc, #260]	@ (8001390 <main+0x2e8>)
 800128a:	6283      	str	r3, [r0, #40]	@ 0x28
 800128c:	f44f 7582 	mov.w	r5, #260	@ 0x104
 8001290:	e9c0 2500 	strd	r2, r5, [r0]
 8001294:	f44f 7400 	mov.w	r4, #512	@ 0x200
 8001298:	2208      	movs	r2, #8
 800129a:	260a      	movs	r6, #10
 800129c:	e9c0 3302 	strd	r3, r3, [r0, #8]
 80012a0:	e9c0 3304 	strd	r3, r3, [r0, #16]
 80012a4:	e9c0 4206 	strd	r4, r2, [r0, #24]
 80012a8:	e9c0 3308 	strd	r3, r3, [r0, #32]
 80012ac:	62c6      	str	r6, [r0, #44]	@ 0x2c
 80012ae:	f003 f8df 	bl	8004470 <HAL_SPI_Init>
 80012b2:	b108      	cbz	r0, 80012b8 <main+0x210>
 80012b4:	b672      	cpsid	i
 80012b6:	e7fe      	b.n	80012b6 <main+0x20e>
 80012b8:	4f36      	ldr	r7, [pc, #216]	@ (8001394 <main+0x2ec>)
 80012ba:	f8df c0f8 	ldr.w	ip, [pc, #248]	@ 80013b4 <main+0x30c>
 80012be:	60b8      	str	r0, [r7, #8]
 80012c0:	f245 2307 	movw	r3, #20999	@ 0x5207
 80012c4:	e9cd 0009 	strd	r0, r0, [sp, #36]	@ 0x24
 80012c8:	e9c7 c300 	strd	ip, r3, [r7]
 80012cc:	61b8      	str	r0, [r7, #24]
 80012ce:	2350      	movs	r3, #80	@ 0x50
 80012d0:	4638      	mov	r0, r7
 80012d2:	60fb      	str	r3, [r7, #12]
 80012d4:	f003 fd66 	bl	8004da4 <HAL_TIM_Base_Init>
 80012d8:	b108      	cbz	r0, 80012de <main+0x236>
 80012da:	b672      	cpsid	i
 80012dc:	e7fe      	b.n	80012dc <main+0x234>
 80012de:	e9cd 0009 	strd	r0, r0, [sp, #36]	@ 0x24
 80012e2:	a909      	add	r1, sp, #36	@ 0x24
 80012e4:	4638      	mov	r0, r7
 80012e6:	f003 fd89 	bl	8004dfc <HAL_TIMEx_MasterConfigSynchronization>
 80012ea:	4603      	mov	r3, r0
 80012ec:	b108      	cbz	r0, 80012f2 <main+0x24a>
 80012ee:	b672      	cpsid	i
 80012f0:	e7fe      	b.n	80012f0 <main+0x248>
 80012f2:	4829      	ldr	r0, [pc, #164]	@ (8001398 <main+0x2f0>)
 80012f4:	4f29      	ldr	r7, [pc, #164]	@ (800139c <main+0x2f4>)
 80012f6:	6103      	str	r3, [r0, #16]
 80012f8:	f44f 32e1 	mov.w	r2, #115200	@ 0x1c200
 80012fc:	e9c0 7200 	strd	r7, r2, [r0]
 8001300:	220c      	movs	r2, #12
 8001302:	e9c0 3302 	strd	r3, r3, [r0, #8]
 8001306:	e9c0 2305 	strd	r2, r3, [r0, #20]
 800130a:	61c3      	str	r3, [r0, #28]
 800130c:	f003 fe74 	bl	8004ff8 <HAL_UART_Init>
 8001310:	4603      	mov	r3, r0
 8001312:	b108      	cbz	r0, 8001318 <main+0x270>
 8001314:	b672      	cpsid	i
 8001316:	e7fe      	b.n	8001316 <main+0x26e>
 8001318:	4821      	ldr	r0, [pc, #132]	@ (80013a0 <main+0x2f8>)
 800131a:	4a22      	ldr	r2, [pc, #136]	@ (80013a4 <main+0x2fc>)
 800131c:	e9c0 3302 	strd	r3, r3, [r0, #8]
 8001320:	e9c0 3304 	strd	r3, r3, [r0, #16]
 8001324:	e9c0 4306 	strd	r4, r3, [r0, #24]
 8001328:	e9c0 3308 	strd	r3, r3, [r0, #32]
 800132c:	e9c0 360a 	strd	r3, r6, [r0, #40]	@ 0x28
 8001330:	e9c0 2500 	strd	r2, r5, [r0]
 8001334:	f003 f89c 	bl	8004470 <HAL_SPI_Init>
 8001338:	4603      	mov	r3, r0
 800133a:	b108      	cbz	r0, 8001340 <main+0x298>
 800133c:	b672      	cpsid	i
 800133e:	e7fe      	b.n	800133e <main+0x296>
 8001340:	4819      	ldr	r0, [pc, #100]	@ (80013a8 <main+0x300>)
 8001342:	4c1a      	ldr	r4, [pc, #104]	@ (80013ac <main+0x304>)
 8001344:	6083      	str	r3, [r0, #8]
 8001346:	2218      	movs	r2, #24
 8001348:	e9c0 4200 	strd	r4, r2, [r0]
 800134c:	f04f 7580 	mov.w	r5, #16777216	@ 0x1000000
 8001350:	f44f 2220 	mov.w	r2, #655360	@ 0xa0000
 8001354:	e9c0 5203 	strd	r5, r2, [r0, #12]
 8001358:	f44f 1280 	mov.w	r2, #1048576	@ 0x100000
 800135c:	e9c0 2305 	strd	r2, r3, [r0, #20]
 8001360:	8383      	strh	r3, [r0, #28]
 8001362:	f000 ff9d 	bl	80022a0 <HAL_CAN_Init>
 8001366:	b338      	cbz	r0, 80013b8 <main+0x310>
 8001368:	b672      	cpsid	i
 800136a:	e7fe      	b.n	800136a <main+0x2c2>
 800136c:	40023800 	.word	0x40023800
 8001370:	40020800 	.word	0x40020800
 8001374:	40020000 	.word	0x40020000
 8001378:	40020400 	.word	0x40020400
 800137c:	20000598 	.word	0x20000598
 8001380:	000186a0 	.word	0x000186a0
 8001384:	20000524 	.word	0x20000524
 8001388:	40002800 	.word	0x40002800
 800138c:	200004cc 	.word	0x200004cc
 8001390:	40013000 	.word	0x40013000
 8001394:	2000036c 	.word	0x2000036c
 8001398:	200002dc 	.word	0x200002dc
 800139c:	40004400 	.word	0x40004400
 80013a0:	20000474 	.word	0x20000474
 80013a4:	40003800 	.word	0x40003800
 80013a8:	200005ec 	.word	0x200005ec
 80013ac:	40006800 	.word	0x40006800
 80013b0:	40005400 	.word	0x40005400
 80013b4:	40001000 	.word	0x40001000
 80013b8:	4c74      	ldr	r4, [pc, #464]	@ (800158c <main+0x4e4>)
 80013ba:	4975      	ldr	r1, [pc, #468]	@ (8001590 <main+0x4e8>)
 80013bc:	f245 2207 	movw	r2, #20999	@ 0x5207
 80013c0:	2300      	movs	r3, #0
 80013c2:	e9c4 1200 	strd	r1, r2, [r4]
 80013c6:	4620      	mov	r0, r4
 80013c8:	f44f 627a 	mov.w	r2, #4000	@ 0xfa0
 80013cc:	e9cd 3309 	strd	r3, r3, [sp, #36]	@ 0x24
 80013d0:	60a3      	str	r3, [r4, #8]
 80013d2:	60e2      	str	r2, [r4, #12]
 80013d4:	61a3      	str	r3, [r4, #24]
 80013d6:	f003 fce5 	bl	8004da4 <HAL_TIM_Base_Init>
 80013da:	b108      	cbz	r0, 80013e0 <main+0x338>
 80013dc:	b672      	cpsid	i
 80013de:	e7fe      	b.n	80013de <main+0x336>
 80013e0:	e9cd 0009 	strd	r0, r0, [sp, #36]	@ 0x24
 80013e4:	a909      	add	r1, sp, #36	@ 0x24
 80013e6:	4620      	mov	r0, r4
 80013e8:	f003 fd08 	bl	8004dfc <HAL_TIMEx_MasterConfigSynchronization>
 80013ec:	b108      	cbz	r0, 80013f2 <main+0x34a>
 80013ee:	b672      	cpsid	i
 80013f0:	e7fe      	b.n	80013f0 <main+0x348>
 80013f2:	4c68      	ldr	r4, [pc, #416]	@ (8001594 <main+0x4ec>)
 80013f4:	4a68      	ldr	r2, [pc, #416]	@ (8001598 <main+0x4f0>)
 80013f6:	4b69      	ldr	r3, [pc, #420]	@ (800159c <main+0x4f4>)
 80013f8:	6220      	str	r0, [r4, #32]
 80013fa:	e9c4 2300 	strd	r2, r3, [r4]
 80013fe:	f44f 4380 	mov.w	r3, #16384	@ 0x4000
 8001402:	e9c4 0002 	strd	r0, r0, [r4, #8]
 8001406:	e9c4 3004 	strd	r3, r0, [r4, #16]
 800140a:	e9c4 0006 	strd	r0, r0, [r4, #24]
 800140e:	4620      	mov	r0, r4
 8001410:	f001 fec6 	bl	80031a0 <HAL_I2C_Init>
 8001414:	4601      	mov	r1, r0
 8001416:	b108      	cbz	r0, 800141c <main+0x374>
 8001418:	b672      	cpsid	i
 800141a:	e7fe      	b.n	800141a <main+0x372>
 800141c:	4620      	mov	r0, r4
 800141e:	f002 f9bb 	bl	8003798 <HAL_I2CEx_ConfigAnalogFilter>
 8001422:	4601      	mov	r1, r0
 8001424:	b108      	cbz	r0, 800142a <main+0x382>
 8001426:	b672      	cpsid	i
 8001428:	e7fe      	b.n	8001428 <main+0x380>
 800142a:	4620      	mov	r0, r4
 800142c:	f002 f9d3 	bl	80037d6 <HAL_I2CEx_ConfigDigitalFilter>
 8001430:	b108      	cbz	r0, 8001436 <main+0x38e>
 8001432:	b672      	cpsid	i
 8001434:	e7fe      	b.n	8001434 <main+0x38c>
 8001436:	f7ff fd51 	bl	8000edc <systemInit>
 800143a:	f8df 81b4 	ldr.w	r8, [pc, #436]	@ 80015f0 <main+0x548>
 800143e:	4d58      	ldr	r5, [pc, #352]	@ (80015a0 <main+0x4f8>)
 8001440:	f8df 91b0 	ldr.w	r9, [pc, #432]	@ 80015f4 <main+0x54c>
 8001444:	4b57      	ldr	r3, [pc, #348]	@ (80015a4 <main+0x4fc>)
 8001446:	781b      	ldrb	r3, [r3, #0]
 8001448:	2b01      	cmp	r3, #1
 800144a:	d105      	bne.n	8001458 <main+0x3b0>
 800144c:	4856      	ldr	r0, [pc, #344]	@ (80015a8 <main+0x500>)
 800144e:	f000 fa93 	bl	8001978 <initialise_rtc_default>
 8001452:	4a54      	ldr	r2, [pc, #336]	@ (80015a4 <main+0x4fc>)
 8001454:	2300      	movs	r3, #0
 8001456:	7013      	strb	r3, [r2, #0]
 8001458:	4c54      	ldr	r4, [pc, #336]	@ (80015ac <main+0x504>)
 800145a:	7823      	ldrb	r3, [r4, #0]
 800145c:	2b01      	cmp	r3, #1
 800145e:	d103      	bne.n	8001468 <main+0x3c0>
 8001460:	f7ff fbfc 	bl	8000c5c <handleUART>
 8001464:	2300      	movs	r3, #0
 8001466:	7023      	strb	r3, [r4, #0]
 8001468:	f899 3000 	ldrb.w	r3, [r9]
 800146c:	2b01      	cmp	r3, #1
 800146e:	d111      	bne.n	8001494 <main+0x3ec>
 8001470:	4b4f      	ldr	r3, [pc, #316]	@ (80015b0 <main+0x508>)
 8001472:	781a      	ldrb	r2, [r3, #0]
 8001474:	2a01      	cmp	r2, #1
 8001476:	d103      	bne.n	8001480 <main+0x3d8>
 8001478:	4b4e      	ldr	r3, [pc, #312]	@ (80015b4 <main+0x50c>)
 800147a:	7819      	ldrb	r1, [r3, #0]
 800147c:	b901      	cbnz	r1, 8001480 <main+0x3d8>
 800147e:	701a      	strb	r2, [r3, #0]
 8001480:	f7ff fb98 	bl	8000bb4 <handleCAN>
 8001484:	4b4c      	ldr	r3, [pc, #304]	@ (80015b8 <main+0x510>)
 8001486:	8899      	ldrh	r1, [r3, #4]
 8001488:	6818      	ldr	r0, [r3, #0]
 800148a:	f001 fd50 	bl	8002f2e <HAL_GPIO_TogglePin>
 800148e:	2300      	movs	r3, #0
 8001490:	f889 3000 	strb.w	r3, [r9]
 8001494:	4c49      	ldr	r4, [pc, #292]	@ (80015bc <main+0x514>)
 8001496:	7826      	ldrb	r6, [r4, #0]
 8001498:	2e01      	cmp	r6, #1
 800149a:	d118      	bne.n	80014ce <main+0x426>
 800149c:	4b48      	ldr	r3, [pc, #288]	@ (80015c0 <main+0x518>)
 800149e:	8899      	ldrh	r1, [r3, #4]
 80014a0:	6818      	ldr	r0, [r3, #0]
 80014a2:	f001 fd44 	bl	8002f2e <HAL_GPIO_TogglePin>
 80014a6:	4b47      	ldr	r3, [pc, #284]	@ (80015c4 <main+0x51c>)
 80014a8:	4a47      	ldr	r2, [pc, #284]	@ (80015c8 <main+0x520>)
 80014aa:	681b      	ldr	r3, [r3, #0]
 80014ac:	6812      	ldr	r2, [r2, #0]
 80014ae:	4947      	ldr	r1, [pc, #284]	@ (80015cc <main+0x524>)
 80014b0:	4640      	mov	r0, r8
 80014b2:	f000 f8a7 	bl	8001604 <systemStatus>
 80014b6:	4b46      	ldr	r3, [pc, #280]	@ (80015d0 <main+0x528>)
 80014b8:	7018      	strb	r0, [r3, #0]
 80014ba:	4b46      	ldr	r3, [pc, #280]	@ (80015d4 <main+0x52c>)
 80014bc:	2800      	cmp	r0, #0
 80014be:	d162      	bne.n	8001586 <main+0x4de>
 80014c0:	4632      	mov	r2, r6
 80014c2:	8899      	ldrh	r1, [r3, #4]
 80014c4:	6818      	ldr	r0, [r3, #0]
 80014c6:	f001 fd2d 	bl	8002f24 <HAL_GPIO_WritePin>
 80014ca:	2300      	movs	r3, #0
 80014cc:	7023      	strb	r3, [r4, #0]
 80014ce:	4c42      	ldr	r4, [pc, #264]	@ (80015d8 <main+0x530>)
 80014d0:	7823      	ldrb	r3, [r4, #0]
 80014d2:	2b01      	cmp	r3, #1
 80014d4:	d108      	bne.n	80014e8 <main+0x440>
 80014d6:	4b3c      	ldr	r3, [pc, #240]	@ (80015c8 <main+0x520>)
 80014d8:	4a33      	ldr	r2, [pc, #204]	@ (80015a8 <main+0x500>)
 80014da:	6819      	ldr	r1, [r3, #0]
 80014dc:	4b39      	ldr	r3, [pc, #228]	@ (80015c4 <main+0x51c>)
 80014de:	6818      	ldr	r0, [r3, #0]
 80014e0:	f000 f9ea 	bl	80018b8 <readAllSensors>
 80014e4:	2300      	movs	r3, #0
 80014e6:	7023      	strb	r3, [r4, #0]
 80014e8:	f8df a10c 	ldr.w	sl, [pc, #268]	@ 80015f8 <main+0x550>
 80014ec:	4c3b      	ldr	r4, [pc, #236]	@ (80015dc <main+0x534>)
 80014ee:	f8ba 3000 	ldrh.w	r3, [sl]
 80014f2:	2beb      	cmp	r3, #235	@ 0xeb
 80014f4:	d93a      	bls.n	800156c <main+0x4c4>
 80014f6:	4b3a      	ldr	r3, [pc, #232]	@ (80015e0 <main+0x538>)
 80014f8:	4e3a      	ldr	r6, [pc, #232]	@ (80015e4 <main+0x53c>)
 80014fa:	6818      	ldr	r0, [r3, #0]
 80014fc:	8899      	ldrh	r1, [r3, #4]
 80014fe:	b289      	uxth	r1, r1
 8001500:	f001 fd0a 	bl	8002f18 <HAL_GPIO_ReadPin>
 8001504:	4b38      	ldr	r3, [pc, #224]	@ (80015e8 <main+0x540>)
 8001506:	781b      	ldrb	r3, [r3, #0]
 8001508:	2b00      	cmp	r3, #0
 800150a:	bf14      	ite	ne
 800150c:	2200      	movne	r2, #0
 800150e:	f000 0201 	andeq.w	r2, r0, #1
 8001512:	b322      	cbz	r2, 800155e <main+0x4b6>
 8001514:	4f28      	ldr	r7, [pc, #160]	@ (80015b8 <main+0x510>)
 8001516:	f8df b0e4 	ldr.w	fp, [pc, #228]	@ 80015fc <main+0x554>
 800151a:	88b9      	ldrh	r1, [r7, #4]
 800151c:	6838      	ldr	r0, [r7, #0]
 800151e:	f001 fd01 	bl	8002f24 <HAL_GPIO_WritePin>
 8001522:	7830      	ldrb	r0, [r6, #0]
 8001524:	686b      	ldr	r3, [r5, #4]
 8001526:	9300      	str	r3, [sp, #0]
 8001528:	682b      	ldr	r3, [r5, #0]
 800152a:	6822      	ldr	r2, [r4, #0]
 800152c:	4641      	mov	r1, r8
 800152e:	eb0b 2000 	add.w	r0, fp, r0, lsl #8
 8001532:	f7ff f995 	bl	8000860 <write_data_spi_dma>
 8001536:	4b2d      	ldr	r3, [pc, #180]	@ (80015ec <main+0x544>)
 8001538:	7830      	ldrb	r0, [r6, #0]
 800153a:	685a      	ldr	r2, [r3, #4]
 800153c:	9200      	str	r2, [sp, #0]
 800153e:	681b      	ldr	r3, [r3, #0]
 8001540:	6822      	ldr	r2, [r4, #0]
 8001542:	4922      	ldr	r1, [pc, #136]	@ (80015cc <main+0x524>)
 8001544:	eb0b 2000 	add.w	r0, fp, r0, lsl #8
 8001548:	f7ff f98a 	bl	8000860 <write_data_spi_dma>
 800154c:	6823      	ldr	r3, [r4, #0]
 800154e:	88b9      	ldrh	r1, [r7, #4]
 8001550:	6838      	ldr	r0, [r7, #0]
 8001552:	f503 7380 	add.w	r3, r3, #256	@ 0x100
 8001556:	2200      	movs	r2, #0
 8001558:	6023      	str	r3, [r4, #0]
 800155a:	f001 fce3 	bl	8002f24 <HAL_GPIO_WritePin>
 800155e:	7833      	ldrb	r3, [r6, #0]
 8001560:	f083 0301 	eor.w	r3, r3, #1
 8001564:	7033      	strb	r3, [r6, #0]
 8001566:	2300      	movs	r3, #0
 8001568:	f8aa 3000 	strh.w	r3, [sl]
 800156c:	6823      	ldr	r3, [r4, #0]
 800156e:	f1b3 7f80 	cmp.w	r3, #16777216	@ 0x1000000
 8001572:	f47f af67 	bne.w	8001444 <main+0x39c>
 8001576:	e895 000c 	ldmia.w	r5, {r2, r3}
 800157a:	491b      	ldr	r1, [pc, #108]	@ (80015e8 <main+0x540>)
 800157c:	4640      	mov	r0, r8
 800157e:	f7ff f999 	bl	80008b4 <find_next_blank_page>
 8001582:	6020      	str	r0, [r4, #0]
 8001584:	e75c      	b.n	8001440 <main+0x398>
 8001586:	2200      	movs	r2, #0
 8001588:	e79b      	b.n	80014c2 <main+0x41a>
 800158a:	bf00      	nop
 800158c:	20000324 	.word	0x20000324
 8001590:	40001400 	.word	0x40001400
 8001594:	20000544 	.word	0x20000544
 8001598:	40005c00 	.word	0x40005c00
 800159c:	000186a0 	.word	0x000186a0
 80015a0:	20000068 	.word	0x20000068
 80015a4:	20000047 	.word	0x20000047
 80015a8:	20000524 	.word	0x20000524
 80015ac:	200002d0 	.word	0x200002d0
 80015b0:	200002a6 	.word	0x200002a6
 80015b4:	20000045 	.word	0x20000045
 80015b8:	20000078 	.word	0x20000078
 80015bc:	200002a4 	.word	0x200002a4
 80015c0:	20000080 	.word	0x20000080
 80015c4:	200002d8 	.word	0x200002d8
 80015c8:	200002d4 	.word	0x200002d4
 80015cc:	20000474 	.word	0x20000474
 80015d0:	20000046 	.word	0x20000046
 80015d4:	20000070 	.word	0x20000070
 80015d8:	200002a5 	.word	0x200002a5
 80015dc:	2000008c 	.word	0x2000008c
 80015e0:	20000048 	.word	0x20000048
 80015e4:	200000a3 	.word	0x200000a3
 80015e8:	20000088 	.word	0x20000088
 80015ec:	20000058 	.word	0x20000058
 80015f0:	200004cc 	.word	0x200004cc
 80015f4:	200002a7 	.word	0x200002a7
 80015f8:	2000008a 	.word	0x2000008a
 80015fc:	200000a4 	.word	0x200000a4

08001600 <Error_Handler>:
 8001600:	b672      	cpsid	i
 8001602:	e7fe      	b.n	8001602 <Error_Handler+0x2>

08001604 <systemStatus>:
 8001604:	e92d 41f3 	stmdb	sp!, {r0, r1, r4, r5, r6, r7, r8, lr}
 8001608:	4607      	mov	r7, r0
 800160a:	4688      	mov	r8, r1
 800160c:	4610      	mov	r0, r2
 800160e:	2101      	movs	r1, #1
 8001610:	4615      	mov	r5, r2
 8001612:	461e      	mov	r6, r3
 8001614:	f7ff f81e 	bl	8000654 <readBME280_id_reg>
 8001618:	2100      	movs	r1, #0
 800161a:	f1b0 0460 	subs.w	r4, r0, #96	@ 0x60
 800161e:	4628      	mov	r0, r5
 8001620:	bf18      	it	ne
 8001622:	2401      	movne	r4, #1
 8001624:	f7ff f816 	bl	8000654 <readBME280_id_reg>
 8001628:	0124      	lsls	r4, r4, #4
 800162a:	2860      	cmp	r0, #96	@ 0x60
 800162c:	4630      	mov	r0, r6
 800162e:	bf18      	it	ne
 8001630:	f044 0408 	orrne.w	r4, r4, #8
 8001634:	f7fe ff70 	bl	8000518 <readAccel_whoami>
 8001638:	4b12      	ldr	r3, [pc, #72]	@ (8001684 <systemStatus+0x80>)
 800163a:	28e5      	cmp	r0, #229	@ 0xe5
 800163c:	cb0c      	ldmia	r3, {r2, r3}
 800163e:	f04f 0500 	mov.w	r5, #0
 8001642:	4641      	mov	r1, r8
 8001644:	4668      	mov	r0, sp
 8001646:	bf18      	it	ne
 8001648:	f044 0404 	orrne.w	r4, r4, #4
 800164c:	f8ad 5000 	strh.w	r5, [sp]
 8001650:	f7ff f986 	bl	8000960 <read_manufacturer_id>
 8001654:	f89d 3000 	ldrb.w	r3, [sp]
 8001658:	f8ad 5004 	strh.w	r5, [sp, #4]
 800165c:	2bef      	cmp	r3, #239	@ 0xef
 800165e:	4b0a      	ldr	r3, [pc, #40]	@ (8001688 <systemStatus+0x84>)
 8001660:	a801      	add	r0, sp, #4
 8001662:	cb0c      	ldmia	r3, {r2, r3}
 8001664:	4639      	mov	r1, r7
 8001666:	bf18      	it	ne
 8001668:	f044 0402 	orrne.w	r4, r4, #2
 800166c:	f7ff f978 	bl	8000960 <read_manufacturer_id>
 8001670:	f89d 3004 	ldrb.w	r3, [sp, #4]
 8001674:	2bef      	cmp	r3, #239	@ 0xef
 8001676:	bf18      	it	ne
 8001678:	f044 0401 	orrne.w	r4, r4, #1
 800167c:	4620      	mov	r0, r4
 800167e:	b002      	add	sp, #8
 8001680:	e8bd 81f0 	ldmia.w	sp!, {r4, r5, r6, r7, r8, pc}
 8001684:	20000058 	.word	0x20000058
 8001688:	20000068 	.word	0x20000068

0800168c <heartbeatUART>:
 800168c:	2151      	movs	r1, #81	@ 0x51
 800168e:	f000 bd6c 	b.w	800216a <send_uart_hex>
	...

08001694 <eraseFlashSPI>:
 8001694:	b513      	push	{r0, r1, r4, lr}
 8001696:	460c      	mov	r4, r1
 8001698:	4669      	mov	r1, sp
 800169a:	e881 000c 	stmia.w	r1, {r2, r3}
 800169e:	c906      	ldmia	r1, {r1, r2}
 80016a0:	f7ff f896 	bl	80007d0 <erase_chip_spi>
 80016a4:	b930      	cbnz	r0, 80016b4 <eraseFlashSPI+0x20>
 80016a6:	4904      	ldr	r1, [pc, #16]	@ (80016b8 <eraseFlashSPI+0x24>)
 80016a8:	4620      	mov	r0, r4
 80016aa:	b002      	add	sp, #8
 80016ac:	e8bd 4010 	ldmia.w	sp!, {r4, lr}
 80016b0:	f000 bd4c 	b.w	800214c <send_uart_string>
 80016b4:	4901      	ldr	r1, [pc, #4]	@ (80016bc <eraseFlashSPI+0x28>)
 80016b6:	e7f7      	b.n	80016a8 <eraseFlashSPI+0x14>
 80016b8:	08005520 	.word	0x08005520
 80016bc:	08005538 	.word	0x08005538

080016c0 <readFlashToUART>:
 80016c0:	e92d 41f0 	stmdb	sp!, {r4, r5, r6, r7, r8, lr}
 80016c4:	b0c4      	sub	sp, #272	@ 0x110
 80016c6:	ae02      	add	r6, sp, #8
 80016c8:	e886 000c 	stmia.w	r6, {r2, r3}
 80016cc:	4b14      	ldr	r3, [pc, #80]	@ (8001720 <readFlashToUART+0x60>)
 80016ce:	681c      	ldr	r4, [r3, #0]
 80016d0:	4607      	mov	r7, r0
 80016d2:	2c00      	cmp	r4, #0
 80016d4:	4813      	ldr	r0, [pc, #76]	@ (8001724 <readFlashToUART+0x64>)
 80016d6:	4688      	mov	r8, r1
 80016d8:	f04f 0201 	mov.w	r2, #1
 80016dc:	f04f 0180 	mov.w	r1, #128	@ 0x80
 80016e0:	bf08      	it	eq
 80016e2:	f44f 7480 	moveq.w	r4, #256	@ 0x100
 80016e6:	f001 fc1d 	bl	8002f24 <HAL_GPIO_WritePin>
 80016ea:	0a24      	lsrs	r4, r4, #8
 80016ec:	2500      	movs	r5, #0
 80016ee:	42a5      	cmp	r5, r4
 80016f0:	ea4f 2205 	mov.w	r2, r5, lsl #8
 80016f4:	d107      	bne.n	8001706 <readFlashToUART+0x46>
 80016f6:	480b      	ldr	r0, [pc, #44]	@ (8001724 <readFlashToUART+0x64>)
 80016f8:	2200      	movs	r2, #0
 80016fa:	2180      	movs	r1, #128	@ 0x80
 80016fc:	b044      	add	sp, #272	@ 0x110
 80016fe:	e8bd 41f0 	ldmia.w	sp!, {r4, r5, r6, r7, r8, lr}
 8001702:	f001 bc0f 	b.w	8002f24 <HAL_GPIO_WritePin>
 8001706:	6873      	ldr	r3, [r6, #4]
 8001708:	9300      	str	r3, [sp, #0]
 800170a:	6833      	ldr	r3, [r6, #0]
 800170c:	4639      	mov	r1, r7
 800170e:	a804      	add	r0, sp, #16
 8001710:	f7ff f904 	bl	800091c <read_page_spi>
 8001714:	a904      	add	r1, sp, #16
 8001716:	4640      	mov	r0, r8
 8001718:	f000 fd12 	bl	8002140 <uart_transmit_page>
 800171c:	3501      	adds	r5, #1
 800171e:	e7e6      	b.n	80016ee <readFlashToUART+0x2e>
 8001720:	2000008c 	.word	0x2000008c
 8001724:	40020400 	.word	0x40020400

08001728 <readFlashManuSPI>:
 8001728:	b51f      	push	{r0, r1, r2, r3, r4, lr}
 800172a:	460c      	mov	r4, r1
 800172c:	4669      	mov	r1, sp
 800172e:	e881 000c 	stmia.w	r1, {r2, r3}
 8001732:	2300      	movs	r3, #0
 8001734:	f8ad 300c 	strh.w	r3, [sp, #12]
 8001738:	e891 000c 	ldmia.w	r1, {r2, r3}
 800173c:	4601      	mov	r1, r0
 800173e:	a803      	add	r0, sp, #12
 8001740:	f7ff f90e 	bl	8000960 <read_manufacturer_id>
 8001744:	f89d 100c 	ldrb.w	r1, [sp, #12]
 8001748:	4620      	mov	r0, r4
 800174a:	f000 fd0e 	bl	800216a <send_uart_hex>
 800174e:	f89d 100d 	ldrb.w	r1, [sp, #13]
 8001752:	4620      	mov	r0, r4
 8001754:	f000 fd09 	bl	800216a <send_uart_hex>
 8001758:	b004      	add	sp, #16
 800175a:	bd10      	pop	{r4, pc}

0800175c <writePageSPI_W>:
 800175c:	b5f0      	push	{r4, r5, r6, r7, lr}
 800175e:	b0c5      	sub	sp, #276	@ 0x114
 8001760:	ac02      	add	r4, sp, #8
 8001762:	e884 000c 	stmia.w	r4, {r2, r3}
 8001766:	4607      	mov	r7, r0
 8001768:	460d      	mov	r5, r1
 800176a:	f44f 7280 	mov.w	r2, #256	@ 0x100
 800176e:	2177      	movs	r1, #119	@ 0x77
 8001770:	a804      	add	r0, sp, #16
 8001772:	f003 fe99 	bl	80054a8 <memset>
 8001776:	4e09      	ldr	r6, [pc, #36]	@ (800179c <writePageSPI_W+0x40>)
 8001778:	6863      	ldr	r3, [r4, #4]
 800177a:	9300      	str	r3, [sp, #0]
 800177c:	6823      	ldr	r3, [r4, #0]
 800177e:	6832      	ldr	r2, [r6, #0]
 8001780:	4639      	mov	r1, r7
 8001782:	a804      	add	r0, sp, #16
 8001784:	f7ff f86c 	bl	8000860 <write_data_spi_dma>
 8001788:	6833      	ldr	r3, [r6, #0]
 800178a:	4905      	ldr	r1, [pc, #20]	@ (80017a0 <writePageSPI_W+0x44>)
 800178c:	f503 7380 	add.w	r3, r3, #256	@ 0x100
 8001790:	4628      	mov	r0, r5
 8001792:	6033      	str	r3, [r6, #0]
 8001794:	f000 fcda 	bl	800214c <send_uart_string>
 8001798:	b045      	add	sp, #276	@ 0x114
 800179a:	bdf0      	pop	{r4, r5, r6, r7, pc}
 800179c:	2000008c 	.word	0x2000008c
 80017a0:	0800557e 	.word	0x0800557e

080017a4 <resetSPIFlash>:
 80017a4:	b537      	push	{r0, r1, r2, r4, r5, lr}
 80017a6:	466c      	mov	r4, sp
 80017a8:	e884 000c 	stmia.w	r4, {r2, r3}
 80017ac:	460d      	mov	r5, r1
 80017ae:	e894 0006 	ldmia.w	r4, {r1, r2}
 80017b2:	f7ff f831 	bl	8000818 <software_reset>
 80017b6:	4903      	ldr	r1, [pc, #12]	@ (80017c4 <resetSPIFlash+0x20>)
 80017b8:	4628      	mov	r0, r5
 80017ba:	b003      	add	sp, #12
 80017bc:	e8bd 4030 	ldmia.w	sp!, {r4, r5, lr}
 80017c0:	f000 bcc4 	b.w	800214c <send_uart_string>
 80017c4:	08005598 	.word	0x08005598

080017c8 <checkAccelWhoAmI>:
 80017c8:	b510      	push	{r4, lr}
 80017ca:	460c      	mov	r4, r1
 80017cc:	f7fe fea4 	bl	8000518 <readAccel_whoami>
 80017d0:	4601      	mov	r1, r0
 80017d2:	4620      	mov	r0, r4
 80017d4:	e8bd 4010 	ldmia.w	sp!, {r4, lr}
 80017d8:	f000 bcc7 	b.w	800216a <send_uart_hex>

080017dc <accelToUART>:
 80017dc:	b570      	push	{r4, r5, r6, lr}
 80017de:	4e06      	ldr	r6, [pc, #24]	@ (80017f8 <accelToUART+0x1c>)
 80017e0:	4605      	mov	r5, r0
 80017e2:	2400      	movs	r4, #0
 80017e4:	f816 1b01 	ldrb.w	r1, [r6], #1
 80017e8:	4628      	mov	r0, r5
 80017ea:	3401      	adds	r4, #1
 80017ec:	f000 fcbd 	bl	800216a <send_uart_hex>
 80017f0:	2c06      	cmp	r4, #6
 80017f2:	d1f7      	bne.n	80017e4 <accelToUART+0x8>
 80017f4:	bd70      	pop	{r4, r5, r6, pc}
 80017f6:	bf00      	nop
 80017f8:	2000009d 	.word	0x2000009d

080017fc <readTempSensorID>:
 80017fc:	b510      	push	{r4, lr}
 80017fe:	460c      	mov	r4, r1
 8001800:	4611      	mov	r1, r2
 8001802:	f7fe ff27 	bl	8000654 <readBME280_id_reg>
 8001806:	4601      	mov	r1, r0
 8001808:	4620      	mov	r0, r4
 800180a:	e8bd 4010 	ldmia.w	sp!, {r4, lr}
 800180e:	f000 bcac 	b.w	800216a <send_uart_hex>

08001812 <readTempCalibration>:
 8001812:	b570      	push	{r4, r5, r6, lr}
 8001814:	b08a      	sub	sp, #40	@ 0x28
 8001816:	4604      	mov	r4, r0
 8001818:	460d      	mov	r5, r1
 800181a:	4616      	mov	r6, r2
 800181c:	2100      	movs	r1, #0
 800181e:	2219      	movs	r2, #25
 8001820:	a803      	add	r0, sp, #12
 8001822:	f003 fe41 	bl	80054a8 <memset>
 8001826:	2300      	movs	r3, #0
 8001828:	a901      	add	r1, sp, #4
 800182a:	4618      	mov	r0, r3
 800182c:	2b06      	cmp	r3, #6
 800182e:	f103 0201 	add.w	r2, r3, #1
 8001832:	d802      	bhi.n	800183a <readTempCalibration+0x28>
 8001834:	5458      	strb	r0, [r3, r1]
 8001836:	4613      	mov	r3, r2
 8001838:	e7f8      	b.n	800182c <readTempCalibration+0x1a>
 800183a:	2a19      	cmp	r2, #25
 800183c:	4613      	mov	r3, r2
 800183e:	d1f5      	bne.n	800182c <readTempCalibration+0x1a>
 8001840:	4631      	mov	r1, r6
 8001842:	4620      	mov	r0, r4
 8001844:	ab01      	add	r3, sp, #4
 8001846:	aa03      	add	r2, sp, #12
 8001848:	f7fe ff1a 	bl	8000680 <readBME280_calib>
 800184c:	ac03      	add	r4, sp, #12
 800184e:	2600      	movs	r6, #0
 8001850:	f814 1b01 	ldrb.w	r1, [r4], #1
 8001854:	4628      	mov	r0, r5
 8001856:	3601      	adds	r6, #1
 8001858:	f000 fc87 	bl	800216a <send_uart_hex>
 800185c:	2e19      	cmp	r6, #25
 800185e:	d1f7      	bne.n	8001850 <readTempCalibration+0x3e>
 8001860:	ac01      	add	r4, sp, #4
 8001862:	2600      	movs	r6, #0
 8001864:	f814 1b01 	ldrb.w	r1, [r4], #1
 8001868:	4628      	mov	r0, r5
 800186a:	3601      	adds	r6, #1
 800186c:	f000 fc7d 	bl	800216a <send_uart_hex>
 8001870:	2e07      	cmp	r6, #7
 8001872:	d1f7      	bne.n	8001864 <readTempCalibration+0x52>
 8001874:	b00a      	add	sp, #40	@ 0x28
 8001876:	bd70      	pop	{r4, r5, r6, pc}

08001878 <readTempSensor>:
 8001878:	b570      	push	{r4, r5, r6, lr}
 800187a:	4605      	mov	r5, r0
 800187c:	460c      	mov	r4, r1
 800187e:	b949      	cbnz	r1, 8001894 <readTempSensor+0x1c>
 8001880:	4e0b      	ldr	r6, [pc, #44]	@ (80018b0 <readTempSensor+0x38>)
 8001882:	f816 1b01 	ldrb.w	r1, [r6], #1
 8001886:	4628      	mov	r0, r5
 8001888:	3401      	adds	r4, #1
 800188a:	f000 fc6e 	bl	800216a <send_uart_hex>
 800188e:	2c06      	cmp	r4, #6
 8001890:	d1f7      	bne.n	8001882 <readTempSensor+0xa>
 8001892:	bd70      	pop	{r4, r5, r6, pc}
 8001894:	2901      	cmp	r1, #1
 8001896:	d1fc      	bne.n	8001892 <readTempSensor+0x1a>
 8001898:	4e06      	ldr	r6, [pc, #24]	@ (80018b4 <readTempSensor+0x3c>)
 800189a:	2400      	movs	r4, #0
 800189c:	f816 1b01 	ldrb.w	r1, [r6], #1
 80018a0:	4628      	mov	r0, r5
 80018a2:	3401      	adds	r4, #1
 80018a4:	f000 fc61 	bl	800216a <send_uart_hex>
 80018a8:	2c06      	cmp	r4, #6
 80018aa:	d1f7      	bne.n	800189c <readTempSensor+0x24>
 80018ac:	e7f1      	b.n	8001892 <readTempSensor+0x1a>
 80018ae:	bf00      	nop
 80018b0:	20000097 	.word	0x20000097
 80018b4:	20000091 	.word	0x20000091

080018b8 <readAllSensors>:
 80018b8:	e92d 43f8 	stmdb	sp!, {r3, r4, r5, r6, r7, r8, r9, lr}
 80018bc:	f8df 80b4 	ldr.w	r8, [pc, #180]	@ 8001974 <readAllSensors+0xbc>
 80018c0:	4f27      	ldr	r7, [pc, #156]	@ (8001960 <readAllSensors+0xa8>)
 80018c2:	4e28      	ldr	r6, [pc, #160]	@ (8001964 <readAllSensors+0xac>)
 80018c4:	460c      	mov	r4, r1
 80018c6:	4601      	mov	r1, r0
 80018c8:	4640      	mov	r0, r8
 80018ca:	4615      	mov	r5, r2
 80018cc:	f7fe fe0e 	bl	80004ec <readAccelerometer>
 80018d0:	2200      	movs	r2, #0
 80018d2:	4621      	mov	r1, r4
 80018d4:	4638      	mov	r0, r7
 80018d6:	f7fe fef1 	bl	80006bc <readTempHumPres>
 80018da:	4823      	ldr	r0, [pc, #140]	@ (8001968 <readAllSensors+0xb0>)
 80018dc:	2201      	movs	r2, #1
 80018de:	4621      	mov	r1, r4
 80018e0:	f7fe feec 	bl	80006bc <readTempHumPres>
 80018e4:	4628      	mov	r0, r5
 80018e6:	f000 f877 	bl	80019d8 <getTimestampMilliseconds>
 80018ea:	8835      	ldrh	r5, [r6, #0]
 80018ec:	2dea      	cmp	r5, #234	@ 0xea
 80018ee:	d834      	bhi.n	800195a <readAllSensors+0xa2>
 80018f0:	4b1e      	ldr	r3, [pc, #120]	@ (800196c <readAllSensors+0xb4>)
 80018f2:	4c1f      	ldr	r4, [pc, #124]	@ (8001970 <readAllSensors+0xb8>)
 80018f4:	781a      	ldrb	r2, [r3, #0]
 80018f6:	f8d8 c000 	ldr.w	ip, [r8]
 80018fa:	eb04 2302 	add.w	r3, r4, r2, lsl #8
 80018fe:	1959      	adds	r1, r3, r5
 8001900:	5558      	strb	r0, [r3, r5]
 8001902:	f3c0 2007 	ubfx	r0, r0, #8, #8
 8001906:	7048      	strb	r0, [r1, #1]
 8001908:	eb05 2302 	add.w	r3, r5, r2, lsl #8
 800190c:	1ca1      	adds	r1, r4, #2
 800190e:	1858      	adds	r0, r3, r1
 8001910:	f841 c003 	str.w	ip, [r1, r3]
 8001914:	f8b8 1004 	ldrh.w	r1, [r8, #4]
 8001918:	8081      	strh	r1, [r0, #4]
 800191a:	f104 0108 	add.w	r1, r4, #8
 800191e:	f8d7 c000 	ldr.w	ip, [r7]
 8001922:	f841 c003 	str.w	ip, [r1, r3]
 8001926:	1858      	adds	r0, r3, r1
 8001928:	88bb      	ldrh	r3, [r7, #4]
 800192a:	8083      	strh	r3, [r0, #4]
 800192c:	f105 030d 	add.w	r3, r5, #13
 8001930:	eb03 2302 	add.w	r3, r3, r2, lsl #8
 8001934:	490c      	ldr	r1, [pc, #48]	@ (8001968 <readAllSensors+0xb0>)
 8001936:	ea4f 2902 	mov.w	r9, r2, lsl #8
 800193a:	4423      	add	r3, r4
 800193c:	2206      	movs	r2, #6
 800193e:	f811 0b01 	ldrb.w	r0, [r1], #1
 8001942:	f803 0f01 	strb.w	r0, [r3, #1]!
 8001946:	3a01      	subs	r2, #1
 8001948:	d1f9      	bne.n	800193e <readAllSensors+0x86>
 800194a:	f7ff fa9f 	bl	8000e8c <combine_system_status>
 800194e:	444c      	add	r4, r9
 8001950:	8833      	ldrh	r3, [r6, #0]
 8001952:	442c      	add	r4, r5
 8001954:	3315      	adds	r3, #21
 8001956:	7520      	strb	r0, [r4, #20]
 8001958:	8033      	strh	r3, [r6, #0]
 800195a:	e8bd 83f8 	ldmia.w	sp!, {r3, r4, r5, r6, r7, r8, r9, pc}
 800195e:	bf00      	nop
 8001960:	20000097 	.word	0x20000097
 8001964:	2000008a 	.word	0x2000008a
 8001968:	20000091 	.word	0x20000091
 800196c:	200000a3 	.word	0x200000a3
 8001970:	200000a4 	.word	0x200000a4
 8001974:	2000009d 	.word	0x2000009d

08001978 <initialise_rtc_default>:
 8001978:	b537      	push	{r0, r1, r2, r4, r5, lr}
 800197a:	4b13      	ldr	r3, [pc, #76]	@ (80019c8 <initialise_rtc_default+0x50>)
 800197c:	2500      	movs	r5, #0
 800197e:	9501      	str	r5, [sp, #4]
 8001980:	6c1a      	ldr	r2, [r3, #64]	@ 0x40
 8001982:	f042 5280 	orr.w	r2, r2, #268435456	@ 0x10000000
 8001986:	641a      	str	r2, [r3, #64]	@ 0x40
 8001988:	6c1b      	ldr	r3, [r3, #64]	@ 0x40
 800198a:	f003 5380 	and.w	r3, r3, #268435456	@ 0x10000000
 800198e:	9301      	str	r3, [sp, #4]
 8001990:	4604      	mov	r4, r0
 8001992:	9b01      	ldr	r3, [sp, #4]
 8001994:	f001 ff3e 	bl	8003814 <HAL_PWR_EnableBkUpAccess>
 8001998:	4b0c      	ldr	r3, [pc, #48]	@ (80019cc <initialise_rtc_default+0x54>)
 800199a:	2201      	movs	r2, #1
 800199c:	f8c3 2e40 	str.w	r2, [r3, #3648]	@ 0xe40
 80019a0:	4620      	mov	r0, r4
 80019a2:	f8c3 5e40 	str.w	r5, [r3, #3648]	@ 0xe40
 80019a6:	f000 f9e5 	bl	8001d74 <HAL_RTC_MspInit>
 80019aa:	462a      	mov	r2, r5
 80019ac:	4908      	ldr	r1, [pc, #32]	@ (80019d0 <initialise_rtc_default+0x58>)
 80019ae:	4620      	mov	r0, r4
 80019b0:	f002 fbae 	bl	8004110 <HAL_RTC_SetTime>
 80019b4:	4907      	ldr	r1, [pc, #28]	@ (80019d4 <initialise_rtc_default+0x5c>)
 80019b6:	462a      	mov	r2, r5
 80019b8:	4620      	mov	r0, r4
 80019ba:	f002 fc03 	bl	80041c4 <HAL_RTC_SetDate>
 80019be:	b003      	add	sp, #12
 80019c0:	e8bd 4030 	ldmia.w	sp!, {r4, r5, lr}
 80019c4:	f001 bf34 	b.w	8003830 <HAL_PWR_DisableBkUpAccess>
 80019c8:	40023800 	.word	0x40023800
 80019cc:	42470000 	.word	0x42470000
 80019d0:	20000614 	.word	0x20000614
 80019d4:	20000018 	.word	0x20000018

080019d8 <getTimestampMilliseconds>:
 80019d8:	b510      	push	{r4, lr}
 80019da:	b086      	sub	sp, #24
 80019dc:	4604      	mov	r4, r0
 80019de:	a901      	add	r1, sp, #4
 80019e0:	2200      	movs	r2, #0
 80019e2:	f002 fc3f 	bl	8004264 <HAL_RTC_GetTime>
 80019e6:	4669      	mov	r1, sp
 80019e8:	2200      	movs	r2, #0
 80019ea:	4620      	mov	r0, r4
 80019ec:	f002 fc5d 	bl	80042aa <HAL_RTC_GetDate>
 80019f0:	e9dd 2302 	ldrd	r2, r3, [sp, #8]
 80019f4:	1a9a      	subs	r2, r3, r2
 80019f6:	ee07 2a90 	vmov	s15, r2
 80019fa:	3301      	adds	r3, #1
 80019fc:	eeb8 7a67 	vcvt.f32.u32	s14, s15
 8001a00:	ee07 3a90 	vmov	s15, r3
 8001a04:	eef8 7a67 	vcvt.f32.u32	s15, s15
 8001a08:	f89d 1005 	ldrb.w	r1, [sp, #5]
 8001a0c:	f89d 2006 	ldrb.w	r2, [sp, #6]
 8001a10:	eec7 6a27 	vdiv.f32	s13, s14, s15
 8001a14:	233c      	movs	r3, #60	@ 0x3c
 8001a16:	fb13 2301 	smlabb	r3, r3, r1, r2
 8001a1a:	f89d 2004 	ldrb.w	r2, [sp, #4]
 8001a1e:	f44f 6161 	mov.w	r1, #3600	@ 0xe10
 8001a22:	fb01 3302 	mla	r3, r1, r2, r3
 8001a26:	f44f 727a 	mov.w	r2, #1000	@ 0x3e8
 8001a2a:	4353      	muls	r3, r2
 8001a2c:	ee07 3a90 	vmov	s15, r3
 8001a30:	ed9f 7a05 	vldr	s14, [pc, #20]	@ 8001a48 <getTimestampMilliseconds+0x70>
 8001a34:	eef8 7ae7 	vcvt.f32.s32	s15, s15
 8001a38:	eee6 7a87 	vfma.f32	s15, s13, s14
 8001a3c:	eefc 7ae7 	vcvt.u32.f32	s15, s15
 8001a40:	ee17 0a90 	vmov	r0, s15
 8001a44:	b006      	add	sp, #24
 8001a46:	bd10      	pop	{r4, pc}
 8001a48:	447a0000 	.word	0x447a0000

08001a4c <spi_sendOp_readByte>:
 8001a4c:	e92d 41f0 	stmdb	sp!, {r4, r5, r6, r7, r8, lr}
 8001a50:	f8bd 8018 	ldrh.w	r8, [sp, #24]
 8001a54:	460d      	mov	r5, r1
 8001a56:	4607      	mov	r7, r0
 8001a58:	4616      	mov	r6, r2
 8001a5a:	4641      	mov	r1, r8
 8001a5c:	4618      	mov	r0, r3
 8001a5e:	2200      	movs	r2, #0
 8001a60:	461c      	mov	r4, r3
 8001a62:	f001 fa5f 	bl	8002f24 <HAL_GPIO_WritePin>
 8001a66:	4639      	mov	r1, r7
 8001a68:	2302      	movs	r3, #2
 8001a6a:	2201      	movs	r2, #1
 8001a6c:	4628      	mov	r0, r5
 8001a6e:	f002 fd5b 	bl	8004528 <HAL_SPI_Transmit>
 8001a72:	2302      	movs	r3, #2
 8001a74:	4631      	mov	r1, r6
 8001a76:	2201      	movs	r2, #1
 8001a78:	4628      	mov	r0, r5
 8001a7a:	f002 ff00 	bl	800487e <HAL_SPI_Receive>
 8001a7e:	2201      	movs	r2, #1
 8001a80:	4605      	mov	r5, r0
 8001a82:	4641      	mov	r1, r8
 8001a84:	4620      	mov	r0, r4
 8001a86:	f001 fa4d 	bl	8002f24 <HAL_GPIO_WritePin>
 8001a8a:	4628      	mov	r0, r5
 8001a8c:	e8bd 81f0 	ldmia.w	sp!, {r4, r5, r6, r7, r8, pc}

08001a90 <perform_operation>:
 8001a90:	b5f8      	push	{r3, r4, r5, r6, r7, lr}
 8001a92:	4614      	mov	r4, r2
 8001a94:	4607      	mov	r7, r0
 8001a96:	460e      	mov	r6, r1
 8001a98:	4620      	mov	r0, r4
 8001a9a:	4619      	mov	r1, r3
 8001a9c:	2200      	movs	r2, #0
 8001a9e:	461d      	mov	r5, r3
 8001aa0:	f001 fa40 	bl	8002f24 <HAL_GPIO_WritePin>
 8001aa4:	2302      	movs	r3, #2
 8001aa6:	4639      	mov	r1, r7
 8001aa8:	2201      	movs	r2, #1
 8001aaa:	4630      	mov	r0, r6
 8001aac:	f002 fd3c 	bl	8004528 <HAL_SPI_Transmit>
 8001ab0:	2201      	movs	r2, #1
 8001ab2:	4606      	mov	r6, r0
 8001ab4:	4629      	mov	r1, r5
 8001ab6:	4620      	mov	r0, r4
 8001ab8:	f001 fa34 	bl	8002f24 <HAL_GPIO_WritePin>
 8001abc:	4630      	mov	r0, r6
 8001abe:	bdf8      	pop	{r3, r4, r5, r6, r7, pc}

08001ac0 <spi_read_data>:
 8001ac0:	e92d 43f7 	stmdb	sp!, {r0, r1, r2, r4, r5, r6, r7, r8, r9, lr}
 8001ac4:	461c      	mov	r4, r3
 8001ac6:	e9dd 360a 	ldrd	r3, r6, [sp, #40]	@ 0x28
 8001aca:	f8bd 7030 	ldrh.w	r7, [sp, #48]	@ 0x30
 8001ace:	f88d 3005 	strb.w	r3, [sp, #5]
 8001ad2:	4615      	mov	r5, r2
 8001ad4:	0a1a      	lsrs	r2, r3, #8
 8001ad6:	4681      	mov	r9, r0
 8001ad8:	4688      	mov	r8, r1
 8001ada:	f88d 2006 	strb.w	r2, [sp, #6]
 8001ade:	0c1b      	lsrs	r3, r3, #16
 8001ae0:	4639      	mov	r1, r7
 8001ae2:	4630      	mov	r0, r6
 8001ae4:	2200      	movs	r2, #0
 8001ae6:	f88d 3007 	strb.w	r3, [sp, #7]
 8001aea:	f001 fa1b 	bl	8002f24 <HAL_GPIO_WritePin>
 8001aee:	4649      	mov	r1, r9
 8001af0:	2302      	movs	r3, #2
 8001af2:	2201      	movs	r2, #1
 8001af4:	4620      	mov	r0, r4
 8001af6:	f002 fd17 	bl	8004528 <HAL_SPI_Transmit>
 8001afa:	f10d 0107 	add.w	r1, sp, #7
 8001afe:	2302      	movs	r3, #2
 8001b00:	2201      	movs	r2, #1
 8001b02:	4620      	mov	r0, r4
 8001b04:	f002 fd10 	bl	8004528 <HAL_SPI_Transmit>
 8001b08:	f10d 0106 	add.w	r1, sp, #6
 8001b0c:	2302      	movs	r3, #2
 8001b0e:	2201      	movs	r2, #1
 8001b10:	4620      	mov	r0, r4
 8001b12:	f002 fd09 	bl	8004528 <HAL_SPI_Transmit>
 8001b16:	f10d 0105 	add.w	r1, sp, #5
 8001b1a:	2302      	movs	r3, #2
 8001b1c:	2201      	movs	r2, #1
 8001b1e:	4620      	mov	r0, r4
 8001b20:	f002 fd02 	bl	8004528 <HAL_SPI_Transmit>
 8001b24:	2364      	movs	r3, #100	@ 0x64
 8001b26:	4642      	mov	r2, r8
 8001b28:	4629      	mov	r1, r5
 8001b2a:	4620      	mov	r0, r4
 8001b2c:	f002 fea7 	bl	800487e <HAL_SPI_Receive>
 8001b30:	2201      	movs	r2, #1
 8001b32:	4604      	mov	r4, r0
 8001b34:	4639      	mov	r1, r7
 8001b36:	4630      	mov	r0, r6
 8001b38:	f001 f9f4 	bl	8002f24 <HAL_GPIO_WritePin>
 8001b3c:	4620      	mov	r0, r4
 8001b3e:	b003      	add	sp, #12
 8001b40:	e8bd 83f0 	ldmia.w	sp!, {r4, r5, r6, r7, r8, r9, pc}

08001b44 <spi_write_data_dma>:
 8001b44:	b5f7      	push	{r0, r1, r2, r4, r5, r6, r7, lr}
 8001b46:	461c      	mov	r4, r3
 8001b48:	9b08      	ldr	r3, [sp, #32]
 8001b4a:	f88d 3005 	strb.w	r3, [sp, #5]
 8001b4e:	4615      	mov	r5, r2
 8001b50:	0a1a      	lsrs	r2, r3, #8
 8001b52:	4607      	mov	r7, r0
 8001b54:	460e      	mov	r6, r1
 8001b56:	9809      	ldr	r0, [sp, #36]	@ 0x24
 8001b58:	f8bd 1028 	ldrh.w	r1, [sp, #40]	@ 0x28
 8001b5c:	f88d 2006 	strb.w	r2, [sp, #6]
 8001b60:	0c1b      	lsrs	r3, r3, #16
 8001b62:	2200      	movs	r2, #0
 8001b64:	f88d 3007 	strb.w	r3, [sp, #7]
 8001b68:	f001 f9dc 	bl	8002f24 <HAL_GPIO_WritePin>
 8001b6c:	4639      	mov	r1, r7
 8001b6e:	2302      	movs	r3, #2
 8001b70:	2201      	movs	r2, #1
 8001b72:	4620      	mov	r0, r4
 8001b74:	f002 fcd8 	bl	8004528 <HAL_SPI_Transmit>
 8001b78:	f10d 0107 	add.w	r1, sp, #7
 8001b7c:	2302      	movs	r3, #2
 8001b7e:	2201      	movs	r2, #1
 8001b80:	4620      	mov	r0, r4
 8001b82:	f002 fcd1 	bl	8004528 <HAL_SPI_Transmit>
 8001b86:	f10d 0106 	add.w	r1, sp, #6
 8001b8a:	2302      	movs	r3, #2
 8001b8c:	2201      	movs	r2, #1
 8001b8e:	4620      	mov	r0, r4
 8001b90:	f002 fcca 	bl	8004528 <HAL_SPI_Transmit>
 8001b94:	2302      	movs	r3, #2
 8001b96:	f10d 0105 	add.w	r1, sp, #5
 8001b9a:	2201      	movs	r2, #1
 8001b9c:	4620      	mov	r0, r4
 8001b9e:	f002 fcc3 	bl	8004528 <HAL_SPI_Transmit>
 8001ba2:	4632      	mov	r2, r6
 8001ba4:	4629      	mov	r1, r5
 8001ba6:	4620      	mov	r0, r4
 8001ba8:	f002 ff0e 	bl	80049c8 <HAL_SPI_Transmit_DMA>
 8001bac:	b003      	add	sp, #12
 8001bae:	bdf0      	pop	{r4, r5, r6, r7, pc}

08001bb0 <HAL_MspInit>:
 8001bb0:	b082      	sub	sp, #8
 8001bb2:	4b0c      	ldr	r3, [pc, #48]	@ (8001be4 <HAL_MspInit+0x34>)
 8001bb4:	2100      	movs	r1, #0
 8001bb6:	9100      	str	r1, [sp, #0]
 8001bb8:	6c5a      	ldr	r2, [r3, #68]	@ 0x44
 8001bba:	f442 4280 	orr.w	r2, r2, #16384	@ 0x4000
 8001bbe:	645a      	str	r2, [r3, #68]	@ 0x44
 8001bc0:	6c5a      	ldr	r2, [r3, #68]	@ 0x44
 8001bc2:	f402 4280 	and.w	r2, r2, #16384	@ 0x4000
 8001bc6:	9200      	str	r2, [sp, #0]
 8001bc8:	9a00      	ldr	r2, [sp, #0]
 8001bca:	9101      	str	r1, [sp, #4]
 8001bcc:	6c1a      	ldr	r2, [r3, #64]	@ 0x40
 8001bce:	f042 5280 	orr.w	r2, r2, #268435456	@ 0x10000000
 8001bd2:	641a      	str	r2, [r3, #64]	@ 0x40
 8001bd4:	6c1b      	ldr	r3, [r3, #64]	@ 0x40
 8001bd6:	f003 5380 	and.w	r3, r3, #268435456	@ 0x10000000
 8001bda:	9301      	str	r3, [sp, #4]
 8001bdc:	9b01      	ldr	r3, [sp, #4]
 8001bde:	b002      	add	sp, #8
 8001be0:	4770      	bx	lr
 8001be2:	bf00      	nop
 8001be4:	40023800 	.word	0x40023800

08001be8 <HAL_CAN_MspInit>:
 8001be8:	b510      	push	{r4, lr}
 8001bea:	4604      	mov	r4, r0
 8001bec:	b088      	sub	sp, #32
 8001bee:	2214      	movs	r2, #20
 8001bf0:	2100      	movs	r1, #0
 8001bf2:	a803      	add	r0, sp, #12
 8001bf4:	f003 fc58 	bl	80054a8 <memset>
 8001bf8:	6822      	ldr	r2, [r4, #0]
 8001bfa:	4b1d      	ldr	r3, [pc, #116]	@ (8001c70 <HAL_CAN_MspInit+0x88>)
 8001bfc:	429a      	cmp	r2, r3
 8001bfe:	d134      	bne.n	8001c6a <HAL_CAN_MspInit+0x82>
 8001c00:	f503 33e8 	add.w	r3, r3, #118784	@ 0x1d000
 8001c04:	2400      	movs	r4, #0
 8001c06:	9400      	str	r4, [sp, #0]
 8001c08:	6c1a      	ldr	r2, [r3, #64]	@ 0x40
 8001c0a:	481a      	ldr	r0, [pc, #104]	@ (8001c74 <HAL_CAN_MspInit+0x8c>)
 8001c0c:	f042 6280 	orr.w	r2, r2, #67108864	@ 0x4000000
 8001c10:	641a      	str	r2, [r3, #64]	@ 0x40
 8001c12:	6c1a      	ldr	r2, [r3, #64]	@ 0x40
 8001c14:	f002 6280 	and.w	r2, r2, #67108864	@ 0x4000000
 8001c18:	9200      	str	r2, [sp, #0]
 8001c1a:	9a00      	ldr	r2, [sp, #0]
 8001c1c:	9401      	str	r4, [sp, #4]
 8001c1e:	6c1a      	ldr	r2, [r3, #64]	@ 0x40
 8001c20:	f042 7200 	orr.w	r2, r2, #33554432	@ 0x2000000
 8001c24:	641a      	str	r2, [r3, #64]	@ 0x40
 8001c26:	6c1a      	ldr	r2, [r3, #64]	@ 0x40
 8001c28:	f002 7200 	and.w	r2, r2, #33554432	@ 0x2000000
 8001c2c:	9201      	str	r2, [sp, #4]
 8001c2e:	9a01      	ldr	r2, [sp, #4]
 8001c30:	9402      	str	r4, [sp, #8]
 8001c32:	6b1a      	ldr	r2, [r3, #48]	@ 0x30
 8001c34:	f042 0202 	orr.w	r2, r2, #2
 8001c38:	631a      	str	r2, [r3, #48]	@ 0x30
 8001c3a:	6b1b      	ldr	r3, [r3, #48]	@ 0x30
 8001c3c:	f003 0302 	and.w	r3, r3, #2
 8001c40:	9302      	str	r3, [sp, #8]
 8001c42:	2260      	movs	r2, #96	@ 0x60
 8001c44:	9b02      	ldr	r3, [sp, #8]
 8001c46:	2302      	movs	r3, #2
 8001c48:	e9cd 2303 	strd	r2, r3, [sp, #12]
 8001c4c:	2103      	movs	r1, #3
 8001c4e:	2309      	movs	r3, #9
 8001c50:	e9cd 1306 	strd	r1, r3, [sp, #24]
 8001c54:	a903      	add	r1, sp, #12
 8001c56:	f001 f87b 	bl	8002d50 <HAL_GPIO_Init>
 8001c5a:	2040      	movs	r0, #64	@ 0x40
 8001c5c:	4622      	mov	r2, r4
 8001c5e:	4621      	mov	r1, r4
 8001c60:	f000 fe46 	bl	80028f0 <HAL_NVIC_SetPriority>
 8001c64:	2040      	movs	r0, #64	@ 0x40
 8001c66:	f000 fe75 	bl	8002954 <HAL_NVIC_EnableIRQ>
 8001c6a:	b008      	add	sp, #32
 8001c6c:	bd10      	pop	{r4, pc}
 8001c6e:	bf00      	nop
 8001c70:	40006800 	.word	0x40006800
 8001c74:	40020400 	.word	0x40020400

08001c78 <HAL_I2C_MspInit>:
 8001c78:	e92d 41f0 	stmdb	sp!, {r4, r5, r6, r7, r8, lr}
 8001c7c:	2214      	movs	r2, #20
 8001c7e:	b08a      	sub	sp, #40	@ 0x28
 8001c80:	4604      	mov	r4, r0
 8001c82:	2100      	movs	r1, #0
 8001c84:	eb0d 0002 	add.w	r0, sp, r2
 8001c88:	f003 fc0e 	bl	80054a8 <memset>
 8001c8c:	6823      	ldr	r3, [r4, #0]
 8001c8e:	4a33      	ldr	r2, [pc, #204]	@ (8001d5c <HAL_I2C_MspInit+0xe4>)
 8001c90:	4293      	cmp	r3, r2
 8001c92:	d125      	bne.n	8001ce0 <HAL_I2C_MspInit+0x68>
 8001c94:	4c32      	ldr	r4, [pc, #200]	@ (8001d60 <HAL_I2C_MspInit+0xe8>)
 8001c96:	4833      	ldr	r0, [pc, #204]	@ (8001d64 <HAL_I2C_MspInit+0xec>)
 8001c98:	2500      	movs	r5, #0
 8001c9a:	9500      	str	r5, [sp, #0]
 8001c9c:	6b23      	ldr	r3, [r4, #48]	@ 0x30
 8001c9e:	f043 0302 	orr.w	r3, r3, #2
 8001ca2:	6323      	str	r3, [r4, #48]	@ 0x30
 8001ca4:	6b23      	ldr	r3, [r4, #48]	@ 0x30
 8001ca6:	f003 0302 	and.w	r3, r3, #2
 8001caa:	9300      	str	r3, [sp, #0]
 8001cac:	9b00      	ldr	r3, [sp, #0]
 8001cae:	f44f 7240 	mov.w	r2, #768	@ 0x300
 8001cb2:	2312      	movs	r3, #18
 8001cb4:	e9cd 2305 	strd	r2, r3, [sp, #20]
 8001cb8:	2103      	movs	r1, #3
 8001cba:	2304      	movs	r3, #4
 8001cbc:	e9cd 1308 	strd	r1, r3, [sp, #32]
 8001cc0:	a905      	add	r1, sp, #20
 8001cc2:	f001 f845 	bl	8002d50 <HAL_GPIO_Init>
 8001cc6:	9501      	str	r5, [sp, #4]
 8001cc8:	6c23      	ldr	r3, [r4, #64]	@ 0x40
 8001cca:	f443 1300 	orr.w	r3, r3, #2097152	@ 0x200000
 8001cce:	6423      	str	r3, [r4, #64]	@ 0x40
 8001cd0:	6c23      	ldr	r3, [r4, #64]	@ 0x40
 8001cd2:	f403 1300 	and.w	r3, r3, #2097152	@ 0x200000
 8001cd6:	9301      	str	r3, [sp, #4]
 8001cd8:	9b01      	ldr	r3, [sp, #4]
 8001cda:	b00a      	add	sp, #40	@ 0x28
 8001cdc:	e8bd 81f0 	ldmia.w	sp!, {r4, r5, r6, r7, r8, pc}
 8001ce0:	4a21      	ldr	r2, [pc, #132]	@ (8001d68 <HAL_I2C_MspInit+0xf0>)
 8001ce2:	4293      	cmp	r3, r2
 8001ce4:	d1f9      	bne.n	8001cda <HAL_I2C_MspInit+0x62>
 8001ce6:	4c1e      	ldr	r4, [pc, #120]	@ (8001d60 <HAL_I2C_MspInit+0xe8>)
 8001ce8:	4820      	ldr	r0, [pc, #128]	@ (8001d6c <HAL_I2C_MspInit+0xf4>)
 8001cea:	2500      	movs	r5, #0
 8001cec:	9502      	str	r5, [sp, #8]
 8001cee:	6b23      	ldr	r3, [r4, #48]	@ 0x30
 8001cf0:	f043 0304 	orr.w	r3, r3, #4
 8001cf4:	6323      	str	r3, [r4, #48]	@ 0x30
 8001cf6:	6b23      	ldr	r3, [r4, #48]	@ 0x30
 8001cf8:	f003 0304 	and.w	r3, r3, #4
 8001cfc:	9302      	str	r3, [sp, #8]
 8001cfe:	9b02      	ldr	r3, [sp, #8]
 8001d00:	9503      	str	r5, [sp, #12]
 8001d02:	6b23      	ldr	r3, [r4, #48]	@ 0x30
 8001d04:	f043 0301 	orr.w	r3, r3, #1
 8001d08:	6323      	str	r3, [r4, #48]	@ 0x30
 8001d0a:	6b23      	ldr	r3, [r4, #48]	@ 0x30
 8001d0c:	f003 0301 	and.w	r3, r3, #1
 8001d10:	9303      	str	r3, [sp, #12]
 8001d12:	9b03      	ldr	r3, [sp, #12]
 8001d14:	f04f 0812 	mov.w	r8, #18
 8001d18:	f44f 7300 	mov.w	r3, #512	@ 0x200
 8001d1c:	2703      	movs	r7, #3
 8001d1e:	2604      	movs	r6, #4
 8001d20:	a905      	add	r1, sp, #20
 8001d22:	e9cd 3805 	strd	r3, r8, [sp, #20]
 8001d26:	e9cd 7608 	strd	r7, r6, [sp, #32]
 8001d2a:	f001 f811 	bl	8002d50 <HAL_GPIO_Init>
 8001d2e:	f44f 7380 	mov.w	r3, #256	@ 0x100
 8001d32:	480f      	ldr	r0, [pc, #60]	@ (8001d70 <HAL_I2C_MspInit+0xf8>)
 8001d34:	9609      	str	r6, [sp, #36]	@ 0x24
 8001d36:	a905      	add	r1, sp, #20
 8001d38:	e9cd 3805 	strd	r3, r8, [sp, #20]
 8001d3c:	e9cd 5707 	strd	r5, r7, [sp, #28]
 8001d40:	f001 f806 	bl	8002d50 <HAL_GPIO_Init>
 8001d44:	9504      	str	r5, [sp, #16]
 8001d46:	6c23      	ldr	r3, [r4, #64]	@ 0x40
 8001d48:	f443 0300 	orr.w	r3, r3, #8388608	@ 0x800000
 8001d4c:	6423      	str	r3, [r4, #64]	@ 0x40
 8001d4e:	6c23      	ldr	r3, [r4, #64]	@ 0x40
 8001d50:	f403 0300 	and.w	r3, r3, #8388608	@ 0x800000
 8001d54:	9304      	str	r3, [sp, #16]
 8001d56:	9b04      	ldr	r3, [sp, #16]
 8001d58:	e7bf      	b.n	8001cda <HAL_I2C_MspInit+0x62>
 8001d5a:	bf00      	nop
 8001d5c:	40005400 	.word	0x40005400
 8001d60:	40023800 	.word	0x40023800
 8001d64:	40020400 	.word	0x40020400
 8001d68:	40005c00 	.word	0x40005c00
 8001d6c:	40020800 	.word	0x40020800
 8001d70:	40020000 	.word	0x40020000

08001d74 <HAL_RTC_MspInit>:
 8001d74:	b510      	push	{r4, lr}
 8001d76:	4604      	mov	r4, r0
 8001d78:	b08c      	sub	sp, #48	@ 0x30
 8001d7a:	2230      	movs	r2, #48	@ 0x30
 8001d7c:	2100      	movs	r1, #0
 8001d7e:	4668      	mov	r0, sp
 8001d80:	f003 fb92 	bl	80054a8 <memset>
 8001d84:	6822      	ldr	r2, [r4, #0]
 8001d86:	4b0a      	ldr	r3, [pc, #40]	@ (8001db0 <HAL_RTC_MspInit+0x3c>)
 8001d88:	429a      	cmp	r2, r3
 8001d8a:	d10e      	bne.n	8001daa <HAL_RTC_MspInit+0x36>
 8001d8c:	2320      	movs	r3, #32
 8001d8e:	9300      	str	r3, [sp, #0]
 8001d90:	4668      	mov	r0, sp
 8001d92:	f44f 7300 	mov.w	r3, #512	@ 0x200
 8001d96:	930a      	str	r3, [sp, #40]	@ 0x28
 8001d98:	f001 ffee 	bl	8003d78 <HAL_RCCEx_PeriphCLKConfig>
 8001d9c:	b108      	cbz	r0, 8001da2 <HAL_RTC_MspInit+0x2e>
 8001d9e:	f7ff fc2f 	bl	8001600 <Error_Handler>
 8001da2:	4b04      	ldr	r3, [pc, #16]	@ (8001db4 <HAL_RTC_MspInit+0x40>)
 8001da4:	2201      	movs	r2, #1
 8001da6:	f8c3 2e3c 	str.w	r2, [r3, #3644]	@ 0xe3c
 8001daa:	b00c      	add	sp, #48	@ 0x30
 8001dac:	bd10      	pop	{r4, pc}
 8001dae:	bf00      	nop
 8001db0:	40002800 	.word	0x40002800
 8001db4:	42470000 	.word	0x42470000

08001db8 <HAL_SPI_MspInit>:
 8001db8:	e92d 41f0 	stmdb	sp!, {r4, r5, r6, r7, r8, lr}
 8001dbc:	2214      	movs	r2, #20
 8001dbe:	b08a      	sub	sp, #40	@ 0x28
 8001dc0:	4606      	mov	r6, r0
 8001dc2:	2100      	movs	r1, #0
 8001dc4:	eb0d 0002 	add.w	r0, sp, r2
 8001dc8:	f003 fb6e 	bl	80054a8 <memset>
 8001dcc:	6833      	ldr	r3, [r6, #0]
 8001dce:	4a41      	ldr	r2, [pc, #260]	@ (8001ed4 <HAL_SPI_MspInit+0x11c>)
 8001dd0:	4293      	cmp	r3, r2
 8001dd2:	d13f      	bne.n	8001e54 <HAL_SPI_MspInit+0x9c>
 8001dd4:	4b40      	ldr	r3, [pc, #256]	@ (8001ed8 <HAL_SPI_MspInit+0x120>)
 8001dd6:	4841      	ldr	r0, [pc, #260]	@ (8001edc <HAL_SPI_MspInit+0x124>)
 8001dd8:	4c41      	ldr	r4, [pc, #260]	@ (8001ee0 <HAL_SPI_MspInit+0x128>)
 8001dda:	2500      	movs	r5, #0
 8001ddc:	9500      	str	r5, [sp, #0]
 8001dde:	6c5a      	ldr	r2, [r3, #68]	@ 0x44
 8001de0:	f442 5280 	orr.w	r2, r2, #4096	@ 0x1000
 8001de4:	645a      	str	r2, [r3, #68]	@ 0x44
 8001de6:	6c5a      	ldr	r2, [r3, #68]	@ 0x44
 8001de8:	f402 5280 	and.w	r2, r2, #4096	@ 0x1000
 8001dec:	9200      	str	r2, [sp, #0]
 8001dee:	9a00      	ldr	r2, [sp, #0]
 8001df0:	9501      	str	r5, [sp, #4]
 8001df2:	6b1a      	ldr	r2, [r3, #48]	@ 0x30
 8001df4:	f042 0201 	orr.w	r2, r2, #1
 8001df8:	631a      	str	r2, [r3, #48]	@ 0x30
 8001dfa:	6b1b      	ldr	r3, [r3, #48]	@ 0x30
 8001dfc:	f003 0301 	and.w	r3, r3, #1
 8001e00:	9301      	str	r3, [sp, #4]
 8001e02:	9b01      	ldr	r3, [sp, #4]
 8001e04:	22e0      	movs	r2, #224	@ 0xe0
 8001e06:	2302      	movs	r3, #2
 8001e08:	e9cd 2305 	strd	r2, r3, [sp, #20]
 8001e0c:	2103      	movs	r1, #3
 8001e0e:	2305      	movs	r3, #5
 8001e10:	e9cd 1308 	strd	r1, r3, [sp, #32]
 8001e14:	a905      	add	r1, sp, #20
 8001e16:	f000 ff9b 	bl	8002d50 <HAL_GPIO_Init>
 8001e1a:	4832      	ldr	r0, [pc, #200]	@ (8001ee4 <HAL_SPI_MspInit+0x12c>)
 8001e1c:	f04f 63c0 	mov.w	r3, #100663296	@ 0x6000000
 8001e20:	e9c4 0300 	strd	r0, r3, [r4]
 8001e24:	2340      	movs	r3, #64	@ 0x40
 8001e26:	e9c4 3502 	strd	r3, r5, [r4, #8]
 8001e2a:	f44f 6380 	mov.w	r3, #1024	@ 0x400
 8001e2e:	e9c4 3504 	strd	r3, r5, [r4, #16]
 8001e32:	f44f 3380 	mov.w	r3, #65536	@ 0x10000
 8001e36:	e9c4 5506 	strd	r5, r5, [r4, #24]
 8001e3a:	e9c4 3508 	strd	r3, r5, [r4, #32]
 8001e3e:	4620      	mov	r0, r4
 8001e40:	f000 fdc0 	bl	80029c4 <HAL_DMA_Init>
 8001e44:	b108      	cbz	r0, 8001e4a <HAL_SPI_MspInit+0x92>
 8001e46:	f7ff fbdb 	bl	8001600 <Error_Handler>
 8001e4a:	64b4      	str	r4, [r6, #72]	@ 0x48
 8001e4c:	63a6      	str	r6, [r4, #56]	@ 0x38
 8001e4e:	b00a      	add	sp, #40	@ 0x28
 8001e50:	e8bd 81f0 	ldmia.w	sp!, {r4, r5, r6, r7, r8, pc}
 8001e54:	4a24      	ldr	r2, [pc, #144]	@ (8001ee8 <HAL_SPI_MspInit+0x130>)
 8001e56:	4293      	cmp	r3, r2
 8001e58:	d1f9      	bne.n	8001e4e <HAL_SPI_MspInit+0x96>
 8001e5a:	4b1f      	ldr	r3, [pc, #124]	@ (8001ed8 <HAL_SPI_MspInit+0x120>)
 8001e5c:	4823      	ldr	r0, [pc, #140]	@ (8001eec <HAL_SPI_MspInit+0x134>)
 8001e5e:	2500      	movs	r5, #0
 8001e60:	9502      	str	r5, [sp, #8]
 8001e62:	6c1a      	ldr	r2, [r3, #64]	@ 0x40
 8001e64:	f442 4280 	orr.w	r2, r2, #16384	@ 0x4000
 8001e68:	641a      	str	r2, [r3, #64]	@ 0x40
 8001e6a:	6c1a      	ldr	r2, [r3, #64]	@ 0x40
 8001e6c:	f402 4280 	and.w	r2, r2, #16384	@ 0x4000
 8001e70:	9202      	str	r2, [sp, #8]
 8001e72:	9a02      	ldr	r2, [sp, #8]
 8001e74:	9503      	str	r5, [sp, #12]
 8001e76:	6b1a      	ldr	r2, [r3, #48]	@ 0x30
 8001e78:	f042 0204 	orr.w	r2, r2, #4
 8001e7c:	631a      	str	r2, [r3, #48]	@ 0x30
 8001e7e:	6b1a      	ldr	r2, [r3, #48]	@ 0x30
 8001e80:	f002 0204 	and.w	r2, r2, #4
 8001e84:	9203      	str	r2, [sp, #12]
 8001e86:	9a03      	ldr	r2, [sp, #12]
 8001e88:	9504      	str	r5, [sp, #16]
 8001e8a:	6b1a      	ldr	r2, [r3, #48]	@ 0x30
 8001e8c:	f042 0208 	orr.w	r2, r2, #8
 8001e90:	631a      	str	r2, [r3, #48]	@ 0x30
 8001e92:	6b1b      	ldr	r3, [r3, #48]	@ 0x30
 8001e94:	f003 0308 	and.w	r3, r3, #8
 8001e98:	9304      	str	r3, [sp, #16]
 8001e9a:	2405      	movs	r4, #5
 8001e9c:	9b04      	ldr	r3, [sp, #16]
 8001e9e:	f04f 0802 	mov.w	r8, #2
 8001ea2:	230c      	movs	r3, #12
 8001ea4:	2703      	movs	r7, #3
 8001ea6:	a905      	add	r1, sp, #20
 8001ea8:	e9cd 3805 	strd	r3, r8, [sp, #20]
 8001eac:	e9cd 7408 	strd	r7, r4, [sp, #32]
 8001eb0:	f000 ff4e 	bl	8002d50 <HAL_GPIO_Init>
 8001eb4:	2308      	movs	r3, #8
 8001eb6:	480e      	ldr	r0, [pc, #56]	@ (8001ef0 <HAL_SPI_MspInit+0x138>)
 8001eb8:	9409      	str	r4, [sp, #36]	@ 0x24
 8001eba:	a905      	add	r1, sp, #20
 8001ebc:	e9cd 3805 	strd	r3, r8, [sp, #20]
 8001ec0:	e9cd 5707 	strd	r5, r7, [sp, #28]
 8001ec4:	4c0b      	ldr	r4, [pc, #44]	@ (8001ef4 <HAL_SPI_MspInit+0x13c>)
 8001ec6:	f000 ff43 	bl	8002d50 <HAL_GPIO_Init>
 8001eca:	4b0b      	ldr	r3, [pc, #44]	@ (8001ef8 <HAL_SPI_MspInit+0x140>)
 8001ecc:	e9c4 3500 	strd	r3, r5, [r4]
 8001ed0:	e7a8      	b.n	8001e24 <HAL_SPI_MspInit+0x6c>
 8001ed2:	bf00      	nop
 8001ed4:	40013000 	.word	0x40013000
 8001ed8:	40023800 	.word	0x40023800
 8001edc:	40020000 	.word	0x40020000
 8001ee0:	20000414 	.word	0x20000414
 8001ee4:	40026458 	.word	0x40026458
 8001ee8:	40003800 	.word	0x40003800
 8001eec:	40020800 	.word	0x40020800
 8001ef0:	40020c00 	.word	0x40020c00
 8001ef4:	200003b4 	.word	0x200003b4
 8001ef8:	40026070 	.word	0x40026070

08001efc <HAL_TIM_Base_MspInit>:
 8001efc:	b507      	push	{r0, r1, r2, lr}
 8001efe:	6803      	ldr	r3, [r0, #0]
 8001f00:	4a18      	ldr	r2, [pc, #96]	@ (8001f64 <HAL_TIM_Base_MspInit+0x68>)
 8001f02:	4293      	cmp	r3, r2
 8001f04:	d115      	bne.n	8001f32 <HAL_TIM_Base_MspInit+0x36>
 8001f06:	4b18      	ldr	r3, [pc, #96]	@ (8001f68 <HAL_TIM_Base_MspInit+0x6c>)
 8001f08:	2200      	movs	r2, #0
 8001f0a:	9200      	str	r2, [sp, #0]
 8001f0c:	6c19      	ldr	r1, [r3, #64]	@ 0x40
 8001f0e:	f041 0110 	orr.w	r1, r1, #16
 8001f12:	6419      	str	r1, [r3, #64]	@ 0x40
 8001f14:	6c1b      	ldr	r3, [r3, #64]	@ 0x40
 8001f16:	f003 0310 	and.w	r3, r3, #16
 8001f1a:	9300      	str	r3, [sp, #0]
 8001f1c:	2036      	movs	r0, #54	@ 0x36
 8001f1e:	4611      	mov	r1, r2
 8001f20:	9b00      	ldr	r3, [sp, #0]
 8001f22:	f000 fce5 	bl	80028f0 <HAL_NVIC_SetPriority>
 8001f26:	2036      	movs	r0, #54	@ 0x36
 8001f28:	b003      	add	sp, #12
 8001f2a:	f85d eb04 	ldr.w	lr, [sp], #4
 8001f2e:	f000 bd11 	b.w	8002954 <HAL_NVIC_EnableIRQ>
 8001f32:	4a0e      	ldr	r2, [pc, #56]	@ (8001f6c <HAL_TIM_Base_MspInit+0x70>)
 8001f34:	4293      	cmp	r3, r2
 8001f36:	d111      	bne.n	8001f5c <HAL_TIM_Base_MspInit+0x60>
 8001f38:	4b0b      	ldr	r3, [pc, #44]	@ (8001f68 <HAL_TIM_Base_MspInit+0x6c>)
 8001f3a:	2200      	movs	r2, #0
 8001f3c:	9201      	str	r2, [sp, #4]
 8001f3e:	6c19      	ldr	r1, [r3, #64]	@ 0x40
 8001f40:	f041 0120 	orr.w	r1, r1, #32
 8001f44:	6419      	str	r1, [r3, #64]	@ 0x40
 8001f46:	6c1b      	ldr	r3, [r3, #64]	@ 0x40
 8001f48:	f003 0320 	and.w	r3, r3, #32
 8001f4c:	9301      	str	r3, [sp, #4]
 8001f4e:	2037      	movs	r0, #55	@ 0x37
 8001f50:	4611      	mov	r1, r2
 8001f52:	9b01      	ldr	r3, [sp, #4]
 8001f54:	f000 fccc 	bl	80028f0 <HAL_NVIC_SetPriority>
 8001f58:	2037      	movs	r0, #55	@ 0x37
 8001f5a:	e7e5      	b.n	8001f28 <HAL_TIM_Base_MspInit+0x2c>
 8001f5c:	b003      	add	sp, #12
 8001f5e:	f85d fb04 	ldr.w	pc, [sp], #4
 8001f62:	bf00      	nop
 8001f64:	40001000 	.word	0x40001000
 8001f68:	40023800 	.word	0x40023800
 8001f6c:	40001400 	.word	0x40001400

08001f70 <HAL_UART_MspInit>:
 8001f70:	b510      	push	{r4, lr}
 8001f72:	4604      	mov	r4, r0
 8001f74:	b088      	sub	sp, #32
 8001f76:	2214      	movs	r2, #20
 8001f78:	2100      	movs	r1, #0
 8001f7a:	a803      	add	r0, sp, #12
 8001f7c:	f003 fa94 	bl	80054a8 <memset>
 8001f80:	6822      	ldr	r2, [r4, #0]
 8001f82:	4b18      	ldr	r3, [pc, #96]	@ (8001fe4 <HAL_UART_MspInit+0x74>)
 8001f84:	429a      	cmp	r2, r3
 8001f86:	d12a      	bne.n	8001fde <HAL_UART_MspInit+0x6e>
 8001f88:	f503 33fa 	add.w	r3, r3, #128000	@ 0x1f400
 8001f8c:	2400      	movs	r4, #0
 8001f8e:	9401      	str	r4, [sp, #4]
 8001f90:	6c1a      	ldr	r2, [r3, #64]	@ 0x40
 8001f92:	4815      	ldr	r0, [pc, #84]	@ (8001fe8 <HAL_UART_MspInit+0x78>)
 8001f94:	f442 3200 	orr.w	r2, r2, #131072	@ 0x20000
 8001f98:	641a      	str	r2, [r3, #64]	@ 0x40
 8001f9a:	6c1a      	ldr	r2, [r3, #64]	@ 0x40
 8001f9c:	f402 3200 	and.w	r2, r2, #131072	@ 0x20000
 8001fa0:	9201      	str	r2, [sp, #4]
 8001fa2:	9a01      	ldr	r2, [sp, #4]
 8001fa4:	9402      	str	r4, [sp, #8]
 8001fa6:	6b1a      	ldr	r2, [r3, #48]	@ 0x30
 8001fa8:	f042 0208 	orr.w	r2, r2, #8
 8001fac:	631a      	str	r2, [r3, #48]	@ 0x30
 8001fae:	6b1b      	ldr	r3, [r3, #48]	@ 0x30
 8001fb0:	f003 0308 	and.w	r3, r3, #8
 8001fb4:	9302      	str	r3, [sp, #8]
 8001fb6:	2260      	movs	r2, #96	@ 0x60
 8001fb8:	9b02      	ldr	r3, [sp, #8]
 8001fba:	2302      	movs	r3, #2
 8001fbc:	e9cd 2303 	strd	r2, r3, [sp, #12]
 8001fc0:	2103      	movs	r1, #3
 8001fc2:	2307      	movs	r3, #7
 8001fc4:	e9cd 1306 	strd	r1, r3, [sp, #24]
 8001fc8:	a903      	add	r1, sp, #12
 8001fca:	f000 fec1 	bl	8002d50 <HAL_GPIO_Init>
 8001fce:	2026      	movs	r0, #38	@ 0x26
 8001fd0:	4622      	mov	r2, r4
 8001fd2:	4621      	mov	r1, r4
 8001fd4:	f000 fc8c 	bl	80028f0 <HAL_NVIC_SetPriority>
 8001fd8:	2026      	movs	r0, #38	@ 0x26
 8001fda:	f000 fcbb 	bl	8002954 <HAL_NVIC_EnableIRQ>
 8001fde:	b008      	add	sp, #32
 8001fe0:	bd10      	pop	{r4, pc}
 8001fe2:	bf00      	nop
 8001fe4:	40004400 	.word	0x40004400
 8001fe8:	40020c00 	.word	0x40020c00

08001fec <NMI_Handler>:
 8001fec:	e7fe      	b.n	8001fec <NMI_Handler>

08001fee <HardFault_Handler>:
 8001fee:	e7fe      	b.n	8001fee <HardFault_Handler>

08001ff0 <MemManage_Handler>:
 8001ff0:	e7fe      	b.n	8001ff0 <MemManage_Handler>

08001ff2 <BusFault_Handler>:
 8001ff2:	e7fe      	b.n	8001ff2 <BusFault_Handler>

08001ff4 <UsageFault_Handler>:
 8001ff4:	e7fe      	b.n	8001ff4 <UsageFault_Handler>

08001ff6 <SVC_Handler>:
 8001ff6:	4770      	bx	lr

08001ff8 <DebugMon_Handler>:
 8001ff8:	4770      	bx	lr

08001ffa <PendSV_Handler>:
 8001ffa:	4770      	bx	lr

08001ffc <SysTick_Handler>:
 8001ffc:	f000 b92a 	b.w	8002254 <HAL_IncTick>

08002000 <EXTI1_IRQHandler>:
 8002000:	2002      	movs	r0, #2
 8002002:	f000 bf9d 	b.w	8002f40 <HAL_GPIO_EXTI_IRQHandler>
	...

08002008 <DMA1_Stream4_IRQHandler>:
 8002008:	4801      	ldr	r0, [pc, #4]	@ (8002010 <DMA1_Stream4_IRQHandler+0x8>)
 800200a:	f000 bde3 	b.w	8002bd4 <HAL_DMA_IRQHandler>
 800200e:	bf00      	nop
 8002010:	200003b4 	.word	0x200003b4

08002014 <USART2_IRQHandler>:
 8002014:	4801      	ldr	r0, [pc, #4]	@ (800201c <USART2_IRQHandler+0x8>)
 8002016:	f003 b8d3 	b.w	80051c0 <HAL_UART_IRQHandler>
 800201a:	bf00      	nop
 800201c:	200002dc 	.word	0x200002dc

08002020 <TIM6_DAC_IRQHandler>:
 8002020:	b508      	push	{r3, lr}
 8002022:	4803      	ldr	r0, [pc, #12]	@ (8002030 <TIM6_DAC_IRQHandler+0x10>)
 8002024:	f002 fdbd 	bl	8004ba2 <HAL_TIM_IRQHandler>
 8002028:	4b02      	ldr	r3, [pc, #8]	@ (8002034 <TIM6_DAC_IRQHandler+0x14>)
 800202a:	2201      	movs	r2, #1
 800202c:	701a      	strb	r2, [r3, #0]
 800202e:	bd08      	pop	{r3, pc}
 8002030:	2000036c 	.word	0x2000036c
 8002034:	200002a5 	.word	0x200002a5

08002038 <TIM7_IRQHandler>:
 8002038:	b508      	push	{r3, lr}
 800203a:	4803      	ldr	r0, [pc, #12]	@ (8002048 <TIM7_IRQHandler+0x10>)
 800203c:	f002 fdb1 	bl	8004ba2 <HAL_TIM_IRQHandler>
 8002040:	4b02      	ldr	r3, [pc, #8]	@ (800204c <TIM7_IRQHandler+0x14>)
 8002042:	2201      	movs	r2, #1
 8002044:	701a      	strb	r2, [r3, #0]
 8002046:	bd08      	pop	{r3, pc}
 8002048:	20000324 	.word	0x20000324
 800204c:	200002a4 	.word	0x200002a4

08002050 <DMA2_Stream3_IRQHandler>:
 8002050:	4801      	ldr	r0, [pc, #4]	@ (8002058 <DMA2_Stream3_IRQHandler+0x8>)
 8002052:	f000 bdbf 	b.w	8002bd4 <HAL_DMA_IRQHandler>
 8002056:	bf00      	nop
 8002058:	20000414 	.word	0x20000414

0800205c <CAN2_RX0_IRQHandler>:
 800205c:	4801      	ldr	r0, [pc, #4]	@ (8002064 <CAN2_RX0_IRQHandler+0x8>)
 800205e:	f000 bb30 	b.w	80026c2 <HAL_CAN_IRQHandler>
 8002062:	bf00      	nop
 8002064:	200005ec 	.word	0x200005ec

08002068 <HAL_CAN_RxFifo0MsgPendingCallback>:
 8002068:	b508      	push	{r3, lr}
 800206a:	4a06      	ldr	r2, [pc, #24]	@ (8002084 <HAL_CAN_RxFifo0MsgPendingCallback+0x1c>)
 800206c:	4b06      	ldr	r3, [pc, #24]	@ (8002088 <HAL_CAN_RxFifo0MsgPendingCallback+0x20>)
 800206e:	2100      	movs	r1, #0
 8002070:	f000 fa8e 	bl	8002590 <HAL_CAN_GetRxMessage>
 8002074:	4b05      	ldr	r3, [pc, #20]	@ (800208c <HAL_CAN_RxFifo0MsgPendingCallback+0x24>)
 8002076:	2201      	movs	r2, #1
 8002078:	701a      	strb	r2, [r3, #0]
 800207a:	4b05      	ldr	r3, [pc, #20]	@ (8002090 <HAL_CAN_RxFifo0MsgPendingCallback+0x28>)
 800207c:	7819      	ldrb	r1, [r3, #0]
 800207e:	b901      	cbnz	r1, 8002082 <HAL_CAN_RxFifo0MsgPendingCallback+0x1a>
 8002080:	701a      	strb	r2, [r3, #0]
 8002082:	bd08      	pop	{r3, pc}
 8002084:	200002b0 	.word	0x200002b0
 8002088:	200002a8 	.word	0x200002a8
 800208c:	200002a7 	.word	0x200002a7
 8002090:	200002a6 	.word	0x200002a6

08002094 <HAL_GPIO_EXTI_Callback>:
 8002094:	4b04      	ldr	r3, [pc, #16]	@ (80020a8 <HAL_GPIO_EXTI_Callback+0x14>)
 8002096:	889b      	ldrh	r3, [r3, #4]
 8002098:	b29b      	uxth	r3, r3
 800209a:	4283      	cmp	r3, r0
 800209c:	bf02      	ittt	eq
 800209e:	4b03      	ldreq	r3, [pc, #12]	@ (80020ac <HAL_GPIO_EXTI_Callback+0x18>)
 80020a0:	2201      	moveq	r2, #1
 80020a2:	701a      	strbeq	r2, [r3, #0]
 80020a4:	4770      	bx	lr
 80020a6:	bf00      	nop
 80020a8:	20000048 	.word	0x20000048
 80020ac:	20000047 	.word	0x20000047

080020b0 <HAL_SPI_TxCpltCallback>:
 80020b0:	6803      	ldr	r3, [r0, #0]
 80020b2:	4a11      	ldr	r2, [pc, #68]	@ (80020f8 <HAL_SPI_TxCpltCallback+0x48>)
 80020b4:	4293      	cmp	r3, r2
 80020b6:	b510      	push	{r4, lr}
 80020b8:	4604      	mov	r4, r0
 80020ba:	d117      	bne.n	80020ec <HAL_SPI_TxCpltCallback+0x3c>
 80020bc:	4b0f      	ldr	r3, [pc, #60]	@ (80020fc <HAL_SPI_TxCpltCallback+0x4c>)
 80020be:	8899      	ldrh	r1, [r3, #4]
 80020c0:	6818      	ldr	r0, [r3, #0]
 80020c2:	2201      	movs	r2, #1
 80020c4:	f000 ff2e 	bl	8002f24 <HAL_GPIO_WritePin>
 80020c8:	6822      	ldr	r2, [r4, #0]
 80020ca:	490d      	ldr	r1, [pc, #52]	@ (8002100 <HAL_SPI_TxCpltCallback+0x50>)
 80020cc:	6853      	ldr	r3, [r2, #4]
 80020ce:	f023 0302 	bic.w	r3, r3, #2
 80020d2:	6053      	str	r3, [r2, #4]
 80020d4:	4b0b      	ldr	r3, [pc, #44]	@ (8002104 <HAL_SPI_TxCpltCallback+0x54>)
 80020d6:	781b      	ldrb	r3, [r3, #0]
 80020d8:	f083 0301 	eor.w	r3, r3, #1
 80020dc:	e8bd 4010 	ldmia.w	sp!, {r4, lr}
 80020e0:	eb01 2103 	add.w	r1, r1, r3, lsl #8
 80020e4:	f44f 7080 	mov.w	r0, #256	@ 0x100
 80020e8:	f7fe bcee 	b.w	8000ac8 <clean_data_buffer>
 80020ec:	4a06      	ldr	r2, [pc, #24]	@ (8002108 <HAL_SPI_TxCpltCallback+0x58>)
 80020ee:	4293      	cmp	r3, r2
 80020f0:	d1ea      	bne.n	80020c8 <HAL_SPI_TxCpltCallback+0x18>
 80020f2:	4b06      	ldr	r3, [pc, #24]	@ (800210c <HAL_SPI_TxCpltCallback+0x5c>)
 80020f4:	e7e3      	b.n	80020be <HAL_SPI_TxCpltCallback+0xe>
 80020f6:	bf00      	nop
 80020f8:	40013000 	.word	0x40013000
 80020fc:	20000068 	.word	0x20000068
 8002100:	200000a4 	.word	0x200000a4
 8002104:	200000a3 	.word	0x200000a3
 8002108:	40003800 	.word	0x40003800
 800210c:	20000058 	.word	0x20000058

08002110 <HAL_UART_RxCpltCallback>:
 8002110:	4b03      	ldr	r3, [pc, #12]	@ (8002120 <HAL_UART_RxCpltCallback+0x10>)
 8002112:	4904      	ldr	r1, [pc, #16]	@ (8002124 <HAL_UART_RxCpltCallback+0x14>)
 8002114:	4804      	ldr	r0, [pc, #16]	@ (8002128 <HAL_UART_RxCpltCallback+0x18>)
 8002116:	2201      	movs	r2, #1
 8002118:	701a      	strb	r2, [r3, #0]
 800211a:	2202      	movs	r2, #2
 800211c:	f003 b9b3 	b.w	8005486 <HAL_UART_Receive_IT>
 8002120:	200002d0 	.word	0x200002d0
 8002124:	200002d1 	.word	0x200002d1
 8002128:	200002dc 	.word	0x200002dc

0800212c <SystemInit>:
 800212c:	4a03      	ldr	r2, [pc, #12]	@ (800213c <SystemInit+0x10>)
 800212e:	f8d2 3088 	ldr.w	r3, [r2, #136]	@ 0x88
 8002132:	f443 0370 	orr.w	r3, r3, #15728640	@ 0xf00000
 8002136:	f8c2 3088 	str.w	r3, [r2, #136]	@ 0x88
 800213a:	4770      	bx	lr
 800213c:	e000ed00 	.word	0xe000ed00

08002140 <uart_transmit_page>:
 8002140:	f04f 33ff 	mov.w	r3, #4294967295	@ 0xffffffff
 8002144:	f44f 7280 	mov.w	r2, #256	@ 0x100
 8002148:	f002 bf85 	b.w	8005056 <HAL_UART_Transmit>

0800214c <send_uart_string>:
 800214c:	b570      	push	{r4, r5, r6, lr}
 800214e:	4605      	mov	r5, r0
 8002150:	4608      	mov	r0, r1
 8002152:	460c      	mov	r4, r1
 8002154:	f7fe f84a 	bl	80001ec <strlen>
 8002158:	4621      	mov	r1, r4
 800215a:	b282      	uxth	r2, r0
 800215c:	f04f 33ff 	mov.w	r3, #4294967295	@ 0xffffffff
 8002160:	4628      	mov	r0, r5
 8002162:	e8bd 4070 	ldmia.w	sp!, {r4, r5, r6, lr}
 8002166:	f002 bf76 	b.w	8005056 <HAL_UART_Transmit>

0800216a <send_uart_hex>:
 800216a:	b507      	push	{r0, r1, r2, lr}
 800216c:	f04f 33ff 	mov.w	r3, #4294967295	@ 0xffffffff
 8002170:	f88d 1004 	strb.w	r1, [sp, #4]
 8002174:	2201      	movs	r2, #1
 8002176:	a901      	add	r1, sp, #4
 8002178:	f002 ff6d 	bl	8005056 <HAL_UART_Transmit>
 800217c:	b003      	add	sp, #12
 800217e:	f85d fb04 	ldr.w	pc, [sp], #4
	...

08002184 <Reset_Handler>:
 8002184:	f8df d034 	ldr.w	sp, [pc, #52]	@ 80021bc <LoopFillZerobss+0xe>
 8002188:	f7ff ffd0 	bl	800212c <SystemInit>
 800218c:	480c      	ldr	r0, [pc, #48]	@ (80021c0 <LoopFillZerobss+0x12>)
 800218e:	490d      	ldr	r1, [pc, #52]	@ (80021c4 <LoopFillZerobss+0x16>)
 8002190:	4a0d      	ldr	r2, [pc, #52]	@ (80021c8 <LoopFillZerobss+0x1a>)
 8002192:	2300      	movs	r3, #0
 8002194:	e002      	b.n	800219c <LoopCopyDataInit>

08002196 <CopyDataInit>:
 8002196:	58d4      	ldr	r4, [r2, r3]
 8002198:	50c4      	str	r4, [r0, r3]
 800219a:	3304      	adds	r3, #4

0800219c <LoopCopyDataInit>:
 800219c:	18c4      	adds	r4, r0, r3
 800219e:	428c      	cmp	r4, r1
 80021a0:	d3f9      	bcc.n	8002196 <CopyDataInit>
 80021a2:	4a0a      	ldr	r2, [pc, #40]	@ (80021cc <LoopFillZerobss+0x1e>)
 80021a4:	4c0a      	ldr	r4, [pc, #40]	@ (80021d0 <LoopFillZerobss+0x22>)
 80021a6:	2300      	movs	r3, #0
 80021a8:	e001      	b.n	80021ae <LoopFillZerobss>

080021aa <FillZerobss>:
 80021aa:	6013      	str	r3, [r2, #0]
 80021ac:	3204      	adds	r2, #4

080021ae <LoopFillZerobss>:
 80021ae:	42a2      	cmp	r2, r4
 80021b0:	d3fb      	bcc.n	80021aa <FillZerobss>
 80021b2:	f003 f981 	bl	80054b8 <__libc_init_array>
 80021b6:	f7fe ff77 	bl	80010a8 <main>
 80021ba:	4770      	bx	lr
 80021bc:	20030000 	.word	0x20030000
 80021c0:	20000000 	.word	0x20000000
 80021c4:	20000028 	.word	0x20000028
 80021c8:	080055dc 	.word	0x080055dc
 80021cc:	20000028 	.word	0x20000028
 80021d0:	2000062c 	.word	0x2000062c

080021d4 <ADC_IRQHandler>:
 80021d4:	e7fe      	b.n	80021d4 <ADC_IRQHandler>
	...

080021d8 <HAL_InitTick>:
 80021d8:	b538      	push	{r3, r4, r5, lr}
 80021da:	4b0e      	ldr	r3, [pc, #56]	@ (8002214 <HAL_InitTick+0x3c>)
 80021dc:	781a      	ldrb	r2, [r3, #0]
 80021de:	f44f 737a 	mov.w	r3, #1000	@ 0x3e8
 80021e2:	fbb3 f3f2 	udiv	r3, r3, r2
 80021e6:	4a0c      	ldr	r2, [pc, #48]	@ (8002218 <HAL_InitTick+0x40>)
 80021e8:	4605      	mov	r5, r0
 80021ea:	6810      	ldr	r0, [r2, #0]
 80021ec:	fbb0 f0f3 	udiv	r0, r0, r3
 80021f0:	f000 fbbe 	bl	8002970 <HAL_SYSTICK_Config>
 80021f4:	4604      	mov	r4, r0
 80021f6:	b958      	cbnz	r0, 8002210 <HAL_InitTick+0x38>
 80021f8:	2d0f      	cmp	r5, #15
 80021fa:	d809      	bhi.n	8002210 <HAL_InitTick+0x38>
 80021fc:	4602      	mov	r2, r0
 80021fe:	4629      	mov	r1, r5
 8002200:	f04f 30ff 	mov.w	r0, #4294967295	@ 0xffffffff
 8002204:	f000 fb74 	bl	80028f0 <HAL_NVIC_SetPriority>
 8002208:	4b04      	ldr	r3, [pc, #16]	@ (800221c <HAL_InitTick+0x44>)
 800220a:	4620      	mov	r0, r4
 800220c:	601d      	str	r5, [r3, #0]
 800220e:	bd38      	pop	{r3, r4, r5, pc}
 8002210:	2001      	movs	r0, #1
 8002212:	e7fc      	b.n	800220e <HAL_InitTick+0x36>
 8002214:	20000020 	.word	0x20000020
 8002218:	2000001c 	.word	0x2000001c
 800221c:	20000024 	.word	0x20000024

08002220 <HAL_Init>:
 8002220:	b508      	push	{r3, lr}
 8002222:	4b0b      	ldr	r3, [pc, #44]	@ (8002250 <HAL_Init+0x30>)
 8002224:	681a      	ldr	r2, [r3, #0]
 8002226:	f442 7200 	orr.w	r2, r2, #512	@ 0x200
 800222a:	601a      	str	r2, [r3, #0]
 800222c:	681a      	ldr	r2, [r3, #0]
 800222e:	f442 6280 	orr.w	r2, r2, #1024	@ 0x400
 8002232:	601a      	str	r2, [r3, #0]
 8002234:	681a      	ldr	r2, [r3, #0]
 8002236:	f442 7280 	orr.w	r2, r2, #256	@ 0x100
 800223a:	601a      	str	r2, [r3, #0]
 800223c:	2003      	movs	r0, #3
 800223e:	f000 fb45 	bl	80028cc <HAL_NVIC_SetPriorityGrouping>
 8002242:	200f      	movs	r0, #15
 8002244:	f7ff ffc8 	bl	80021d8 <HAL_InitTick>
 8002248:	f7ff fcb2 	bl	8001bb0 <HAL_MspInit>
 800224c:	2000      	movs	r0, #0
 800224e:	bd08      	pop	{r3, pc}
 8002250:	40023c00 	.word	0x40023c00

08002254 <HAL_IncTick>:
 8002254:	4a03      	ldr	r2, [pc, #12]	@ (8002264 <HAL_IncTick+0x10>)
 8002256:	4b04      	ldr	r3, [pc, #16]	@ (8002268 <HAL_IncTick+0x14>)
 8002258:	6811      	ldr	r1, [r2, #0]
 800225a:	781b      	ldrb	r3, [r3, #0]
 800225c:	440b      	add	r3, r1
 800225e:	6013      	str	r3, [r2, #0]
 8002260:	4770      	bx	lr
 8002262:	bf00      	nop
 8002264:	20000628 	.word	0x20000628
 8002268:	20000020 	.word	0x20000020

0800226c <HAL_GetTick>:
 800226c:	4b01      	ldr	r3, [pc, #4]	@ (8002274 <HAL_GetTick+0x8>)
 800226e:	6818      	ldr	r0, [r3, #0]
 8002270:	4770      	bx	lr
 8002272:	bf00      	nop
 8002274:	20000628 	.word	0x20000628

08002278 <HAL_Delay>:
 8002278:	b538      	push	{r3, r4, r5, lr}
 800227a:	4604      	mov	r4, r0
 800227c:	f7ff fff6 	bl	800226c <HAL_GetTick>
 8002280:	1c63      	adds	r3, r4, #1
 8002282:	bf1c      	itt	ne
 8002284:	4b05      	ldrne	r3, [pc, #20]	@ (800229c <HAL_Delay+0x24>)
 8002286:	781b      	ldrbne	r3, [r3, #0]
 8002288:	4605      	mov	r5, r0
 800228a:	bf18      	it	ne
 800228c:	18e4      	addne	r4, r4, r3
 800228e:	f7ff ffed 	bl	800226c <HAL_GetTick>
 8002292:	1b43      	subs	r3, r0, r5
 8002294:	42a3      	cmp	r3, r4
 8002296:	d3fa      	bcc.n	800228e <HAL_Delay+0x16>
 8002298:	bd38      	pop	{r3, r4, r5, pc}
 800229a:	bf00      	nop
 800229c:	20000020 	.word	0x20000020

080022a0 <HAL_CAN_Init>:
 80022a0:	b538      	push	{r3, r4, r5, lr}
 80022a2:	4604      	mov	r4, r0
 80022a4:	2800      	cmp	r0, #0
 80022a6:	d06e      	beq.n	8002386 <HAL_CAN_Init+0xe6>
 80022a8:	f890 3020 	ldrb.w	r3, [r0, #32]
 80022ac:	b90b      	cbnz	r3, 80022b2 <HAL_CAN_Init+0x12>
 80022ae:	f7ff fc9b 	bl	8001be8 <HAL_CAN_MspInit>
 80022b2:	6822      	ldr	r2, [r4, #0]
 80022b4:	6813      	ldr	r3, [r2, #0]
 80022b6:	f043 0301 	orr.w	r3, r3, #1
 80022ba:	6013      	str	r3, [r2, #0]
 80022bc:	f7ff ffd6 	bl	800226c <HAL_GetTick>
 80022c0:	4605      	mov	r5, r0
 80022c2:	6823      	ldr	r3, [r4, #0]
 80022c4:	685a      	ldr	r2, [r3, #4]
 80022c6:	07d1      	lsls	r1, r2, #31
 80022c8:	d551      	bpl.n	800236e <HAL_CAN_Init+0xce>
 80022ca:	681a      	ldr	r2, [r3, #0]
 80022cc:	f022 0202 	bic.w	r2, r2, #2
 80022d0:	601a      	str	r2, [r3, #0]
 80022d2:	f7ff ffcb 	bl	800226c <HAL_GetTick>
 80022d6:	4605      	mov	r5, r0
 80022d8:	6823      	ldr	r3, [r4, #0]
 80022da:	685a      	ldr	r2, [r3, #4]
 80022dc:	0792      	lsls	r2, r2, #30
 80022de:	d454      	bmi.n	800238a <HAL_CAN_Init+0xea>
 80022e0:	7e22      	ldrb	r2, [r4, #24]
 80022e2:	2a01      	cmp	r2, #1
 80022e4:	681a      	ldr	r2, [r3, #0]
 80022e6:	bf0c      	ite	eq
 80022e8:	f042 0280 	orreq.w	r2, r2, #128	@ 0x80
 80022ec:	f022 0280 	bicne.w	r2, r2, #128	@ 0x80
 80022f0:	601a      	str	r2, [r3, #0]
 80022f2:	7e62      	ldrb	r2, [r4, #25]
 80022f4:	2a01      	cmp	r2, #1
 80022f6:	681a      	ldr	r2, [r3, #0]
 80022f8:	bf0c      	ite	eq
 80022fa:	f042 0240 	orreq.w	r2, r2, #64	@ 0x40
 80022fe:	f022 0240 	bicne.w	r2, r2, #64	@ 0x40
 8002302:	601a      	str	r2, [r3, #0]
 8002304:	7ea2      	ldrb	r2, [r4, #26]
 8002306:	2a01      	cmp	r2, #1
 8002308:	681a      	ldr	r2, [r3, #0]
 800230a:	bf0c      	ite	eq
 800230c:	f042 0220 	orreq.w	r2, r2, #32
 8002310:	f022 0220 	bicne.w	r2, r2, #32
 8002314:	601a      	str	r2, [r3, #0]
 8002316:	7ee2      	ldrb	r2, [r4, #27]
 8002318:	2a01      	cmp	r2, #1
 800231a:	681a      	ldr	r2, [r3, #0]
 800231c:	bf0c      	ite	eq
 800231e:	f022 0210 	biceq.w	r2, r2, #16
 8002322:	f042 0210 	orrne.w	r2, r2, #16
 8002326:	601a      	str	r2, [r3, #0]
 8002328:	7f22      	ldrb	r2, [r4, #28]
 800232a:	2a01      	cmp	r2, #1
 800232c:	681a      	ldr	r2, [r3, #0]
 800232e:	bf0c      	ite	eq
 8002330:	f042 0208 	orreq.w	r2, r2, #8
 8002334:	f022 0208 	bicne.w	r2, r2, #8
 8002338:	601a      	str	r2, [r3, #0]
 800233a:	7f62      	ldrb	r2, [r4, #29]
 800233c:	2a01      	cmp	r2, #1
 800233e:	681a      	ldr	r2, [r3, #0]
 8002340:	bf0c      	ite	eq
 8002342:	f042 0204 	orreq.w	r2, r2, #4
 8002346:	f022 0204 	bicne.w	r2, r2, #4
 800234a:	601a      	str	r2, [r3, #0]
 800234c:	e9d4 2102 	ldrd	r2, r1, [r4, #8]
 8002350:	430a      	orrs	r2, r1
 8002352:	6921      	ldr	r1, [r4, #16]
 8002354:	430a      	orrs	r2, r1
 8002356:	6961      	ldr	r1, [r4, #20]
 8002358:	430a      	orrs	r2, r1
 800235a:	6861      	ldr	r1, [r4, #4]
 800235c:	3901      	subs	r1, #1
 800235e:	430a      	orrs	r2, r1
 8002360:	61da      	str	r2, [r3, #28]
 8002362:	2000      	movs	r0, #0
 8002364:	2301      	movs	r3, #1
 8002366:	6260      	str	r0, [r4, #36]	@ 0x24
 8002368:	f884 3020 	strb.w	r3, [r4, #32]
 800236c:	e00c      	b.n	8002388 <HAL_CAN_Init+0xe8>
 800236e:	f7ff ff7d 	bl	800226c <HAL_GetTick>
 8002372:	1b40      	subs	r0, r0, r5
 8002374:	280a      	cmp	r0, #10
 8002376:	d9a4      	bls.n	80022c2 <HAL_CAN_Init+0x22>
 8002378:	6a63      	ldr	r3, [r4, #36]	@ 0x24
 800237a:	f443 3300 	orr.w	r3, r3, #131072	@ 0x20000
 800237e:	6263      	str	r3, [r4, #36]	@ 0x24
 8002380:	2305      	movs	r3, #5
 8002382:	f884 3020 	strb.w	r3, [r4, #32]
 8002386:	2001      	movs	r0, #1
 8002388:	bd38      	pop	{r3, r4, r5, pc}
 800238a:	f7ff ff6f 	bl	800226c <HAL_GetTick>
 800238e:	1b40      	subs	r0, r0, r5
 8002390:	280a      	cmp	r0, #10
 8002392:	d9a1      	bls.n	80022d8 <HAL_CAN_Init+0x38>
 8002394:	e7f0      	b.n	8002378 <HAL_CAN_Init+0xd8>
	...

08002398 <HAL_CAN_ConfigFilter>:
 8002398:	b530      	push	{r4, r5, lr}
 800239a:	f890 3020 	ldrb.w	r3, [r0, #32]
 800239e:	3b01      	subs	r3, #1
 80023a0:	2b01      	cmp	r3, #1
 80023a2:	d877      	bhi.n	8002494 <HAL_CAN_ConfigFilter+0xfc>
 80023a4:	4b3e      	ldr	r3, [pc, #248]	@ (80024a0 <HAL_CAN_ConfigFilter+0x108>)
 80023a6:	f8d3 2200 	ldr.w	r2, [r3, #512]	@ 0x200
 80023aa:	f042 0201 	orr.w	r2, r2, #1
 80023ae:	f8c3 2200 	str.w	r2, [r3, #512]	@ 0x200
 80023b2:	f8d3 2200 	ldr.w	r2, [r3, #512]	@ 0x200
 80023b6:	f422 527c 	bic.w	r2, r2, #16128	@ 0x3f00
 80023ba:	f8c3 2200 	str.w	r2, [r3, #512]	@ 0x200
 80023be:	f8d3 2200 	ldr.w	r2, [r3, #512]	@ 0x200
 80023c2:	6a48      	ldr	r0, [r1, #36]	@ 0x24
 80023c4:	ea42 2200 	orr.w	r2, r2, r0, lsl #8
 80023c8:	f8c3 2200 	str.w	r2, [r3, #512]	@ 0x200
 80023cc:	694a      	ldr	r2, [r1, #20]
 80023ce:	f8d3 521c 	ldr.w	r5, [r3, #540]	@ 0x21c
 80023d2:	f002 041f 	and.w	r4, r2, #31
 80023d6:	2001      	movs	r0, #1
 80023d8:	40a0      	lsls	r0, r4
 80023da:	ea25 0500 	bic.w	r5, r5, r0
 80023de:	f8c3 521c 	str.w	r5, [r3, #540]	@ 0x21c
 80023e2:	69cd      	ldr	r5, [r1, #28]
 80023e4:	43c4      	mvns	r4, r0
 80023e6:	2d00      	cmp	r5, #0
 80023e8:	d135      	bne.n	8002456 <HAL_CAN_ConfigFilter+0xbe>
 80023ea:	f8d3 520c 	ldr.w	r5, [r3, #524]	@ 0x20c
 80023ee:	4025      	ands	r5, r4
 80023f0:	f8c3 520c 	str.w	r5, [r3, #524]	@ 0x20c
 80023f4:	68cb      	ldr	r3, [r1, #12]
 80023f6:	888d      	ldrh	r5, [r1, #4]
 80023f8:	ea45 4503 	orr.w	r5, r5, r3, lsl #16
 80023fc:	00d3      	lsls	r3, r2, #3
 80023fe:	f103 4380 	add.w	r3, r3, #1073741824	@ 0x40000000
 8002402:	f503 43c8 	add.w	r3, r3, #25600	@ 0x6400
 8002406:	880a      	ldrh	r2, [r1, #0]
 8002408:	f8c3 5240 	str.w	r5, [r3, #576]	@ 0x240
 800240c:	688d      	ldr	r5, [r1, #8]
 800240e:	ea42 4205 	orr.w	r2, r2, r5, lsl #16
 8002412:	f8c3 2244 	str.w	r2, [r3, #580]	@ 0x244
 8002416:	698a      	ldr	r2, [r1, #24]
 8002418:	4b21      	ldr	r3, [pc, #132]	@ (80024a0 <HAL_CAN_ConfigFilter+0x108>)
 800241a:	bb8a      	cbnz	r2, 8002480 <HAL_CAN_ConfigFilter+0xe8>
 800241c:	f8d3 2204 	ldr.w	r2, [r3, #516]	@ 0x204
 8002420:	4022      	ands	r2, r4
 8002422:	f8c3 2204 	str.w	r2, [r3, #516]	@ 0x204
 8002426:	690a      	ldr	r2, [r1, #16]
 8002428:	bb72      	cbnz	r2, 8002488 <HAL_CAN_ConfigFilter+0xf0>
 800242a:	f8d3 2214 	ldr.w	r2, [r3, #532]	@ 0x214
 800242e:	4014      	ands	r4, r2
 8002430:	f8c3 4214 	str.w	r4, [r3, #532]	@ 0x214
 8002434:	6a0b      	ldr	r3, [r1, #32]
 8002436:	2b01      	cmp	r3, #1
 8002438:	4b19      	ldr	r3, [pc, #100]	@ (80024a0 <HAL_CAN_ConfigFilter+0x108>)
 800243a:	bf02      	ittt	eq
 800243c:	f8d3 221c 	ldreq.w	r2, [r3, #540]	@ 0x21c
 8002440:	4302      	orreq	r2, r0
 8002442:	f8c3 221c 	streq.w	r2, [r3, #540]	@ 0x21c
 8002446:	f8d3 2200 	ldr.w	r2, [r3, #512]	@ 0x200
 800244a:	f022 0201 	bic.w	r2, r2, #1
 800244e:	f8c3 2200 	str.w	r2, [r3, #512]	@ 0x200
 8002452:	2000      	movs	r0, #0
 8002454:	bd30      	pop	{r4, r5, pc}
 8002456:	2d01      	cmp	r5, #1
 8002458:	d1dd      	bne.n	8002416 <HAL_CAN_ConfigFilter+0x7e>
 800245a:	f8d3 520c 	ldr.w	r5, [r3, #524]	@ 0x20c
 800245e:	4305      	orrs	r5, r0
 8002460:	f8c3 520c 	str.w	r5, [r3, #524]	@ 0x20c
 8002464:	680b      	ldr	r3, [r1, #0]
 8002466:	888d      	ldrh	r5, [r1, #4]
 8002468:	ea45 4503 	orr.w	r5, r5, r3, lsl #16
 800246c:	00d3      	lsls	r3, r2, #3
 800246e:	f103 4380 	add.w	r3, r3, #1073741824	@ 0x40000000
 8002472:	f503 43c8 	add.w	r3, r3, #25600	@ 0x6400
 8002476:	898a      	ldrh	r2, [r1, #12]
 8002478:	f8c3 5240 	str.w	r5, [r3, #576]	@ 0x240
 800247c:	688d      	ldr	r5, [r1, #8]
 800247e:	e7c6      	b.n	800240e <HAL_CAN_ConfigFilter+0x76>
 8002480:	f8d3 2204 	ldr.w	r2, [r3, #516]	@ 0x204
 8002484:	4302      	orrs	r2, r0
 8002486:	e7cc      	b.n	8002422 <HAL_CAN_ConfigFilter+0x8a>
 8002488:	f8d3 2214 	ldr.w	r2, [r3, #532]	@ 0x214
 800248c:	4302      	orrs	r2, r0
 800248e:	f8c3 2214 	str.w	r2, [r3, #532]	@ 0x214
 8002492:	e7cf      	b.n	8002434 <HAL_CAN_ConfigFilter+0x9c>
 8002494:	6a43      	ldr	r3, [r0, #36]	@ 0x24
 8002496:	f443 2380 	orr.w	r3, r3, #262144	@ 0x40000
 800249a:	6243      	str	r3, [r0, #36]	@ 0x24
 800249c:	2001      	movs	r0, #1
 800249e:	e7d9      	b.n	8002454 <HAL_CAN_ConfigFilter+0xbc>
 80024a0:	40006400 	.word	0x40006400

080024a4 <HAL_CAN_Start>:
 80024a4:	b538      	push	{r3, r4, r5, lr}
 80024a6:	f890 3020 	ldrb.w	r3, [r0, #32]
 80024aa:	2b01      	cmp	r3, #1
 80024ac:	4604      	mov	r4, r0
 80024ae:	d11f      	bne.n	80024f0 <HAL_CAN_Start+0x4c>
 80024b0:	6802      	ldr	r2, [r0, #0]
 80024b2:	2302      	movs	r3, #2
 80024b4:	f880 3020 	strb.w	r3, [r0, #32]
 80024b8:	6813      	ldr	r3, [r2, #0]
 80024ba:	f023 0301 	bic.w	r3, r3, #1
 80024be:	6013      	str	r3, [r2, #0]
 80024c0:	f7ff fed4 	bl	800226c <HAL_GetTick>
 80024c4:	4605      	mov	r5, r0
 80024c6:	6823      	ldr	r3, [r4, #0]
 80024c8:	6858      	ldr	r0, [r3, #4]
 80024ca:	f010 0001 	ands.w	r0, r0, #1
 80024ce:	d101      	bne.n	80024d4 <HAL_CAN_Start+0x30>
 80024d0:	6260      	str	r0, [r4, #36]	@ 0x24
 80024d2:	bd38      	pop	{r3, r4, r5, pc}
 80024d4:	f7ff feca 	bl	800226c <HAL_GetTick>
 80024d8:	1b40      	subs	r0, r0, r5
 80024da:	280a      	cmp	r0, #10
 80024dc:	d9f3      	bls.n	80024c6 <HAL_CAN_Start+0x22>
 80024de:	6a63      	ldr	r3, [r4, #36]	@ 0x24
 80024e0:	f443 3300 	orr.w	r3, r3, #131072	@ 0x20000
 80024e4:	6263      	str	r3, [r4, #36]	@ 0x24
 80024e6:	2305      	movs	r3, #5
 80024e8:	f884 3020 	strb.w	r3, [r4, #32]
 80024ec:	2001      	movs	r0, #1
 80024ee:	e7f0      	b.n	80024d2 <HAL_CAN_Start+0x2e>
 80024f0:	6a43      	ldr	r3, [r0, #36]	@ 0x24
 80024f2:	f443 2300 	orr.w	r3, r3, #524288	@ 0x80000
 80024f6:	6243      	str	r3, [r0, #36]	@ 0x24
 80024f8:	e7f8      	b.n	80024ec <HAL_CAN_Start+0x48>

080024fa <HAL_CAN_AddTxMessage>:
 80024fa:	b5f0      	push	{r4, r5, r6, r7, lr}
 80024fc:	f890 5020 	ldrb.w	r5, [r0, #32]
 8002500:	6804      	ldr	r4, [r0, #0]
 8002502:	3d01      	subs	r5, #1
 8002504:	2d01      	cmp	r5, #1
 8002506:	68a6      	ldr	r6, [r4, #8]
 8002508:	d83e      	bhi.n	8002588 <HAL_CAN_AddTxMessage+0x8e>
 800250a:	f016 5fe0 	tst.w	r6, #469762048	@ 0x1c000000
 800250e:	d035      	beq.n	800257c <HAL_CAN_AddTxMessage+0x82>
 8002510:	f3c6 6001 	ubfx	r0, r6, #24, #2
 8002514:	2501      	movs	r5, #1
 8002516:	4085      	lsls	r5, r0
 8002518:	601d      	str	r5, [r3, #0]
 800251a:	e9d1 5702 	ldrd	r5, r7, [r1, #8]
 800251e:	f100 0318 	add.w	r3, r0, #24
 8002522:	bb25      	cbnz	r5, 800256e <HAL_CAN_AddTxMessage+0x74>
 8002524:	680d      	ldr	r5, [r1, #0]
 8002526:	011b      	lsls	r3, r3, #4
 8002528:	ea47 5745 	orr.w	r7, r7, r5, lsl #21
 800252c:	50e7      	str	r7, [r4, r3]
 800252e:	eb04 1300 	add.w	r3, r4, r0, lsl #4
 8002532:	690e      	ldr	r6, [r1, #16]
 8002534:	f8c3 6184 	str.w	r6, [r3, #388]	@ 0x184
 8002538:	7d09      	ldrb	r1, [r1, #20]
 800253a:	2901      	cmp	r1, #1
 800253c:	bf08      	it	eq
 800253e:	f8d3 1184 	ldreq.w	r1, [r3, #388]	@ 0x184
 8002542:	ea4f 1500 	mov.w	r5, r0, lsl #4
 8002546:	bf04      	itt	eq
 8002548:	f441 7180 	orreq.w	r1, r1, #256	@ 0x100
 800254c:	f8c3 1184 	streq.w	r1, [r3, #388]	@ 0x184
 8002550:	442c      	add	r4, r5
 8002552:	6851      	ldr	r1, [r2, #4]
 8002554:	f8c4 118c 	str.w	r1, [r4, #396]	@ 0x18c
 8002558:	6812      	ldr	r2, [r2, #0]
 800255a:	f8c4 2188 	str.w	r2, [r4, #392]	@ 0x188
 800255e:	f8d3 2180 	ldr.w	r2, [r3, #384]	@ 0x180
 8002562:	f042 0201 	orr.w	r2, r2, #1
 8002566:	f8c3 2180 	str.w	r2, [r3, #384]	@ 0x180
 800256a:	2000      	movs	r0, #0
 800256c:	bdf0      	pop	{r4, r5, r6, r7, pc}
 800256e:	684e      	ldr	r6, [r1, #4]
 8002570:	433d      	orrs	r5, r7
 8002572:	011b      	lsls	r3, r3, #4
 8002574:	ea45 05c6 	orr.w	r5, r5, r6, lsl #3
 8002578:	50e5      	str	r5, [r4, r3]
 800257a:	e7d8      	b.n	800252e <HAL_CAN_AddTxMessage+0x34>
 800257c:	6a43      	ldr	r3, [r0, #36]	@ 0x24
 800257e:	f443 1300 	orr.w	r3, r3, #2097152	@ 0x200000
 8002582:	6243      	str	r3, [r0, #36]	@ 0x24
 8002584:	2001      	movs	r0, #1
 8002586:	e7f1      	b.n	800256c <HAL_CAN_AddTxMessage+0x72>
 8002588:	6a43      	ldr	r3, [r0, #36]	@ 0x24
 800258a:	f443 2380 	orr.w	r3, r3, #262144	@ 0x40000
 800258e:	e7f8      	b.n	8002582 <HAL_CAN_AddTxMessage+0x88>

08002590 <HAL_CAN_GetRxMessage>:
 8002590:	b5f0      	push	{r4, r5, r6, r7, lr}
 8002592:	f890 4020 	ldrb.w	r4, [r0, #32]
 8002596:	3c01      	subs	r4, #1
 8002598:	2c01      	cmp	r4, #1
 800259a:	d871      	bhi.n	8002680 <HAL_CAN_GetRxMessage+0xf0>
 800259c:	6806      	ldr	r6, [r0, #0]
 800259e:	b941      	cbnz	r1, 80025b2 <HAL_CAN_GetRxMessage+0x22>
 80025a0:	68f4      	ldr	r4, [r6, #12]
 80025a2:	07a4      	lsls	r4, r4, #30
 80025a4:	d107      	bne.n	80025b6 <HAL_CAN_GetRxMessage+0x26>
 80025a6:	6a43      	ldr	r3, [r0, #36]	@ 0x24
 80025a8:	f443 1300 	orr.w	r3, r3, #2097152	@ 0x200000
 80025ac:	6243      	str	r3, [r0, #36]	@ 0x24
 80025ae:	2001      	movs	r0, #1
 80025b0:	bdf0      	pop	{r4, r5, r6, r7, pc}
 80025b2:	6934      	ldr	r4, [r6, #16]
 80025b4:	e7f5      	b.n	80025a2 <HAL_CAN_GetRxMessage+0x12>
 80025b6:	eb06 1501 	add.w	r5, r6, r1, lsl #4
 80025ba:	010c      	lsls	r4, r1, #4
 80025bc:	f8d5 71b0 	ldr.w	r7, [r5, #432]	@ 0x1b0
 80025c0:	f007 0704 	and.w	r7, r7, #4
 80025c4:	6097      	str	r7, [r2, #8]
 80025c6:	2f00      	cmp	r7, #0
 80025c8:	d150      	bne.n	800266c <HAL_CAN_GetRxMessage+0xdc>
 80025ca:	f8d5 71b0 	ldr.w	r7, [r5, #432]	@ 0x1b0
 80025ce:	0d7f      	lsrs	r7, r7, #21
 80025d0:	6017      	str	r7, [r2, #0]
 80025d2:	f8d5 71b0 	ldr.w	r7, [r5, #432]	@ 0x1b0
 80025d6:	f007 0702 	and.w	r7, r7, #2
 80025da:	60d7      	str	r7, [r2, #12]
 80025dc:	f8d5 71b4 	ldr.w	r7, [r5, #436]	@ 0x1b4
 80025e0:	073f      	lsls	r7, r7, #28
 80025e2:	bf56      	itet	pl
 80025e4:	f8d5 71b4 	ldrpl.w	r7, [r5, #436]	@ 0x1b4
 80025e8:	2708      	movmi	r7, #8
 80025ea:	f007 070f 	andpl.w	r7, r7, #15
 80025ee:	6117      	str	r7, [r2, #16]
 80025f0:	f8d5 71b4 	ldr.w	r7, [r5, #436]	@ 0x1b4
 80025f4:	f8d5 51b4 	ldr.w	r5, [r5, #436]	@ 0x1b4
 80025f8:	4426      	add	r6, r4
 80025fa:	f3c7 2707 	ubfx	r7, r7, #8, #8
 80025fe:	0c2d      	lsrs	r5, r5, #16
 8002600:	6197      	str	r7, [r2, #24]
 8002602:	6155      	str	r5, [r2, #20]
 8002604:	f8d6 21b8 	ldr.w	r2, [r6, #440]	@ 0x1b8
 8002608:	701a      	strb	r2, [r3, #0]
 800260a:	6802      	ldr	r2, [r0, #0]
 800260c:	4422      	add	r2, r4
 800260e:	f8d2 21b8 	ldr.w	r2, [r2, #440]	@ 0x1b8
 8002612:	0a12      	lsrs	r2, r2, #8
 8002614:	705a      	strb	r2, [r3, #1]
 8002616:	6802      	ldr	r2, [r0, #0]
 8002618:	4422      	add	r2, r4
 800261a:	f8d2 21b8 	ldr.w	r2, [r2, #440]	@ 0x1b8
 800261e:	0c12      	lsrs	r2, r2, #16
 8002620:	709a      	strb	r2, [r3, #2]
 8002622:	6802      	ldr	r2, [r0, #0]
 8002624:	4422      	add	r2, r4
 8002626:	f8d2 21b8 	ldr.w	r2, [r2, #440]	@ 0x1b8
 800262a:	0e12      	lsrs	r2, r2, #24
 800262c:	70da      	strb	r2, [r3, #3]
 800262e:	6802      	ldr	r2, [r0, #0]
 8002630:	4422      	add	r2, r4
 8002632:	f8d2 21bc 	ldr.w	r2, [r2, #444]	@ 0x1bc
 8002636:	711a      	strb	r2, [r3, #4]
 8002638:	6802      	ldr	r2, [r0, #0]
 800263a:	4422      	add	r2, r4
 800263c:	f8d2 21bc 	ldr.w	r2, [r2, #444]	@ 0x1bc
 8002640:	0a12      	lsrs	r2, r2, #8
 8002642:	715a      	strb	r2, [r3, #5]
 8002644:	6802      	ldr	r2, [r0, #0]
 8002646:	4422      	add	r2, r4
 8002648:	f8d2 21bc 	ldr.w	r2, [r2, #444]	@ 0x1bc
 800264c:	0c12      	lsrs	r2, r2, #16
 800264e:	719a      	strb	r2, [r3, #6]
 8002650:	6802      	ldr	r2, [r0, #0]
 8002652:	4422      	add	r2, r4
 8002654:	f8d2 21bc 	ldr.w	r2, [r2, #444]	@ 0x1bc
 8002658:	0e12      	lsrs	r2, r2, #24
 800265a:	71da      	strb	r2, [r3, #7]
 800265c:	6803      	ldr	r3, [r0, #0]
 800265e:	b951      	cbnz	r1, 8002676 <HAL_CAN_GetRxMessage+0xe6>
 8002660:	68da      	ldr	r2, [r3, #12]
 8002662:	f042 0220 	orr.w	r2, r2, #32
 8002666:	60da      	str	r2, [r3, #12]
 8002668:	2000      	movs	r0, #0
 800266a:	e7a1      	b.n	80025b0 <HAL_CAN_GetRxMessage+0x20>
 800266c:	f8d5 71b0 	ldr.w	r7, [r5, #432]	@ 0x1b0
 8002670:	08ff      	lsrs	r7, r7, #3
 8002672:	6057      	str	r7, [r2, #4]
 8002674:	e7ad      	b.n	80025d2 <HAL_CAN_GetRxMessage+0x42>
 8002676:	691a      	ldr	r2, [r3, #16]
 8002678:	f042 0220 	orr.w	r2, r2, #32
 800267c:	611a      	str	r2, [r3, #16]
 800267e:	e7f3      	b.n	8002668 <HAL_CAN_GetRxMessage+0xd8>
 8002680:	6a43      	ldr	r3, [r0, #36]	@ 0x24
 8002682:	f443 2380 	orr.w	r3, r3, #262144	@ 0x40000
 8002686:	e791      	b.n	80025ac <HAL_CAN_GetRxMessage+0x1c>

08002688 <HAL_CAN_ActivateNotification>:
 8002688:	f890 3020 	ldrb.w	r3, [r0, #32]
 800268c:	3b01      	subs	r3, #1
 800268e:	2b01      	cmp	r3, #1
 8002690:	d805      	bhi.n	800269e <HAL_CAN_ActivateNotification+0x16>
 8002692:	6802      	ldr	r2, [r0, #0]
 8002694:	6953      	ldr	r3, [r2, #20]
 8002696:	4319      	orrs	r1, r3
 8002698:	6151      	str	r1, [r2, #20]
 800269a:	2000      	movs	r0, #0
 800269c:	4770      	bx	lr
 800269e:	6a43      	ldr	r3, [r0, #36]	@ 0x24
 80026a0:	f443 2380 	orr.w	r3, r3, #262144	@ 0x40000
 80026a4:	6243      	str	r3, [r0, #36]	@ 0x24
 80026a6:	2001      	movs	r0, #1
 80026a8:	4770      	bx	lr

080026aa <HAL_CAN_TxMailbox0CompleteCallback>:
 80026aa:	4770      	bx	lr

080026ac <HAL_CAN_TxMailbox1CompleteCallback>:
 80026ac:	4770      	bx	lr

080026ae <HAL_CAN_TxMailbox2CompleteCallback>:
 80026ae:	4770      	bx	lr

080026b0 <HAL_CAN_TxMailbox0AbortCallback>:
 80026b0:	4770      	bx	lr

080026b2 <HAL_CAN_TxMailbox1AbortCallback>:
 80026b2:	4770      	bx	lr

080026b4 <HAL_CAN_TxMailbox2AbortCallback>:
 80026b4:	4770      	bx	lr

080026b6 <HAL_CAN_RxFifo0FullCallback>:
 80026b6:	4770      	bx	lr

080026b8 <HAL_CAN_RxFifo1MsgPendingCallback>:
 80026b8:	4770      	bx	lr

080026ba <HAL_CAN_RxFifo1FullCallback>:
 80026ba:	4770      	bx	lr

080026bc <HAL_CAN_SleepCallback>:
 80026bc:	4770      	bx	lr

080026be <HAL_CAN_WakeUpFromRxMsgCallback>:
 80026be:	4770      	bx	lr

080026c0 <HAL_CAN_ErrorCallback>:
 80026c0:	4770      	bx	lr

080026c2 <HAL_CAN_IRQHandler>:
 80026c2:	e92d 4ff8 	stmdb	sp!, {r3, r4, r5, r6, r7, r8, r9, sl, fp, lr}
 80026c6:	6803      	ldr	r3, [r0, #0]
 80026c8:	695e      	ldr	r6, [r3, #20]
 80026ca:	f8d3 9004 	ldr.w	r9, [r3, #4]
 80026ce:	f8d3 8008 	ldr.w	r8, [r3, #8]
 80026d2:	f8d3 b00c 	ldr.w	fp, [r3, #12]
 80026d6:	f8d3 a010 	ldr.w	sl, [r3, #16]
 80026da:	699f      	ldr	r7, [r3, #24]
 80026dc:	f016 0401 	ands.w	r4, r6, #1
 80026e0:	4605      	mov	r5, r0
 80026e2:	d027      	beq.n	8002734 <HAL_CAN_IRQHandler+0x72>
 80026e4:	f018 0f01 	tst.w	r8, #1
 80026e8:	d007      	beq.n	80026fa <HAL_CAN_IRQHandler+0x38>
 80026ea:	2201      	movs	r2, #1
 80026ec:	f018 0f02 	tst.w	r8, #2
 80026f0:	609a      	str	r2, [r3, #8]
 80026f2:	f000 80a6 	beq.w	8002842 <HAL_CAN_IRQHandler+0x180>
 80026f6:	f7ff ffd8 	bl	80026aa <HAL_CAN_TxMailbox0CompleteCallback>
 80026fa:	2400      	movs	r4, #0
 80026fc:	f418 7f80 	tst.w	r8, #256	@ 0x100
 8002700:	d00a      	beq.n	8002718 <HAL_CAN_IRQHandler+0x56>
 8002702:	682b      	ldr	r3, [r5, #0]
 8002704:	f44f 7280 	mov.w	r2, #256	@ 0x100
 8002708:	f418 7f00 	tst.w	r8, #512	@ 0x200
 800270c:	609a      	str	r2, [r3, #8]
 800270e:	f000 80a7 	beq.w	8002860 <HAL_CAN_IRQHandler+0x19e>
 8002712:	4628      	mov	r0, r5
 8002714:	f7ff ffca 	bl	80026ac <HAL_CAN_TxMailbox1CompleteCallback>
 8002718:	f418 3f80 	tst.w	r8, #65536	@ 0x10000
 800271c:	d00a      	beq.n	8002734 <HAL_CAN_IRQHandler+0x72>
 800271e:	682b      	ldr	r3, [r5, #0]
 8002720:	f44f 3280 	mov.w	r2, #65536	@ 0x10000
 8002724:	f418 3f00 	tst.w	r8, #131072	@ 0x20000
 8002728:	609a      	str	r2, [r3, #8]
 800272a:	f000 80a9 	beq.w	8002880 <HAL_CAN_IRQHandler+0x1be>
 800272e:	4628      	mov	r0, r5
 8002730:	f7ff ffbd 	bl	80026ae <HAL_CAN_TxMailbox2CompleteCallback>
 8002734:	0730      	lsls	r0, r6, #28
 8002736:	d507      	bpl.n	8002748 <HAL_CAN_IRQHandler+0x86>
 8002738:	f01b 0f10 	tst.w	fp, #16
 800273c:	bf1f      	itttt	ne
 800273e:	682b      	ldrne	r3, [r5, #0]
 8002740:	2210      	movne	r2, #16
 8002742:	f444 7400 	orrne.w	r4, r4, #512	@ 0x200
 8002746:	60da      	strne	r2, [r3, #12]
 8002748:	0771      	lsls	r1, r6, #29
 800274a:	d508      	bpl.n	800275e <HAL_CAN_IRQHandler+0x9c>
 800274c:	f01b 0f08 	tst.w	fp, #8
 8002750:	d005      	beq.n	800275e <HAL_CAN_IRQHandler+0x9c>
 8002752:	682b      	ldr	r3, [r5, #0]
 8002754:	2208      	movs	r2, #8
 8002756:	60da      	str	r2, [r3, #12]
 8002758:	4628      	mov	r0, r5
 800275a:	f7ff ffac 	bl	80026b6 <HAL_CAN_RxFifo0FullCallback>
 800275e:	07b2      	lsls	r2, r6, #30
 8002760:	d506      	bpl.n	8002770 <HAL_CAN_IRQHandler+0xae>
 8002762:	682b      	ldr	r3, [r5, #0]
 8002764:	68db      	ldr	r3, [r3, #12]
 8002766:	079b      	lsls	r3, r3, #30
 8002768:	d002      	beq.n	8002770 <HAL_CAN_IRQHandler+0xae>
 800276a:	4628      	mov	r0, r5
 800276c:	f7ff fc7c 	bl	8002068 <HAL_CAN_RxFifo0MsgPendingCallback>
 8002770:	0670      	lsls	r0, r6, #25
 8002772:	d507      	bpl.n	8002784 <HAL_CAN_IRQHandler+0xc2>
 8002774:	f01a 0f10 	tst.w	sl, #16
 8002778:	bf1f      	itttt	ne
 800277a:	682b      	ldrne	r3, [r5, #0]
 800277c:	2210      	movne	r2, #16
 800277e:	f444 6480 	orrne.w	r4, r4, #1024	@ 0x400
 8002782:	611a      	strne	r2, [r3, #16]
 8002784:	06b1      	lsls	r1, r6, #26
 8002786:	d508      	bpl.n	800279a <HAL_CAN_IRQHandler+0xd8>
 8002788:	f01a 0f08 	tst.w	sl, #8
 800278c:	d005      	beq.n	800279a <HAL_CAN_IRQHandler+0xd8>
 800278e:	682b      	ldr	r3, [r5, #0]
 8002790:	2208      	movs	r2, #8
 8002792:	611a      	str	r2, [r3, #16]
 8002794:	4628      	mov	r0, r5
 8002796:	f7ff ff90 	bl	80026ba <HAL_CAN_RxFifo1FullCallback>
 800279a:	06f2      	lsls	r2, r6, #27
 800279c:	d506      	bpl.n	80027ac <HAL_CAN_IRQHandler+0xea>
 800279e:	682b      	ldr	r3, [r5, #0]
 80027a0:	691b      	ldr	r3, [r3, #16]
 80027a2:	079b      	lsls	r3, r3, #30
 80027a4:	d002      	beq.n	80027ac <HAL_CAN_IRQHandler+0xea>
 80027a6:	4628      	mov	r0, r5
 80027a8:	f7ff ff86 	bl	80026b8 <HAL_CAN_RxFifo1MsgPendingCallback>
 80027ac:	03b0      	lsls	r0, r6, #14
 80027ae:	d508      	bpl.n	80027c2 <HAL_CAN_IRQHandler+0x100>
 80027b0:	f019 0f10 	tst.w	r9, #16
 80027b4:	d005      	beq.n	80027c2 <HAL_CAN_IRQHandler+0x100>
 80027b6:	682b      	ldr	r3, [r5, #0]
 80027b8:	2210      	movs	r2, #16
 80027ba:	605a      	str	r2, [r3, #4]
 80027bc:	4628      	mov	r0, r5
 80027be:	f7ff ff7d 	bl	80026bc <HAL_CAN_SleepCallback>
 80027c2:	03f1      	lsls	r1, r6, #15
 80027c4:	d508      	bpl.n	80027d8 <HAL_CAN_IRQHandler+0x116>
 80027c6:	f019 0f08 	tst.w	r9, #8
 80027ca:	d005      	beq.n	80027d8 <HAL_CAN_IRQHandler+0x116>
 80027cc:	682b      	ldr	r3, [r5, #0]
 80027ce:	2208      	movs	r2, #8
 80027d0:	605a      	str	r2, [r3, #4]
 80027d2:	4628      	mov	r0, r5
 80027d4:	f7ff ff73 	bl	80026be <HAL_CAN_WakeUpFromRxMsgCallback>
 80027d8:	0432      	lsls	r2, r6, #16
 80027da:	d529      	bpl.n	8002830 <HAL_CAN_IRQHandler+0x16e>
 80027dc:	f019 0f04 	tst.w	r9, #4
 80027e0:	682a      	ldr	r2, [r5, #0]
 80027e2:	d023      	beq.n	800282c <HAL_CAN_IRQHandler+0x16a>
 80027e4:	05f3      	lsls	r3, r6, #23
 80027e6:	d503      	bpl.n	80027f0 <HAL_CAN_IRQHandler+0x12e>
 80027e8:	07f8      	lsls	r0, r7, #31
 80027ea:	bf48      	it	mi
 80027ec:	f044 0401 	orrmi.w	r4, r4, #1
 80027f0:	05b1      	lsls	r1, r6, #22
 80027f2:	d503      	bpl.n	80027fc <HAL_CAN_IRQHandler+0x13a>
 80027f4:	07bb      	lsls	r3, r7, #30
 80027f6:	bf48      	it	mi
 80027f8:	f044 0402 	orrmi.w	r4, r4, #2
 80027fc:	0570      	lsls	r0, r6, #21
 80027fe:	d503      	bpl.n	8002808 <HAL_CAN_IRQHandler+0x146>
 8002800:	0779      	lsls	r1, r7, #29
 8002802:	bf48      	it	mi
 8002804:	f044 0404 	orrmi.w	r4, r4, #4
 8002808:	0533      	lsls	r3, r6, #20
 800280a:	d50f      	bpl.n	800282c <HAL_CAN_IRQHandler+0x16a>
 800280c:	f017 0370 	ands.w	r3, r7, #112	@ 0x70
 8002810:	d00c      	beq.n	800282c <HAL_CAN_IRQHandler+0x16a>
 8002812:	2b40      	cmp	r3, #64	@ 0x40
 8002814:	d054      	beq.n	80028c0 <HAL_CAN_IRQHandler+0x1fe>
 8002816:	d843      	bhi.n	80028a0 <HAL_CAN_IRQHandler+0x1de>
 8002818:	2b20      	cmp	r3, #32
 800281a:	d04b      	beq.n	80028b4 <HAL_CAN_IRQHandler+0x1f2>
 800281c:	2b30      	cmp	r3, #48	@ 0x30
 800281e:	d04c      	beq.n	80028ba <HAL_CAN_IRQHandler+0x1f8>
 8002820:	2b10      	cmp	r3, #16
 8002822:	d044      	beq.n	80028ae <HAL_CAN_IRQHandler+0x1ec>
 8002824:	6993      	ldr	r3, [r2, #24]
 8002826:	f023 0370 	bic.w	r3, r3, #112	@ 0x70
 800282a:	6193      	str	r3, [r2, #24]
 800282c:	2304      	movs	r3, #4
 800282e:	6053      	str	r3, [r2, #4]
 8002830:	b12c      	cbz	r4, 800283e <HAL_CAN_IRQHandler+0x17c>
 8002832:	6a6b      	ldr	r3, [r5, #36]	@ 0x24
 8002834:	4323      	orrs	r3, r4
 8002836:	626b      	str	r3, [r5, #36]	@ 0x24
 8002838:	4628      	mov	r0, r5
 800283a:	f7ff ff41 	bl	80026c0 <HAL_CAN_ErrorCallback>
 800283e:	e8bd 8ff8 	ldmia.w	sp!, {r3, r4, r5, r6, r7, r8, r9, sl, fp, pc}
 8002842:	f018 0f04 	tst.w	r8, #4
 8002846:	d105      	bne.n	8002854 <HAL_CAN_IRQHandler+0x192>
 8002848:	f018 0f08 	tst.w	r8, #8
 800284c:	d105      	bne.n	800285a <HAL_CAN_IRQHandler+0x198>
 800284e:	f7ff ff2f 	bl	80026b0 <HAL_CAN_TxMailbox0AbortCallback>
 8002852:	e752      	b.n	80026fa <HAL_CAN_IRQHandler+0x38>
 8002854:	f44f 6400 	mov.w	r4, #2048	@ 0x800
 8002858:	e750      	b.n	80026fc <HAL_CAN_IRQHandler+0x3a>
 800285a:	f44f 5480 	mov.w	r4, #4096	@ 0x1000
 800285e:	e74d      	b.n	80026fc <HAL_CAN_IRQHandler+0x3a>
 8002860:	f418 6f80 	tst.w	r8, #1024	@ 0x400
 8002864:	d002      	beq.n	800286c <HAL_CAN_IRQHandler+0x1aa>
 8002866:	f444 5400 	orr.w	r4, r4, #8192	@ 0x2000
 800286a:	e755      	b.n	8002718 <HAL_CAN_IRQHandler+0x56>
 800286c:	f418 6f00 	tst.w	r8, #2048	@ 0x800
 8002870:	d002      	beq.n	8002878 <HAL_CAN_IRQHandler+0x1b6>
 8002872:	f444 4480 	orr.w	r4, r4, #16384	@ 0x4000
 8002876:	e74f      	b.n	8002718 <HAL_CAN_IRQHandler+0x56>
 8002878:	4628      	mov	r0, r5
 800287a:	f7ff ff1a 	bl	80026b2 <HAL_CAN_TxMailbox1AbortCallback>
 800287e:	e74b      	b.n	8002718 <HAL_CAN_IRQHandler+0x56>
 8002880:	f418 2f80 	tst.w	r8, #262144	@ 0x40000
 8002884:	d002      	beq.n	800288c <HAL_CAN_IRQHandler+0x1ca>
 8002886:	f444 4400 	orr.w	r4, r4, #32768	@ 0x8000
 800288a:	e753      	b.n	8002734 <HAL_CAN_IRQHandler+0x72>
 800288c:	f418 2f00 	tst.w	r8, #524288	@ 0x80000
 8002890:	d002      	beq.n	8002898 <HAL_CAN_IRQHandler+0x1d6>
 8002892:	f444 3480 	orr.w	r4, r4, #65536	@ 0x10000
 8002896:	e74d      	b.n	8002734 <HAL_CAN_IRQHandler+0x72>
 8002898:	4628      	mov	r0, r5
 800289a:	f7ff ff0b 	bl	80026b4 <HAL_CAN_TxMailbox2AbortCallback>
 800289e:	e749      	b.n	8002734 <HAL_CAN_IRQHandler+0x72>
 80028a0:	2b50      	cmp	r3, #80	@ 0x50
 80028a2:	d010      	beq.n	80028c6 <HAL_CAN_IRQHandler+0x204>
 80028a4:	2b60      	cmp	r3, #96	@ 0x60
 80028a6:	d1bd      	bne.n	8002824 <HAL_CAN_IRQHandler+0x162>
 80028a8:	f444 7480 	orr.w	r4, r4, #256	@ 0x100
 80028ac:	e7ba      	b.n	8002824 <HAL_CAN_IRQHandler+0x162>
 80028ae:	f044 0408 	orr.w	r4, r4, #8
 80028b2:	e7b7      	b.n	8002824 <HAL_CAN_IRQHandler+0x162>
 80028b4:	f044 0410 	orr.w	r4, r4, #16
 80028b8:	e7b4      	b.n	8002824 <HAL_CAN_IRQHandler+0x162>
 80028ba:	f044 0420 	orr.w	r4, r4, #32
 80028be:	e7b1      	b.n	8002824 <HAL_CAN_IRQHandler+0x162>
 80028c0:	f044 0440 	orr.w	r4, r4, #64	@ 0x40
 80028c4:	e7ae      	b.n	8002824 <HAL_CAN_IRQHandler+0x162>
 80028c6:	f044 0480 	orr.w	r4, r4, #128	@ 0x80
 80028ca:	e7ab      	b.n	8002824 <HAL_CAN_IRQHandler+0x162>

080028cc <HAL_NVIC_SetPriorityGrouping>:
 80028cc:	4907      	ldr	r1, [pc, #28]	@ (80028ec <HAL_NVIC_SetPriorityGrouping+0x20>)
 80028ce:	68ca      	ldr	r2, [r1, #12]
 80028d0:	f422 62e0 	bic.w	r2, r2, #1792	@ 0x700
 80028d4:	0203      	lsls	r3, r0, #8
 80028d6:	0412      	lsls	r2, r2, #16
 80028d8:	f403 63e0 	and.w	r3, r3, #1792	@ 0x700
 80028dc:	0c12      	lsrs	r2, r2, #16
 80028de:	4313      	orrs	r3, r2
 80028e0:	f043 63bf 	orr.w	r3, r3, #100139008	@ 0x5f80000
 80028e4:	f443 3300 	orr.w	r3, r3, #131072	@ 0x20000
 80028e8:	60cb      	str	r3, [r1, #12]
 80028ea:	4770      	bx	lr
 80028ec:	e000ed00 	.word	0xe000ed00

080028f0 <HAL_NVIC_SetPriority>:
 80028f0:	4b16      	ldr	r3, [pc, #88]	@ (800294c <HAL_NVIC_SetPriority+0x5c>)
 80028f2:	b530      	push	{r4, r5, lr}
 80028f4:	68dc      	ldr	r4, [r3, #12]
 80028f6:	f3c4 2402 	ubfx	r4, r4, #8, #3
 80028fa:	f1c4 0307 	rsb	r3, r4, #7
 80028fe:	1d25      	adds	r5, r4, #4
 8002900:	2b04      	cmp	r3, #4
 8002902:	bf28      	it	cs
 8002904:	2304      	movcs	r3, #4
 8002906:	2d06      	cmp	r5, #6
 8002908:	f04f 35ff 	mov.w	r5, #4294967295	@ 0xffffffff
 800290c:	bf8c      	ite	hi
 800290e:	3c03      	subhi	r4, #3
 8002910:	2400      	movls	r4, #0
 8002912:	fa05 f303 	lsl.w	r3, r5, r3
 8002916:	ea21 0303 	bic.w	r3, r1, r3
 800291a:	40a5      	lsls	r5, r4
 800291c:	ea22 0205 	bic.w	r2, r2, r5
 8002920:	40a3      	lsls	r3, r4
 8002922:	2800      	cmp	r0, #0
 8002924:	ea43 0302 	orr.w	r3, r3, r2
 8002928:	bfac      	ite	ge
 800292a:	f100 4060 	addge.w	r0, r0, #3758096384	@ 0xe0000000
 800292e:	4a08      	ldrlt	r2, [pc, #32]	@ (8002950 <HAL_NVIC_SetPriority+0x60>)
 8002930:	ea4f 1303 	mov.w	r3, r3, lsl #4
 8002934:	bfb8      	it	lt
 8002936:	f000 000f 	andlt.w	r0, r0, #15
 800293a:	b2db      	uxtb	r3, r3
 800293c:	bfaa      	itet	ge
 800293e:	f500 4061 	addge.w	r0, r0, #57600	@ 0xe100
 8002942:	5413      	strblt	r3, [r2, r0]
 8002944:	f880 3300 	strbge.w	r3, [r0, #768]	@ 0x300
 8002948:	bd30      	pop	{r4, r5, pc}
 800294a:	bf00      	nop
 800294c:	e000ed00 	.word	0xe000ed00
 8002950:	e000ed14 	.word	0xe000ed14

08002954 <HAL_NVIC_EnableIRQ>:
 8002954:	2800      	cmp	r0, #0
 8002956:	db07      	blt.n	8002968 <HAL_NVIC_EnableIRQ+0x14>
 8002958:	4a04      	ldr	r2, [pc, #16]	@ (800296c <HAL_NVIC_EnableIRQ+0x18>)
 800295a:	0941      	lsrs	r1, r0, #5
 800295c:	2301      	movs	r3, #1
 800295e:	f000 001f 	and.w	r0, r0, #31
 8002962:	4083      	lsls	r3, r0
 8002964:	f842 3021 	str.w	r3, [r2, r1, lsl #2]
 8002968:	4770      	bx	lr
 800296a:	bf00      	nop
 800296c:	e000e100 	.word	0xe000e100

08002970 <HAL_SYSTICK_Config>:
 8002970:	3801      	subs	r0, #1
 8002972:	f1b0 7f80 	cmp.w	r0, #16777216	@ 0x1000000
 8002976:	d20b      	bcs.n	8002990 <HAL_SYSTICK_Config+0x20>
 8002978:	f04f 23e0 	mov.w	r3, #3758153728	@ 0xe000e000
 800297c:	4a05      	ldr	r2, [pc, #20]	@ (8002994 <HAL_SYSTICK_Config+0x24>)
 800297e:	6158      	str	r0, [r3, #20]
 8002980:	21f0      	movs	r1, #240	@ 0xf0
 8002982:	f882 1023 	strb.w	r1, [r2, #35]	@ 0x23
 8002986:	2000      	movs	r0, #0
 8002988:	2207      	movs	r2, #7
 800298a:	6198      	str	r0, [r3, #24]
 800298c:	611a      	str	r2, [r3, #16]
 800298e:	4770      	bx	lr
 8002990:	2001      	movs	r0, #1
 8002992:	4770      	bx	lr
 8002994:	e000ed00 	.word	0xe000ed00

08002998 <DMA_CalcBaseAndBitshift>:
 8002998:	6803      	ldr	r3, [r0, #0]
 800299a:	b510      	push	{r4, lr}
 800299c:	4c08      	ldr	r4, [pc, #32]	@ (80029c0 <DMA_CalcBaseAndBitshift+0x28>)
 800299e:	4602      	mov	r2, r0
 80029a0:	b2d9      	uxtb	r1, r3
 80029a2:	3910      	subs	r1, #16
 80029a4:	2018      	movs	r0, #24
 80029a6:	fbb1 f0f0 	udiv	r0, r1, r0
 80029aa:	5c20      	ldrb	r0, [r4, r0]
 80029ac:	65d0      	str	r0, [r2, #92]	@ 0x5c
 80029ae:	f423 707f 	bic.w	r0, r3, #1020	@ 0x3fc
 80029b2:	f020 0003 	bic.w	r0, r0, #3
 80029b6:	295f      	cmp	r1, #95	@ 0x5f
 80029b8:	bf88      	it	hi
 80029ba:	3004      	addhi	r0, #4
 80029bc:	6590      	str	r0, [r2, #88]	@ 0x58
 80029be:	bd10      	pop	{r4, pc}
 80029c0:	080055c3 	.word	0x080055c3

080029c4 <HAL_DMA_Init>:
 80029c4:	b570      	push	{r4, r5, r6, lr}
 80029c6:	4604      	mov	r4, r0
 80029c8:	f7ff fc50 	bl	800226c <HAL_GetTick>
 80029cc:	4605      	mov	r5, r0
 80029ce:	2c00      	cmp	r4, #0
 80029d0:	d060      	beq.n	8002a94 <HAL_DMA_Init+0xd0>
 80029d2:	2302      	movs	r3, #2
 80029d4:	f884 3035 	strb.w	r3, [r4, #53]	@ 0x35
 80029d8:	6822      	ldr	r2, [r4, #0]
 80029da:	2300      	movs	r3, #0
 80029dc:	f884 3034 	strb.w	r3, [r4, #52]	@ 0x34
 80029e0:	6813      	ldr	r3, [r2, #0]
 80029e2:	f023 0301 	bic.w	r3, r3, #1
 80029e6:	6013      	str	r3, [r2, #0]
 80029e8:	6822      	ldr	r2, [r4, #0]
 80029ea:	6813      	ldr	r3, [r2, #0]
 80029ec:	07d8      	lsls	r0, r3, #31
 80029ee:	d42e      	bmi.n	8002a4e <HAL_DMA_Init+0x8a>
 80029f0:	6813      	ldr	r3, [r2, #0]
 80029f2:	4832      	ldr	r0, [pc, #200]	@ (8002abc <HAL_DMA_Init+0xf8>)
 80029f4:	69a1      	ldr	r1, [r4, #24]
 80029f6:	4018      	ands	r0, r3
 80029f8:	e9d4 3501 	ldrd	r3, r5, [r4, #4]
 80029fc:	432b      	orrs	r3, r5
 80029fe:	68e5      	ldr	r5, [r4, #12]
 8002a00:	432b      	orrs	r3, r5
 8002a02:	6925      	ldr	r5, [r4, #16]
 8002a04:	432b      	orrs	r3, r5
 8002a06:	6965      	ldr	r5, [r4, #20]
 8002a08:	432b      	orrs	r3, r5
 8002a0a:	69e5      	ldr	r5, [r4, #28]
 8002a0c:	430b      	orrs	r3, r1
 8002a0e:	432b      	orrs	r3, r5
 8002a10:	6a25      	ldr	r5, [r4, #32]
 8002a12:	432b      	orrs	r3, r5
 8002a14:	4303      	orrs	r3, r0
 8002a16:	6a60      	ldr	r0, [r4, #36]	@ 0x24
 8002a18:	2804      	cmp	r0, #4
 8002a1a:	bf02      	ittt	eq
 8002a1c:	e9d4 560b 	ldrdeq	r5, r6, [r4, #44]	@ 0x2c
 8002a20:	4335      	orreq	r5, r6
 8002a22:	432b      	orreq	r3, r5
 8002a24:	6013      	str	r3, [r2, #0]
 8002a26:	6953      	ldr	r3, [r2, #20]
 8002a28:	2804      	cmp	r0, #4
 8002a2a:	f023 0307 	bic.w	r3, r3, #7
 8002a2e:	ea43 0300 	orr.w	r3, r3, r0
 8002a32:	d135      	bne.n	8002aa0 <HAL_DMA_Init+0xdc>
 8002a34:	6aa0      	ldr	r0, [r4, #40]	@ 0x28
 8002a36:	6ae5      	ldr	r5, [r4, #44]	@ 0x2c
 8002a38:	4303      	orrs	r3, r0
 8002a3a:	b38d      	cbz	r5, 8002aa0 <HAL_DMA_Init+0xdc>
 8002a3c:	b991      	cbnz	r1, 8002a64 <HAL_DMA_Init+0xa0>
 8002a3e:	2801      	cmp	r0, #1
 8002a40:	d020      	beq.n	8002a84 <HAL_DMA_Init+0xc0>
 8002a42:	f030 0102 	bics.w	r1, r0, #2
 8002a46:	d12b      	bne.n	8002aa0 <HAL_DMA_Init+0xdc>
 8002a48:	01e9      	lsls	r1, r5, #7
 8002a4a:	d529      	bpl.n	8002aa0 <HAL_DMA_Init+0xdc>
 8002a4c:	e01d      	b.n	8002a8a <HAL_DMA_Init+0xc6>
 8002a4e:	f7ff fc0d 	bl	800226c <HAL_GetTick>
 8002a52:	1b40      	subs	r0, r0, r5
 8002a54:	2805      	cmp	r0, #5
 8002a56:	d9c7      	bls.n	80029e8 <HAL_DMA_Init+0x24>
 8002a58:	2320      	movs	r3, #32
 8002a5a:	2003      	movs	r0, #3
 8002a5c:	6563      	str	r3, [r4, #84]	@ 0x54
 8002a5e:	f884 0035 	strb.w	r0, [r4, #53]	@ 0x35
 8002a62:	bd70      	pop	{r4, r5, r6, pc}
 8002a64:	f5b1 5f00 	cmp.w	r1, #8192	@ 0x2000
 8002a68:	d116      	bne.n	8002a98 <HAL_DMA_Init+0xd4>
 8002a6a:	2803      	cmp	r0, #3
 8002a6c:	d818      	bhi.n	8002aa0 <HAL_DMA_Init+0xdc>
 8002a6e:	a101      	add	r1, pc, #4	@ (adr r1, 8002a74 <HAL_DMA_Init+0xb0>)
 8002a70:	f851 f020 	ldr.w	pc, [r1, r0, lsl #2]
 8002a74:	08002a8b 	.word	0x08002a8b
 8002a78:	08002a49 	.word	0x08002a49
 8002a7c:	08002a8b 	.word	0x08002a8b
 8002a80:	08002a85 	.word	0x08002a85
 8002a84:	f1b5 7fc0 	cmp.w	r5, #25165824	@ 0x1800000
 8002a88:	d10a      	bne.n	8002aa0 <HAL_DMA_Init+0xdc>
 8002a8a:	2340      	movs	r3, #64	@ 0x40
 8002a8c:	6563      	str	r3, [r4, #84]	@ 0x54
 8002a8e:	2301      	movs	r3, #1
 8002a90:	f884 3035 	strb.w	r3, [r4, #53]	@ 0x35
 8002a94:	2001      	movs	r0, #1
 8002a96:	e7e4      	b.n	8002a62 <HAL_DMA_Init+0x9e>
 8002a98:	2802      	cmp	r0, #2
 8002a9a:	d9f6      	bls.n	8002a8a <HAL_DMA_Init+0xc6>
 8002a9c:	2803      	cmp	r0, #3
 8002a9e:	d0d3      	beq.n	8002a48 <HAL_DMA_Init+0x84>
 8002aa0:	6153      	str	r3, [r2, #20]
 8002aa2:	4620      	mov	r0, r4
 8002aa4:	f7ff ff78 	bl	8002998 <DMA_CalcBaseAndBitshift>
 8002aa8:	6de2      	ldr	r2, [r4, #92]	@ 0x5c
 8002aaa:	233f      	movs	r3, #63	@ 0x3f
 8002aac:	4093      	lsls	r3, r2
 8002aae:	6083      	str	r3, [r0, #8]
 8002ab0:	2000      	movs	r0, #0
 8002ab2:	2301      	movs	r3, #1
 8002ab4:	6560      	str	r0, [r4, #84]	@ 0x54
 8002ab6:	f884 3035 	strb.w	r3, [r4, #53]	@ 0x35
 8002aba:	e7d2      	b.n	8002a62 <HAL_DMA_Init+0x9e>
 8002abc:	f010803f 	.word	0xf010803f

08002ac0 <HAL_DMA_Start_IT>:
 8002ac0:	b570      	push	{r4, r5, r6, lr}
 8002ac2:	f890 4034 	ldrb.w	r4, [r0, #52]	@ 0x34
 8002ac6:	6d86      	ldr	r6, [r0, #88]	@ 0x58
 8002ac8:	2c01      	cmp	r4, #1
 8002aca:	d030      	beq.n	8002b2e <HAL_DMA_Start_IT+0x6e>
 8002acc:	2401      	movs	r4, #1
 8002ace:	f880 4034 	strb.w	r4, [r0, #52]	@ 0x34
 8002ad2:	f890 4035 	ldrb.w	r4, [r0, #53]	@ 0x35
 8002ad6:	2c01      	cmp	r4, #1
 8002ad8:	f04f 0400 	mov.w	r4, #0
 8002adc:	d125      	bne.n	8002b2a <HAL_DMA_Start_IT+0x6a>
 8002ade:	2502      	movs	r5, #2
 8002ae0:	f880 5035 	strb.w	r5, [r0, #53]	@ 0x35
 8002ae4:	6544      	str	r4, [r0, #84]	@ 0x54
 8002ae6:	6804      	ldr	r4, [r0, #0]
 8002ae8:	6825      	ldr	r5, [r4, #0]
 8002aea:	f425 2580 	bic.w	r5, r5, #262144	@ 0x40000
 8002aee:	6025      	str	r5, [r4, #0]
 8002af0:	6063      	str	r3, [r4, #4]
 8002af2:	6883      	ldr	r3, [r0, #8]
 8002af4:	2b40      	cmp	r3, #64	@ 0x40
 8002af6:	bf0e      	itee	eq
 8002af8:	60a2      	streq	r2, [r4, #8]
 8002afa:	60a1      	strne	r1, [r4, #8]
 8002afc:	60e2      	strne	r2, [r4, #12]
 8002afe:	6dc2      	ldr	r2, [r0, #92]	@ 0x5c
 8002b00:	bf08      	it	eq
 8002b02:	60e1      	streq	r1, [r4, #12]
 8002b04:	233f      	movs	r3, #63	@ 0x3f
 8002b06:	4093      	lsls	r3, r2
 8002b08:	60b3      	str	r3, [r6, #8]
 8002b0a:	6823      	ldr	r3, [r4, #0]
 8002b0c:	f043 0316 	orr.w	r3, r3, #22
 8002b10:	6023      	str	r3, [r4, #0]
 8002b12:	6c03      	ldr	r3, [r0, #64]	@ 0x40
 8002b14:	b11b      	cbz	r3, 8002b1e <HAL_DMA_Start_IT+0x5e>
 8002b16:	6823      	ldr	r3, [r4, #0]
 8002b18:	f043 0308 	orr.w	r3, r3, #8
 8002b1c:	6023      	str	r3, [r4, #0]
 8002b1e:	6823      	ldr	r3, [r4, #0]
 8002b20:	f043 0301 	orr.w	r3, r3, #1
 8002b24:	6023      	str	r3, [r4, #0]
 8002b26:	2000      	movs	r0, #0
 8002b28:	bd70      	pop	{r4, r5, r6, pc}
 8002b2a:	f880 4034 	strb.w	r4, [r0, #52]	@ 0x34
 8002b2e:	2002      	movs	r0, #2
 8002b30:	e7fa      	b.n	8002b28 <HAL_DMA_Start_IT+0x68>

08002b32 <HAL_DMA_Abort>:
 8002b32:	b570      	push	{r4, r5, r6, lr}
 8002b34:	4604      	mov	r4, r0
 8002b36:	6d86      	ldr	r6, [r0, #88]	@ 0x58
 8002b38:	f7ff fb98 	bl	800226c <HAL_GetTick>
 8002b3c:	f894 3035 	ldrb.w	r3, [r4, #53]	@ 0x35
 8002b40:	2b02      	cmp	r3, #2
 8002b42:	4605      	mov	r5, r0
 8002b44:	d006      	beq.n	8002b54 <HAL_DMA_Abort+0x22>
 8002b46:	2380      	movs	r3, #128	@ 0x80
 8002b48:	6563      	str	r3, [r4, #84]	@ 0x54
 8002b4a:	2001      	movs	r0, #1
 8002b4c:	2300      	movs	r3, #0
 8002b4e:	f884 3034 	strb.w	r3, [r4, #52]	@ 0x34
 8002b52:	bd70      	pop	{r4, r5, r6, pc}
 8002b54:	6823      	ldr	r3, [r4, #0]
 8002b56:	681a      	ldr	r2, [r3, #0]
 8002b58:	f022 0216 	bic.w	r2, r2, #22
 8002b5c:	601a      	str	r2, [r3, #0]
 8002b5e:	695a      	ldr	r2, [r3, #20]
 8002b60:	f022 0280 	bic.w	r2, r2, #128	@ 0x80
 8002b64:	615a      	str	r2, [r3, #20]
 8002b66:	6c22      	ldr	r2, [r4, #64]	@ 0x40
 8002b68:	b90a      	cbnz	r2, 8002b6e <HAL_DMA_Abort+0x3c>
 8002b6a:	6ca2      	ldr	r2, [r4, #72]	@ 0x48
 8002b6c:	b11a      	cbz	r2, 8002b76 <HAL_DMA_Abort+0x44>
 8002b6e:	681a      	ldr	r2, [r3, #0]
 8002b70:	f022 0208 	bic.w	r2, r2, #8
 8002b74:	601a      	str	r2, [r3, #0]
 8002b76:	681a      	ldr	r2, [r3, #0]
 8002b78:	f022 0201 	bic.w	r2, r2, #1
 8002b7c:	601a      	str	r2, [r3, #0]
 8002b7e:	6823      	ldr	r3, [r4, #0]
 8002b80:	6818      	ldr	r0, [r3, #0]
 8002b82:	f010 0001 	ands.w	r0, r0, #1
 8002b86:	d107      	bne.n	8002b98 <HAL_DMA_Abort+0x66>
 8002b88:	6de2      	ldr	r2, [r4, #92]	@ 0x5c
 8002b8a:	233f      	movs	r3, #63	@ 0x3f
 8002b8c:	4093      	lsls	r3, r2
 8002b8e:	60b3      	str	r3, [r6, #8]
 8002b90:	2301      	movs	r3, #1
 8002b92:	f884 3035 	strb.w	r3, [r4, #53]	@ 0x35
 8002b96:	e7d9      	b.n	8002b4c <HAL_DMA_Abort+0x1a>
 8002b98:	f7ff fb68 	bl	800226c <HAL_GetTick>
 8002b9c:	1b40      	subs	r0, r0, r5
 8002b9e:	2805      	cmp	r0, #5
 8002ba0:	d9ed      	bls.n	8002b7e <HAL_DMA_Abort+0x4c>
 8002ba2:	2320      	movs	r3, #32
 8002ba4:	2003      	movs	r0, #3
 8002ba6:	6563      	str	r3, [r4, #84]	@ 0x54
 8002ba8:	f884 0035 	strb.w	r0, [r4, #53]	@ 0x35
 8002bac:	e7ce      	b.n	8002b4c <HAL_DMA_Abort+0x1a>

08002bae <HAL_DMA_Abort_IT>:
 8002bae:	f890 3035 	ldrb.w	r3, [r0, #53]	@ 0x35
 8002bb2:	2b02      	cmp	r3, #2
 8002bb4:	d003      	beq.n	8002bbe <HAL_DMA_Abort_IT+0x10>
 8002bb6:	2380      	movs	r3, #128	@ 0x80
 8002bb8:	6543      	str	r3, [r0, #84]	@ 0x54
 8002bba:	2001      	movs	r0, #1
 8002bbc:	4770      	bx	lr
 8002bbe:	6802      	ldr	r2, [r0, #0]
 8002bc0:	2305      	movs	r3, #5
 8002bc2:	f880 3035 	strb.w	r3, [r0, #53]	@ 0x35
 8002bc6:	6813      	ldr	r3, [r2, #0]
 8002bc8:	f023 0301 	bic.w	r3, r3, #1
 8002bcc:	6013      	str	r3, [r2, #0]
 8002bce:	2000      	movs	r0, #0
 8002bd0:	4770      	bx	lr
	...

08002bd4 <HAL_DMA_IRQHandler>:
 8002bd4:	b5f7      	push	{r0, r1, r2, r4, r5, r6, r7, lr}
 8002bd6:	2300      	movs	r3, #0
 8002bd8:	9301      	str	r3, [sp, #4]
 8002bda:	4b5c      	ldr	r3, [pc, #368]	@ (8002d4c <HAL_DMA_IRQHandler+0x178>)
 8002bdc:	6d85      	ldr	r5, [r0, #88]	@ 0x58
 8002bde:	681f      	ldr	r7, [r3, #0]
 8002be0:	6dc3      	ldr	r3, [r0, #92]	@ 0x5c
 8002be2:	682e      	ldr	r6, [r5, #0]
 8002be4:	2208      	movs	r2, #8
 8002be6:	409a      	lsls	r2, r3
 8002be8:	4232      	tst	r2, r6
 8002bea:	4604      	mov	r4, r0
 8002bec:	d00c      	beq.n	8002c08 <HAL_DMA_IRQHandler+0x34>
 8002bee:	6801      	ldr	r1, [r0, #0]
 8002bf0:	6808      	ldr	r0, [r1, #0]
 8002bf2:	0740      	lsls	r0, r0, #29
 8002bf4:	d508      	bpl.n	8002c08 <HAL_DMA_IRQHandler+0x34>
 8002bf6:	6808      	ldr	r0, [r1, #0]
 8002bf8:	f020 0004 	bic.w	r0, r0, #4
 8002bfc:	6008      	str	r0, [r1, #0]
 8002bfe:	60aa      	str	r2, [r5, #8]
 8002c00:	6d62      	ldr	r2, [r4, #84]	@ 0x54
 8002c02:	f042 0201 	orr.w	r2, r2, #1
 8002c06:	6562      	str	r2, [r4, #84]	@ 0x54
 8002c08:	2201      	movs	r2, #1
 8002c0a:	409a      	lsls	r2, r3
 8002c0c:	4232      	tst	r2, r6
 8002c0e:	d008      	beq.n	8002c22 <HAL_DMA_IRQHandler+0x4e>
 8002c10:	6821      	ldr	r1, [r4, #0]
 8002c12:	6949      	ldr	r1, [r1, #20]
 8002c14:	0609      	lsls	r1, r1, #24
 8002c16:	bf41      	itttt	mi
 8002c18:	60aa      	strmi	r2, [r5, #8]
 8002c1a:	6d62      	ldrmi	r2, [r4, #84]	@ 0x54
 8002c1c:	f042 0202 	orrmi.w	r2, r2, #2
 8002c20:	6562      	strmi	r2, [r4, #84]	@ 0x54
 8002c22:	2204      	movs	r2, #4
 8002c24:	409a      	lsls	r2, r3
 8002c26:	4232      	tst	r2, r6
 8002c28:	d008      	beq.n	8002c3c <HAL_DMA_IRQHandler+0x68>
 8002c2a:	6821      	ldr	r1, [r4, #0]
 8002c2c:	6809      	ldr	r1, [r1, #0]
 8002c2e:	0788      	lsls	r0, r1, #30
 8002c30:	bf41      	itttt	mi
 8002c32:	60aa      	strmi	r2, [r5, #8]
 8002c34:	6d62      	ldrmi	r2, [r4, #84]	@ 0x54
 8002c36:	f042 0204 	orrmi.w	r2, r2, #4
 8002c3a:	6562      	strmi	r2, [r4, #84]	@ 0x54
 8002c3c:	2210      	movs	r2, #16
 8002c3e:	409a      	lsls	r2, r3
 8002c40:	4232      	tst	r2, r6
 8002c42:	d010      	beq.n	8002c66 <HAL_DMA_IRQHandler+0x92>
 8002c44:	6823      	ldr	r3, [r4, #0]
 8002c46:	6819      	ldr	r1, [r3, #0]
 8002c48:	0709      	lsls	r1, r1, #28
 8002c4a:	d50c      	bpl.n	8002c66 <HAL_DMA_IRQHandler+0x92>
 8002c4c:	60aa      	str	r2, [r5, #8]
 8002c4e:	681a      	ldr	r2, [r3, #0]
 8002c50:	0350      	lsls	r0, r2, #13
 8002c52:	d537      	bpl.n	8002cc4 <HAL_DMA_IRQHandler+0xf0>
 8002c54:	681b      	ldr	r3, [r3, #0]
 8002c56:	0319      	lsls	r1, r3, #12
 8002c58:	d401      	bmi.n	8002c5e <HAL_DMA_IRQHandler+0x8a>
 8002c5a:	6c23      	ldr	r3, [r4, #64]	@ 0x40
 8002c5c:	e000      	b.n	8002c60 <HAL_DMA_IRQHandler+0x8c>
 8002c5e:	6ca3      	ldr	r3, [r4, #72]	@ 0x48
 8002c60:	b10b      	cbz	r3, 8002c66 <HAL_DMA_IRQHandler+0x92>
 8002c62:	4620      	mov	r0, r4
 8002c64:	4798      	blx	r3
 8002c66:	6de1      	ldr	r1, [r4, #92]	@ 0x5c
 8002c68:	2220      	movs	r2, #32
 8002c6a:	408a      	lsls	r2, r1
 8002c6c:	4232      	tst	r2, r6
 8002c6e:	d03a      	beq.n	8002ce6 <HAL_DMA_IRQHandler+0x112>
 8002c70:	6823      	ldr	r3, [r4, #0]
 8002c72:	6818      	ldr	r0, [r3, #0]
 8002c74:	06c6      	lsls	r6, r0, #27
 8002c76:	d536      	bpl.n	8002ce6 <HAL_DMA_IRQHandler+0x112>
 8002c78:	60aa      	str	r2, [r5, #8]
 8002c7a:	f894 2035 	ldrb.w	r2, [r4, #53]	@ 0x35
 8002c7e:	2a05      	cmp	r2, #5
 8002c80:	681a      	ldr	r2, [r3, #0]
 8002c82:	d127      	bne.n	8002cd4 <HAL_DMA_IRQHandler+0x100>
 8002c84:	f022 0216 	bic.w	r2, r2, #22
 8002c88:	601a      	str	r2, [r3, #0]
 8002c8a:	695a      	ldr	r2, [r3, #20]
 8002c8c:	f022 0280 	bic.w	r2, r2, #128	@ 0x80
 8002c90:	615a      	str	r2, [r3, #20]
 8002c92:	6c22      	ldr	r2, [r4, #64]	@ 0x40
 8002c94:	b90a      	cbnz	r2, 8002c9a <HAL_DMA_IRQHandler+0xc6>
 8002c96:	6ca2      	ldr	r2, [r4, #72]	@ 0x48
 8002c98:	b11a      	cbz	r2, 8002ca2 <HAL_DMA_IRQHandler+0xce>
 8002c9a:	681a      	ldr	r2, [r3, #0]
 8002c9c:	f022 0208 	bic.w	r2, r2, #8
 8002ca0:	601a      	str	r2, [r3, #0]
 8002ca2:	233f      	movs	r3, #63	@ 0x3f
 8002ca4:	408b      	lsls	r3, r1
 8002ca6:	60ab      	str	r3, [r5, #8]
 8002ca8:	2301      	movs	r3, #1
 8002caa:	f884 3035 	strb.w	r3, [r4, #53]	@ 0x35
 8002cae:	2300      	movs	r3, #0
 8002cb0:	f884 3034 	strb.w	r3, [r4, #52]	@ 0x34
 8002cb4:	6d23      	ldr	r3, [r4, #80]	@ 0x50
 8002cb6:	2b00      	cmp	r3, #0
 8002cb8:	d045      	beq.n	8002d46 <HAL_DMA_IRQHandler+0x172>
 8002cba:	4620      	mov	r0, r4
 8002cbc:	b003      	add	sp, #12
 8002cbe:	e8bd 40f0 	ldmia.w	sp!, {r4, r5, r6, r7, lr}
 8002cc2:	4718      	bx	r3
 8002cc4:	681a      	ldr	r2, [r3, #0]
 8002cc6:	05d2      	lsls	r2, r2, #23
 8002cc8:	bf5e      	ittt	pl
 8002cca:	681a      	ldrpl	r2, [r3, #0]
 8002ccc:	f022 0208 	bicpl.w	r2, r2, #8
 8002cd0:	601a      	strpl	r2, [r3, #0]
 8002cd2:	e7c2      	b.n	8002c5a <HAL_DMA_IRQHandler+0x86>
 8002cd4:	0350      	lsls	r0, r2, #13
 8002cd6:	d527      	bpl.n	8002d28 <HAL_DMA_IRQHandler+0x154>
 8002cd8:	681b      	ldr	r3, [r3, #0]
 8002cda:	0319      	lsls	r1, r3, #12
 8002cdc:	d431      	bmi.n	8002d42 <HAL_DMA_IRQHandler+0x16e>
 8002cde:	6c63      	ldr	r3, [r4, #68]	@ 0x44
 8002ce0:	b10b      	cbz	r3, 8002ce6 <HAL_DMA_IRQHandler+0x112>
 8002ce2:	4620      	mov	r0, r4
 8002ce4:	4798      	blx	r3
 8002ce6:	6d63      	ldr	r3, [r4, #84]	@ 0x54
 8002ce8:	b36b      	cbz	r3, 8002d46 <HAL_DMA_IRQHandler+0x172>
 8002cea:	6d63      	ldr	r3, [r4, #84]	@ 0x54
 8002cec:	07da      	lsls	r2, r3, #31
 8002cee:	d519      	bpl.n	8002d24 <HAL_DMA_IRQHandler+0x150>
 8002cf0:	6822      	ldr	r2, [r4, #0]
 8002cf2:	f44f 5316 	mov.w	r3, #9600	@ 0x2580
 8002cf6:	fbb7 f7f3 	udiv	r7, r7, r3
 8002cfa:	2305      	movs	r3, #5
 8002cfc:	f884 3035 	strb.w	r3, [r4, #53]	@ 0x35
 8002d00:	6813      	ldr	r3, [r2, #0]
 8002d02:	f023 0301 	bic.w	r3, r3, #1
 8002d06:	6013      	str	r3, [r2, #0]
 8002d08:	9b01      	ldr	r3, [sp, #4]
 8002d0a:	3301      	adds	r3, #1
 8002d0c:	42bb      	cmp	r3, r7
 8002d0e:	9301      	str	r3, [sp, #4]
 8002d10:	d802      	bhi.n	8002d18 <HAL_DMA_IRQHandler+0x144>
 8002d12:	6813      	ldr	r3, [r2, #0]
 8002d14:	07db      	lsls	r3, r3, #31
 8002d16:	d4f7      	bmi.n	8002d08 <HAL_DMA_IRQHandler+0x134>
 8002d18:	2301      	movs	r3, #1
 8002d1a:	f884 3035 	strb.w	r3, [r4, #53]	@ 0x35
 8002d1e:	2300      	movs	r3, #0
 8002d20:	f884 3034 	strb.w	r3, [r4, #52]	@ 0x34
 8002d24:	6ce3      	ldr	r3, [r4, #76]	@ 0x4c
 8002d26:	e7c6      	b.n	8002cb6 <HAL_DMA_IRQHandler+0xe2>
 8002d28:	681a      	ldr	r2, [r3, #0]
 8002d2a:	f412 7280 	ands.w	r2, r2, #256	@ 0x100
 8002d2e:	d108      	bne.n	8002d42 <HAL_DMA_IRQHandler+0x16e>
 8002d30:	6819      	ldr	r1, [r3, #0]
 8002d32:	f021 0110 	bic.w	r1, r1, #16
 8002d36:	6019      	str	r1, [r3, #0]
 8002d38:	2301      	movs	r3, #1
 8002d3a:	f884 3035 	strb.w	r3, [r4, #53]	@ 0x35
 8002d3e:	f884 2034 	strb.w	r2, [r4, #52]	@ 0x34
 8002d42:	6be3      	ldr	r3, [r4, #60]	@ 0x3c
 8002d44:	e7cc      	b.n	8002ce0 <HAL_DMA_IRQHandler+0x10c>
 8002d46:	b003      	add	sp, #12
 8002d48:	bdf0      	pop	{r4, r5, r6, r7, pc}
 8002d4a:	bf00      	nop
 8002d4c:	2000001c 	.word	0x2000001c

08002d50 <HAL_GPIO_Init>:
 8002d50:	e92d 4ff7 	stmdb	sp!, {r0, r1, r2, r4, r5, r6, r7, r8, r9, sl, fp, lr}
 8002d54:	f8df 91bc 	ldr.w	r9, [pc, #444]	@ 8002f14 <HAL_GPIO_Init+0x1c4>
 8002d58:	4a6c      	ldr	r2, [pc, #432]	@ (8002f0c <HAL_GPIO_Init+0x1bc>)
 8002d5a:	2300      	movs	r3, #0
 8002d5c:	680d      	ldr	r5, [r1, #0]
 8002d5e:	2401      	movs	r4, #1
 8002d60:	409c      	lsls	r4, r3
 8002d62:	ea04 0605 	and.w	r6, r4, r5
 8002d66:	43ac      	bics	r4, r5
 8002d68:	f040 80b7 	bne.w	8002eda <HAL_GPIO_Init+0x18a>
 8002d6c:	684d      	ldr	r5, [r1, #4]
 8002d6e:	2703      	movs	r7, #3
 8002d70:	f005 0403 	and.w	r4, r5, #3
 8002d74:	ea4f 0843 	mov.w	r8, r3, lsl #1
 8002d78:	fa07 fc08 	lsl.w	ip, r7, r8
 8002d7c:	1e67      	subs	r7, r4, #1
 8002d7e:	2f01      	cmp	r7, #1
 8002d80:	ea6f 0c0c 	mvn.w	ip, ip
 8002d84:	d834      	bhi.n	8002df0 <HAL_GPIO_Init+0xa0>
 8002d86:	6887      	ldr	r7, [r0, #8]
 8002d88:	ea07 0e0c 	and.w	lr, r7, ip
 8002d8c:	68cf      	ldr	r7, [r1, #12]
 8002d8e:	fa07 f708 	lsl.w	r7, r7, r8
 8002d92:	ea47 070e 	orr.w	r7, r7, lr
 8002d96:	6087      	str	r7, [r0, #8]
 8002d98:	6847      	ldr	r7, [r0, #4]
 8002d9a:	ea27 0e06 	bic.w	lr, r7, r6
 8002d9e:	f3c5 1700 	ubfx	r7, r5, #4, #1
 8002da2:	409f      	lsls	r7, r3
 8002da4:	ea47 070e 	orr.w	r7, r7, lr
 8002da8:	6047      	str	r7, [r0, #4]
 8002daa:	68c7      	ldr	r7, [r0, #12]
 8002dac:	ea07 0e0c 	and.w	lr, r7, ip
 8002db0:	688f      	ldr	r7, [r1, #8]
 8002db2:	fa07 f708 	lsl.w	r7, r7, r8
 8002db6:	ea47 070e 	orr.w	r7, r7, lr
 8002dba:	2c02      	cmp	r4, #2
 8002dbc:	60c7      	str	r7, [r0, #12]
 8002dbe:	d119      	bne.n	8002df4 <HAL_GPIO_Init+0xa4>
 8002dc0:	ea4f 0ad3 	mov.w	sl, r3, lsr #3
 8002dc4:	eb00 0a8a 	add.w	sl, r0, sl, lsl #2
 8002dc8:	f003 0b07 	and.w	fp, r3, #7
 8002dcc:	f8da 7020 	ldr.w	r7, [sl, #32]
 8002dd0:	ea4f 0b8b 	mov.w	fp, fp, lsl #2
 8002dd4:	f04f 0e0f 	mov.w	lr, #15
 8002dd8:	fa0e fe0b 	lsl.w	lr, lr, fp
 8002ddc:	ea27 0e0e 	bic.w	lr, r7, lr
 8002de0:	690f      	ldr	r7, [r1, #16]
 8002de2:	fa07 f70b 	lsl.w	r7, r7, fp
 8002de6:	ea47 070e 	orr.w	r7, r7, lr
 8002dea:	f8ca 7020 	str.w	r7, [sl, #32]
 8002dee:	e001      	b.n	8002df4 <HAL_GPIO_Init+0xa4>
 8002df0:	2c03      	cmp	r4, #3
 8002df2:	d1da      	bne.n	8002daa <HAL_GPIO_Init+0x5a>
 8002df4:	6807      	ldr	r7, [r0, #0]
 8002df6:	fa04 f408 	lsl.w	r4, r4, r8
 8002dfa:	ea07 070c 	and.w	r7, r7, ip
 8002dfe:	433c      	orrs	r4, r7
 8002e00:	f415 3f40 	tst.w	r5, #196608	@ 0x30000
 8002e04:	6004      	str	r4, [r0, #0]
 8002e06:	d068      	beq.n	8002eda <HAL_GPIO_Init+0x18a>
 8002e08:	2400      	movs	r4, #0
 8002e0a:	9401      	str	r4, [sp, #4]
 8002e0c:	f8d9 4044 	ldr.w	r4, [r9, #68]	@ 0x44
 8002e10:	f444 4480 	orr.w	r4, r4, #16384	@ 0x4000
 8002e14:	f8c9 4044 	str.w	r4, [r9, #68]	@ 0x44
 8002e18:	f8d9 4044 	ldr.w	r4, [r9, #68]	@ 0x44
 8002e1c:	f023 0703 	bic.w	r7, r3, #3
 8002e20:	f107 4780 	add.w	r7, r7, #1073741824	@ 0x40000000
 8002e24:	f404 4480 	and.w	r4, r4, #16384	@ 0x4000
 8002e28:	f507 379c 	add.w	r7, r7, #79872	@ 0x13800
 8002e2c:	9401      	str	r4, [sp, #4]
 8002e2e:	f003 0c03 	and.w	ip, r3, #3
 8002e32:	9c01      	ldr	r4, [sp, #4]
 8002e34:	f8d7 e008 	ldr.w	lr, [r7, #8]
 8002e38:	ea4f 0c8c 	mov.w	ip, ip, lsl #2
 8002e3c:	240f      	movs	r4, #15
 8002e3e:	fa04 f40c 	lsl.w	r4, r4, ip
 8002e42:	ea2e 0e04 	bic.w	lr, lr, r4
 8002e46:	4c32      	ldr	r4, [pc, #200]	@ (8002f10 <HAL_GPIO_Init+0x1c0>)
 8002e48:	42a0      	cmp	r0, r4
 8002e4a:	d04d      	beq.n	8002ee8 <HAL_GPIO_Init+0x198>
 8002e4c:	f504 6480 	add.w	r4, r4, #1024	@ 0x400
 8002e50:	42a0      	cmp	r0, r4
 8002e52:	d04b      	beq.n	8002eec <HAL_GPIO_Init+0x19c>
 8002e54:	f504 6480 	add.w	r4, r4, #1024	@ 0x400
 8002e58:	42a0      	cmp	r0, r4
 8002e5a:	d049      	beq.n	8002ef0 <HAL_GPIO_Init+0x1a0>
 8002e5c:	f504 6480 	add.w	r4, r4, #1024	@ 0x400
 8002e60:	42a0      	cmp	r0, r4
 8002e62:	d047      	beq.n	8002ef4 <HAL_GPIO_Init+0x1a4>
 8002e64:	f504 6480 	add.w	r4, r4, #1024	@ 0x400
 8002e68:	42a0      	cmp	r0, r4
 8002e6a:	d045      	beq.n	8002ef8 <HAL_GPIO_Init+0x1a8>
 8002e6c:	f504 6480 	add.w	r4, r4, #1024	@ 0x400
 8002e70:	42a0      	cmp	r0, r4
 8002e72:	d043      	beq.n	8002efc <HAL_GPIO_Init+0x1ac>
 8002e74:	f504 6480 	add.w	r4, r4, #1024	@ 0x400
 8002e78:	42a0      	cmp	r0, r4
 8002e7a:	d041      	beq.n	8002f00 <HAL_GPIO_Init+0x1b0>
 8002e7c:	f504 6480 	add.w	r4, r4, #1024	@ 0x400
 8002e80:	42a0      	cmp	r0, r4
 8002e82:	d03f      	beq.n	8002f04 <HAL_GPIO_Init+0x1b4>
 8002e84:	f504 6480 	add.w	r4, r4, #1024	@ 0x400
 8002e88:	42a0      	cmp	r0, r4
 8002e8a:	d03d      	beq.n	8002f08 <HAL_GPIO_Init+0x1b8>
 8002e8c:	f504 6480 	add.w	r4, r4, #1024	@ 0x400
 8002e90:	42a0      	cmp	r0, r4
 8002e92:	bf14      	ite	ne
 8002e94:	240a      	movne	r4, #10
 8002e96:	2409      	moveq	r4, #9
 8002e98:	fa04 f40c 	lsl.w	r4, r4, ip
 8002e9c:	ea44 040e 	orr.w	r4, r4, lr
 8002ea0:	60bc      	str	r4, [r7, #8]
 8002ea2:	6894      	ldr	r4, [r2, #8]
 8002ea4:	43f7      	mvns	r7, r6
 8002ea6:	f415 1f80 	tst.w	r5, #1048576	@ 0x100000
 8002eaa:	bf0c      	ite	eq
 8002eac:	403c      	andeq	r4, r7
 8002eae:	4334      	orrne	r4, r6
 8002eb0:	6094      	str	r4, [r2, #8]
 8002eb2:	68d4      	ldr	r4, [r2, #12]
 8002eb4:	f415 1f00 	tst.w	r5, #2097152	@ 0x200000
 8002eb8:	bf0c      	ite	eq
 8002eba:	403c      	andeq	r4, r7
 8002ebc:	4334      	orrne	r4, r6
 8002ebe:	60d4      	str	r4, [r2, #12]
 8002ec0:	6854      	ldr	r4, [r2, #4]
 8002ec2:	f415 3f00 	tst.w	r5, #131072	@ 0x20000
 8002ec6:	bf0c      	ite	eq
 8002ec8:	403c      	andeq	r4, r7
 8002eca:	4334      	orrne	r4, r6
 8002ecc:	6054      	str	r4, [r2, #4]
 8002ece:	6814      	ldr	r4, [r2, #0]
 8002ed0:	03ed      	lsls	r5, r5, #15
 8002ed2:	bf54      	ite	pl
 8002ed4:	403c      	andpl	r4, r7
 8002ed6:	4334      	orrmi	r4, r6
 8002ed8:	6014      	str	r4, [r2, #0]
 8002eda:	3301      	adds	r3, #1
 8002edc:	2b10      	cmp	r3, #16
 8002ede:	f47f af3d 	bne.w	8002d5c <HAL_GPIO_Init+0xc>
 8002ee2:	b003      	add	sp, #12
 8002ee4:	e8bd 8ff0 	ldmia.w	sp!, {r4, r5, r6, r7, r8, r9, sl, fp, pc}
 8002ee8:	2400      	movs	r4, #0
 8002eea:	e7d5      	b.n	8002e98 <HAL_GPIO_Init+0x148>
 8002eec:	2401      	movs	r4, #1
 8002eee:	e7d3      	b.n	8002e98 <HAL_GPIO_Init+0x148>
 8002ef0:	2402      	movs	r4, #2
 8002ef2:	e7d1      	b.n	8002e98 <HAL_GPIO_Init+0x148>
 8002ef4:	2403      	movs	r4, #3
 8002ef6:	e7cf      	b.n	8002e98 <HAL_GPIO_Init+0x148>
 8002ef8:	2404      	movs	r4, #4
 8002efa:	e7cd      	b.n	8002e98 <HAL_GPIO_Init+0x148>
 8002efc:	2405      	movs	r4, #5
 8002efe:	e7cb      	b.n	8002e98 <HAL_GPIO_Init+0x148>
 8002f00:	2406      	movs	r4, #6
 8002f02:	e7c9      	b.n	8002e98 <HAL_GPIO_Init+0x148>
 8002f04:	2407      	movs	r4, #7
 8002f06:	e7c7      	b.n	8002e98 <HAL_GPIO_Init+0x148>
 8002f08:	2408      	movs	r4, #8
 8002f0a:	e7c5      	b.n	8002e98 <HAL_GPIO_Init+0x148>
 8002f0c:	40013c00 	.word	0x40013c00
 8002f10:	40020000 	.word	0x40020000
 8002f14:	40023800 	.word	0x40023800

08002f18 <HAL_GPIO_ReadPin>:
 8002f18:	6903      	ldr	r3, [r0, #16]
 8002f1a:	4219      	tst	r1, r3
 8002f1c:	bf14      	ite	ne
 8002f1e:	2001      	movne	r0, #1
 8002f20:	2000      	moveq	r0, #0
 8002f22:	4770      	bx	lr

08002f24 <HAL_GPIO_WritePin>:
 8002f24:	b10a      	cbz	r2, 8002f2a <HAL_GPIO_WritePin+0x6>
 8002f26:	6181      	str	r1, [r0, #24]
 8002f28:	4770      	bx	lr
 8002f2a:	0409      	lsls	r1, r1, #16
 8002f2c:	e7fb      	b.n	8002f26 <HAL_GPIO_WritePin+0x2>

08002f2e <HAL_GPIO_TogglePin>:
 8002f2e:	6943      	ldr	r3, [r0, #20]
 8002f30:	ea01 0203 	and.w	r2, r1, r3
 8002f34:	ea21 0103 	bic.w	r1, r1, r3
 8002f38:	ea41 4102 	orr.w	r1, r1, r2, lsl #16
 8002f3c:	6181      	str	r1, [r0, #24]
 8002f3e:	4770      	bx	lr

08002f40 <HAL_GPIO_EXTI_IRQHandler>:
 8002f40:	4a04      	ldr	r2, [pc, #16]	@ (8002f54 <HAL_GPIO_EXTI_IRQHandler+0x14>)
 8002f42:	6951      	ldr	r1, [r2, #20]
 8002f44:	4201      	tst	r1, r0
 8002f46:	b508      	push	{r3, lr}
 8002f48:	d002      	beq.n	8002f50 <HAL_GPIO_EXTI_IRQHandler+0x10>
 8002f4a:	6150      	str	r0, [r2, #20]
 8002f4c:	f7ff f8a2 	bl	8002094 <HAL_GPIO_EXTI_Callback>
 8002f50:	bd08      	pop	{r3, pc}
 8002f52:	bf00      	nop
 8002f54:	40013c00 	.word	0x40013c00

08002f58 <I2C_IsAcknowledgeFailed>:
 8002f58:	6801      	ldr	r1, [r0, #0]
 8002f5a:	694b      	ldr	r3, [r1, #20]
 8002f5c:	f413 6380 	ands.w	r3, r3, #1024	@ 0x400
 8002f60:	f04f 0200 	mov.w	r2, #0
 8002f64:	d010      	beq.n	8002f88 <I2C_IsAcknowledgeFailed+0x30>
 8002f66:	f46f 6380 	mvn.w	r3, #1024	@ 0x400
 8002f6a:	614b      	str	r3, [r1, #20]
 8002f6c:	2320      	movs	r3, #32
 8002f6e:	6302      	str	r2, [r0, #48]	@ 0x30
 8002f70:	f880 303d 	strb.w	r3, [r0, #61]	@ 0x3d
 8002f74:	f880 203e 	strb.w	r2, [r0, #62]	@ 0x3e
 8002f78:	6c03      	ldr	r3, [r0, #64]	@ 0x40
 8002f7a:	f880 203c 	strb.w	r2, [r0, #60]	@ 0x3c
 8002f7e:	f043 0304 	orr.w	r3, r3, #4
 8002f82:	6403      	str	r3, [r0, #64]	@ 0x40
 8002f84:	2001      	movs	r0, #1
 8002f86:	4770      	bx	lr
 8002f88:	4618      	mov	r0, r3
 8002f8a:	4770      	bx	lr

08002f8c <I2C_WaitOnFlagUntilTimeout>:
 8002f8c:	e92d 46f8 	stmdb	sp!, {r3, r4, r5, r6, r7, r9, sl, lr}
 8002f90:	4606      	mov	r6, r0
 8002f92:	460f      	mov	r7, r1
 8002f94:	4691      	mov	r9, r2
 8002f96:	461d      	mov	r5, r3
 8002f98:	ea4f 4a11 	mov.w	sl, r1, lsr #16
 8002f9c:	6833      	ldr	r3, [r6, #0]
 8002f9e:	f1ba 0f01 	cmp.w	sl, #1
 8002fa2:	bf0c      	ite	eq
 8002fa4:	695c      	ldreq	r4, [r3, #20]
 8002fa6:	699c      	ldrne	r4, [r3, #24]
 8002fa8:	ea27 0404 	bic.w	r4, r7, r4
 8002fac:	b2a4      	uxth	r4, r4
 8002fae:	fab4 f484 	clz	r4, r4
 8002fb2:	0964      	lsrs	r4, r4, #5
 8002fb4:	45a1      	cmp	r9, r4
 8002fb6:	d001      	beq.n	8002fbc <I2C_WaitOnFlagUntilTimeout+0x30>
 8002fb8:	2000      	movs	r0, #0
 8002fba:	e025      	b.n	8003008 <I2C_WaitOnFlagUntilTimeout+0x7c>
 8002fbc:	1c6a      	adds	r2, r5, #1
 8002fbe:	d0ee      	beq.n	8002f9e <I2C_WaitOnFlagUntilTimeout+0x12>
 8002fc0:	f7ff f954 	bl	800226c <HAL_GetTick>
 8002fc4:	9b08      	ldr	r3, [sp, #32]
 8002fc6:	1ac0      	subs	r0, r0, r3
 8002fc8:	42a8      	cmp	r0, r5
 8002fca:	d801      	bhi.n	8002fd0 <I2C_WaitOnFlagUntilTimeout+0x44>
 8002fcc:	2d00      	cmp	r5, #0
 8002fce:	d1e5      	bne.n	8002f9c <I2C_WaitOnFlagUntilTimeout+0x10>
 8002fd0:	6833      	ldr	r3, [r6, #0]
 8002fd2:	f1ba 0f01 	cmp.w	sl, #1
 8002fd6:	bf0c      	ite	eq
 8002fd8:	695b      	ldreq	r3, [r3, #20]
 8002fda:	699b      	ldrne	r3, [r3, #24]
 8002fdc:	ea27 0303 	bic.w	r3, r7, r3
 8002fe0:	b29b      	uxth	r3, r3
 8002fe2:	fab3 f383 	clz	r3, r3
 8002fe6:	095b      	lsrs	r3, r3, #5
 8002fe8:	4599      	cmp	r9, r3
 8002fea:	d1d7      	bne.n	8002f9c <I2C_WaitOnFlagUntilTimeout+0x10>
 8002fec:	2300      	movs	r3, #0
 8002fee:	2220      	movs	r2, #32
 8002ff0:	6333      	str	r3, [r6, #48]	@ 0x30
 8002ff2:	f886 203d 	strb.w	r2, [r6, #61]	@ 0x3d
 8002ff6:	f886 303e 	strb.w	r3, [r6, #62]	@ 0x3e
 8002ffa:	6c32      	ldr	r2, [r6, #64]	@ 0x40
 8002ffc:	f886 303c 	strb.w	r3, [r6, #60]	@ 0x3c
 8003000:	f042 0220 	orr.w	r2, r2, #32
 8003004:	6432      	str	r2, [r6, #64]	@ 0x40
 8003006:	2001      	movs	r0, #1
 8003008:	e8bd 86f8 	ldmia.w	sp!, {r3, r4, r5, r6, r7, r9, sl, pc}

0800300c <I2C_WaitOnMasterAddressFlagUntilTimeout>:
 800300c:	e92d 41f0 	stmdb	sp!, {r4, r5, r6, r7, r8, lr}
 8003010:	4604      	mov	r4, r0
 8003012:	460f      	mov	r7, r1
 8003014:	4616      	mov	r6, r2
 8003016:	4698      	mov	r8, r3
 8003018:	6825      	ldr	r5, [r4, #0]
 800301a:	6968      	ldr	r0, [r5, #20]
 800301c:	ea27 0000 	bic.w	r0, r7, r0
 8003020:	b280      	uxth	r0, r0
 8003022:	b1c0      	cbz	r0, 8003056 <I2C_WaitOnMasterAddressFlagUntilTimeout+0x4a>
 8003024:	696b      	ldr	r3, [r5, #20]
 8003026:	055a      	lsls	r2, r3, #21
 8003028:	d517      	bpl.n	800305a <I2C_WaitOnMasterAddressFlagUntilTimeout+0x4e>
 800302a:	682b      	ldr	r3, [r5, #0]
 800302c:	f443 7300 	orr.w	r3, r3, #512	@ 0x200
 8003030:	602b      	str	r3, [r5, #0]
 8003032:	f46f 6380 	mvn.w	r3, #1024	@ 0x400
 8003036:	616b      	str	r3, [r5, #20]
 8003038:	2220      	movs	r2, #32
 800303a:	2300      	movs	r3, #0
 800303c:	6323      	str	r3, [r4, #48]	@ 0x30
 800303e:	f884 203d 	strb.w	r2, [r4, #61]	@ 0x3d
 8003042:	f884 303e 	strb.w	r3, [r4, #62]	@ 0x3e
 8003046:	6c23      	ldr	r3, [r4, #64]	@ 0x40
 8003048:	f043 0304 	orr.w	r3, r3, #4
 800304c:	6423      	str	r3, [r4, #64]	@ 0x40
 800304e:	2300      	movs	r3, #0
 8003050:	f884 303c 	strb.w	r3, [r4, #60]	@ 0x3c
 8003054:	2001      	movs	r0, #1
 8003056:	e8bd 81f0 	ldmia.w	sp!, {r4, r5, r6, r7, r8, pc}
 800305a:	1c73      	adds	r3, r6, #1
 800305c:	d0dd      	beq.n	800301a <I2C_WaitOnMasterAddressFlagUntilTimeout+0xe>
 800305e:	f7ff f905 	bl	800226c <HAL_GetTick>
 8003062:	eba0 0008 	sub.w	r0, r0, r8
 8003066:	42b0      	cmp	r0, r6
 8003068:	d801      	bhi.n	800306e <I2C_WaitOnMasterAddressFlagUntilTimeout+0x62>
 800306a:	2e00      	cmp	r6, #0
 800306c:	d1d4      	bne.n	8003018 <I2C_WaitOnMasterAddressFlagUntilTimeout+0xc>
 800306e:	6823      	ldr	r3, [r4, #0]
 8003070:	695a      	ldr	r2, [r3, #20]
 8003072:	ea27 0202 	bic.w	r2, r7, r2
 8003076:	b292      	uxth	r2, r2
 8003078:	2a00      	cmp	r2, #0
 800307a:	d0cd      	beq.n	8003018 <I2C_WaitOnMasterAddressFlagUntilTimeout+0xc>
 800307c:	2300      	movs	r3, #0
 800307e:	2220      	movs	r2, #32
 8003080:	6323      	str	r3, [r4, #48]	@ 0x30
 8003082:	f884 203d 	strb.w	r2, [r4, #61]	@ 0x3d
 8003086:	f884 303e 	strb.w	r3, [r4, #62]	@ 0x3e
 800308a:	6c23      	ldr	r3, [r4, #64]	@ 0x40
 800308c:	4313      	orrs	r3, r2
 800308e:	e7dd      	b.n	800304c <I2C_WaitOnMasterAddressFlagUntilTimeout+0x40>

08003090 <I2C_WaitOnTXEFlagUntilTimeout>:
 8003090:	b570      	push	{r4, r5, r6, lr}
 8003092:	4604      	mov	r4, r0
 8003094:	460d      	mov	r5, r1
 8003096:	4616      	mov	r6, r2
 8003098:	6823      	ldr	r3, [r4, #0]
 800309a:	695b      	ldr	r3, [r3, #20]
 800309c:	061b      	lsls	r3, r3, #24
 800309e:	d501      	bpl.n	80030a4 <I2C_WaitOnTXEFlagUntilTimeout+0x14>
 80030a0:	2000      	movs	r0, #0
 80030a2:	e01e      	b.n	80030e2 <I2C_WaitOnTXEFlagUntilTimeout+0x52>
 80030a4:	4620      	mov	r0, r4
 80030a6:	f7ff ff57 	bl	8002f58 <I2C_IsAcknowledgeFailed>
 80030aa:	b9c8      	cbnz	r0, 80030e0 <I2C_WaitOnTXEFlagUntilTimeout+0x50>
 80030ac:	1c6a      	adds	r2, r5, #1
 80030ae:	d0f3      	beq.n	8003098 <I2C_WaitOnTXEFlagUntilTimeout+0x8>
 80030b0:	f7ff f8dc 	bl	800226c <HAL_GetTick>
 80030b4:	1b80      	subs	r0, r0, r6
 80030b6:	42a8      	cmp	r0, r5
 80030b8:	d801      	bhi.n	80030be <I2C_WaitOnTXEFlagUntilTimeout+0x2e>
 80030ba:	2d00      	cmp	r5, #0
 80030bc:	d1ec      	bne.n	8003098 <I2C_WaitOnTXEFlagUntilTimeout+0x8>
 80030be:	6823      	ldr	r3, [r4, #0]
 80030c0:	695b      	ldr	r3, [r3, #20]
 80030c2:	f013 0380 	ands.w	r3, r3, #128	@ 0x80
 80030c6:	d1e7      	bne.n	8003098 <I2C_WaitOnTXEFlagUntilTimeout+0x8>
 80030c8:	2220      	movs	r2, #32
 80030ca:	6323      	str	r3, [r4, #48]	@ 0x30
 80030cc:	f884 203d 	strb.w	r2, [r4, #61]	@ 0x3d
 80030d0:	f884 303e 	strb.w	r3, [r4, #62]	@ 0x3e
 80030d4:	6c22      	ldr	r2, [r4, #64]	@ 0x40
 80030d6:	f884 303c 	strb.w	r3, [r4, #60]	@ 0x3c
 80030da:	f042 0220 	orr.w	r2, r2, #32
 80030de:	6422      	str	r2, [r4, #64]	@ 0x40
 80030e0:	2001      	movs	r0, #1
 80030e2:	bd70      	pop	{r4, r5, r6, pc}

080030e4 <I2C_WaitOnBTFFlagUntilTimeout>:
 80030e4:	b570      	push	{r4, r5, r6, lr}
 80030e6:	4604      	mov	r4, r0
 80030e8:	460d      	mov	r5, r1
 80030ea:	4616      	mov	r6, r2
 80030ec:	6823      	ldr	r3, [r4, #0]
 80030ee:	695b      	ldr	r3, [r3, #20]
 80030f0:	075b      	lsls	r3, r3, #29
 80030f2:	d501      	bpl.n	80030f8 <I2C_WaitOnBTFFlagUntilTimeout+0x14>
 80030f4:	2000      	movs	r0, #0
 80030f6:	e01e      	b.n	8003136 <I2C_WaitOnBTFFlagUntilTimeout+0x52>
 80030f8:	4620      	mov	r0, r4
 80030fa:	f7ff ff2d 	bl	8002f58 <I2C_IsAcknowledgeFailed>
 80030fe:	b9c8      	cbnz	r0, 8003134 <I2C_WaitOnBTFFlagUntilTimeout+0x50>
 8003100:	1c6a      	adds	r2, r5, #1
 8003102:	d0f3      	beq.n	80030ec <I2C_WaitOnBTFFlagUntilTimeout+0x8>
 8003104:	f7ff f8b2 	bl	800226c <HAL_GetTick>
 8003108:	1b80      	subs	r0, r0, r6
 800310a:	42a8      	cmp	r0, r5
 800310c:	d801      	bhi.n	8003112 <I2C_WaitOnBTFFlagUntilTimeout+0x2e>
 800310e:	2d00      	cmp	r5, #0
 8003110:	d1ec      	bne.n	80030ec <I2C_WaitOnBTFFlagUntilTimeout+0x8>
 8003112:	6823      	ldr	r3, [r4, #0]
 8003114:	695b      	ldr	r3, [r3, #20]
 8003116:	f013 0304 	ands.w	r3, r3, #4
 800311a:	d1e7      	bne.n	80030ec <I2C_WaitOnBTFFlagUntilTimeout+0x8>
 800311c:	2220      	movs	r2, #32
 800311e:	6323      	str	r3, [r4, #48]	@ 0x30
 8003120:	f884 203d 	strb.w	r2, [r4, #61]	@ 0x3d
 8003124:	f884 303e 	strb.w	r3, [r4, #62]	@ 0x3e
 8003128:	6c22      	ldr	r2, [r4, #64]	@ 0x40
 800312a:	f884 303c 	strb.w	r3, [r4, #60]	@ 0x3c
 800312e:	f042 0220 	orr.w	r2, r2, #32
 8003132:	6422      	str	r2, [r4, #64]	@ 0x40
 8003134:	2001      	movs	r0, #1
 8003136:	bd70      	pop	{r4, r5, r6, pc}

08003138 <I2C_WaitOnRXNEFlagUntilTimeout>:
 8003138:	b570      	push	{r4, r5, r6, lr}
 800313a:	4604      	mov	r4, r0
 800313c:	460d      	mov	r5, r1
 800313e:	4616      	mov	r6, r2
 8003140:	6821      	ldr	r1, [r4, #0]
 8003142:	694b      	ldr	r3, [r1, #20]
 8003144:	f013 0340 	ands.w	r3, r3, #64	@ 0x40
 8003148:	d001      	beq.n	800314e <I2C_WaitOnRXNEFlagUntilTimeout+0x16>
 800314a:	2000      	movs	r0, #0
 800314c:	e011      	b.n	8003172 <I2C_WaitOnRXNEFlagUntilTimeout+0x3a>
 800314e:	694a      	ldr	r2, [r1, #20]
 8003150:	06d2      	lsls	r2, r2, #27
 8003152:	d50f      	bpl.n	8003174 <I2C_WaitOnRXNEFlagUntilTimeout+0x3c>
 8003154:	f06f 0210 	mvn.w	r2, #16
 8003158:	614a      	str	r2, [r1, #20]
 800315a:	2220      	movs	r2, #32
 800315c:	6323      	str	r3, [r4, #48]	@ 0x30
 800315e:	f884 203d 	strb.w	r2, [r4, #61]	@ 0x3d
 8003162:	f884 303e 	strb.w	r3, [r4, #62]	@ 0x3e
 8003166:	6c23      	ldr	r3, [r4, #64]	@ 0x40
 8003168:	6423      	str	r3, [r4, #64]	@ 0x40
 800316a:	2300      	movs	r3, #0
 800316c:	f884 303c 	strb.w	r3, [r4, #60]	@ 0x3c
 8003170:	2001      	movs	r0, #1
 8003172:	bd70      	pop	{r4, r5, r6, pc}
 8003174:	f7ff f87a 	bl	800226c <HAL_GetTick>
 8003178:	1b80      	subs	r0, r0, r6
 800317a:	42a8      	cmp	r0, r5
 800317c:	d801      	bhi.n	8003182 <I2C_WaitOnRXNEFlagUntilTimeout+0x4a>
 800317e:	2d00      	cmp	r5, #0
 8003180:	d1de      	bne.n	8003140 <I2C_WaitOnRXNEFlagUntilTimeout+0x8>
 8003182:	6823      	ldr	r3, [r4, #0]
 8003184:	695b      	ldr	r3, [r3, #20]
 8003186:	f013 0340 	ands.w	r3, r3, #64	@ 0x40
 800318a:	d1d9      	bne.n	8003140 <I2C_WaitOnRXNEFlagUntilTimeout+0x8>
 800318c:	2220      	movs	r2, #32
 800318e:	6323      	str	r3, [r4, #48]	@ 0x30
 8003190:	f884 203d 	strb.w	r2, [r4, #61]	@ 0x3d
 8003194:	f884 303e 	strb.w	r3, [r4, #62]	@ 0x3e
 8003198:	6c23      	ldr	r3, [r4, #64]	@ 0x40
 800319a:	4313      	orrs	r3, r2
 800319c:	e7e4      	b.n	8003168 <I2C_WaitOnRXNEFlagUntilTimeout+0x30>
	...

080031a0 <HAL_I2C_Init>:
 80031a0:	b570      	push	{r4, r5, r6, lr}
 80031a2:	4604      	mov	r4, r0
 80031a4:	b908      	cbnz	r0, 80031aa <HAL_I2C_Init+0xa>
 80031a6:	2001      	movs	r0, #1
 80031a8:	bd70      	pop	{r4, r5, r6, pc}
 80031aa:	f890 303d 	ldrb.w	r3, [r0, #61]	@ 0x3d
 80031ae:	f003 02ff 	and.w	r2, r3, #255	@ 0xff
 80031b2:	b91b      	cbnz	r3, 80031bc <HAL_I2C_Init+0x1c>
 80031b4:	f880 203c 	strb.w	r2, [r0, #60]	@ 0x3c
 80031b8:	f7fe fd5e 	bl	8001c78 <HAL_I2C_MspInit>
 80031bc:	2324      	movs	r3, #36	@ 0x24
 80031be:	f884 303d 	strb.w	r3, [r4, #61]	@ 0x3d
 80031c2:	6823      	ldr	r3, [r4, #0]
 80031c4:	681a      	ldr	r2, [r3, #0]
 80031c6:	f022 0201 	bic.w	r2, r2, #1
 80031ca:	601a      	str	r2, [r3, #0]
 80031cc:	681a      	ldr	r2, [r3, #0]
 80031ce:	f442 4200 	orr.w	r2, r2, #32768	@ 0x8000
 80031d2:	601a      	str	r2, [r3, #0]
 80031d4:	681a      	ldr	r2, [r3, #0]
 80031d6:	f422 4200 	bic.w	r2, r2, #32768	@ 0x8000
 80031da:	601a      	str	r2, [r3, #0]
 80031dc:	f000 fdac 	bl	8003d38 <HAL_RCC_GetPCLK1Freq>
 80031e0:	4b3f      	ldr	r3, [pc, #252]	@ (80032e0 <HAL_I2C_Init+0x140>)
 80031e2:	6865      	ldr	r5, [r4, #4]
 80031e4:	429d      	cmp	r5, r3
 80031e6:	bf94      	ite	ls
 80031e8:	4b3e      	ldrls	r3, [pc, #248]	@ (80032e4 <HAL_I2C_Init+0x144>)
 80031ea:	4b3f      	ldrhi	r3, [pc, #252]	@ (80032e8 <HAL_I2C_Init+0x148>)
 80031ec:	4298      	cmp	r0, r3
 80031ee:	bf8c      	ite	hi
 80031f0:	2300      	movhi	r3, #0
 80031f2:	2301      	movls	r3, #1
 80031f4:	2b00      	cmp	r3, #0
 80031f6:	d1d6      	bne.n	80031a6 <HAL_I2C_Init+0x6>
 80031f8:	6822      	ldr	r2, [r4, #0]
 80031fa:	4e39      	ldr	r6, [pc, #228]	@ (80032e0 <HAL_I2C_Init+0x140>)
 80031fc:	6851      	ldr	r1, [r2, #4]
 80031fe:	4b3b      	ldr	r3, [pc, #236]	@ (80032ec <HAL_I2C_Init+0x14c>)
 8003200:	fbb0 f3f3 	udiv	r3, r0, r3
 8003204:	f021 013f 	bic.w	r1, r1, #63	@ 0x3f
 8003208:	4319      	orrs	r1, r3
 800320a:	42b5      	cmp	r5, r6
 800320c:	6051      	str	r1, [r2, #4]
 800320e:	bf88      	it	hi
 8003210:	f44f 7696 	movhi.w	r6, #300	@ 0x12c
 8003214:	6a11      	ldr	r1, [r2, #32]
 8003216:	bf88      	it	hi
 8003218:	4373      	mulhi	r3, r6
 800321a:	f021 013f 	bic.w	r1, r1, #63	@ 0x3f
 800321e:	bf84      	itt	hi
 8003220:	f44f 767a 	movhi.w	r6, #1000	@ 0x3e8
 8003224:	fbb3 f3f6 	udivhi	r3, r3, r6
 8003228:	3301      	adds	r3, #1
 800322a:	430b      	orrs	r3, r1
 800322c:	6213      	str	r3, [r2, #32]
 800322e:	69d1      	ldr	r1, [r2, #28]
 8003230:	1e43      	subs	r3, r0, #1
 8003232:	482b      	ldr	r0, [pc, #172]	@ (80032e0 <HAL_I2C_Init+0x140>)
 8003234:	f421 414f 	bic.w	r1, r1, #52992	@ 0xcf00
 8003238:	4285      	cmp	r5, r0
 800323a:	f021 01ff 	bic.w	r1, r1, #255	@ 0xff
 800323e:	d832      	bhi.n	80032a6 <HAL_I2C_Init+0x106>
 8003240:	006d      	lsls	r5, r5, #1
 8003242:	f640 70fc 	movw	r0, #4092	@ 0xffc
 8003246:	fbb3 f3f5 	udiv	r3, r3, r5
 800324a:	3301      	adds	r3, #1
 800324c:	4203      	tst	r3, r0
 800324e:	d042      	beq.n	80032d6 <HAL_I2C_Init+0x136>
 8003250:	f3c3 030b 	ubfx	r3, r3, #0, #12
 8003254:	4319      	orrs	r1, r3
 8003256:	61d1      	str	r1, [r2, #28]
 8003258:	e9d4 3007 	ldrd	r3, r0, [r4, #28]
 800325c:	6811      	ldr	r1, [r2, #0]
 800325e:	4303      	orrs	r3, r0
 8003260:	f021 01c0 	bic.w	r1, r1, #192	@ 0xc0
 8003264:	430b      	orrs	r3, r1
 8003266:	6013      	str	r3, [r2, #0]
 8003268:	6891      	ldr	r1, [r2, #8]
 800326a:	e9d4 0303 	ldrd	r0, r3, [r4, #12]
 800326e:	f421 4103 	bic.w	r1, r1, #33536	@ 0x8300
 8003272:	4303      	orrs	r3, r0
 8003274:	f021 01ff 	bic.w	r1, r1, #255	@ 0xff
 8003278:	430b      	orrs	r3, r1
 800327a:	6093      	str	r3, [r2, #8]
 800327c:	e9d4 3005 	ldrd	r3, r0, [r4, #20]
 8003280:	68d1      	ldr	r1, [r2, #12]
 8003282:	4303      	orrs	r3, r0
 8003284:	f021 01ff 	bic.w	r1, r1, #255	@ 0xff
 8003288:	430b      	orrs	r3, r1
 800328a:	60d3      	str	r3, [r2, #12]
 800328c:	6813      	ldr	r3, [r2, #0]
 800328e:	f043 0301 	orr.w	r3, r3, #1
 8003292:	6013      	str	r3, [r2, #0]
 8003294:	2000      	movs	r0, #0
 8003296:	2320      	movs	r3, #32
 8003298:	6420      	str	r0, [r4, #64]	@ 0x40
 800329a:	f884 303d 	strb.w	r3, [r4, #61]	@ 0x3d
 800329e:	6320      	str	r0, [r4, #48]	@ 0x30
 80032a0:	f884 003e 	strb.w	r0, [r4, #62]	@ 0x3e
 80032a4:	e780      	b.n	80031a8 <HAL_I2C_Init+0x8>
 80032a6:	68a0      	ldr	r0, [r4, #8]
 80032a8:	b950      	cbnz	r0, 80032c0 <HAL_I2C_Init+0x120>
 80032aa:	eb05 0545 	add.w	r5, r5, r5, lsl #1
 80032ae:	fbb3 f3f5 	udiv	r3, r3, r5
 80032b2:	3301      	adds	r3, #1
 80032b4:	f3c3 030b 	ubfx	r3, r3, #0, #12
 80032b8:	b17b      	cbz	r3, 80032da <HAL_I2C_Init+0x13a>
 80032ba:	f443 4300 	orr.w	r3, r3, #32768	@ 0x8000
 80032be:	e7c9      	b.n	8003254 <HAL_I2C_Init+0xb4>
 80032c0:	2019      	movs	r0, #25
 80032c2:	4368      	muls	r0, r5
 80032c4:	fbb3 f3f0 	udiv	r3, r3, r0
 80032c8:	3301      	adds	r3, #1
 80032ca:	f3c3 030b 	ubfx	r3, r3, #0, #12
 80032ce:	b123      	cbz	r3, 80032da <HAL_I2C_Init+0x13a>
 80032d0:	f443 4340 	orr.w	r3, r3, #49152	@ 0xc000
 80032d4:	e7be      	b.n	8003254 <HAL_I2C_Init+0xb4>
 80032d6:	2304      	movs	r3, #4
 80032d8:	e7bc      	b.n	8003254 <HAL_I2C_Init+0xb4>
 80032da:	2301      	movs	r3, #1
 80032dc:	e7ba      	b.n	8003254 <HAL_I2C_Init+0xb4>
 80032de:	bf00      	nop
 80032e0:	000186a0 	.word	0x000186a0
 80032e4:	001e847f 	.word	0x001e847f
 80032e8:	003d08ff 	.word	0x003d08ff
 80032ec:	000f4240 	.word	0x000f4240

080032f0 <HAL_I2C_Master_Transmit>:
 80032f0:	e92d 43f0 	stmdb	sp!, {r4, r5, r6, r7, r8, r9, lr}
 80032f4:	4604      	mov	r4, r0
 80032f6:	b085      	sub	sp, #20
 80032f8:	4698      	mov	r8, r3
 80032fa:	9f0c      	ldr	r7, [sp, #48]	@ 0x30
 80032fc:	460d      	mov	r5, r1
 80032fe:	4691      	mov	r9, r2
 8003300:	f7fe ffb4 	bl	800226c <HAL_GetTick>
 8003304:	f894 303d 	ldrb.w	r3, [r4, #61]	@ 0x3d
 8003308:	2b20      	cmp	r3, #32
 800330a:	4606      	mov	r6, r0
 800330c:	d004      	beq.n	8003318 <HAL_I2C_Master_Transmit+0x28>
 800330e:	2502      	movs	r5, #2
 8003310:	4628      	mov	r0, r5
 8003312:	b005      	add	sp, #20
 8003314:	e8bd 83f0 	ldmia.w	sp!, {r4, r5, r6, r7, r8, r9, pc}
 8003318:	9000      	str	r0, [sp, #0]
 800331a:	495e      	ldr	r1, [pc, #376]	@ (8003494 <HAL_I2C_Master_Transmit+0x1a4>)
 800331c:	2319      	movs	r3, #25
 800331e:	2201      	movs	r2, #1
 8003320:	4620      	mov	r0, r4
 8003322:	f7ff fe33 	bl	8002f8c <I2C_WaitOnFlagUntilTimeout>
 8003326:	2800      	cmp	r0, #0
 8003328:	d1f1      	bne.n	800330e <HAL_I2C_Master_Transmit+0x1e>
 800332a:	f894 303c 	ldrb.w	r3, [r4, #60]	@ 0x3c
 800332e:	2b01      	cmp	r3, #1
 8003330:	d0ed      	beq.n	800330e <HAL_I2C_Master_Transmit+0x1e>
 8003332:	6821      	ldr	r1, [r4, #0]
 8003334:	2301      	movs	r3, #1
 8003336:	f884 303c 	strb.w	r3, [r4, #60]	@ 0x3c
 800333a:	680b      	ldr	r3, [r1, #0]
 800333c:	07da      	lsls	r2, r3, #31
 800333e:	bf5e      	ittt	pl
 8003340:	680b      	ldrpl	r3, [r1, #0]
 8003342:	f043 0301 	orrpl.w	r3, r3, #1
 8003346:	600b      	strpl	r3, [r1, #0]
 8003348:	680b      	ldr	r3, [r1, #0]
 800334a:	f423 6300 	bic.w	r3, r3, #2048	@ 0x800
 800334e:	600b      	str	r3, [r1, #0]
 8003350:	2321      	movs	r3, #33	@ 0x21
 8003352:	f884 303d 	strb.w	r3, [r4, #61]	@ 0x3d
 8003356:	2310      	movs	r3, #16
 8003358:	f884 303e 	strb.w	r3, [r4, #62]	@ 0x3e
 800335c:	2300      	movs	r3, #0
 800335e:	6423      	str	r3, [r4, #64]	@ 0x40
 8003360:	f8a4 802a 	strh.w	r8, [r4, #42]	@ 0x2a
 8003364:	8d63      	ldrh	r3, [r4, #42]	@ 0x2a
 8003366:	8523      	strh	r3, [r4, #40]	@ 0x28
 8003368:	4b4b      	ldr	r3, [pc, #300]	@ (8003498 <HAL_I2C_Master_Transmit+0x1a8>)
 800336a:	62e3      	str	r3, [r4, #44]	@ 0x2c
 800336c:	6ae3      	ldr	r3, [r4, #44]	@ 0x2c
 800336e:	f8c4 9024 	str.w	r9, [r4, #36]	@ 0x24
 8003372:	2b08      	cmp	r3, #8
 8003374:	d004      	beq.n	8003380 <HAL_I2C_Master_Transmit+0x90>
 8003376:	2b01      	cmp	r3, #1
 8003378:	d002      	beq.n	8003380 <HAL_I2C_Master_Transmit+0x90>
 800337a:	f513 3f80 	cmn.w	r3, #65536	@ 0x10000
 800337e:	d104      	bne.n	800338a <HAL_I2C_Master_Transmit+0x9a>
 8003380:	680b      	ldr	r3, [r1, #0]
 8003382:	f443 7380 	orr.w	r3, r3, #256	@ 0x100
 8003386:	600b      	str	r3, [r1, #0]
 8003388:	e002      	b.n	8003390 <HAL_I2C_Master_Transmit+0xa0>
 800338a:	6b23      	ldr	r3, [r4, #48]	@ 0x30
 800338c:	2b12      	cmp	r3, #18
 800338e:	d0f7      	beq.n	8003380 <HAL_I2C_Master_Transmit+0x90>
 8003390:	2200      	movs	r2, #0
 8003392:	9600      	str	r6, [sp, #0]
 8003394:	463b      	mov	r3, r7
 8003396:	f04f 1101 	mov.w	r1, #65537	@ 0x10001
 800339a:	4620      	mov	r0, r4
 800339c:	f7ff fdf6 	bl	8002f8c <I2C_WaitOnFlagUntilTimeout>
 80033a0:	6822      	ldr	r2, [r4, #0]
 80033a2:	b140      	cbz	r0, 80033b6 <HAL_I2C_Master_Transmit+0xc6>
 80033a4:	6813      	ldr	r3, [r2, #0]
 80033a6:	05db      	lsls	r3, r3, #23
 80033a8:	d401      	bmi.n	80033ae <HAL_I2C_Master_Transmit+0xbe>
 80033aa:	2501      	movs	r5, #1
 80033ac:	e7b0      	b.n	8003310 <HAL_I2C_Master_Transmit+0x20>
 80033ae:	f44f 7300 	mov.w	r3, #512	@ 0x200
 80033b2:	6423      	str	r3, [r4, #64]	@ 0x40
 80033b4:	e7f9      	b.n	80033aa <HAL_I2C_Master_Transmit+0xba>
 80033b6:	6923      	ldr	r3, [r4, #16]
 80033b8:	f5b3 4f80 	cmp.w	r3, #16384	@ 0x4000
 80033bc:	d121      	bne.n	8003402 <HAL_I2C_Master_Transmit+0x112>
 80033be:	f005 05fe 	and.w	r5, r5, #254	@ 0xfe
 80033c2:	6115      	str	r5, [r2, #16]
 80033c4:	4935      	ldr	r1, [pc, #212]	@ (800349c <HAL_I2C_Master_Transmit+0x1ac>)
 80033c6:	4633      	mov	r3, r6
 80033c8:	463a      	mov	r2, r7
 80033ca:	4620      	mov	r0, r4
 80033cc:	f7ff fe1e 	bl	800300c <I2C_WaitOnMasterAddressFlagUntilTimeout>
 80033d0:	4605      	mov	r5, r0
 80033d2:	2800      	cmp	r0, #0
 80033d4:	d1e9      	bne.n	80033aa <HAL_I2C_Master_Transmit+0xba>
 80033d6:	6823      	ldr	r3, [r4, #0]
 80033d8:	9003      	str	r0, [sp, #12]
 80033da:	695a      	ldr	r2, [r3, #20]
 80033dc:	9203      	str	r2, [sp, #12]
 80033de:	699b      	ldr	r3, [r3, #24]
 80033e0:	9303      	str	r3, [sp, #12]
 80033e2:	9b03      	ldr	r3, [sp, #12]
 80033e4:	8d23      	ldrh	r3, [r4, #40]	@ 0x28
 80033e6:	b9f3      	cbnz	r3, 8003426 <HAL_I2C_Master_Transmit+0x136>
 80033e8:	6821      	ldr	r1, [r4, #0]
 80033ea:	680a      	ldr	r2, [r1, #0]
 80033ec:	f442 7200 	orr.w	r2, r2, #512	@ 0x200
 80033f0:	600a      	str	r2, [r1, #0]
 80033f2:	2220      	movs	r2, #32
 80033f4:	f884 203d 	strb.w	r2, [r4, #61]	@ 0x3d
 80033f8:	f884 303c 	strb.w	r3, [r4, #60]	@ 0x3c
 80033fc:	f884 303e 	strb.w	r3, [r4, #62]	@ 0x3e
 8003400:	e786      	b.n	8003310 <HAL_I2C_Master_Transmit+0x20>
 8003402:	11eb      	asrs	r3, r5, #7
 8003404:	f003 0306 	and.w	r3, r3, #6
 8003408:	f043 03f0 	orr.w	r3, r3, #240	@ 0xf0
 800340c:	6113      	str	r3, [r2, #16]
 800340e:	4924      	ldr	r1, [pc, #144]	@ (80034a0 <HAL_I2C_Master_Transmit+0x1b0>)
 8003410:	4633      	mov	r3, r6
 8003412:	463a      	mov	r2, r7
 8003414:	4620      	mov	r0, r4
 8003416:	f7ff fdf9 	bl	800300c <I2C_WaitOnMasterAddressFlagUntilTimeout>
 800341a:	2800      	cmp	r0, #0
 800341c:	d1c5      	bne.n	80033aa <HAL_I2C_Master_Transmit+0xba>
 800341e:	6823      	ldr	r3, [r4, #0]
 8003420:	b2ed      	uxtb	r5, r5
 8003422:	611d      	str	r5, [r3, #16]
 8003424:	e7ce      	b.n	80033c4 <HAL_I2C_Master_Transmit+0xd4>
 8003426:	4632      	mov	r2, r6
 8003428:	4639      	mov	r1, r7
 800342a:	4620      	mov	r0, r4
 800342c:	f7ff fe30 	bl	8003090 <I2C_WaitOnTXEFlagUntilTimeout>
 8003430:	b140      	cbz	r0, 8003444 <HAL_I2C_Master_Transmit+0x154>
 8003432:	6c23      	ldr	r3, [r4, #64]	@ 0x40
 8003434:	2b04      	cmp	r3, #4
 8003436:	d1b8      	bne.n	80033aa <HAL_I2C_Master_Transmit+0xba>
 8003438:	6822      	ldr	r2, [r4, #0]
 800343a:	6813      	ldr	r3, [r2, #0]
 800343c:	f443 7300 	orr.w	r3, r3, #512	@ 0x200
 8003440:	6013      	str	r3, [r2, #0]
 8003442:	e7b2      	b.n	80033aa <HAL_I2C_Master_Transmit+0xba>
 8003444:	6a63      	ldr	r3, [r4, #36]	@ 0x24
 8003446:	6820      	ldr	r0, [r4, #0]
 8003448:	461a      	mov	r2, r3
 800344a:	f812 1b01 	ldrb.w	r1, [r2], #1
 800344e:	6101      	str	r1, [r0, #16]
 8003450:	6262      	str	r2, [r4, #36]	@ 0x24
 8003452:	8d62      	ldrh	r2, [r4, #42]	@ 0x2a
 8003454:	3a01      	subs	r2, #1
 8003456:	b292      	uxth	r2, r2
 8003458:	8562      	strh	r2, [r4, #42]	@ 0x2a
 800345a:	8d22      	ldrh	r2, [r4, #40]	@ 0x28
 800345c:	f8d0 c014 	ldr.w	ip, [r0, #20]
 8003460:	1e51      	subs	r1, r2, #1
 8003462:	b289      	uxth	r1, r1
 8003464:	f01c 0f04 	tst.w	ip, #4
 8003468:	8521      	strh	r1, [r4, #40]	@ 0x28
 800346a:	d00a      	beq.n	8003482 <HAL_I2C_Master_Transmit+0x192>
 800346c:	b149      	cbz	r1, 8003482 <HAL_I2C_Master_Transmit+0x192>
 800346e:	7859      	ldrb	r1, [r3, #1]
 8003470:	6101      	str	r1, [r0, #16]
 8003472:	3302      	adds	r3, #2
 8003474:	6263      	str	r3, [r4, #36]	@ 0x24
 8003476:	8d63      	ldrh	r3, [r4, #42]	@ 0x2a
 8003478:	3b01      	subs	r3, #1
 800347a:	b29b      	uxth	r3, r3
 800347c:	3a02      	subs	r2, #2
 800347e:	8563      	strh	r3, [r4, #42]	@ 0x2a
 8003480:	8522      	strh	r2, [r4, #40]	@ 0x28
 8003482:	4632      	mov	r2, r6
 8003484:	4639      	mov	r1, r7
 8003486:	4620      	mov	r0, r4
 8003488:	f7ff fe2c 	bl	80030e4 <I2C_WaitOnBTFFlagUntilTimeout>
 800348c:	2800      	cmp	r0, #0
 800348e:	d0a9      	beq.n	80033e4 <HAL_I2C_Master_Transmit+0xf4>
 8003490:	e7cf      	b.n	8003432 <HAL_I2C_Master_Transmit+0x142>
 8003492:	bf00      	nop
 8003494:	00100002 	.word	0x00100002
 8003498:	ffff0000 	.word	0xffff0000
 800349c:	00010002 	.word	0x00010002
 80034a0:	00010008 	.word	0x00010008

080034a4 <HAL_I2C_Master_Receive>:
 80034a4:	e92d 43f0 	stmdb	sp!, {r4, r5, r6, r7, r8, r9, lr}
 80034a8:	4604      	mov	r4, r0
 80034aa:	b089      	sub	sp, #36	@ 0x24
 80034ac:	4698      	mov	r8, r3
 80034ae:	9f10      	ldr	r7, [sp, #64]	@ 0x40
 80034b0:	460e      	mov	r6, r1
 80034b2:	4691      	mov	r9, r2
 80034b4:	f7fe feda 	bl	800226c <HAL_GetTick>
 80034b8:	f894 303d 	ldrb.w	r3, [r4, #61]	@ 0x3d
 80034bc:	2b20      	cmp	r3, #32
 80034be:	4605      	mov	r5, r0
 80034c0:	d004      	beq.n	80034cc <HAL_I2C_Master_Receive+0x28>
 80034c2:	2602      	movs	r6, #2
 80034c4:	4630      	mov	r0, r6
 80034c6:	b009      	add	sp, #36	@ 0x24
 80034c8:	e8bd 83f0 	ldmia.w	sp!, {r4, r5, r6, r7, r8, r9, pc}
 80034cc:	9000      	str	r0, [sp, #0]
 80034ce:	499a      	ldr	r1, [pc, #616]	@ (8003738 <HAL_I2C_Master_Receive+0x294>)
 80034d0:	2319      	movs	r3, #25
 80034d2:	2201      	movs	r2, #1
 80034d4:	4620      	mov	r0, r4
 80034d6:	f7ff fd59 	bl	8002f8c <I2C_WaitOnFlagUntilTimeout>
 80034da:	2800      	cmp	r0, #0
 80034dc:	d1f1      	bne.n	80034c2 <HAL_I2C_Master_Receive+0x1e>
 80034de:	f894 303c 	ldrb.w	r3, [r4, #60]	@ 0x3c
 80034e2:	2b01      	cmp	r3, #1
 80034e4:	d0ed      	beq.n	80034c2 <HAL_I2C_Master_Receive+0x1e>
 80034e6:	6821      	ldr	r1, [r4, #0]
 80034e8:	2301      	movs	r3, #1
 80034ea:	f884 303c 	strb.w	r3, [r4, #60]	@ 0x3c
 80034ee:	680b      	ldr	r3, [r1, #0]
 80034f0:	07db      	lsls	r3, r3, #31
 80034f2:	bf5e      	ittt	pl
 80034f4:	680b      	ldrpl	r3, [r1, #0]
 80034f6:	f043 0301 	orrpl.w	r3, r3, #1
 80034fa:	600b      	strpl	r3, [r1, #0]
 80034fc:	680b      	ldr	r3, [r1, #0]
 80034fe:	f423 6300 	bic.w	r3, r3, #2048	@ 0x800
 8003502:	600b      	str	r3, [r1, #0]
 8003504:	2322      	movs	r3, #34	@ 0x22
 8003506:	f884 303d 	strb.w	r3, [r4, #61]	@ 0x3d
 800350a:	2310      	movs	r3, #16
 800350c:	f884 303e 	strb.w	r3, [r4, #62]	@ 0x3e
 8003510:	2300      	movs	r3, #0
 8003512:	6423      	str	r3, [r4, #64]	@ 0x40
 8003514:	f8a4 802a 	strh.w	r8, [r4, #42]	@ 0x2a
 8003518:	8d63      	ldrh	r3, [r4, #42]	@ 0x2a
 800351a:	8523      	strh	r3, [r4, #40]	@ 0x28
 800351c:	4b87      	ldr	r3, [pc, #540]	@ (800373c <HAL_I2C_Master_Receive+0x298>)
 800351e:	62e3      	str	r3, [r4, #44]	@ 0x2c
 8003520:	6ae3      	ldr	r3, [r4, #44]	@ 0x2c
 8003522:	680a      	ldr	r2, [r1, #0]
 8003524:	f8c4 9024 	str.w	r9, [r4, #36]	@ 0x24
 8003528:	f442 6280 	orr.w	r2, r2, #1024	@ 0x400
 800352c:	2b08      	cmp	r3, #8
 800352e:	600a      	str	r2, [r1, #0]
 8003530:	d004      	beq.n	800353c <HAL_I2C_Master_Receive+0x98>
 8003532:	2b01      	cmp	r3, #1
 8003534:	d002      	beq.n	800353c <HAL_I2C_Master_Receive+0x98>
 8003536:	f513 3f80 	cmn.w	r3, #65536	@ 0x10000
 800353a:	d104      	bne.n	8003546 <HAL_I2C_Master_Receive+0xa2>
 800353c:	680b      	ldr	r3, [r1, #0]
 800353e:	f443 7380 	orr.w	r3, r3, #256	@ 0x100
 8003542:	600b      	str	r3, [r1, #0]
 8003544:	e002      	b.n	800354c <HAL_I2C_Master_Receive+0xa8>
 8003546:	6b23      	ldr	r3, [r4, #48]	@ 0x30
 8003548:	2b11      	cmp	r3, #17
 800354a:	d0f7      	beq.n	800353c <HAL_I2C_Master_Receive+0x98>
 800354c:	463b      	mov	r3, r7
 800354e:	9500      	str	r5, [sp, #0]
 8003550:	2200      	movs	r2, #0
 8003552:	f04f 1101 	mov.w	r1, #65537	@ 0x10001
 8003556:	4620      	mov	r0, r4
 8003558:	f7ff fd18 	bl	8002f8c <I2C_WaitOnFlagUntilTimeout>
 800355c:	6823      	ldr	r3, [r4, #0]
 800355e:	b138      	cbz	r0, 8003570 <HAL_I2C_Master_Receive+0xcc>
 8003560:	681b      	ldr	r3, [r3, #0]
 8003562:	05dd      	lsls	r5, r3, #23
 8003564:	bf44      	itt	mi
 8003566:	f44f 7300 	movmi.w	r3, #512	@ 0x200
 800356a:	6423      	strmi	r3, [r4, #64]	@ 0x40
 800356c:	2601      	movs	r6, #1
 800356e:	e7a9      	b.n	80034c4 <HAL_I2C_Master_Receive+0x20>
 8003570:	6922      	ldr	r2, [r4, #16]
 8003572:	f5b2 4f80 	cmp.w	r2, #16384	@ 0x4000
 8003576:	d127      	bne.n	80035c8 <HAL_I2C_Master_Receive+0x124>
 8003578:	f046 0601 	orr.w	r6, r6, #1
 800357c:	b2f6      	uxtb	r6, r6
 800357e:	611e      	str	r6, [r3, #16]
 8003580:	496f      	ldr	r1, [pc, #444]	@ (8003740 <HAL_I2C_Master_Receive+0x29c>)
 8003582:	462b      	mov	r3, r5
 8003584:	463a      	mov	r2, r7
 8003586:	4620      	mov	r0, r4
 8003588:	f7ff fd40 	bl	800300c <I2C_WaitOnMasterAddressFlagUntilTimeout>
 800358c:	4606      	mov	r6, r0
 800358e:	2800      	cmp	r0, #0
 8003590:	d1ec      	bne.n	800356c <HAL_I2C_Master_Receive+0xc8>
 8003592:	8d23      	ldrh	r3, [r4, #40]	@ 0x28
 8003594:	6821      	ldr	r1, [r4, #0]
 8003596:	2b00      	cmp	r3, #0
 8003598:	d14b      	bne.n	8003632 <HAL_I2C_Master_Receive+0x18e>
 800359a:	9003      	str	r0, [sp, #12]
 800359c:	694b      	ldr	r3, [r1, #20]
 800359e:	9303      	str	r3, [sp, #12]
 80035a0:	698b      	ldr	r3, [r1, #24]
 80035a2:	9303      	str	r3, [sp, #12]
 80035a4:	9b03      	ldr	r3, [sp, #12]
 80035a6:	680b      	ldr	r3, [r1, #0]
 80035a8:	f443 7300 	orr.w	r3, r3, #512	@ 0x200
 80035ac:	600b      	str	r3, [r1, #0]
 80035ae:	f8df 8198 	ldr.w	r8, [pc, #408]	@ 8003748 <HAL_I2C_Master_Receive+0x2a4>
 80035b2:	8d23      	ldrh	r3, [r4, #40]	@ 0x28
 80035b4:	2b00      	cmp	r3, #0
 80035b6:	d164      	bne.n	8003682 <HAL_I2C_Master_Receive+0x1de>
 80035b8:	2220      	movs	r2, #32
 80035ba:	f884 203d 	strb.w	r2, [r4, #61]	@ 0x3d
 80035be:	f884 303c 	strb.w	r3, [r4, #60]	@ 0x3c
 80035c2:	f884 303e 	strb.w	r3, [r4, #62]	@ 0x3e
 80035c6:	e77d      	b.n	80034c4 <HAL_I2C_Master_Receive+0x20>
 80035c8:	ea4f 18e6 	mov.w	r8, r6, asr #7
 80035cc:	f008 0806 	and.w	r8, r8, #6
 80035d0:	f048 02f0 	orr.w	r2, r8, #240	@ 0xf0
 80035d4:	611a      	str	r2, [r3, #16]
 80035d6:	495b      	ldr	r1, [pc, #364]	@ (8003744 <HAL_I2C_Master_Receive+0x2a0>)
 80035d8:	462b      	mov	r3, r5
 80035da:	463a      	mov	r2, r7
 80035dc:	4620      	mov	r0, r4
 80035de:	f7ff fd15 	bl	800300c <I2C_WaitOnMasterAddressFlagUntilTimeout>
 80035e2:	2800      	cmp	r0, #0
 80035e4:	d1c2      	bne.n	800356c <HAL_I2C_Master_Receive+0xc8>
 80035e6:	6823      	ldr	r3, [r4, #0]
 80035e8:	4955      	ldr	r1, [pc, #340]	@ (8003740 <HAL_I2C_Master_Receive+0x29c>)
 80035ea:	b2f6      	uxtb	r6, r6
 80035ec:	611e      	str	r6, [r3, #16]
 80035ee:	463a      	mov	r2, r7
 80035f0:	462b      	mov	r3, r5
 80035f2:	4620      	mov	r0, r4
 80035f4:	f7ff fd0a 	bl	800300c <I2C_WaitOnMasterAddressFlagUntilTimeout>
 80035f8:	4602      	mov	r2, r0
 80035fa:	2800      	cmp	r0, #0
 80035fc:	d1b6      	bne.n	800356c <HAL_I2C_Master_Receive+0xc8>
 80035fe:	6823      	ldr	r3, [r4, #0]
 8003600:	9007      	str	r0, [sp, #28]
 8003602:	6959      	ldr	r1, [r3, #20]
 8003604:	9107      	str	r1, [sp, #28]
 8003606:	6999      	ldr	r1, [r3, #24]
 8003608:	9107      	str	r1, [sp, #28]
 800360a:	9907      	ldr	r1, [sp, #28]
 800360c:	6819      	ldr	r1, [r3, #0]
 800360e:	f441 7180 	orr.w	r1, r1, #256	@ 0x100
 8003612:	6019      	str	r1, [r3, #0]
 8003614:	4620      	mov	r0, r4
 8003616:	9500      	str	r5, [sp, #0]
 8003618:	463b      	mov	r3, r7
 800361a:	f04f 1101 	mov.w	r1, #65537	@ 0x10001
 800361e:	f7ff fcb5 	bl	8002f8c <I2C_WaitOnFlagUntilTimeout>
 8003622:	6822      	ldr	r2, [r4, #0]
 8003624:	b108      	cbz	r0, 800362a <HAL_I2C_Master_Receive+0x186>
 8003626:	6813      	ldr	r3, [r2, #0]
 8003628:	e79b      	b.n	8003562 <HAL_I2C_Master_Receive+0xbe>
 800362a:	f048 03f1 	orr.w	r3, r8, #241	@ 0xf1
 800362e:	6113      	str	r3, [r2, #16]
 8003630:	e7a6      	b.n	8003580 <HAL_I2C_Master_Receive+0xdc>
 8003632:	2b01      	cmp	r3, #1
 8003634:	d10a      	bne.n	800364c <HAL_I2C_Master_Receive+0x1a8>
 8003636:	680b      	ldr	r3, [r1, #0]
 8003638:	f423 6380 	bic.w	r3, r3, #1024	@ 0x400
 800363c:	600b      	str	r3, [r1, #0]
 800363e:	9004      	str	r0, [sp, #16]
 8003640:	694b      	ldr	r3, [r1, #20]
 8003642:	9304      	str	r3, [sp, #16]
 8003644:	698b      	ldr	r3, [r1, #24]
 8003646:	9304      	str	r3, [sp, #16]
 8003648:	9b04      	ldr	r3, [sp, #16]
 800364a:	e7ac      	b.n	80035a6 <HAL_I2C_Master_Receive+0x102>
 800364c:	2b02      	cmp	r3, #2
 800364e:	680b      	ldr	r3, [r1, #0]
 8003650:	d10d      	bne.n	800366e <HAL_I2C_Master_Receive+0x1ca>
 8003652:	f423 6380 	bic.w	r3, r3, #1024	@ 0x400
 8003656:	600b      	str	r3, [r1, #0]
 8003658:	680b      	ldr	r3, [r1, #0]
 800365a:	f443 6300 	orr.w	r3, r3, #2048	@ 0x800
 800365e:	600b      	str	r3, [r1, #0]
 8003660:	9005      	str	r0, [sp, #20]
 8003662:	694b      	ldr	r3, [r1, #20]
 8003664:	9305      	str	r3, [sp, #20]
 8003666:	698b      	ldr	r3, [r1, #24]
 8003668:	9305      	str	r3, [sp, #20]
 800366a:	9b05      	ldr	r3, [sp, #20]
 800366c:	e79f      	b.n	80035ae <HAL_I2C_Master_Receive+0x10a>
 800366e:	f443 6380 	orr.w	r3, r3, #1024	@ 0x400
 8003672:	600b      	str	r3, [r1, #0]
 8003674:	9006      	str	r0, [sp, #24]
 8003676:	694b      	ldr	r3, [r1, #20]
 8003678:	9306      	str	r3, [sp, #24]
 800367a:	698b      	ldr	r3, [r1, #24]
 800367c:	9306      	str	r3, [sp, #24]
 800367e:	9b06      	ldr	r3, [sp, #24]
 8003680:	e795      	b.n	80035ae <HAL_I2C_Master_Receive+0x10a>
 8003682:	2b03      	cmp	r3, #3
 8003684:	d862      	bhi.n	800374c <HAL_I2C_Master_Receive+0x2a8>
 8003686:	2b01      	cmp	r3, #1
 8003688:	d116      	bne.n	80036b8 <HAL_I2C_Master_Receive+0x214>
 800368a:	462a      	mov	r2, r5
 800368c:	4639      	mov	r1, r7
 800368e:	4620      	mov	r0, r4
 8003690:	f7ff fd52 	bl	8003138 <I2C_WaitOnRXNEFlagUntilTimeout>
 8003694:	2800      	cmp	r0, #0
 8003696:	f47f af69 	bne.w	800356c <HAL_I2C_Master_Receive+0xc8>
 800369a:	6823      	ldr	r3, [r4, #0]
 800369c:	691a      	ldr	r2, [r3, #16]
 800369e:	6a63      	ldr	r3, [r4, #36]	@ 0x24
 80036a0:	701a      	strb	r2, [r3, #0]
 80036a2:	6a63      	ldr	r3, [r4, #36]	@ 0x24
 80036a4:	3301      	adds	r3, #1
 80036a6:	6263      	str	r3, [r4, #36]	@ 0x24
 80036a8:	8d23      	ldrh	r3, [r4, #40]	@ 0x28
 80036aa:	3b01      	subs	r3, #1
 80036ac:	8523      	strh	r3, [r4, #40]	@ 0x28
 80036ae:	8d63      	ldrh	r3, [r4, #42]	@ 0x2a
 80036b0:	3b01      	subs	r3, #1
 80036b2:	b29b      	uxth	r3, r3
 80036b4:	8563      	strh	r3, [r4, #42]	@ 0x2a
 80036b6:	e77c      	b.n	80035b2 <HAL_I2C_Master_Receive+0x10e>
 80036b8:	2b02      	cmp	r3, #2
 80036ba:	9500      	str	r5, [sp, #0]
 80036bc:	463b      	mov	r3, r7
 80036be:	f04f 0200 	mov.w	r2, #0
 80036c2:	4641      	mov	r1, r8
 80036c4:	4620      	mov	r0, r4
 80036c6:	d11a      	bne.n	80036fe <HAL_I2C_Master_Receive+0x25a>
 80036c8:	f7ff fc60 	bl	8002f8c <I2C_WaitOnFlagUntilTimeout>
 80036cc:	2800      	cmp	r0, #0
 80036ce:	f47f af4d 	bne.w	800356c <HAL_I2C_Master_Receive+0xc8>
 80036d2:	6823      	ldr	r3, [r4, #0]
 80036d4:	681a      	ldr	r2, [r3, #0]
 80036d6:	f442 7200 	orr.w	r2, r2, #512	@ 0x200
 80036da:	601a      	str	r2, [r3, #0]
 80036dc:	691a      	ldr	r2, [r3, #16]
 80036de:	6a63      	ldr	r3, [r4, #36]	@ 0x24
 80036e0:	701a      	strb	r2, [r3, #0]
 80036e2:	6a62      	ldr	r2, [r4, #36]	@ 0x24
 80036e4:	1c53      	adds	r3, r2, #1
 80036e6:	6263      	str	r3, [r4, #36]	@ 0x24
 80036e8:	8d23      	ldrh	r3, [r4, #40]	@ 0x28
 80036ea:	3b01      	subs	r3, #1
 80036ec:	8523      	strh	r3, [r4, #40]	@ 0x28
 80036ee:	8d63      	ldrh	r3, [r4, #42]	@ 0x2a
 80036f0:	3b01      	subs	r3, #1
 80036f2:	b29b      	uxth	r3, r3
 80036f4:	8563      	strh	r3, [r4, #42]	@ 0x2a
 80036f6:	6823      	ldr	r3, [r4, #0]
 80036f8:	691b      	ldr	r3, [r3, #16]
 80036fa:	7053      	strb	r3, [r2, #1]
 80036fc:	e7d1      	b.n	80036a2 <HAL_I2C_Master_Receive+0x1fe>
 80036fe:	f7ff fc45 	bl	8002f8c <I2C_WaitOnFlagUntilTimeout>
 8003702:	4602      	mov	r2, r0
 8003704:	2800      	cmp	r0, #0
 8003706:	f47f af31 	bne.w	800356c <HAL_I2C_Master_Receive+0xc8>
 800370a:	6823      	ldr	r3, [r4, #0]
 800370c:	6819      	ldr	r1, [r3, #0]
 800370e:	f421 6180 	bic.w	r1, r1, #1024	@ 0x400
 8003712:	6019      	str	r1, [r3, #0]
 8003714:	6919      	ldr	r1, [r3, #16]
 8003716:	6a63      	ldr	r3, [r4, #36]	@ 0x24
 8003718:	7019      	strb	r1, [r3, #0]
 800371a:	6a63      	ldr	r3, [r4, #36]	@ 0x24
 800371c:	3301      	adds	r3, #1
 800371e:	6263      	str	r3, [r4, #36]	@ 0x24
 8003720:	8d23      	ldrh	r3, [r4, #40]	@ 0x28
 8003722:	3b01      	subs	r3, #1
 8003724:	8523      	strh	r3, [r4, #40]	@ 0x28
 8003726:	8d63      	ldrh	r3, [r4, #42]	@ 0x2a
 8003728:	3b01      	subs	r3, #1
 800372a:	b29b      	uxth	r3, r3
 800372c:	8563      	strh	r3, [r4, #42]	@ 0x2a
 800372e:	4641      	mov	r1, r8
 8003730:	9500      	str	r5, [sp, #0]
 8003732:	463b      	mov	r3, r7
 8003734:	4620      	mov	r0, r4
 8003736:	e7c7      	b.n	80036c8 <HAL_I2C_Master_Receive+0x224>
 8003738:	00100002 	.word	0x00100002
 800373c:	ffff0000 	.word	0xffff0000
 8003740:	00010002 	.word	0x00010002
 8003744:	00010008 	.word	0x00010008
 8003748:	00010004 	.word	0x00010004
 800374c:	462a      	mov	r2, r5
 800374e:	4639      	mov	r1, r7
 8003750:	4620      	mov	r0, r4
 8003752:	f7ff fcf1 	bl	8003138 <I2C_WaitOnRXNEFlagUntilTimeout>
 8003756:	2800      	cmp	r0, #0
 8003758:	f47f af08 	bne.w	800356c <HAL_I2C_Master_Receive+0xc8>
 800375c:	6823      	ldr	r3, [r4, #0]
 800375e:	691a      	ldr	r2, [r3, #16]
 8003760:	6a63      	ldr	r3, [r4, #36]	@ 0x24
 8003762:	701a      	strb	r2, [r3, #0]
 8003764:	8d62      	ldrh	r2, [r4, #42]	@ 0x2a
 8003766:	6a61      	ldr	r1, [r4, #36]	@ 0x24
 8003768:	3a01      	subs	r2, #1
 800376a:	b292      	uxth	r2, r2
 800376c:	1c4b      	adds	r3, r1, #1
 800376e:	8562      	strh	r2, [r4, #42]	@ 0x2a
 8003770:	6822      	ldr	r2, [r4, #0]
 8003772:	6263      	str	r3, [r4, #36]	@ 0x24
 8003774:	8d23      	ldrh	r3, [r4, #40]	@ 0x28
 8003776:	6950      	ldr	r0, [r2, #20]
 8003778:	3b01      	subs	r3, #1
 800377a:	b29b      	uxth	r3, r3
 800377c:	0740      	lsls	r0, r0, #29
 800377e:	8523      	strh	r3, [r4, #40]	@ 0x28
 8003780:	f57f af17 	bpl.w	80035b2 <HAL_I2C_Master_Receive+0x10e>
 8003784:	2b03      	cmp	r3, #3
 8003786:	bf02      	ittt	eq
 8003788:	6813      	ldreq	r3, [r2, #0]
 800378a:	f423 6380 	biceq.w	r3, r3, #1024	@ 0x400
 800378e:	6013      	streq	r3, [r2, #0]
 8003790:	6913      	ldr	r3, [r2, #16]
 8003792:	704b      	strb	r3, [r1, #1]
 8003794:	e785      	b.n	80036a2 <HAL_I2C_Master_Receive+0x1fe>
 8003796:	bf00      	nop

08003798 <HAL_I2CEx_ConfigAnalogFilter>:
 8003798:	b510      	push	{r4, lr}
 800379a:	f890 303d 	ldrb.w	r3, [r0, #61]	@ 0x3d
 800379e:	2b20      	cmp	r3, #32
 80037a0:	b2dc      	uxtb	r4, r3
 80037a2:	d116      	bne.n	80037d2 <HAL_I2CEx_ConfigAnalogFilter+0x3a>
 80037a4:	2324      	movs	r3, #36	@ 0x24
 80037a6:	f880 303d 	strb.w	r3, [r0, #61]	@ 0x3d
 80037aa:	6803      	ldr	r3, [r0, #0]
 80037ac:	681a      	ldr	r2, [r3, #0]
 80037ae:	f022 0201 	bic.w	r2, r2, #1
 80037b2:	601a      	str	r2, [r3, #0]
 80037b4:	6a5a      	ldr	r2, [r3, #36]	@ 0x24
 80037b6:	f022 0210 	bic.w	r2, r2, #16
 80037ba:	625a      	str	r2, [r3, #36]	@ 0x24
 80037bc:	6a5a      	ldr	r2, [r3, #36]	@ 0x24
 80037be:	4311      	orrs	r1, r2
 80037c0:	6259      	str	r1, [r3, #36]	@ 0x24
 80037c2:	681a      	ldr	r2, [r3, #0]
 80037c4:	f042 0201 	orr.w	r2, r2, #1
 80037c8:	601a      	str	r2, [r3, #0]
 80037ca:	f880 403d 	strb.w	r4, [r0, #61]	@ 0x3d
 80037ce:	2000      	movs	r0, #0
 80037d0:	bd10      	pop	{r4, pc}
 80037d2:	2002      	movs	r0, #2
 80037d4:	e7fc      	b.n	80037d0 <HAL_I2CEx_ConfigAnalogFilter+0x38>

080037d6 <HAL_I2CEx_ConfigDigitalFilter>:
 80037d6:	b530      	push	{r4, r5, lr}
 80037d8:	f890 303d 	ldrb.w	r3, [r0, #61]	@ 0x3d
 80037dc:	2b20      	cmp	r3, #32
 80037de:	b2dc      	uxtb	r4, r3
 80037e0:	d116      	bne.n	8003810 <HAL_I2CEx_ConfigDigitalFilter+0x3a>
 80037e2:	6802      	ldr	r2, [r0, #0]
 80037e4:	2324      	movs	r3, #36	@ 0x24
 80037e6:	f880 303d 	strb.w	r3, [r0, #61]	@ 0x3d
 80037ea:	6813      	ldr	r3, [r2, #0]
 80037ec:	f023 0301 	bic.w	r3, r3, #1
 80037f0:	6013      	str	r3, [r2, #0]
 80037f2:	6a55      	ldr	r5, [r2, #36]	@ 0x24
 80037f4:	f64f 73f0 	movw	r3, #65520	@ 0xfff0
 80037f8:	402b      	ands	r3, r5
 80037fa:	430b      	orrs	r3, r1
 80037fc:	b29b      	uxth	r3, r3
 80037fe:	6253      	str	r3, [r2, #36]	@ 0x24
 8003800:	6813      	ldr	r3, [r2, #0]
 8003802:	f043 0301 	orr.w	r3, r3, #1
 8003806:	6013      	str	r3, [r2, #0]
 8003808:	f880 403d 	strb.w	r4, [r0, #61]	@ 0x3d
 800380c:	2000      	movs	r0, #0
 800380e:	bd30      	pop	{r4, r5, pc}
 8003810:	2002      	movs	r0, #2
 8003812:	e7fc      	b.n	800380e <HAL_I2CEx_ConfigDigitalFilter+0x38>

08003814 <HAL_PWR_EnableBkUpAccess>:
 8003814:	4b04      	ldr	r3, [pc, #16]	@ (8003828 <HAL_PWR_EnableBkUpAccess+0x14>)
 8003816:	2201      	movs	r2, #1
 8003818:	621a      	str	r2, [r3, #32]
 800381a:	4b04      	ldr	r3, [pc, #16]	@ (800382c <HAL_PWR_EnableBkUpAccess+0x18>)
 800381c:	b082      	sub	sp, #8
 800381e:	681b      	ldr	r3, [r3, #0]
 8003820:	9301      	str	r3, [sp, #4]
 8003822:	9b01      	ldr	r3, [sp, #4]
 8003824:	b002      	add	sp, #8
 8003826:	4770      	bx	lr
 8003828:	420e0000 	.word	0x420e0000
 800382c:	40007000 	.word	0x40007000

08003830 <HAL_PWR_DisableBkUpAccess>:
 8003830:	4b04      	ldr	r3, [pc, #16]	@ (8003844 <HAL_PWR_DisableBkUpAccess+0x14>)
 8003832:	2200      	movs	r2, #0
 8003834:	621a      	str	r2, [r3, #32]
 8003836:	4b04      	ldr	r3, [pc, #16]	@ (8003848 <HAL_PWR_DisableBkUpAccess+0x18>)
 8003838:	b082      	sub	sp, #8
 800383a:	681b      	ldr	r3, [r3, #0]
 800383c:	9301      	str	r3, [sp, #4]
 800383e:	9b01      	ldr	r3, [sp, #4]
 8003840:	b002      	add	sp, #8
 8003842:	4770      	bx	lr
 8003844:	420e0000 	.word	0x420e0000
 8003848:	40007000 	.word	0x40007000

0800384c <HAL_RCC_OscConfig>:
 800384c:	e92d 41f3 	stmdb	sp!, {r0, r1, r4, r5, r6, r7, r8, lr}
 8003850:	4604      	mov	r4, r0
 8003852:	b340      	cbz	r0, 80038a6 <HAL_RCC_OscConfig+0x5a>
 8003854:	6803      	ldr	r3, [r0, #0]
 8003856:	07de      	lsls	r6, r3, #31
 8003858:	d410      	bmi.n	800387c <HAL_RCC_OscConfig+0x30>
 800385a:	6823      	ldr	r3, [r4, #0]
 800385c:	079d      	lsls	r5, r3, #30
 800385e:	d45b      	bmi.n	8003918 <HAL_RCC_OscConfig+0xcc>
 8003860:	6823      	ldr	r3, [r4, #0]
 8003862:	0719      	lsls	r1, r3, #28
 8003864:	f100 809d 	bmi.w	80039a2 <HAL_RCC_OscConfig+0x156>
 8003868:	6823      	ldr	r3, [r4, #0]
 800386a:	075a      	lsls	r2, r3, #29
 800386c:	f100 80bd 	bmi.w	80039ea <HAL_RCC_OscConfig+0x19e>
 8003870:	69a3      	ldr	r3, [r4, #24]
 8003872:	2b00      	cmp	r3, #0
 8003874:	f040 8124 	bne.w	8003ac0 <HAL_RCC_OscConfig+0x274>
 8003878:	2000      	movs	r0, #0
 800387a:	e02c      	b.n	80038d6 <HAL_RCC_OscConfig+0x8a>
 800387c:	4b8d      	ldr	r3, [pc, #564]	@ (8003ab4 <HAL_RCC_OscConfig+0x268>)
 800387e:	689a      	ldr	r2, [r3, #8]
 8003880:	f002 020c 	and.w	r2, r2, #12
 8003884:	2a04      	cmp	r2, #4
 8003886:	d007      	beq.n	8003898 <HAL_RCC_OscConfig+0x4c>
 8003888:	689a      	ldr	r2, [r3, #8]
 800388a:	f002 020c 	and.w	r2, r2, #12
 800388e:	2a08      	cmp	r2, #8
 8003890:	d10b      	bne.n	80038aa <HAL_RCC_OscConfig+0x5e>
 8003892:	685b      	ldr	r3, [r3, #4]
 8003894:	0259      	lsls	r1, r3, #9
 8003896:	d508      	bpl.n	80038aa <HAL_RCC_OscConfig+0x5e>
 8003898:	4b86      	ldr	r3, [pc, #536]	@ (8003ab4 <HAL_RCC_OscConfig+0x268>)
 800389a:	681b      	ldr	r3, [r3, #0]
 800389c:	039a      	lsls	r2, r3, #14
 800389e:	d5dc      	bpl.n	800385a <HAL_RCC_OscConfig+0xe>
 80038a0:	6863      	ldr	r3, [r4, #4]
 80038a2:	2b00      	cmp	r3, #0
 80038a4:	d1d9      	bne.n	800385a <HAL_RCC_OscConfig+0xe>
 80038a6:	2001      	movs	r0, #1
 80038a8:	e015      	b.n	80038d6 <HAL_RCC_OscConfig+0x8a>
 80038aa:	6863      	ldr	r3, [r4, #4]
 80038ac:	4d81      	ldr	r5, [pc, #516]	@ (8003ab4 <HAL_RCC_OscConfig+0x268>)
 80038ae:	f5b3 3f80 	cmp.w	r3, #65536	@ 0x10000
 80038b2:	d113      	bne.n	80038dc <HAL_RCC_OscConfig+0x90>
 80038b4:	682b      	ldr	r3, [r5, #0]
 80038b6:	f443 3380 	orr.w	r3, r3, #65536	@ 0x10000
 80038ba:	602b      	str	r3, [r5, #0]
 80038bc:	f7fe fcd6 	bl	800226c <HAL_GetTick>
 80038c0:	4e7c      	ldr	r6, [pc, #496]	@ (8003ab4 <HAL_RCC_OscConfig+0x268>)
 80038c2:	4605      	mov	r5, r0
 80038c4:	6833      	ldr	r3, [r6, #0]
 80038c6:	039b      	lsls	r3, r3, #14
 80038c8:	d4c7      	bmi.n	800385a <HAL_RCC_OscConfig+0xe>
 80038ca:	f7fe fccf 	bl	800226c <HAL_GetTick>
 80038ce:	1b40      	subs	r0, r0, r5
 80038d0:	2864      	cmp	r0, #100	@ 0x64
 80038d2:	d9f7      	bls.n	80038c4 <HAL_RCC_OscConfig+0x78>
 80038d4:	2003      	movs	r0, #3
 80038d6:	b002      	add	sp, #8
 80038d8:	e8bd 81f0 	ldmia.w	sp!, {r4, r5, r6, r7, r8, pc}
 80038dc:	f5b3 2fa0 	cmp.w	r3, #327680	@ 0x50000
 80038e0:	d104      	bne.n	80038ec <HAL_RCC_OscConfig+0xa0>
 80038e2:	682b      	ldr	r3, [r5, #0]
 80038e4:	f443 2380 	orr.w	r3, r3, #262144	@ 0x40000
 80038e8:	602b      	str	r3, [r5, #0]
 80038ea:	e7e3      	b.n	80038b4 <HAL_RCC_OscConfig+0x68>
 80038ec:	682a      	ldr	r2, [r5, #0]
 80038ee:	f422 3280 	bic.w	r2, r2, #65536	@ 0x10000
 80038f2:	602a      	str	r2, [r5, #0]
 80038f4:	682a      	ldr	r2, [r5, #0]
 80038f6:	f422 2280 	bic.w	r2, r2, #262144	@ 0x40000
 80038fa:	602a      	str	r2, [r5, #0]
 80038fc:	2b00      	cmp	r3, #0
 80038fe:	d1dd      	bne.n	80038bc <HAL_RCC_OscConfig+0x70>
 8003900:	f7fe fcb4 	bl	800226c <HAL_GetTick>
 8003904:	4606      	mov	r6, r0
 8003906:	682b      	ldr	r3, [r5, #0]
 8003908:	039f      	lsls	r7, r3, #14
 800390a:	d5a6      	bpl.n	800385a <HAL_RCC_OscConfig+0xe>
 800390c:	f7fe fcae 	bl	800226c <HAL_GetTick>
 8003910:	1b80      	subs	r0, r0, r6
 8003912:	2864      	cmp	r0, #100	@ 0x64
 8003914:	d9f7      	bls.n	8003906 <HAL_RCC_OscConfig+0xba>
 8003916:	e7dd      	b.n	80038d4 <HAL_RCC_OscConfig+0x88>
 8003918:	4b66      	ldr	r3, [pc, #408]	@ (8003ab4 <HAL_RCC_OscConfig+0x268>)
 800391a:	689a      	ldr	r2, [r3, #8]
 800391c:	f012 0f0c 	tst.w	r2, #12
 8003920:	d007      	beq.n	8003932 <HAL_RCC_OscConfig+0xe6>
 8003922:	689a      	ldr	r2, [r3, #8]
 8003924:	f002 020c 	and.w	r2, r2, #12
 8003928:	2a08      	cmp	r2, #8
 800392a:	d111      	bne.n	8003950 <HAL_RCC_OscConfig+0x104>
 800392c:	685b      	ldr	r3, [r3, #4]
 800392e:	025d      	lsls	r5, r3, #9
 8003930:	d40e      	bmi.n	8003950 <HAL_RCC_OscConfig+0x104>
 8003932:	4a60      	ldr	r2, [pc, #384]	@ (8003ab4 <HAL_RCC_OscConfig+0x268>)
 8003934:	6813      	ldr	r3, [r2, #0]
 8003936:	0799      	lsls	r1, r3, #30
 8003938:	d502      	bpl.n	8003940 <HAL_RCC_OscConfig+0xf4>
 800393a:	68e3      	ldr	r3, [r4, #12]
 800393c:	2b01      	cmp	r3, #1
 800393e:	d1b2      	bne.n	80038a6 <HAL_RCC_OscConfig+0x5a>
 8003940:	6813      	ldr	r3, [r2, #0]
 8003942:	6921      	ldr	r1, [r4, #16]
 8003944:	f023 03f8 	bic.w	r3, r3, #248	@ 0xf8
 8003948:	ea43 03c1 	orr.w	r3, r3, r1, lsl #3
 800394c:	6013      	str	r3, [r2, #0]
 800394e:	e787      	b.n	8003860 <HAL_RCC_OscConfig+0x14>
 8003950:	68e2      	ldr	r2, [r4, #12]
 8003952:	4b59      	ldr	r3, [pc, #356]	@ (8003ab8 <HAL_RCC_OscConfig+0x26c>)
 8003954:	b1b2      	cbz	r2, 8003984 <HAL_RCC_OscConfig+0x138>
 8003956:	2201      	movs	r2, #1
 8003958:	601a      	str	r2, [r3, #0]
 800395a:	f7fe fc87 	bl	800226c <HAL_GetTick>
 800395e:	4d55      	ldr	r5, [pc, #340]	@ (8003ab4 <HAL_RCC_OscConfig+0x268>)
 8003960:	4606      	mov	r6, r0
 8003962:	682b      	ldr	r3, [r5, #0]
 8003964:	079b      	lsls	r3, r3, #30
 8003966:	d507      	bpl.n	8003978 <HAL_RCC_OscConfig+0x12c>
 8003968:	682b      	ldr	r3, [r5, #0]
 800396a:	6922      	ldr	r2, [r4, #16]
 800396c:	f023 03f8 	bic.w	r3, r3, #248	@ 0xf8
 8003970:	ea43 03c2 	orr.w	r3, r3, r2, lsl #3
 8003974:	602b      	str	r3, [r5, #0]
 8003976:	e773      	b.n	8003860 <HAL_RCC_OscConfig+0x14>
 8003978:	f7fe fc78 	bl	800226c <HAL_GetTick>
 800397c:	1b80      	subs	r0, r0, r6
 800397e:	2802      	cmp	r0, #2
 8003980:	d9ef      	bls.n	8003962 <HAL_RCC_OscConfig+0x116>
 8003982:	e7a7      	b.n	80038d4 <HAL_RCC_OscConfig+0x88>
 8003984:	601a      	str	r2, [r3, #0]
 8003986:	f7fe fc71 	bl	800226c <HAL_GetTick>
 800398a:	4e4a      	ldr	r6, [pc, #296]	@ (8003ab4 <HAL_RCC_OscConfig+0x268>)
 800398c:	4605      	mov	r5, r0
 800398e:	6833      	ldr	r3, [r6, #0]
 8003990:	079f      	lsls	r7, r3, #30
 8003992:	f57f af65 	bpl.w	8003860 <HAL_RCC_OscConfig+0x14>
 8003996:	f7fe fc69 	bl	800226c <HAL_GetTick>
 800399a:	1b40      	subs	r0, r0, r5
 800399c:	2802      	cmp	r0, #2
 800399e:	d9f6      	bls.n	800398e <HAL_RCC_OscConfig+0x142>
 80039a0:	e798      	b.n	80038d4 <HAL_RCC_OscConfig+0x88>
 80039a2:	6962      	ldr	r2, [r4, #20]
 80039a4:	4b44      	ldr	r3, [pc, #272]	@ (8003ab8 <HAL_RCC_OscConfig+0x26c>)
 80039a6:	b182      	cbz	r2, 80039ca <HAL_RCC_OscConfig+0x17e>
 80039a8:	2201      	movs	r2, #1
 80039aa:	f8c3 2e80 	str.w	r2, [r3, #3712]	@ 0xe80
 80039ae:	f7fe fc5d 	bl	800226c <HAL_GetTick>
 80039b2:	4e40      	ldr	r6, [pc, #256]	@ (8003ab4 <HAL_RCC_OscConfig+0x268>)
 80039b4:	4605      	mov	r5, r0
 80039b6:	6f73      	ldr	r3, [r6, #116]	@ 0x74
 80039b8:	079b      	lsls	r3, r3, #30
 80039ba:	f53f af55 	bmi.w	8003868 <HAL_RCC_OscConfig+0x1c>
 80039be:	f7fe fc55 	bl	800226c <HAL_GetTick>
 80039c2:	1b40      	subs	r0, r0, r5
 80039c4:	2802      	cmp	r0, #2
 80039c6:	d9f6      	bls.n	80039b6 <HAL_RCC_OscConfig+0x16a>
 80039c8:	e784      	b.n	80038d4 <HAL_RCC_OscConfig+0x88>
 80039ca:	f8c3 2e80 	str.w	r2, [r3, #3712]	@ 0xe80
 80039ce:	f7fe fc4d 	bl	800226c <HAL_GetTick>
 80039d2:	4e38      	ldr	r6, [pc, #224]	@ (8003ab4 <HAL_RCC_OscConfig+0x268>)
 80039d4:	4605      	mov	r5, r0
 80039d6:	6f73      	ldr	r3, [r6, #116]	@ 0x74
 80039d8:	079f      	lsls	r7, r3, #30
 80039da:	f57f af45 	bpl.w	8003868 <HAL_RCC_OscConfig+0x1c>
 80039de:	f7fe fc45 	bl	800226c <HAL_GetTick>
 80039e2:	1b40      	subs	r0, r0, r5
 80039e4:	2802      	cmp	r0, #2
 80039e6:	d9f6      	bls.n	80039d6 <HAL_RCC_OscConfig+0x18a>
 80039e8:	e774      	b.n	80038d4 <HAL_RCC_OscConfig+0x88>
 80039ea:	4b32      	ldr	r3, [pc, #200]	@ (8003ab4 <HAL_RCC_OscConfig+0x268>)
 80039ec:	6c1a      	ldr	r2, [r3, #64]	@ 0x40
 80039ee:	f012 5280 	ands.w	r2, r2, #268435456	@ 0x10000000
 80039f2:	d128      	bne.n	8003a46 <HAL_RCC_OscConfig+0x1fa>
 80039f4:	9201      	str	r2, [sp, #4]
 80039f6:	6c1a      	ldr	r2, [r3, #64]	@ 0x40
 80039f8:	f042 5280 	orr.w	r2, r2, #268435456	@ 0x10000000
 80039fc:	641a      	str	r2, [r3, #64]	@ 0x40
 80039fe:	6c1b      	ldr	r3, [r3, #64]	@ 0x40
 8003a00:	f003 5380 	and.w	r3, r3, #268435456	@ 0x10000000
 8003a04:	9301      	str	r3, [sp, #4]
 8003a06:	9b01      	ldr	r3, [sp, #4]
 8003a08:	2701      	movs	r7, #1
 8003a0a:	4d2c      	ldr	r5, [pc, #176]	@ (8003abc <HAL_RCC_OscConfig+0x270>)
 8003a0c:	682b      	ldr	r3, [r5, #0]
 8003a0e:	05d8      	lsls	r0, r3, #23
 8003a10:	d51b      	bpl.n	8003a4a <HAL_RCC_OscConfig+0x1fe>
 8003a12:	68a3      	ldr	r3, [r4, #8]
 8003a14:	4d27      	ldr	r5, [pc, #156]	@ (8003ab4 <HAL_RCC_OscConfig+0x268>)
 8003a16:	2b01      	cmp	r3, #1
 8003a18:	d127      	bne.n	8003a6a <HAL_RCC_OscConfig+0x21e>
 8003a1a:	6f2b      	ldr	r3, [r5, #112]	@ 0x70
 8003a1c:	f043 0301 	orr.w	r3, r3, #1
 8003a20:	672b      	str	r3, [r5, #112]	@ 0x70
 8003a22:	f7fe fc23 	bl	800226c <HAL_GetTick>
 8003a26:	4e23      	ldr	r6, [pc, #140]	@ (8003ab4 <HAL_RCC_OscConfig+0x268>)
 8003a28:	4605      	mov	r5, r0
 8003a2a:	f241 3888 	movw	r8, #5000	@ 0x1388
 8003a2e:	6f33      	ldr	r3, [r6, #112]	@ 0x70
 8003a30:	079a      	lsls	r2, r3, #30
 8003a32:	d539      	bpl.n	8003aa8 <HAL_RCC_OscConfig+0x25c>
 8003a34:	2f00      	cmp	r7, #0
 8003a36:	f43f af1b 	beq.w	8003870 <HAL_RCC_OscConfig+0x24>
 8003a3a:	4a1e      	ldr	r2, [pc, #120]	@ (8003ab4 <HAL_RCC_OscConfig+0x268>)
 8003a3c:	6c13      	ldr	r3, [r2, #64]	@ 0x40
 8003a3e:	f023 5380 	bic.w	r3, r3, #268435456	@ 0x10000000
 8003a42:	6413      	str	r3, [r2, #64]	@ 0x40
 8003a44:	e714      	b.n	8003870 <HAL_RCC_OscConfig+0x24>
 8003a46:	2700      	movs	r7, #0
 8003a48:	e7df      	b.n	8003a0a <HAL_RCC_OscConfig+0x1be>
 8003a4a:	682b      	ldr	r3, [r5, #0]
 8003a4c:	f443 7380 	orr.w	r3, r3, #256	@ 0x100
 8003a50:	602b      	str	r3, [r5, #0]
 8003a52:	f7fe fc0b 	bl	800226c <HAL_GetTick>
 8003a56:	4606      	mov	r6, r0
 8003a58:	682b      	ldr	r3, [r5, #0]
 8003a5a:	05d9      	lsls	r1, r3, #23
 8003a5c:	d4d9      	bmi.n	8003a12 <HAL_RCC_OscConfig+0x1c6>
 8003a5e:	f7fe fc05 	bl	800226c <HAL_GetTick>
 8003a62:	1b80      	subs	r0, r0, r6
 8003a64:	2802      	cmp	r0, #2
 8003a66:	d9f7      	bls.n	8003a58 <HAL_RCC_OscConfig+0x20c>
 8003a68:	e734      	b.n	80038d4 <HAL_RCC_OscConfig+0x88>
 8003a6a:	2b05      	cmp	r3, #5
 8003a6c:	d104      	bne.n	8003a78 <HAL_RCC_OscConfig+0x22c>
 8003a6e:	6f2b      	ldr	r3, [r5, #112]	@ 0x70
 8003a70:	f043 0304 	orr.w	r3, r3, #4
 8003a74:	672b      	str	r3, [r5, #112]	@ 0x70
 8003a76:	e7d0      	b.n	8003a1a <HAL_RCC_OscConfig+0x1ce>
 8003a78:	6f2a      	ldr	r2, [r5, #112]	@ 0x70
 8003a7a:	f022 0201 	bic.w	r2, r2, #1
 8003a7e:	672a      	str	r2, [r5, #112]	@ 0x70
 8003a80:	6f2a      	ldr	r2, [r5, #112]	@ 0x70
 8003a82:	f022 0204 	bic.w	r2, r2, #4
 8003a86:	672a      	str	r2, [r5, #112]	@ 0x70
 8003a88:	2b00      	cmp	r3, #0
 8003a8a:	d1ca      	bne.n	8003a22 <HAL_RCC_OscConfig+0x1d6>
 8003a8c:	f7fe fbee 	bl	800226c <HAL_GetTick>
 8003a90:	f241 3888 	movw	r8, #5000	@ 0x1388
 8003a94:	4606      	mov	r6, r0
 8003a96:	6f2b      	ldr	r3, [r5, #112]	@ 0x70
 8003a98:	079b      	lsls	r3, r3, #30
 8003a9a:	d5cb      	bpl.n	8003a34 <HAL_RCC_OscConfig+0x1e8>
 8003a9c:	f7fe fbe6 	bl	800226c <HAL_GetTick>
 8003aa0:	1b80      	subs	r0, r0, r6
 8003aa2:	4540      	cmp	r0, r8
 8003aa4:	d9f7      	bls.n	8003a96 <HAL_RCC_OscConfig+0x24a>
 8003aa6:	e715      	b.n	80038d4 <HAL_RCC_OscConfig+0x88>
 8003aa8:	f7fe fbe0 	bl	800226c <HAL_GetTick>
 8003aac:	1b40      	subs	r0, r0, r5
 8003aae:	4540      	cmp	r0, r8
 8003ab0:	d9bd      	bls.n	8003a2e <HAL_RCC_OscConfig+0x1e2>
 8003ab2:	e70f      	b.n	80038d4 <HAL_RCC_OscConfig+0x88>
 8003ab4:	40023800 	.word	0x40023800
 8003ab8:	42470000 	.word	0x42470000
 8003abc:	40007000 	.word	0x40007000
 8003ac0:	4d37      	ldr	r5, [pc, #220]	@ (8003ba0 <HAL_RCC_OscConfig+0x354>)
 8003ac2:	68aa      	ldr	r2, [r5, #8]
 8003ac4:	f002 020c 	and.w	r2, r2, #12
 8003ac8:	2a08      	cmp	r2, #8
 8003aca:	d03e      	beq.n	8003b4a <HAL_RCC_OscConfig+0x2fe>
 8003acc:	2b02      	cmp	r3, #2
 8003ace:	4b35      	ldr	r3, [pc, #212]	@ (8003ba4 <HAL_RCC_OscConfig+0x358>)
 8003ad0:	f04f 0200 	mov.w	r2, #0
 8003ad4:	661a      	str	r2, [r3, #96]	@ 0x60
 8003ad6:	d12b      	bne.n	8003b30 <HAL_RCC_OscConfig+0x2e4>
 8003ad8:	f7fe fbc8 	bl	800226c <HAL_GetTick>
 8003adc:	4606      	mov	r6, r0
 8003ade:	682b      	ldr	r3, [r5, #0]
 8003ae0:	0199      	lsls	r1, r3, #6
 8003ae2:	d41f      	bmi.n	8003b24 <HAL_RCC_OscConfig+0x2d8>
 8003ae4:	e9d4 3207 	ldrd	r3, r2, [r4, #28]
 8003ae8:	4313      	orrs	r3, r2
 8003aea:	6a62      	ldr	r2, [r4, #36]	@ 0x24
 8003aec:	ea43 1382 	orr.w	r3, r3, r2, lsl #6
 8003af0:	6ae2      	ldr	r2, [r4, #44]	@ 0x2c
 8003af2:	ea43 6302 	orr.w	r3, r3, r2, lsl #24
 8003af6:	6aa2      	ldr	r2, [r4, #40]	@ 0x28
 8003af8:	0852      	lsrs	r2, r2, #1
 8003afa:	3a01      	subs	r2, #1
 8003afc:	ea43 4302 	orr.w	r3, r3, r2, lsl #16
 8003b00:	606b      	str	r3, [r5, #4]
 8003b02:	4b28      	ldr	r3, [pc, #160]	@ (8003ba4 <HAL_RCC_OscConfig+0x358>)
 8003b04:	4d26      	ldr	r5, [pc, #152]	@ (8003ba0 <HAL_RCC_OscConfig+0x354>)
 8003b06:	2201      	movs	r2, #1
 8003b08:	661a      	str	r2, [r3, #96]	@ 0x60
 8003b0a:	f7fe fbaf 	bl	800226c <HAL_GetTick>
 8003b0e:	4604      	mov	r4, r0
 8003b10:	682b      	ldr	r3, [r5, #0]
 8003b12:	019a      	lsls	r2, r3, #6
 8003b14:	f53f aeb0 	bmi.w	8003878 <HAL_RCC_OscConfig+0x2c>
 8003b18:	f7fe fba8 	bl	800226c <HAL_GetTick>
 8003b1c:	1b00      	subs	r0, r0, r4
 8003b1e:	2802      	cmp	r0, #2
 8003b20:	d9f6      	bls.n	8003b10 <HAL_RCC_OscConfig+0x2c4>
 8003b22:	e6d7      	b.n	80038d4 <HAL_RCC_OscConfig+0x88>
 8003b24:	f7fe fba2 	bl	800226c <HAL_GetTick>
 8003b28:	1b80      	subs	r0, r0, r6
 8003b2a:	2802      	cmp	r0, #2
 8003b2c:	d9d7      	bls.n	8003ade <HAL_RCC_OscConfig+0x292>
 8003b2e:	e6d1      	b.n	80038d4 <HAL_RCC_OscConfig+0x88>
 8003b30:	f7fe fb9c 	bl	800226c <HAL_GetTick>
 8003b34:	4604      	mov	r4, r0
 8003b36:	682b      	ldr	r3, [r5, #0]
 8003b38:	019b      	lsls	r3, r3, #6
 8003b3a:	f57f ae9d 	bpl.w	8003878 <HAL_RCC_OscConfig+0x2c>
 8003b3e:	f7fe fb95 	bl	800226c <HAL_GetTick>
 8003b42:	1b00      	subs	r0, r0, r4
 8003b44:	2802      	cmp	r0, #2
 8003b46:	d9f6      	bls.n	8003b36 <HAL_RCC_OscConfig+0x2ea>
 8003b48:	e6c4      	b.n	80038d4 <HAL_RCC_OscConfig+0x88>
 8003b4a:	2b01      	cmp	r3, #1
 8003b4c:	f43f aeab 	beq.w	80038a6 <HAL_RCC_OscConfig+0x5a>
 8003b50:	686b      	ldr	r3, [r5, #4]
 8003b52:	69e2      	ldr	r2, [r4, #28]
 8003b54:	f403 0180 	and.w	r1, r3, #4194304	@ 0x400000
 8003b58:	4291      	cmp	r1, r2
 8003b5a:	f47f aea4 	bne.w	80038a6 <HAL_RCC_OscConfig+0x5a>
 8003b5e:	6a21      	ldr	r1, [r4, #32]
 8003b60:	f003 023f 	and.w	r2, r3, #63	@ 0x3f
 8003b64:	428a      	cmp	r2, r1
 8003b66:	f47f ae9e 	bne.w	80038a6 <HAL_RCC_OscConfig+0x5a>
 8003b6a:	6a61      	ldr	r1, [r4, #36]	@ 0x24
 8003b6c:	f647 72c0 	movw	r2, #32704	@ 0x7fc0
 8003b70:	401a      	ands	r2, r3
 8003b72:	ebb2 1f81 	cmp.w	r2, r1, lsl #6
 8003b76:	f47f ae96 	bne.w	80038a6 <HAL_RCC_OscConfig+0x5a>
 8003b7a:	6aa2      	ldr	r2, [r4, #40]	@ 0x28
 8003b7c:	0852      	lsrs	r2, r2, #1
 8003b7e:	f403 3140 	and.w	r1, r3, #196608	@ 0x30000
 8003b82:	3a01      	subs	r2, #1
 8003b84:	ebb1 4f02 	cmp.w	r1, r2, lsl #16
 8003b88:	f47f ae8d 	bne.w	80038a6 <HAL_RCC_OscConfig+0x5a>
 8003b8c:	6ae2      	ldr	r2, [r4, #44]	@ 0x2c
 8003b8e:	f003 6370 	and.w	r3, r3, #251658240	@ 0xf000000
 8003b92:	ebb3 6f02 	cmp.w	r3, r2, lsl #24
 8003b96:	bf14      	ite	ne
 8003b98:	2001      	movne	r0, #1
 8003b9a:	2000      	moveq	r0, #0
 8003b9c:	e69b      	b.n	80038d6 <HAL_RCC_OscConfig+0x8a>
 8003b9e:	bf00      	nop
 8003ba0:	40023800 	.word	0x40023800
 8003ba4:	42470000 	.word	0x42470000

08003ba8 <HAL_RCC_GetSysClockFreq>:
 8003ba8:	4913      	ldr	r1, [pc, #76]	@ (8003bf8 <HAL_RCC_GetSysClockFreq+0x50>)
 8003baa:	b508      	push	{r3, lr}
 8003bac:	688b      	ldr	r3, [r1, #8]
 8003bae:	f003 030c 	and.w	r3, r3, #12
 8003bb2:	2b04      	cmp	r3, #4
 8003bb4:	d01c      	beq.n	8003bf0 <HAL_RCC_GetSysClockFreq+0x48>
 8003bb6:	2b08      	cmp	r3, #8
 8003bb8:	d11c      	bne.n	8003bf4 <HAL_RCC_GetSysClockFreq+0x4c>
 8003bba:	684a      	ldr	r2, [r1, #4]
 8003bbc:	684b      	ldr	r3, [r1, #4]
 8003bbe:	6849      	ldr	r1, [r1, #4]
 8003bc0:	f413 0380 	ands.w	r3, r3, #4194304	@ 0x400000
 8003bc4:	bf14      	ite	ne
 8003bc6:	480d      	ldrne	r0, [pc, #52]	@ (8003bfc <HAL_RCC_GetSysClockFreq+0x54>)
 8003bc8:	480d      	ldreq	r0, [pc, #52]	@ (8003c00 <HAL_RCC_GetSysClockFreq+0x58>)
 8003bca:	f3c1 1188 	ubfx	r1, r1, #6, #9
 8003bce:	bf18      	it	ne
 8003bd0:	2300      	movne	r3, #0
 8003bd2:	f002 023f 	and.w	r2, r2, #63	@ 0x3f
 8003bd6:	fba1 0100 	umull	r0, r1, r1, r0
 8003bda:	f7fc fb0f 	bl	80001fc <__aeabi_uldivmod>
 8003bde:	4b06      	ldr	r3, [pc, #24]	@ (8003bf8 <HAL_RCC_GetSysClockFreq+0x50>)
 8003be0:	685b      	ldr	r3, [r3, #4]
 8003be2:	f3c3 4301 	ubfx	r3, r3, #16, #2
 8003be6:	3301      	adds	r3, #1
 8003be8:	005b      	lsls	r3, r3, #1
 8003bea:	fbb0 f0f3 	udiv	r0, r0, r3
 8003bee:	bd08      	pop	{r3, pc}
 8003bf0:	4802      	ldr	r0, [pc, #8]	@ (8003bfc <HAL_RCC_GetSysClockFreq+0x54>)
 8003bf2:	e7fc      	b.n	8003bee <HAL_RCC_GetSysClockFreq+0x46>
 8003bf4:	4802      	ldr	r0, [pc, #8]	@ (8003c00 <HAL_RCC_GetSysClockFreq+0x58>)
 8003bf6:	e7fa      	b.n	8003bee <HAL_RCC_GetSysClockFreq+0x46>
 8003bf8:	40023800 	.word	0x40023800
 8003bfc:	017d7840 	.word	0x017d7840
 8003c00:	00f42400 	.word	0x00f42400

08003c04 <HAL_RCC_ClockConfig>:
 8003c04:	e92d 41f0 	stmdb	sp!, {r4, r5, r6, r7, r8, lr}
 8003c08:	460d      	mov	r5, r1
 8003c0a:	4604      	mov	r4, r0
 8003c0c:	b910      	cbnz	r0, 8003c14 <HAL_RCC_ClockConfig+0x10>
 8003c0e:	2001      	movs	r0, #1
 8003c10:	e8bd 81f0 	ldmia.w	sp!, {r4, r5, r6, r7, r8, pc}
 8003c14:	4b43      	ldr	r3, [pc, #268]	@ (8003d24 <HAL_RCC_ClockConfig+0x120>)
 8003c16:	681a      	ldr	r2, [r3, #0]
 8003c18:	f002 020f 	and.w	r2, r2, #15
 8003c1c:	428a      	cmp	r2, r1
 8003c1e:	d328      	bcc.n	8003c72 <HAL_RCC_ClockConfig+0x6e>
 8003c20:	6821      	ldr	r1, [r4, #0]
 8003c22:	078f      	lsls	r7, r1, #30
 8003c24:	d42d      	bmi.n	8003c82 <HAL_RCC_ClockConfig+0x7e>
 8003c26:	07c8      	lsls	r0, r1, #31
 8003c28:	d440      	bmi.n	8003cac <HAL_RCC_ClockConfig+0xa8>
 8003c2a:	4b3e      	ldr	r3, [pc, #248]	@ (8003d24 <HAL_RCC_ClockConfig+0x120>)
 8003c2c:	681a      	ldr	r2, [r3, #0]
 8003c2e:	f002 020f 	and.w	r2, r2, #15
 8003c32:	42aa      	cmp	r2, r5
 8003c34:	d865      	bhi.n	8003d02 <HAL_RCC_ClockConfig+0xfe>
 8003c36:	6822      	ldr	r2, [r4, #0]
 8003c38:	0751      	lsls	r1, r2, #29
 8003c3a:	d46b      	bmi.n	8003d14 <HAL_RCC_ClockConfig+0x110>
 8003c3c:	0713      	lsls	r3, r2, #28
 8003c3e:	d507      	bpl.n	8003c50 <HAL_RCC_ClockConfig+0x4c>
 8003c40:	4a39      	ldr	r2, [pc, #228]	@ (8003d28 <HAL_RCC_ClockConfig+0x124>)
 8003c42:	6921      	ldr	r1, [r4, #16]
 8003c44:	6893      	ldr	r3, [r2, #8]
 8003c46:	f423 4360 	bic.w	r3, r3, #57344	@ 0xe000
 8003c4a:	ea43 03c1 	orr.w	r3, r3, r1, lsl #3
 8003c4e:	6093      	str	r3, [r2, #8]
 8003c50:	f7ff ffaa 	bl	8003ba8 <HAL_RCC_GetSysClockFreq>
 8003c54:	4b34      	ldr	r3, [pc, #208]	@ (8003d28 <HAL_RCC_ClockConfig+0x124>)
 8003c56:	4a35      	ldr	r2, [pc, #212]	@ (8003d2c <HAL_RCC_ClockConfig+0x128>)
 8003c58:	689b      	ldr	r3, [r3, #8]
 8003c5a:	f3c3 1303 	ubfx	r3, r3, #4, #4
 8003c5e:	5cd3      	ldrb	r3, [r2, r3]
 8003c60:	40d8      	lsrs	r0, r3
 8003c62:	4b33      	ldr	r3, [pc, #204]	@ (8003d30 <HAL_RCC_ClockConfig+0x12c>)
 8003c64:	6018      	str	r0, [r3, #0]
 8003c66:	4b33      	ldr	r3, [pc, #204]	@ (8003d34 <HAL_RCC_ClockConfig+0x130>)
 8003c68:	6818      	ldr	r0, [r3, #0]
 8003c6a:	f7fe fab5 	bl	80021d8 <HAL_InitTick>
 8003c6e:	2000      	movs	r0, #0
 8003c70:	e7ce      	b.n	8003c10 <HAL_RCC_ClockConfig+0xc>
 8003c72:	b2ca      	uxtb	r2, r1
 8003c74:	701a      	strb	r2, [r3, #0]
 8003c76:	681b      	ldr	r3, [r3, #0]
 8003c78:	f003 030f 	and.w	r3, r3, #15
 8003c7c:	428b      	cmp	r3, r1
 8003c7e:	d1c6      	bne.n	8003c0e <HAL_RCC_ClockConfig+0xa>
 8003c80:	e7ce      	b.n	8003c20 <HAL_RCC_ClockConfig+0x1c>
 8003c82:	4b29      	ldr	r3, [pc, #164]	@ (8003d28 <HAL_RCC_ClockConfig+0x124>)
 8003c84:	f011 0f04 	tst.w	r1, #4
 8003c88:	bf1e      	ittt	ne
 8003c8a:	689a      	ldrne	r2, [r3, #8]
 8003c8c:	f442 52e0 	orrne.w	r2, r2, #7168	@ 0x1c00
 8003c90:	609a      	strne	r2, [r3, #8]
 8003c92:	070e      	lsls	r6, r1, #28
 8003c94:	bf42      	ittt	mi
 8003c96:	689a      	ldrmi	r2, [r3, #8]
 8003c98:	f442 4260 	orrmi.w	r2, r2, #57344	@ 0xe000
 8003c9c:	609a      	strmi	r2, [r3, #8]
 8003c9e:	689a      	ldr	r2, [r3, #8]
 8003ca0:	68a0      	ldr	r0, [r4, #8]
 8003ca2:	f022 02f0 	bic.w	r2, r2, #240	@ 0xf0
 8003ca6:	4302      	orrs	r2, r0
 8003ca8:	609a      	str	r2, [r3, #8]
 8003caa:	e7bc      	b.n	8003c26 <HAL_RCC_ClockConfig+0x22>
 8003cac:	6862      	ldr	r2, [r4, #4]
 8003cae:	4b1e      	ldr	r3, [pc, #120]	@ (8003d28 <HAL_RCC_ClockConfig+0x124>)
 8003cb0:	2a01      	cmp	r2, #1
 8003cb2:	d11c      	bne.n	8003cee <HAL_RCC_ClockConfig+0xea>
 8003cb4:	681b      	ldr	r3, [r3, #0]
 8003cb6:	f413 3f00 	tst.w	r3, #131072	@ 0x20000
 8003cba:	d0a8      	beq.n	8003c0e <HAL_RCC_ClockConfig+0xa>
 8003cbc:	4e1a      	ldr	r6, [pc, #104]	@ (8003d28 <HAL_RCC_ClockConfig+0x124>)
 8003cbe:	68b3      	ldr	r3, [r6, #8]
 8003cc0:	f023 0303 	bic.w	r3, r3, #3
 8003cc4:	4313      	orrs	r3, r2
 8003cc6:	60b3      	str	r3, [r6, #8]
 8003cc8:	f7fe fad0 	bl	800226c <HAL_GetTick>
 8003ccc:	f241 3888 	movw	r8, #5000	@ 0x1388
 8003cd0:	4607      	mov	r7, r0
 8003cd2:	68b3      	ldr	r3, [r6, #8]
 8003cd4:	6862      	ldr	r2, [r4, #4]
 8003cd6:	f003 030c 	and.w	r3, r3, #12
 8003cda:	ebb3 0f82 	cmp.w	r3, r2, lsl #2
 8003cde:	d0a4      	beq.n	8003c2a <HAL_RCC_ClockConfig+0x26>
 8003ce0:	f7fe fac4 	bl	800226c <HAL_GetTick>
 8003ce4:	1bc0      	subs	r0, r0, r7
 8003ce6:	4540      	cmp	r0, r8
 8003ce8:	d9f3      	bls.n	8003cd2 <HAL_RCC_ClockConfig+0xce>
 8003cea:	2003      	movs	r0, #3
 8003cec:	e790      	b.n	8003c10 <HAL_RCC_ClockConfig+0xc>
 8003cee:	1e91      	subs	r1, r2, #2
 8003cf0:	2901      	cmp	r1, #1
 8003cf2:	681b      	ldr	r3, [r3, #0]
 8003cf4:	d802      	bhi.n	8003cfc <HAL_RCC_ClockConfig+0xf8>
 8003cf6:	f013 7f00 	tst.w	r3, #33554432	@ 0x2000000
 8003cfa:	e7de      	b.n	8003cba <HAL_RCC_ClockConfig+0xb6>
 8003cfc:	f013 0f02 	tst.w	r3, #2
 8003d00:	e7db      	b.n	8003cba <HAL_RCC_ClockConfig+0xb6>
 8003d02:	b2ea      	uxtb	r2, r5
 8003d04:	701a      	strb	r2, [r3, #0]
 8003d06:	681b      	ldr	r3, [r3, #0]
 8003d08:	f003 030f 	and.w	r3, r3, #15
 8003d0c:	42ab      	cmp	r3, r5
 8003d0e:	f47f af7e 	bne.w	8003c0e <HAL_RCC_ClockConfig+0xa>
 8003d12:	e790      	b.n	8003c36 <HAL_RCC_ClockConfig+0x32>
 8003d14:	4904      	ldr	r1, [pc, #16]	@ (8003d28 <HAL_RCC_ClockConfig+0x124>)
 8003d16:	68e0      	ldr	r0, [r4, #12]
 8003d18:	688b      	ldr	r3, [r1, #8]
 8003d1a:	f423 53e0 	bic.w	r3, r3, #7168	@ 0x1c00
 8003d1e:	4303      	orrs	r3, r0
 8003d20:	608b      	str	r3, [r1, #8]
 8003d22:	e78b      	b.n	8003c3c <HAL_RCC_ClockConfig+0x38>
 8003d24:	40023c00 	.word	0x40023c00
 8003d28:	40023800 	.word	0x40023800
 8003d2c:	080055b3 	.word	0x080055b3
 8003d30:	2000001c 	.word	0x2000001c
 8003d34:	20000024 	.word	0x20000024

08003d38 <HAL_RCC_GetPCLK1Freq>:
 8003d38:	4b04      	ldr	r3, [pc, #16]	@ (8003d4c <HAL_RCC_GetPCLK1Freq+0x14>)
 8003d3a:	4a05      	ldr	r2, [pc, #20]	@ (8003d50 <HAL_RCC_GetPCLK1Freq+0x18>)
 8003d3c:	689b      	ldr	r3, [r3, #8]
 8003d3e:	f3c3 2382 	ubfx	r3, r3, #10, #3
 8003d42:	5cd3      	ldrb	r3, [r2, r3]
 8003d44:	4a03      	ldr	r2, [pc, #12]	@ (8003d54 <HAL_RCC_GetPCLK1Freq+0x1c>)
 8003d46:	6810      	ldr	r0, [r2, #0]
 8003d48:	40d8      	lsrs	r0, r3
 8003d4a:	4770      	bx	lr
 8003d4c:	40023800 	.word	0x40023800
 8003d50:	080055ab 	.word	0x080055ab
 8003d54:	2000001c 	.word	0x2000001c

08003d58 <HAL_RCC_GetPCLK2Freq>:
 8003d58:	4b04      	ldr	r3, [pc, #16]	@ (8003d6c <HAL_RCC_GetPCLK2Freq+0x14>)
 8003d5a:	4a05      	ldr	r2, [pc, #20]	@ (8003d70 <HAL_RCC_GetPCLK2Freq+0x18>)
 8003d5c:	689b      	ldr	r3, [r3, #8]
 8003d5e:	f3c3 3342 	ubfx	r3, r3, #13, #3
 8003d62:	5cd3      	ldrb	r3, [r2, r3]
 8003d64:	4a03      	ldr	r2, [pc, #12]	@ (8003d74 <HAL_RCC_GetPCLK2Freq+0x1c>)
 8003d66:	6810      	ldr	r0, [r2, #0]
 8003d68:	40d8      	lsrs	r0, r3
 8003d6a:	4770      	bx	lr
 8003d6c:	40023800 	.word	0x40023800
 8003d70:	080055ab 	.word	0x080055ab
 8003d74:	2000001c 	.word	0x2000001c

08003d78 <HAL_RCCEx_PeriphCLKConfig>:
 8003d78:	6803      	ldr	r3, [r0, #0]
 8003d7a:	f013 0f43 	tst.w	r3, #67	@ 0x43
 8003d7e:	b5f7      	push	{r0, r1, r2, r4, r5, r6, r7, lr}
 8003d80:	4604      	mov	r4, r0
 8003d82:	f040 8088 	bne.w	8003e96 <HAL_RCCEx_PeriphCLKConfig+0x11e>
 8003d86:	6823      	ldr	r3, [r4, #0]
 8003d88:	f013 0f0c 	tst.w	r3, #12
 8003d8c:	d045      	beq.n	8003e1a <HAL_RCCEx_PeriphCLKConfig+0xa2>
 8003d8e:	4b8c      	ldr	r3, [pc, #560]	@ (8003fc0 <HAL_RCCEx_PeriphCLKConfig+0x248>)
 8003d90:	4d8c      	ldr	r5, [pc, #560]	@ (8003fc4 <HAL_RCCEx_PeriphCLKConfig+0x24c>)
 8003d92:	2200      	movs	r2, #0
 8003d94:	671a      	str	r2, [r3, #112]	@ 0x70
 8003d96:	f7fe fa69 	bl	800226c <HAL_GetTick>
 8003d9a:	4606      	mov	r6, r0
 8003d9c:	682b      	ldr	r3, [r5, #0]
 8003d9e:	0099      	lsls	r1, r3, #2
 8003da0:	f100 80cb 	bmi.w	8003f3a <HAL_RCCEx_PeriphCLKConfig+0x1c2>
 8003da4:	6821      	ldr	r1, [r4, #0]
 8003da6:	074a      	lsls	r2, r1, #29
 8003da8:	d515      	bpl.n	8003dd6 <HAL_RCCEx_PeriphCLKConfig+0x5e>
 8003daa:	e9d4 0304 	ldrd	r0, r3, [r4, #16]
 8003dae:	f8d5 2088 	ldr.w	r2, [r5, #136]	@ 0x88
 8003db2:	061b      	lsls	r3, r3, #24
 8003db4:	f002 42e0 	and.w	r2, r2, #1879048192	@ 0x70000000
 8003db8:	ea43 1380 	orr.w	r3, r3, r0, lsl #6
 8003dbc:	4313      	orrs	r3, r2
 8003dbe:	f8c5 3088 	str.w	r3, [r5, #136]	@ 0x88
 8003dc2:	f8d5 308c 	ldr.w	r3, [r5, #140]	@ 0x8c
 8003dc6:	6a22      	ldr	r2, [r4, #32]
 8003dc8:	f423 53f8 	bic.w	r3, r3, #7936	@ 0x1f00
 8003dcc:	3a01      	subs	r2, #1
 8003dce:	ea43 2302 	orr.w	r3, r3, r2, lsl #8
 8003dd2:	f8c5 308c 	str.w	r3, [r5, #140]	@ 0x8c
 8003dd6:	070b      	lsls	r3, r1, #28
 8003dd8:	d514      	bpl.n	8003e04 <HAL_RCCEx_PeriphCLKConfig+0x8c>
 8003dda:	4a7a      	ldr	r2, [pc, #488]	@ (8003fc4 <HAL_RCCEx_PeriphCLKConfig+0x24c>)
 8003ddc:	69a3      	ldr	r3, [r4, #24]
 8003dde:	f8d2 1088 	ldr.w	r1, [r2, #136]	@ 0x88
 8003de2:	6920      	ldr	r0, [r4, #16]
 8003de4:	071b      	lsls	r3, r3, #28
 8003de6:	f001 6170 	and.w	r1, r1, #251658240	@ 0xf000000
 8003dea:	ea43 1380 	orr.w	r3, r3, r0, lsl #6
 8003dee:	430b      	orrs	r3, r1
 8003df0:	f8c2 3088 	str.w	r3, [r2, #136]	@ 0x88
 8003df4:	f8d2 308c 	ldr.w	r3, [r2, #140]	@ 0x8c
 8003df8:	6a61      	ldr	r1, [r4, #36]	@ 0x24
 8003dfa:	f423 3340 	bic.w	r3, r3, #196608	@ 0x30000
 8003dfe:	430b      	orrs	r3, r1
 8003e00:	f8c2 308c 	str.w	r3, [r2, #140]	@ 0x8c
 8003e04:	4b6e      	ldr	r3, [pc, #440]	@ (8003fc0 <HAL_RCCEx_PeriphCLKConfig+0x248>)
 8003e06:	4e6f      	ldr	r6, [pc, #444]	@ (8003fc4 <HAL_RCCEx_PeriphCLKConfig+0x24c>)
 8003e08:	2201      	movs	r2, #1
 8003e0a:	671a      	str	r2, [r3, #112]	@ 0x70
 8003e0c:	f7fe fa2e 	bl	800226c <HAL_GetTick>
 8003e10:	4605      	mov	r5, r0
 8003e12:	6833      	ldr	r3, [r6, #0]
 8003e14:	009f      	lsls	r7, r3, #2
 8003e16:	f140 8097 	bpl.w	8003f48 <HAL_RCCEx_PeriphCLKConfig+0x1d0>
 8003e1a:	6823      	ldr	r3, [r4, #0]
 8003e1c:	0698      	lsls	r0, r3, #26
 8003e1e:	d534      	bpl.n	8003e8a <HAL_RCCEx_PeriphCLKConfig+0x112>
 8003e20:	2300      	movs	r3, #0
 8003e22:	9301      	str	r3, [sp, #4]
 8003e24:	4b67      	ldr	r3, [pc, #412]	@ (8003fc4 <HAL_RCCEx_PeriphCLKConfig+0x24c>)
 8003e26:	4d68      	ldr	r5, [pc, #416]	@ (8003fc8 <HAL_RCCEx_PeriphCLKConfig+0x250>)
 8003e28:	6c1a      	ldr	r2, [r3, #64]	@ 0x40
 8003e2a:	f042 5280 	orr.w	r2, r2, #268435456	@ 0x10000000
 8003e2e:	641a      	str	r2, [r3, #64]	@ 0x40
 8003e30:	6c1b      	ldr	r3, [r3, #64]	@ 0x40
 8003e32:	f003 5380 	and.w	r3, r3, #268435456	@ 0x10000000
 8003e36:	9301      	str	r3, [sp, #4]
 8003e38:	9b01      	ldr	r3, [sp, #4]
 8003e3a:	682b      	ldr	r3, [r5, #0]
 8003e3c:	f443 7380 	orr.w	r3, r3, #256	@ 0x100
 8003e40:	602b      	str	r3, [r5, #0]
 8003e42:	f7fe fa13 	bl	800226c <HAL_GetTick>
 8003e46:	4606      	mov	r6, r0
 8003e48:	682b      	ldr	r3, [r5, #0]
 8003e4a:	05d8      	lsls	r0, r3, #23
 8003e4c:	f140 8083 	bpl.w	8003f56 <HAL_RCCEx_PeriphCLKConfig+0x1de>
 8003e50:	4d5c      	ldr	r5, [pc, #368]	@ (8003fc4 <HAL_RCCEx_PeriphCLKConfig+0x24c>)
 8003e52:	6aa2      	ldr	r2, [r4, #40]	@ 0x28
 8003e54:	6f2b      	ldr	r3, [r5, #112]	@ 0x70
 8003e56:	f413 7340 	ands.w	r3, r3, #768	@ 0x300
 8003e5a:	f040 8083 	bne.w	8003f64 <HAL_RCCEx_PeriphCLKConfig+0x1ec>
 8003e5e:	6aa3      	ldr	r3, [r4, #40]	@ 0x28
 8003e60:	f403 7240 	and.w	r2, r3, #768	@ 0x300
 8003e64:	f5b2 7f40 	cmp.w	r2, #768	@ 0x300
 8003e68:	4a56      	ldr	r2, [pc, #344]	@ (8003fc4 <HAL_RCCEx_PeriphCLKConfig+0x24c>)
 8003e6a:	f040 809e 	bne.w	8003faa <HAL_RCCEx_PeriphCLKConfig+0x232>
 8003e6e:	6891      	ldr	r1, [r2, #8]
 8003e70:	f023 4070 	bic.w	r0, r3, #4026531840	@ 0xf0000000
 8003e74:	f421 11f8 	bic.w	r1, r1, #2031616	@ 0x1f0000
 8003e78:	f420 7040 	bic.w	r0, r0, #768	@ 0x300
 8003e7c:	4301      	orrs	r1, r0
 8003e7e:	6091      	str	r1, [r2, #8]
 8003e80:	6f11      	ldr	r1, [r2, #112]	@ 0x70
 8003e82:	f3c3 030b 	ubfx	r3, r3, #0, #12
 8003e86:	430b      	orrs	r3, r1
 8003e88:	6713      	str	r3, [r2, #112]	@ 0x70
 8003e8a:	6823      	ldr	r3, [r4, #0]
 8003e8c:	06db      	lsls	r3, r3, #27
 8003e8e:	f100 8090 	bmi.w	8003fb2 <HAL_RCCEx_PeriphCLKConfig+0x23a>
 8003e92:	2000      	movs	r0, #0
 8003e94:	e04f      	b.n	8003f36 <HAL_RCCEx_PeriphCLKConfig+0x1be>
 8003e96:	4b4a      	ldr	r3, [pc, #296]	@ (8003fc0 <HAL_RCCEx_PeriphCLKConfig+0x248>)
 8003e98:	4e4a      	ldr	r6, [pc, #296]	@ (8003fc4 <HAL_RCCEx_PeriphCLKConfig+0x24c>)
 8003e9a:	2200      	movs	r2, #0
 8003e9c:	669a      	str	r2, [r3, #104]	@ 0x68
 8003e9e:	f7fe f9e5 	bl	800226c <HAL_GetTick>
 8003ea2:	4605      	mov	r5, r0
 8003ea4:	6833      	ldr	r3, [r6, #0]
 8003ea6:	011f      	lsls	r7, r3, #4
 8003ea8:	d43f      	bmi.n	8003f2a <HAL_RCCEx_PeriphCLKConfig+0x1b2>
 8003eaa:	6821      	ldr	r1, [r4, #0]
 8003eac:	07c8      	lsls	r0, r1, #31
 8003eae:	bf41      	itttt	mi
 8003eb0:	e9d4 2301 	ldrdmi	r2, r3, [r4, #4]
 8003eb4:	071b      	lslmi	r3, r3, #28
 8003eb6:	ea43 1382 	orrmi.w	r3, r3, r2, lsl #6
 8003eba:	f8c6 3084 	strmi.w	r3, [r6, #132]	@ 0x84
 8003ebe:	078a      	lsls	r2, r1, #30
 8003ec0:	d515      	bpl.n	8003eee <HAL_RCCEx_PeriphCLKConfig+0x176>
 8003ec2:	4a40      	ldr	r2, [pc, #256]	@ (8003fc4 <HAL_RCCEx_PeriphCLKConfig+0x24c>)
 8003ec4:	68e3      	ldr	r3, [r4, #12]
 8003ec6:	f8d2 0084 	ldr.w	r0, [r2, #132]	@ 0x84
 8003eca:	6865      	ldr	r5, [r4, #4]
 8003ecc:	061b      	lsls	r3, r3, #24
 8003ece:	f000 40e0 	and.w	r0, r0, #1879048192	@ 0x70000000
 8003ed2:	ea43 1385 	orr.w	r3, r3, r5, lsl #6
 8003ed6:	4303      	orrs	r3, r0
 8003ed8:	f8c2 3084 	str.w	r3, [r2, #132]	@ 0x84
 8003edc:	f8d2 008c 	ldr.w	r0, [r2, #140]	@ 0x8c
 8003ee0:	69e3      	ldr	r3, [r4, #28]
 8003ee2:	f020 001f 	bic.w	r0, r0, #31
 8003ee6:	3b01      	subs	r3, #1
 8003ee8:	4303      	orrs	r3, r0
 8003eea:	f8c2 308c 	str.w	r3, [r2, #140]	@ 0x8c
 8003eee:	064b      	lsls	r3, r1, #25
 8003ef0:	d50a      	bpl.n	8003f08 <HAL_RCCEx_PeriphCLKConfig+0x190>
 8003ef2:	68e3      	ldr	r3, [r4, #12]
 8003ef4:	6862      	ldr	r2, [r4, #4]
 8003ef6:	061b      	lsls	r3, r3, #24
 8003ef8:	ea43 1382 	orr.w	r3, r3, r2, lsl #6
 8003efc:	68a2      	ldr	r2, [r4, #8]
 8003efe:	ea43 7302 	orr.w	r3, r3, r2, lsl #28
 8003f02:	4a30      	ldr	r2, [pc, #192]	@ (8003fc4 <HAL_RCCEx_PeriphCLKConfig+0x24c>)
 8003f04:	f8c2 3084 	str.w	r3, [r2, #132]	@ 0x84
 8003f08:	4b2d      	ldr	r3, [pc, #180]	@ (8003fc0 <HAL_RCCEx_PeriphCLKConfig+0x248>)
 8003f0a:	4e2e      	ldr	r6, [pc, #184]	@ (8003fc4 <HAL_RCCEx_PeriphCLKConfig+0x24c>)
 8003f0c:	2201      	movs	r2, #1
 8003f0e:	669a      	str	r2, [r3, #104]	@ 0x68
 8003f10:	f7fe f9ac 	bl	800226c <HAL_GetTick>
 8003f14:	4605      	mov	r5, r0
 8003f16:	6833      	ldr	r3, [r6, #0]
 8003f18:	011f      	lsls	r7, r3, #4
 8003f1a:	f53f af34 	bmi.w	8003d86 <HAL_RCCEx_PeriphCLKConfig+0xe>
 8003f1e:	f7fe f9a5 	bl	800226c <HAL_GetTick>
 8003f22:	1b40      	subs	r0, r0, r5
 8003f24:	2802      	cmp	r0, #2
 8003f26:	d9f6      	bls.n	8003f16 <HAL_RCCEx_PeriphCLKConfig+0x19e>
 8003f28:	e004      	b.n	8003f34 <HAL_RCCEx_PeriphCLKConfig+0x1bc>
 8003f2a:	f7fe f99f 	bl	800226c <HAL_GetTick>
 8003f2e:	1b40      	subs	r0, r0, r5
 8003f30:	2802      	cmp	r0, #2
 8003f32:	d9b7      	bls.n	8003ea4 <HAL_RCCEx_PeriphCLKConfig+0x12c>
 8003f34:	2003      	movs	r0, #3
 8003f36:	b003      	add	sp, #12
 8003f38:	bdf0      	pop	{r4, r5, r6, r7, pc}
 8003f3a:	f7fe f997 	bl	800226c <HAL_GetTick>
 8003f3e:	1b80      	subs	r0, r0, r6
 8003f40:	2802      	cmp	r0, #2
 8003f42:	f67f af2b 	bls.w	8003d9c <HAL_RCCEx_PeriphCLKConfig+0x24>
 8003f46:	e7f5      	b.n	8003f34 <HAL_RCCEx_PeriphCLKConfig+0x1bc>
 8003f48:	f7fe f990 	bl	800226c <HAL_GetTick>
 8003f4c:	1b40      	subs	r0, r0, r5
 8003f4e:	2802      	cmp	r0, #2
 8003f50:	f67f af5f 	bls.w	8003e12 <HAL_RCCEx_PeriphCLKConfig+0x9a>
 8003f54:	e7ee      	b.n	8003f34 <HAL_RCCEx_PeriphCLKConfig+0x1bc>
 8003f56:	f7fe f989 	bl	800226c <HAL_GetTick>
 8003f5a:	1b80      	subs	r0, r0, r6
 8003f5c:	2802      	cmp	r0, #2
 8003f5e:	f67f af73 	bls.w	8003e48 <HAL_RCCEx_PeriphCLKConfig+0xd0>
 8003f62:	e7e7      	b.n	8003f34 <HAL_RCCEx_PeriphCLKConfig+0x1bc>
 8003f64:	f402 7240 	and.w	r2, r2, #768	@ 0x300
 8003f68:	4293      	cmp	r3, r2
 8003f6a:	f43f af78 	beq.w	8003e5e <HAL_RCCEx_PeriphCLKConfig+0xe6>
 8003f6e:	6f2b      	ldr	r3, [r5, #112]	@ 0x70
 8003f70:	4a13      	ldr	r2, [pc, #76]	@ (8003fc0 <HAL_RCCEx_PeriphCLKConfig+0x248>)
 8003f72:	2101      	movs	r1, #1
 8003f74:	f8c2 1e40 	str.w	r1, [r2, #3648]	@ 0xe40
 8003f78:	f423 7340 	bic.w	r3, r3, #768	@ 0x300
 8003f7c:	2100      	movs	r1, #0
 8003f7e:	f8c2 1e40 	str.w	r1, [r2, #3648]	@ 0xe40
 8003f82:	672b      	str	r3, [r5, #112]	@ 0x70
 8003f84:	6f2b      	ldr	r3, [r5, #112]	@ 0x70
 8003f86:	07d9      	lsls	r1, r3, #31
 8003f88:	f57f af69 	bpl.w	8003e5e <HAL_RCCEx_PeriphCLKConfig+0xe6>
 8003f8c:	f7fe f96e 	bl	800226c <HAL_GetTick>
 8003f90:	f241 3788 	movw	r7, #5000	@ 0x1388
 8003f94:	4606      	mov	r6, r0
 8003f96:	6f2b      	ldr	r3, [r5, #112]	@ 0x70
 8003f98:	079a      	lsls	r2, r3, #30
 8003f9a:	f53f af60 	bmi.w	8003e5e <HAL_RCCEx_PeriphCLKConfig+0xe6>
 8003f9e:	f7fe f965 	bl	800226c <HAL_GetTick>
 8003fa2:	1b80      	subs	r0, r0, r6
 8003fa4:	42b8      	cmp	r0, r7
 8003fa6:	d9f6      	bls.n	8003f96 <HAL_RCCEx_PeriphCLKConfig+0x21e>
 8003fa8:	e7c4      	b.n	8003f34 <HAL_RCCEx_PeriphCLKConfig+0x1bc>
 8003faa:	6891      	ldr	r1, [r2, #8]
 8003fac:	f421 11f8 	bic.w	r1, r1, #2031616	@ 0x1f0000
 8003fb0:	e765      	b.n	8003e7e <HAL_RCCEx_PeriphCLKConfig+0x106>
 8003fb2:	4b06      	ldr	r3, [pc, #24]	@ (8003fcc <HAL_RCCEx_PeriphCLKConfig+0x254>)
 8003fb4:	f894 202c 	ldrb.w	r2, [r4, #44]	@ 0x2c
 8003fb8:	f8c3 21e0 	str.w	r2, [r3, #480]	@ 0x1e0
 8003fbc:	e769      	b.n	8003e92 <HAL_RCCEx_PeriphCLKConfig+0x11a>
 8003fbe:	bf00      	nop
 8003fc0:	42470000 	.word	0x42470000
 8003fc4:	40023800 	.word	0x40023800
 8003fc8:	40007000 	.word	0x40007000
 8003fcc:	42471000 	.word	0x42471000

08003fd0 <HAL_RTC_WaitForSynchro>:
 8003fd0:	b538      	push	{r3, r4, r5, lr}
 8003fd2:	6803      	ldr	r3, [r0, #0]
 8003fd4:	4a09      	ldr	r2, [pc, #36]	@ (8003ffc <HAL_RTC_WaitForSynchro+0x2c>)
 8003fd6:	60da      	str	r2, [r3, #12]
 8003fd8:	4604      	mov	r4, r0
 8003fda:	f7fe f947 	bl	800226c <HAL_GetTick>
 8003fde:	4605      	mov	r5, r0
 8003fe0:	6823      	ldr	r3, [r4, #0]
 8003fe2:	68db      	ldr	r3, [r3, #12]
 8003fe4:	069b      	lsls	r3, r3, #26
 8003fe6:	d501      	bpl.n	8003fec <HAL_RTC_WaitForSynchro+0x1c>
 8003fe8:	2000      	movs	r0, #0
 8003fea:	bd38      	pop	{r3, r4, r5, pc}
 8003fec:	f7fe f93e 	bl	800226c <HAL_GetTick>
 8003ff0:	1b40      	subs	r0, r0, r5
 8003ff2:	f5b0 7f7a 	cmp.w	r0, #1000	@ 0x3e8
 8003ff6:	d9f3      	bls.n	8003fe0 <HAL_RTC_WaitForSynchro+0x10>
 8003ff8:	2003      	movs	r0, #3
 8003ffa:	e7f6      	b.n	8003fea <HAL_RTC_WaitForSynchro+0x1a>
 8003ffc:	00017f5f 	.word	0x00017f5f

08004000 <RTC_EnterInitMode>:
 8004000:	6803      	ldr	r3, [r0, #0]
 8004002:	b570      	push	{r4, r5, r6, lr}
 8004004:	68dc      	ldr	r4, [r3, #12]
 8004006:	f014 0440 	ands.w	r4, r4, #64	@ 0x40
 800400a:	4605      	mov	r5, r0
 800400c:	d117      	bne.n	800403e <RTC_EnterInitMode+0x3e>
 800400e:	68da      	ldr	r2, [r3, #12]
 8004010:	f042 0280 	orr.w	r2, r2, #128	@ 0x80
 8004014:	60da      	str	r2, [r3, #12]
 8004016:	f7fe f929 	bl	800226c <HAL_GetTick>
 800401a:	4606      	mov	r6, r0
 800401c:	682b      	ldr	r3, [r5, #0]
 800401e:	68db      	ldr	r3, [r3, #12]
 8004020:	065b      	lsls	r3, r3, #25
 8004022:	d400      	bmi.n	8004026 <RTC_EnterInitMode+0x26>
 8004024:	b10c      	cbz	r4, 800402a <RTC_EnterInitMode+0x2a>
 8004026:	4620      	mov	r0, r4
 8004028:	bd70      	pop	{r4, r5, r6, pc}
 800402a:	f7fe f91f 	bl	800226c <HAL_GetTick>
 800402e:	1b80      	subs	r0, r0, r6
 8004030:	f5b0 7f7a 	cmp.w	r0, #1000	@ 0x3e8
 8004034:	bf82      	ittt	hi
 8004036:	2304      	movhi	r3, #4
 8004038:	776b      	strbhi	r3, [r5, #29]
 800403a:	2401      	movhi	r4, #1
 800403c:	e7ee      	b.n	800401c <RTC_EnterInitMode+0x1c>
 800403e:	2400      	movs	r4, #0
 8004040:	e7f1      	b.n	8004026 <RTC_EnterInitMode+0x26>

08004042 <RTC_ExitInitMode>:
 8004042:	6803      	ldr	r3, [r0, #0]
 8004044:	68da      	ldr	r2, [r3, #12]
 8004046:	f022 0280 	bic.w	r2, r2, #128	@ 0x80
 800404a:	b510      	push	{r4, lr}
 800404c:	60da      	str	r2, [r3, #12]
 800404e:	689b      	ldr	r3, [r3, #8]
 8004050:	069b      	lsls	r3, r3, #26
 8004052:	4604      	mov	r4, r0
 8004054:	d501      	bpl.n	800405a <RTC_ExitInitMode+0x18>
 8004056:	2000      	movs	r0, #0
 8004058:	bd10      	pop	{r4, pc}
 800405a:	f7ff ffb9 	bl	8003fd0 <HAL_RTC_WaitForSynchro>
 800405e:	2800      	cmp	r0, #0
 8004060:	d0f9      	beq.n	8004056 <RTC_ExitInitMode+0x14>
 8004062:	2304      	movs	r3, #4
 8004064:	7763      	strb	r3, [r4, #29]
 8004066:	2001      	movs	r0, #1
 8004068:	e7f6      	b.n	8004058 <RTC_ExitInitMode+0x16>

0800406a <HAL_RTC_Init>:
 800406a:	b510      	push	{r4, lr}
 800406c:	4604      	mov	r4, r0
 800406e:	2800      	cmp	r0, #0
 8004070:	d041      	beq.n	80040f6 <HAL_RTC_Init+0x8c>
 8004072:	7f43      	ldrb	r3, [r0, #29]
 8004074:	f003 02ff 	and.w	r2, r3, #255	@ 0xff
 8004078:	b913      	cbnz	r3, 8004080 <HAL_RTC_Init+0x16>
 800407a:	7702      	strb	r2, [r0, #28]
 800407c:	f7fd fe7a 	bl	8001d74 <HAL_RTC_MspInit>
 8004080:	2302      	movs	r3, #2
 8004082:	7763      	strb	r3, [r4, #29]
 8004084:	6823      	ldr	r3, [r4, #0]
 8004086:	68da      	ldr	r2, [r3, #12]
 8004088:	06d2      	lsls	r2, r2, #27
 800408a:	d503      	bpl.n	8004094 <HAL_RTC_Init+0x2a>
 800408c:	2301      	movs	r3, #1
 800408e:	7763      	strb	r3, [r4, #29]
 8004090:	2000      	movs	r0, #0
 8004092:	bd10      	pop	{r4, pc}
 8004094:	22ca      	movs	r2, #202	@ 0xca
 8004096:	625a      	str	r2, [r3, #36]	@ 0x24
 8004098:	2253      	movs	r2, #83	@ 0x53
 800409a:	625a      	str	r2, [r3, #36]	@ 0x24
 800409c:	4620      	mov	r0, r4
 800409e:	f7ff ffaf 	bl	8004000 <RTC_EnterInitMode>
 80040a2:	bb10      	cbnz	r0, 80040ea <HAL_RTC_Init+0x80>
 80040a4:	6823      	ldr	r3, [r4, #0]
 80040a6:	6920      	ldr	r0, [r4, #16]
 80040a8:	689a      	ldr	r2, [r3, #8]
 80040aa:	f422 02e0 	bic.w	r2, r2, #7340032	@ 0x700000
 80040ae:	f022 0240 	bic.w	r2, r2, #64	@ 0x40
 80040b2:	609a      	str	r2, [r3, #8]
 80040b4:	6862      	ldr	r2, [r4, #4]
 80040b6:	6899      	ldr	r1, [r3, #8]
 80040b8:	4302      	orrs	r2, r0
 80040ba:	6960      	ldr	r0, [r4, #20]
 80040bc:	4302      	orrs	r2, r0
 80040be:	430a      	orrs	r2, r1
 80040c0:	609a      	str	r2, [r3, #8]
 80040c2:	68e2      	ldr	r2, [r4, #12]
 80040c4:	611a      	str	r2, [r3, #16]
 80040c6:	691a      	ldr	r2, [r3, #16]
 80040c8:	68a1      	ldr	r1, [r4, #8]
 80040ca:	ea42 4201 	orr.w	r2, r2, r1, lsl #16
 80040ce:	611a      	str	r2, [r3, #16]
 80040d0:	4620      	mov	r0, r4
 80040d2:	f7ff ffb6 	bl	8004042 <RTC_ExitInitMode>
 80040d6:	b940      	cbnz	r0, 80040ea <HAL_RTC_Init+0x80>
 80040d8:	6823      	ldr	r3, [r4, #0]
 80040da:	69a1      	ldr	r1, [r4, #24]
 80040dc:	6c1a      	ldr	r2, [r3, #64]	@ 0x40
 80040de:	f422 2280 	bic.w	r2, r2, #262144	@ 0x40000
 80040e2:	641a      	str	r2, [r3, #64]	@ 0x40
 80040e4:	6c1a      	ldr	r2, [r3, #64]	@ 0x40
 80040e6:	430a      	orrs	r2, r1
 80040e8:	641a      	str	r2, [r3, #64]	@ 0x40
 80040ea:	6823      	ldr	r3, [r4, #0]
 80040ec:	22ff      	movs	r2, #255	@ 0xff
 80040ee:	625a      	str	r2, [r3, #36]	@ 0x24
 80040f0:	2800      	cmp	r0, #0
 80040f2:	d0cb      	beq.n	800408c <HAL_RTC_Init+0x22>
 80040f4:	e7cd      	b.n	8004092 <HAL_RTC_Init+0x28>
 80040f6:	2001      	movs	r0, #1
 80040f8:	e7cb      	b.n	8004092 <HAL_RTC_Init+0x28>

080040fa <RTC_ByteToBcd2>:
 80040fa:	2300      	movs	r3, #0
 80040fc:	2809      	cmp	r0, #9
 80040fe:	d803      	bhi.n	8004108 <RTC_ByteToBcd2+0xe>
 8004100:	ea40 1003 	orr.w	r0, r0, r3, lsl #4
 8004104:	b2c0      	uxtb	r0, r0
 8004106:	4770      	bx	lr
 8004108:	380a      	subs	r0, #10
 800410a:	3301      	adds	r3, #1
 800410c:	b2c0      	uxtb	r0, r0
 800410e:	e7f5      	b.n	80040fc <RTC_ByteToBcd2+0x2>

08004110 <HAL_RTC_SetTime>:
 8004110:	e92d 41f0 	stmdb	sp!, {r4, r5, r6, r7, r8, lr}
 8004114:	7f03      	ldrb	r3, [r0, #28]
 8004116:	2b01      	cmp	r3, #1
 8004118:	4606      	mov	r6, r0
 800411a:	460f      	mov	r7, r1
 800411c:	f04f 0002 	mov.w	r0, #2
 8004120:	d041      	beq.n	80041a6 <HAL_RTC_SetTime+0x96>
 8004122:	2301      	movs	r3, #1
 8004124:	6831      	ldr	r1, [r6, #0]
 8004126:	7733      	strb	r3, [r6, #28]
 8004128:	7770      	strb	r0, [r6, #29]
 800412a:	7838      	ldrb	r0, [r7, #0]
 800412c:	787d      	ldrb	r5, [r7, #1]
 800412e:	78bc      	ldrb	r4, [r7, #2]
 8004130:	688b      	ldr	r3, [r1, #8]
 8004132:	2a00      	cmp	r2, #0
 8004134:	d139      	bne.n	80041aa <HAL_RTC_SetTime+0x9a>
 8004136:	f013 0340 	ands.w	r3, r3, #64	@ 0x40
 800413a:	bf08      	it	eq
 800413c:	70fb      	strbeq	r3, [r7, #3]
 800413e:	f7ff ffdc 	bl	80040fa <RTC_ByteToBcd2>
 8004142:	4680      	mov	r8, r0
 8004144:	4628      	mov	r0, r5
 8004146:	f7ff ffd8 	bl	80040fa <RTC_ByteToBcd2>
 800414a:	4602      	mov	r2, r0
 800414c:	4620      	mov	r0, r4
 800414e:	f7ff ffd4 	bl	80040fa <RTC_ByteToBcd2>
 8004152:	78fb      	ldrb	r3, [r7, #3]
 8004154:	ea40 5383 	orr.w	r3, r0, r3, lsl #22
 8004158:	ea43 4308 	orr.w	r3, r3, r8, lsl #16
 800415c:	ea43 2402 	orr.w	r4, r3, r2, lsl #8
 8004160:	23ca      	movs	r3, #202	@ 0xca
 8004162:	624b      	str	r3, [r1, #36]	@ 0x24
 8004164:	2353      	movs	r3, #83	@ 0x53
 8004166:	624b      	str	r3, [r1, #36]	@ 0x24
 8004168:	4630      	mov	r0, r6
 800416a:	f7ff ff49 	bl	8004000 <RTC_EnterInitMode>
 800416e:	b9a8      	cbnz	r0, 800419c <HAL_RTC_SetTime+0x8c>
 8004170:	6832      	ldr	r2, [r6, #0]
 8004172:	f004 347f 	and.w	r4, r4, #2139062143	@ 0x7f7f7f7f
 8004176:	f024 44fe 	bic.w	r4, r4, #2130706432	@ 0x7f000000
 800417a:	6014      	str	r4, [r2, #0]
 800417c:	6893      	ldr	r3, [r2, #8]
 800417e:	f423 2380 	bic.w	r3, r3, #262144	@ 0x40000
 8004182:	6093      	str	r3, [r2, #8]
 8004184:	e9d7 3003 	ldrd	r3, r0, [r7, #12]
 8004188:	6891      	ldr	r1, [r2, #8]
 800418a:	4303      	orrs	r3, r0
 800418c:	430b      	orrs	r3, r1
 800418e:	6093      	str	r3, [r2, #8]
 8004190:	4630      	mov	r0, r6
 8004192:	f7ff ff56 	bl	8004042 <RTC_ExitInitMode>
 8004196:	b908      	cbnz	r0, 800419c <HAL_RTC_SetTime+0x8c>
 8004198:	2301      	movs	r3, #1
 800419a:	7773      	strb	r3, [r6, #29]
 800419c:	6833      	ldr	r3, [r6, #0]
 800419e:	22ff      	movs	r2, #255	@ 0xff
 80041a0:	625a      	str	r2, [r3, #36]	@ 0x24
 80041a2:	2300      	movs	r3, #0
 80041a4:	7733      	strb	r3, [r6, #28]
 80041a6:	e8bd 81f0 	ldmia.w	sp!, {r4, r5, r6, r7, r8, pc}
 80041aa:	f013 0340 	ands.w	r3, r3, #64	@ 0x40
 80041ae:	bf08      	it	eq
 80041b0:	70fb      	strbeq	r3, [r7, #3]
 80041b2:	022d      	lsls	r5, r5, #8
 80041b4:	78fa      	ldrb	r2, [r7, #3]
 80041b6:	ea45 4500 	orr.w	r5, r5, r0, lsl #16
 80041ba:	ea45 0304 	orr.w	r3, r5, r4
 80041be:	ea43 5482 	orr.w	r4, r3, r2, lsl #22
 80041c2:	e7cd      	b.n	8004160 <HAL_RTC_SetTime+0x50>

080041c4 <HAL_RTC_SetDate>:
 80041c4:	b5f8      	push	{r3, r4, r5, r6, r7, lr}
 80041c6:	7f03      	ldrb	r3, [r0, #28]
 80041c8:	2b01      	cmp	r3, #1
 80041ca:	4605      	mov	r5, r0
 80041cc:	f04f 0002 	mov.w	r0, #2
 80041d0:	d027      	beq.n	8004222 <HAL_RTC_SetDate+0x5e>
 80041d2:	2301      	movs	r3, #1
 80041d4:	772b      	strb	r3, [r5, #28]
 80041d6:	7768      	strb	r0, [r5, #29]
 80041d8:	780e      	ldrb	r6, [r1, #0]
 80041da:	78c8      	ldrb	r0, [r1, #3]
 80041dc:	784c      	ldrb	r4, [r1, #1]
 80041de:	788f      	ldrb	r7, [r1, #2]
 80041e0:	0376      	lsls	r6, r6, #13
 80041e2:	b1fa      	cbz	r2, 8004224 <HAL_RTC_SetDate+0x60>
 80041e4:	ea46 4300 	orr.w	r3, r6, r0, lsl #16
 80041e8:	433b      	orrs	r3, r7
 80041ea:	ea43 2404 	orr.w	r4, r3, r4, lsl #8
 80041ee:	682b      	ldr	r3, [r5, #0]
 80041f0:	22ca      	movs	r2, #202	@ 0xca
 80041f2:	625a      	str	r2, [r3, #36]	@ 0x24
 80041f4:	2253      	movs	r2, #83	@ 0x53
 80041f6:	625a      	str	r2, [r3, #36]	@ 0x24
 80041f8:	4628      	mov	r0, r5
 80041fa:	f7ff ff01 	bl	8004000 <RTC_EnterInitMode>
 80041fe:	b958      	cbnz	r0, 8004218 <HAL_RTC_SetDate+0x54>
 8004200:	682a      	ldr	r2, [r5, #0]
 8004202:	f024 447f 	bic.w	r4, r4, #4278190080	@ 0xff000000
 8004206:	f024 04c0 	bic.w	r4, r4, #192	@ 0xc0
 800420a:	6054      	str	r4, [r2, #4]
 800420c:	4628      	mov	r0, r5
 800420e:	f7ff ff18 	bl	8004042 <RTC_ExitInitMode>
 8004212:	b908      	cbnz	r0, 8004218 <HAL_RTC_SetDate+0x54>
 8004214:	2301      	movs	r3, #1
 8004216:	776b      	strb	r3, [r5, #29]
 8004218:	682b      	ldr	r3, [r5, #0]
 800421a:	22ff      	movs	r2, #255	@ 0xff
 800421c:	625a      	str	r2, [r3, #36]	@ 0x24
 800421e:	2300      	movs	r3, #0
 8004220:	772b      	strb	r3, [r5, #28]
 8004222:	bdf8      	pop	{r3, r4, r5, r6, r7, pc}
 8004224:	06e3      	lsls	r3, r4, #27
 8004226:	bf42      	ittt	mi
 8004228:	f024 0410 	bicmi.w	r4, r4, #16
 800422c:	340a      	addmi	r4, #10
 800422e:	704c      	strbmi	r4, [r1, #1]
 8004230:	f7ff ff63 	bl	80040fa <RTC_ByteToBcd2>
 8004234:	4604      	mov	r4, r0
 8004236:	7848      	ldrb	r0, [r1, #1]
 8004238:	f7ff ff5f 	bl	80040fa <RTC_ByteToBcd2>
 800423c:	4602      	mov	r2, r0
 800423e:	4638      	mov	r0, r7
 8004240:	f7ff ff5b 	bl	80040fa <RTC_ByteToBcd2>
 8004244:	ea40 0306 	orr.w	r3, r0, r6
 8004248:	ea43 4304 	orr.w	r3, r3, r4, lsl #16
 800424c:	ea43 2402 	orr.w	r4, r3, r2, lsl #8
 8004250:	e7cd      	b.n	80041ee <HAL_RTC_SetDate+0x2a>

08004252 <RTC_Bcd2ToByte>:
 8004252:	0903      	lsrs	r3, r0, #4
 8004254:	eb03 0383 	add.w	r3, r3, r3, lsl #2
 8004258:	f000 000f 	and.w	r0, r0, #15
 800425c:	eb00 0043 	add.w	r0, r0, r3, lsl #1
 8004260:	b2c0      	uxtb	r0, r0
 8004262:	4770      	bx	lr

08004264 <HAL_RTC_GetTime>:
 8004264:	b538      	push	{r3, r4, r5, lr}
 8004266:	6803      	ldr	r3, [r0, #0]
 8004268:	6a98      	ldr	r0, [r3, #40]	@ 0x28
 800426a:	6048      	str	r0, [r1, #4]
 800426c:	6918      	ldr	r0, [r3, #16]
 800426e:	681b      	ldr	r3, [r3, #0]
 8004270:	f3c0 000e 	ubfx	r0, r0, #0, #15
 8004274:	f3c3 2506 	ubfx	r5, r3, #8, #7
 8004278:	f003 047f 	and.w	r4, r3, #127	@ 0x7f
 800427c:	6088      	str	r0, [r1, #8]
 800427e:	f3c3 4005 	ubfx	r0, r3, #16, #6
 8004282:	f3c3 5380 	ubfx	r3, r3, #22, #1
 8004286:	7008      	strb	r0, [r1, #0]
 8004288:	704d      	strb	r5, [r1, #1]
 800428a:	708c      	strb	r4, [r1, #2]
 800428c:	70cb      	strb	r3, [r1, #3]
 800428e:	b952      	cbnz	r2, 80042a6 <HAL_RTC_GetTime+0x42>
 8004290:	f7ff ffdf 	bl	8004252 <RTC_Bcd2ToByte>
 8004294:	7008      	strb	r0, [r1, #0]
 8004296:	4628      	mov	r0, r5
 8004298:	f7ff ffdb 	bl	8004252 <RTC_Bcd2ToByte>
 800429c:	7048      	strb	r0, [r1, #1]
 800429e:	4620      	mov	r0, r4
 80042a0:	f7ff ffd7 	bl	8004252 <RTC_Bcd2ToByte>
 80042a4:	7088      	strb	r0, [r1, #2]
 80042a6:	2000      	movs	r0, #0
 80042a8:	bd38      	pop	{r3, r4, r5, pc}

080042aa <HAL_RTC_GetDate>:
 80042aa:	b538      	push	{r3, r4, r5, lr}
 80042ac:	6803      	ldr	r3, [r0, #0]
 80042ae:	685b      	ldr	r3, [r3, #4]
 80042b0:	f3c3 4007 	ubfx	r0, r3, #16, #8
 80042b4:	f3c3 2504 	ubfx	r5, r3, #8, #5
 80042b8:	f003 043f 	and.w	r4, r3, #63	@ 0x3f
 80042bc:	f3c3 3342 	ubfx	r3, r3, #13, #3
 80042c0:	70c8      	strb	r0, [r1, #3]
 80042c2:	704d      	strb	r5, [r1, #1]
 80042c4:	708c      	strb	r4, [r1, #2]
 80042c6:	700b      	strb	r3, [r1, #0]
 80042c8:	b952      	cbnz	r2, 80042e0 <HAL_RTC_GetDate+0x36>
 80042ca:	f7ff ffc2 	bl	8004252 <RTC_Bcd2ToByte>
 80042ce:	70c8      	strb	r0, [r1, #3]
 80042d0:	4628      	mov	r0, r5
 80042d2:	f7ff ffbe 	bl	8004252 <RTC_Bcd2ToByte>
 80042d6:	7048      	strb	r0, [r1, #1]
 80042d8:	4620      	mov	r0, r4
 80042da:	f7ff ffba 	bl	8004252 <RTC_Bcd2ToByte>
 80042de:	7088      	strb	r0, [r1, #2]
 80042e0:	2000      	movs	r0, #0
 80042e2:	bd38      	pop	{r3, r4, r5, pc}

080042e4 <SPI_WaitFlagStateUntilTimeout>:
 80042e4:	e92d 47f3 	stmdb	sp!, {r0, r1, r4, r5, r6, r7, r8, r9, sl, lr}
 80042e8:	461f      	mov	r7, r3
 80042ea:	4689      	mov	r9, r1
 80042ec:	4690      	mov	r8, r2
 80042ee:	4604      	mov	r4, r0
 80042f0:	f7fd ffbc 	bl	800226c <HAL_GetTick>
 80042f4:	9d0a      	ldr	r5, [sp, #40]	@ 0x28
 80042f6:	443d      	add	r5, r7
 80042f8:	1a2d      	subs	r5, r5, r0
 80042fa:	f7fd ffb7 	bl	800226c <HAL_GetTick>
 80042fe:	4b26      	ldr	r3, [pc, #152]	@ (8004398 <SPI_WaitFlagStateUntilTimeout+0xb4>)
 8004300:	681e      	ldr	r6, [r3, #0]
 8004302:	f3c6 36cb 	ubfx	r6, r6, #15, #12
 8004306:	436e      	muls	r6, r5
 8004308:	4682      	mov	sl, r0
 800430a:	9601      	str	r6, [sp, #4]
 800430c:	6822      	ldr	r2, [r4, #0]
 800430e:	6893      	ldr	r3, [r2, #8]
 8004310:	ea39 0303 	bics.w	r3, r9, r3
 8004314:	bf0c      	ite	eq
 8004316:	2301      	moveq	r3, #1
 8004318:	2300      	movne	r3, #0
 800431a:	4543      	cmp	r3, r8
 800431c:	d101      	bne.n	8004322 <SPI_WaitFlagStateUntilTimeout+0x3e>
 800431e:	2000      	movs	r0, #0
 8004320:	e02e      	b.n	8004380 <SPI_WaitFlagStateUntilTimeout+0x9c>
 8004322:	1c7b      	adds	r3, r7, #1
 8004324:	d0f3      	beq.n	800430e <SPI_WaitFlagStateUntilTimeout+0x2a>
 8004326:	f7fd ffa1 	bl	800226c <HAL_GetTick>
 800432a:	eba0 000a 	sub.w	r0, r0, sl
 800432e:	42a8      	cmp	r0, r5
 8004330:	d329      	bcc.n	8004386 <SPI_WaitFlagStateUntilTimeout+0xa2>
 8004332:	6823      	ldr	r3, [r4, #0]
 8004334:	685a      	ldr	r2, [r3, #4]
 8004336:	f022 02e0 	bic.w	r2, r2, #224	@ 0xe0
 800433a:	605a      	str	r2, [r3, #4]
 800433c:	6862      	ldr	r2, [r4, #4]
 800433e:	f5b2 7f82 	cmp.w	r2, #260	@ 0x104
 8004342:	d10a      	bne.n	800435a <SPI_WaitFlagStateUntilTimeout+0x76>
 8004344:	68a2      	ldr	r2, [r4, #8]
 8004346:	f5b2 4f00 	cmp.w	r2, #32768	@ 0x8000
 800434a:	d002      	beq.n	8004352 <SPI_WaitFlagStateUntilTimeout+0x6e>
 800434c:	f5b2 6f80 	cmp.w	r2, #1024	@ 0x400
 8004350:	d103      	bne.n	800435a <SPI_WaitFlagStateUntilTimeout+0x76>
 8004352:	681a      	ldr	r2, [r3, #0]
 8004354:	f022 0240 	bic.w	r2, r2, #64	@ 0x40
 8004358:	601a      	str	r2, [r3, #0]
 800435a:	6aa2      	ldr	r2, [r4, #40]	@ 0x28
 800435c:	f5b2 5f00 	cmp.w	r2, #8192	@ 0x2000
 8004360:	d107      	bne.n	8004372 <SPI_WaitFlagStateUntilTimeout+0x8e>
 8004362:	681a      	ldr	r2, [r3, #0]
 8004364:	f422 5200 	bic.w	r2, r2, #8192	@ 0x2000
 8004368:	601a      	str	r2, [r3, #0]
 800436a:	681a      	ldr	r2, [r3, #0]
 800436c:	f442 5200 	orr.w	r2, r2, #8192	@ 0x2000
 8004370:	601a      	str	r2, [r3, #0]
 8004372:	2301      	movs	r3, #1
 8004374:	f884 3051 	strb.w	r3, [r4, #81]	@ 0x51
 8004378:	2300      	movs	r3, #0
 800437a:	f884 3050 	strb.w	r3, [r4, #80]	@ 0x50
 800437e:	2003      	movs	r0, #3
 8004380:	b002      	add	sp, #8
 8004382:	e8bd 87f0 	ldmia.w	sp!, {r4, r5, r6, r7, r8, r9, sl, pc}
 8004386:	9a01      	ldr	r2, [sp, #4]
 8004388:	9b01      	ldr	r3, [sp, #4]
 800438a:	2a00      	cmp	r2, #0
 800438c:	f103 33ff 	add.w	r3, r3, #4294967295	@ 0xffffffff
 8004390:	9301      	str	r3, [sp, #4]
 8004392:	bf08      	it	eq
 8004394:	4615      	moveq	r5, r2
 8004396:	e7b9      	b.n	800430c <SPI_WaitFlagStateUntilTimeout+0x28>
 8004398:	2000001c 	.word	0x2000001c

0800439c <SPI_EndRxTxTransaction>:
 800439c:	b5f0      	push	{r4, r5, r6, r7, lr}
 800439e:	b085      	sub	sp, #20
 80043a0:	460b      	mov	r3, r1
 80043a2:	9200      	str	r2, [sp, #0]
 80043a4:	460e      	mov	r6, r1
 80043a6:	4617      	mov	r7, r2
 80043a8:	2102      	movs	r1, #2
 80043aa:	2201      	movs	r2, #1
 80043ac:	4604      	mov	r4, r0
 80043ae:	f7ff ff99 	bl	80042e4 <SPI_WaitFlagStateUntilTimeout>
 80043b2:	4605      	mov	r5, r0
 80043b4:	b128      	cbz	r0, 80043c2 <SPI_EndRxTxTransaction+0x26>
 80043b6:	6d63      	ldr	r3, [r4, #84]	@ 0x54
 80043b8:	f043 0320 	orr.w	r3, r3, #32
 80043bc:	6563      	str	r3, [r4, #84]	@ 0x54
 80043be:	2503      	movs	r5, #3
 80043c0:	e015      	b.n	80043ee <SPI_EndRxTxTransaction+0x52>
 80043c2:	4b12      	ldr	r3, [pc, #72]	@ (800440c <SPI_EndRxTxTransaction+0x70>)
 80043c4:	6818      	ldr	r0, [r3, #0]
 80043c6:	4b12      	ldr	r3, [pc, #72]	@ (8004410 <SPI_EndRxTxTransaction+0x74>)
 80043c8:	fbb0 f0f3 	udiv	r0, r0, r3
 80043cc:	f44f 737a 	mov.w	r3, #1000	@ 0x3e8
 80043d0:	4358      	muls	r0, r3
 80043d2:	6863      	ldr	r3, [r4, #4]
 80043d4:	9003      	str	r0, [sp, #12]
 80043d6:	f5b3 7f82 	cmp.w	r3, #260	@ 0x104
 80043da:	d10b      	bne.n	80043f4 <SPI_EndRxTxTransaction+0x58>
 80043dc:	9700      	str	r7, [sp, #0]
 80043de:	4633      	mov	r3, r6
 80043e0:	462a      	mov	r2, r5
 80043e2:	2180      	movs	r1, #128	@ 0x80
 80043e4:	4620      	mov	r0, r4
 80043e6:	f7ff ff7d 	bl	80042e4 <SPI_WaitFlagStateUntilTimeout>
 80043ea:	2800      	cmp	r0, #0
 80043ec:	d1e3      	bne.n	80043b6 <SPI_EndRxTxTransaction+0x1a>
 80043ee:	4628      	mov	r0, r5
 80043f0:	b005      	add	sp, #20
 80043f2:	bdf0      	pop	{r4, r5, r6, r7, pc}
 80043f4:	9b03      	ldr	r3, [sp, #12]
 80043f6:	2b00      	cmp	r3, #0
 80043f8:	d0f9      	beq.n	80043ee <SPI_EndRxTxTransaction+0x52>
 80043fa:	9b03      	ldr	r3, [sp, #12]
 80043fc:	3b01      	subs	r3, #1
 80043fe:	9303      	str	r3, [sp, #12]
 8004400:	6823      	ldr	r3, [r4, #0]
 8004402:	689b      	ldr	r3, [r3, #8]
 8004404:	061b      	lsls	r3, r3, #24
 8004406:	d4f5      	bmi.n	80043f4 <SPI_EndRxTxTransaction+0x58>
 8004408:	e7f1      	b.n	80043ee <SPI_EndRxTxTransaction+0x52>
 800440a:	bf00      	nop
 800440c:	2000001c 	.word	0x2000001c
 8004410:	016e3600 	.word	0x016e3600

08004414 <SPI_EndRxTransaction>:
 8004414:	b537      	push	{r0, r1, r2, r4, r5, lr}
 8004416:	460b      	mov	r3, r1
 8004418:	6841      	ldr	r1, [r0, #4]
 800441a:	f5b1 7f82 	cmp.w	r1, #260	@ 0x104
 800441e:	4604      	mov	r4, r0
 8004420:	d008      	beq.n	8004434 <SPI_EndRxTransaction+0x20>
 8004422:	9200      	str	r2, [sp, #0]
 8004424:	2101      	movs	r1, #1
 8004426:	2200      	movs	r2, #0
 8004428:	f7ff ff5c 	bl	80042e4 <SPI_WaitFlagStateUntilTimeout>
 800442c:	b9d0      	cbnz	r0, 8004464 <SPI_EndRxTransaction+0x50>
 800442e:	2000      	movs	r0, #0
 8004430:	b003      	add	sp, #12
 8004432:	bd30      	pop	{r4, r5, pc}
 8004434:	6881      	ldr	r1, [r0, #8]
 8004436:	f5b1 4f00 	cmp.w	r1, #32768	@ 0x8000
 800443a:	d002      	beq.n	8004442 <SPI_EndRxTransaction+0x2e>
 800443c:	f5b1 6f80 	cmp.w	r1, #1024	@ 0x400
 8004440:	d107      	bne.n	8004452 <SPI_EndRxTransaction+0x3e>
 8004442:	6825      	ldr	r5, [r4, #0]
 8004444:	6828      	ldr	r0, [r5, #0]
 8004446:	f5b1 6f80 	cmp.w	r1, #1024	@ 0x400
 800444a:	f020 0040 	bic.w	r0, r0, #64	@ 0x40
 800444e:	6028      	str	r0, [r5, #0]
 8004450:	d004      	beq.n	800445c <SPI_EndRxTransaction+0x48>
 8004452:	9200      	str	r2, [sp, #0]
 8004454:	2180      	movs	r1, #128	@ 0x80
 8004456:	2200      	movs	r2, #0
 8004458:	4620      	mov	r0, r4
 800445a:	e7e5      	b.n	8004428 <SPI_EndRxTransaction+0x14>
 800445c:	9200      	str	r2, [sp, #0]
 800445e:	2101      	movs	r1, #1
 8004460:	2200      	movs	r2, #0
 8004462:	e7f9      	b.n	8004458 <SPI_EndRxTransaction+0x44>
 8004464:	6d63      	ldr	r3, [r4, #84]	@ 0x54
 8004466:	f043 0320 	orr.w	r3, r3, #32
 800446a:	6563      	str	r3, [r4, #84]	@ 0x54
 800446c:	2003      	movs	r0, #3
 800446e:	e7df      	b.n	8004430 <SPI_EndRxTransaction+0x1c>

08004470 <HAL_SPI_Init>:
 8004470:	b510      	push	{r4, lr}
 8004472:	4604      	mov	r4, r0
 8004474:	2800      	cmp	r0, #0
 8004476:	d055      	beq.n	8004524 <HAL_SPI_Init+0xb4>
 8004478:	6a43      	ldr	r3, [r0, #36]	@ 0x24
 800447a:	2b00      	cmp	r3, #0
 800447c:	d14e      	bne.n	800451c <HAL_SPI_Init+0xac>
 800447e:	6842      	ldr	r2, [r0, #4]
 8004480:	f5b2 7f82 	cmp.w	r2, #260	@ 0x104
 8004484:	d000      	beq.n	8004488 <HAL_SPI_Init+0x18>
 8004486:	61c3      	str	r3, [r0, #28]
 8004488:	2300      	movs	r3, #0
 800448a:	62a3      	str	r3, [r4, #40]	@ 0x28
 800448c:	f894 3051 	ldrb.w	r3, [r4, #81]	@ 0x51
 8004490:	f003 02ff 	and.w	r2, r3, #255	@ 0xff
 8004494:	b923      	cbnz	r3, 80044a0 <HAL_SPI_Init+0x30>
 8004496:	f884 2050 	strb.w	r2, [r4, #80]	@ 0x50
 800449a:	4620      	mov	r0, r4
 800449c:	f7fd fc8c 	bl	8001db8 <HAL_SPI_MspInit>
 80044a0:	6821      	ldr	r1, [r4, #0]
 80044a2:	68a0      	ldr	r0, [r4, #8]
 80044a4:	69a2      	ldr	r2, [r4, #24]
 80044a6:	2302      	movs	r3, #2
 80044a8:	f884 3051 	strb.w	r3, [r4, #81]	@ 0x51
 80044ac:	680b      	ldr	r3, [r1, #0]
 80044ae:	f023 0340 	bic.w	r3, r3, #64	@ 0x40
 80044b2:	600b      	str	r3, [r1, #0]
 80044b4:	6863      	ldr	r3, [r4, #4]
 80044b6:	f400 4004 	and.w	r0, r0, #33792	@ 0x8400
 80044ba:	f403 7382 	and.w	r3, r3, #260	@ 0x104
 80044be:	4303      	orrs	r3, r0
 80044c0:	68e0      	ldr	r0, [r4, #12]
 80044c2:	f400 6000 	and.w	r0, r0, #2048	@ 0x800
 80044c6:	4303      	orrs	r3, r0
 80044c8:	6920      	ldr	r0, [r4, #16]
 80044ca:	f000 0002 	and.w	r0, r0, #2
 80044ce:	4303      	orrs	r3, r0
 80044d0:	6960      	ldr	r0, [r4, #20]
 80044d2:	f000 0001 	and.w	r0, r0, #1
 80044d6:	4303      	orrs	r3, r0
 80044d8:	f402 7000 	and.w	r0, r2, #512	@ 0x200
 80044dc:	4303      	orrs	r3, r0
 80044de:	69e0      	ldr	r0, [r4, #28]
 80044e0:	f000 0038 	and.w	r0, r0, #56	@ 0x38
 80044e4:	4303      	orrs	r3, r0
 80044e6:	6a20      	ldr	r0, [r4, #32]
 80044e8:	f000 0080 	and.w	r0, r0, #128	@ 0x80
 80044ec:	4303      	orrs	r3, r0
 80044ee:	6aa0      	ldr	r0, [r4, #40]	@ 0x28
 80044f0:	f400 5000 	and.w	r0, r0, #8192	@ 0x2000
 80044f4:	4303      	orrs	r3, r0
 80044f6:	600b      	str	r3, [r1, #0]
 80044f8:	6a63      	ldr	r3, [r4, #36]	@ 0x24
 80044fa:	0c12      	lsrs	r2, r2, #16
 80044fc:	f003 0310 	and.w	r3, r3, #16
 8004500:	f002 0204 	and.w	r2, r2, #4
 8004504:	431a      	orrs	r2, r3
 8004506:	604a      	str	r2, [r1, #4]
 8004508:	69cb      	ldr	r3, [r1, #28]
 800450a:	f423 6300 	bic.w	r3, r3, #2048	@ 0x800
 800450e:	61cb      	str	r3, [r1, #28]
 8004510:	2000      	movs	r0, #0
 8004512:	2301      	movs	r3, #1
 8004514:	6560      	str	r0, [r4, #84]	@ 0x54
 8004516:	f884 3051 	strb.w	r3, [r4, #81]	@ 0x51
 800451a:	bd10      	pop	{r4, pc}
 800451c:	2300      	movs	r3, #0
 800451e:	e9c0 3304 	strd	r3, r3, [r0, #16]
 8004522:	e7b1      	b.n	8004488 <HAL_SPI_Init+0x18>
 8004524:	2001      	movs	r0, #1
 8004526:	e7f8      	b.n	800451a <HAL_SPI_Init+0xaa>

08004528 <HAL_SPI_Transmit>:
 8004528:	e92d 47f3 	stmdb	sp!, {r0, r1, r4, r5, r6, r7, r8, r9, sl, lr}
 800452c:	461f      	mov	r7, r3
 800452e:	f890 3050 	ldrb.w	r3, [r0, #80]	@ 0x50
 8004532:	2b01      	cmp	r3, #1
 8004534:	4604      	mov	r4, r0
 8004536:	460d      	mov	r5, r1
 8004538:	4690      	mov	r8, r2
 800453a:	f000 80a6 	beq.w	800468a <HAL_SPI_Transmit+0x162>
 800453e:	2301      	movs	r3, #1
 8004540:	f880 3050 	strb.w	r3, [r0, #80]	@ 0x50
 8004544:	f7fd fe92 	bl	800226c <HAL_GetTick>
 8004548:	f894 3051 	ldrb.w	r3, [r4, #81]	@ 0x51
 800454c:	2b01      	cmp	r3, #1
 800454e:	4682      	mov	sl, r0
 8004550:	fa5f f983 	uxtb.w	r9, r3
 8004554:	f040 8096 	bne.w	8004684 <HAL_SPI_Transmit+0x15c>
 8004558:	2d00      	cmp	r5, #0
 800455a:	d067      	beq.n	800462c <HAL_SPI_Transmit+0x104>
 800455c:	f1b8 0f00 	cmp.w	r8, #0
 8004560:	d064      	beq.n	800462c <HAL_SPI_Transmit+0x104>
 8004562:	2303      	movs	r3, #3
 8004564:	f884 3051 	strb.w	r3, [r4, #81]	@ 0x51
 8004568:	2300      	movs	r3, #0
 800456a:	6563      	str	r3, [r4, #84]	@ 0x54
 800456c:	e9c4 3310 	strd	r3, r3, [r4, #64]	@ 0x40
 8004570:	f8a4 8036 	strh.w	r8, [r4, #54]	@ 0x36
 8004574:	63a3      	str	r3, [r4, #56]	@ 0x38
 8004576:	87a3      	strh	r3, [r4, #60]	@ 0x3c
 8004578:	87e3      	strh	r3, [r4, #62]	@ 0x3e
 800457a:	68a3      	ldr	r3, [r4, #8]
 800457c:	6826      	ldr	r6, [r4, #0]
 800457e:	6325      	str	r5, [r4, #48]	@ 0x30
 8004580:	f5b3 4f00 	cmp.w	r3, #32768	@ 0x8000
 8004584:	f8a4 8034 	strh.w	r8, [r4, #52]	@ 0x34
 8004588:	d107      	bne.n	800459a <HAL_SPI_Transmit+0x72>
 800458a:	6833      	ldr	r3, [r6, #0]
 800458c:	f023 0340 	bic.w	r3, r3, #64	@ 0x40
 8004590:	6033      	str	r3, [r6, #0]
 8004592:	6833      	ldr	r3, [r6, #0]
 8004594:	f443 4380 	orr.w	r3, r3, #16384	@ 0x4000
 8004598:	6033      	str	r3, [r6, #0]
 800459a:	6833      	ldr	r3, [r6, #0]
 800459c:	6862      	ldr	r2, [r4, #4]
 800459e:	065b      	lsls	r3, r3, #25
 80045a0:	bf5e      	ittt	pl
 80045a2:	6833      	ldrpl	r3, [r6, #0]
 80045a4:	f043 0340 	orrpl.w	r3, r3, #64	@ 0x40
 80045a8:	6033      	strpl	r3, [r6, #0]
 80045aa:	68e3      	ldr	r3, [r4, #12]
 80045ac:	f5b3 6f00 	cmp.w	r3, #2048	@ 0x800
 80045b0:	d143      	bne.n	800463a <HAL_SPI_Transmit+0x112>
 80045b2:	b112      	cbz	r2, 80045ba <HAL_SPI_Transmit+0x92>
 80045b4:	f1b8 0f01 	cmp.w	r8, #1
 80045b8:	d107      	bne.n	80045ca <HAL_SPI_Transmit+0xa2>
 80045ba:	f835 3b02 	ldrh.w	r3, [r5], #2
 80045be:	60f3      	str	r3, [r6, #12]
 80045c0:	6325      	str	r5, [r4, #48]	@ 0x30
 80045c2:	8ee3      	ldrh	r3, [r4, #54]	@ 0x36
 80045c4:	3b01      	subs	r3, #1
 80045c6:	b29b      	uxth	r3, r3
 80045c8:	86e3      	strh	r3, [r4, #54]	@ 0x36
 80045ca:	8ee3      	ldrh	r3, [r4, #54]	@ 0x36
 80045cc:	b29b      	uxth	r3, r3
 80045ce:	b9b3      	cbnz	r3, 80045fe <HAL_SPI_Transmit+0xd6>
 80045d0:	4652      	mov	r2, sl
 80045d2:	4639      	mov	r1, r7
 80045d4:	4620      	mov	r0, r4
 80045d6:	f7ff fee1 	bl	800439c <SPI_EndRxTxTransaction>
 80045da:	2800      	cmp	r0, #0
 80045dc:	d14f      	bne.n	800467e <HAL_SPI_Transmit+0x156>
 80045de:	68a3      	ldr	r3, [r4, #8]
 80045e0:	b933      	cbnz	r3, 80045f0 <HAL_SPI_Transmit+0xc8>
 80045e2:	9301      	str	r3, [sp, #4]
 80045e4:	6823      	ldr	r3, [r4, #0]
 80045e6:	68da      	ldr	r2, [r3, #12]
 80045e8:	9201      	str	r2, [sp, #4]
 80045ea:	689b      	ldr	r3, [r3, #8]
 80045ec:	9301      	str	r3, [sp, #4]
 80045ee:	9b01      	ldr	r3, [sp, #4]
 80045f0:	6d63      	ldr	r3, [r4, #84]	@ 0x54
 80045f2:	b9db      	cbnz	r3, 800462c <HAL_SPI_Transmit+0x104>
 80045f4:	2201      	movs	r2, #1
 80045f6:	f884 2051 	strb.w	r2, [r4, #81]	@ 0x51
 80045fa:	4699      	mov	r9, r3
 80045fc:	e016      	b.n	800462c <HAL_SPI_Transmit+0x104>
 80045fe:	6822      	ldr	r2, [r4, #0]
 8004600:	6893      	ldr	r3, [r2, #8]
 8004602:	0798      	lsls	r0, r3, #30
 8004604:	d505      	bpl.n	8004612 <HAL_SPI_Transmit+0xea>
 8004606:	6b23      	ldr	r3, [r4, #48]	@ 0x30
 8004608:	f833 1b02 	ldrh.w	r1, [r3], #2
 800460c:	60d1      	str	r1, [r2, #12]
 800460e:	6323      	str	r3, [r4, #48]	@ 0x30
 8004610:	e7d7      	b.n	80045c2 <HAL_SPI_Transmit+0x9a>
 8004612:	f7fd fe2b 	bl	800226c <HAL_GetTick>
 8004616:	eba0 000a 	sub.w	r0, r0, sl
 800461a:	42b8      	cmp	r0, r7
 800461c:	d3d5      	bcc.n	80045ca <HAL_SPI_Transmit+0xa2>
 800461e:	1c79      	adds	r1, r7, #1
 8004620:	d0d3      	beq.n	80045ca <HAL_SPI_Transmit+0xa2>
 8004622:	2301      	movs	r3, #1
 8004624:	f884 3051 	strb.w	r3, [r4, #81]	@ 0x51
 8004628:	f04f 0903 	mov.w	r9, #3
 800462c:	2300      	movs	r3, #0
 800462e:	f884 3050 	strb.w	r3, [r4, #80]	@ 0x50
 8004632:	4648      	mov	r0, r9
 8004634:	b002      	add	sp, #8
 8004636:	e8bd 87f0 	ldmia.w	sp!, {r4, r5, r6, r7, r8, r9, sl, pc}
 800463a:	b112      	cbz	r2, 8004642 <HAL_SPI_Transmit+0x11a>
 800463c:	f1b8 0f01 	cmp.w	r8, #1
 8004640:	d108      	bne.n	8004654 <HAL_SPI_Transmit+0x12c>
 8004642:	782b      	ldrb	r3, [r5, #0]
 8004644:	7333      	strb	r3, [r6, #12]
 8004646:	6b23      	ldr	r3, [r4, #48]	@ 0x30
 8004648:	3301      	adds	r3, #1
 800464a:	6323      	str	r3, [r4, #48]	@ 0x30
 800464c:	8ee3      	ldrh	r3, [r4, #54]	@ 0x36
 800464e:	3b01      	subs	r3, #1
 8004650:	b29b      	uxth	r3, r3
 8004652:	86e3      	strh	r3, [r4, #54]	@ 0x36
 8004654:	8ee3      	ldrh	r3, [r4, #54]	@ 0x36
 8004656:	b29b      	uxth	r3, r3
 8004658:	2b00      	cmp	r3, #0
 800465a:	d0b9      	beq.n	80045d0 <HAL_SPI_Transmit+0xa8>
 800465c:	6823      	ldr	r3, [r4, #0]
 800465e:	689a      	ldr	r2, [r3, #8]
 8004660:	0792      	lsls	r2, r2, #30
 8004662:	d503      	bpl.n	800466c <HAL_SPI_Transmit+0x144>
 8004664:	6b22      	ldr	r2, [r4, #48]	@ 0x30
 8004666:	7812      	ldrb	r2, [r2, #0]
 8004668:	731a      	strb	r2, [r3, #12]
 800466a:	e7ec      	b.n	8004646 <HAL_SPI_Transmit+0x11e>
 800466c:	f7fd fdfe 	bl	800226c <HAL_GetTick>
 8004670:	eba0 000a 	sub.w	r0, r0, sl
 8004674:	42b8      	cmp	r0, r7
 8004676:	d3ed      	bcc.n	8004654 <HAL_SPI_Transmit+0x12c>
 8004678:	1c7b      	adds	r3, r7, #1
 800467a:	d0eb      	beq.n	8004654 <HAL_SPI_Transmit+0x12c>
 800467c:	e7d1      	b.n	8004622 <HAL_SPI_Transmit+0xfa>
 800467e:	2320      	movs	r3, #32
 8004680:	6563      	str	r3, [r4, #84]	@ 0x54
 8004682:	e7ac      	b.n	80045de <HAL_SPI_Transmit+0xb6>
 8004684:	f04f 0902 	mov.w	r9, #2
 8004688:	e7d0      	b.n	800462c <HAL_SPI_Transmit+0x104>
 800468a:	f04f 0902 	mov.w	r9, #2
 800468e:	e7d0      	b.n	8004632 <HAL_SPI_Transmit+0x10a>

08004690 <HAL_SPI_TransmitReceive>:
 8004690:	e92d 43f7 	stmdb	sp!, {r0, r1, r2, r4, r5, r6, r7, r8, r9, lr}
 8004694:	461e      	mov	r6, r3
 8004696:	f890 3050 	ldrb.w	r3, [r0, #80]	@ 0x50
 800469a:	f8dd 8028 	ldr.w	r8, [sp, #40]	@ 0x28
 800469e:	2b01      	cmp	r3, #1
 80046a0:	4604      	mov	r4, r0
 80046a2:	460d      	mov	r5, r1
 80046a4:	4691      	mov	r9, r2
 80046a6:	f000 80e8 	beq.w	800487a <HAL_SPI_TransmitReceive+0x1ea>
 80046aa:	2301      	movs	r3, #1
 80046ac:	f880 3050 	strb.w	r3, [r0, #80]	@ 0x50
 80046b0:	f7fd fddc 	bl	800226c <HAL_GetTick>
 80046b4:	f894 3051 	ldrb.w	r3, [r4, #81]	@ 0x51
 80046b8:	6862      	ldr	r2, [r4, #4]
 80046ba:	2b01      	cmp	r3, #1
 80046bc:	4607      	mov	r7, r0
 80046be:	b2d9      	uxtb	r1, r3
 80046c0:	d00a      	beq.n	80046d8 <HAL_SPI_TransmitReceive+0x48>
 80046c2:	f5b2 7f82 	cmp.w	r2, #260	@ 0x104
 80046c6:	f040 80d6 	bne.w	8004876 <HAL_SPI_TransmitReceive+0x1e6>
 80046ca:	68a3      	ldr	r3, [r4, #8]
 80046cc:	2b00      	cmp	r3, #0
 80046ce:	f040 80d2 	bne.w	8004876 <HAL_SPI_TransmitReceive+0x1e6>
 80046d2:	2904      	cmp	r1, #4
 80046d4:	f040 80cf 	bne.w	8004876 <HAL_SPI_TransmitReceive+0x1e6>
 80046d8:	2d00      	cmp	r5, #0
 80046da:	d03f      	beq.n	800475c <HAL_SPI_TransmitReceive+0xcc>
 80046dc:	f1b9 0f00 	cmp.w	r9, #0
 80046e0:	d03c      	beq.n	800475c <HAL_SPI_TransmitReceive+0xcc>
 80046e2:	2e00      	cmp	r6, #0
 80046e4:	d03a      	beq.n	800475c <HAL_SPI_TransmitReceive+0xcc>
 80046e6:	f894 3051 	ldrb.w	r3, [r4, #81]	@ 0x51
 80046ea:	f8c4 9038 	str.w	r9, [r4, #56]	@ 0x38
 80046ee:	2b04      	cmp	r3, #4
 80046f0:	bf1c      	itt	ne
 80046f2:	2305      	movne	r3, #5
 80046f4:	f884 3051 	strbne.w	r3, [r4, #81]	@ 0x51
 80046f8:	2300      	movs	r3, #0
 80046fa:	6563      	str	r3, [r4, #84]	@ 0x54
 80046fc:	e9c4 3310 	strd	r3, r3, [r4, #64]	@ 0x40
 8004700:	6823      	ldr	r3, [r4, #0]
 8004702:	87e6      	strh	r6, [r4, #62]	@ 0x3e
 8004704:	86e6      	strh	r6, [r4, #54]	@ 0x36
 8004706:	6819      	ldr	r1, [r3, #0]
 8004708:	87a6      	strh	r6, [r4, #60]	@ 0x3c
 800470a:	0649      	lsls	r1, r1, #25
 800470c:	bf58      	it	pl
 800470e:	6819      	ldrpl	r1, [r3, #0]
 8004710:	6325      	str	r5, [r4, #48]	@ 0x30
 8004712:	bf58      	it	pl
 8004714:	f041 0140 	orrpl.w	r1, r1, #64	@ 0x40
 8004718:	86a6      	strh	r6, [r4, #52]	@ 0x34
 800471a:	bf58      	it	pl
 800471c:	6019      	strpl	r1, [r3, #0]
 800471e:	68e1      	ldr	r1, [r4, #12]
 8004720:	f5b1 6f00 	cmp.w	r1, #2048	@ 0x800
 8004724:	d151      	bne.n	80047ca <HAL_SPI_TransmitReceive+0x13a>
 8004726:	b10a      	cbz	r2, 800472c <HAL_SPI_TransmitReceive+0x9c>
 8004728:	2e01      	cmp	r6, #1
 800472a:	d107      	bne.n	800473c <HAL_SPI_TransmitReceive+0xac>
 800472c:	f835 2b02 	ldrh.w	r2, [r5], #2
 8004730:	60da      	str	r2, [r3, #12]
 8004732:	8ee3      	ldrh	r3, [r4, #54]	@ 0x36
 8004734:	6325      	str	r5, [r4, #48]	@ 0x30
 8004736:	3b01      	subs	r3, #1
 8004738:	b29b      	uxth	r3, r3
 800473a:	86e3      	strh	r3, [r4, #54]	@ 0x36
 800473c:	2501      	movs	r5, #1
 800473e:	8ee3      	ldrh	r3, [r4, #54]	@ 0x36
 8004740:	b29b      	uxth	r3, r3
 8004742:	b96b      	cbnz	r3, 8004760 <HAL_SPI_TransmitReceive+0xd0>
 8004744:	8fe3      	ldrh	r3, [r4, #62]	@ 0x3e
 8004746:	b29b      	uxth	r3, r3
 8004748:	b953      	cbnz	r3, 8004760 <HAL_SPI_TransmitReceive+0xd0>
 800474a:	463a      	mov	r2, r7
 800474c:	4641      	mov	r1, r8
 800474e:	4620      	mov	r0, r4
 8004750:	f7ff fe24 	bl	800439c <SPI_EndRxTxTransaction>
 8004754:	2800      	cmp	r0, #0
 8004756:	d07d      	beq.n	8004854 <HAL_SPI_TransmitReceive+0x1c4>
 8004758:	2320      	movs	r3, #32
 800475a:	6563      	str	r3, [r4, #84]	@ 0x54
 800475c:	2001      	movs	r0, #1
 800475e:	e02e      	b.n	80047be <HAL_SPI_TransmitReceive+0x12e>
 8004760:	6821      	ldr	r1, [r4, #0]
 8004762:	688b      	ldr	r3, [r1, #8]
 8004764:	079a      	lsls	r2, r3, #30
 8004766:	d50d      	bpl.n	8004784 <HAL_SPI_TransmitReceive+0xf4>
 8004768:	8ee3      	ldrh	r3, [r4, #54]	@ 0x36
 800476a:	b29b      	uxth	r3, r3
 800476c:	b153      	cbz	r3, 8004784 <HAL_SPI_TransmitReceive+0xf4>
 800476e:	b145      	cbz	r5, 8004782 <HAL_SPI_TransmitReceive+0xf2>
 8004770:	6b23      	ldr	r3, [r4, #48]	@ 0x30
 8004772:	f833 2b02 	ldrh.w	r2, [r3], #2
 8004776:	60ca      	str	r2, [r1, #12]
 8004778:	6323      	str	r3, [r4, #48]	@ 0x30
 800477a:	8ee3      	ldrh	r3, [r4, #54]	@ 0x36
 800477c:	3b01      	subs	r3, #1
 800477e:	b29b      	uxth	r3, r3
 8004780:	86e3      	strh	r3, [r4, #54]	@ 0x36
 8004782:	2500      	movs	r5, #0
 8004784:	688a      	ldr	r2, [r1, #8]
 8004786:	f012 0201 	ands.w	r2, r2, #1
 800478a:	d00c      	beq.n	80047a6 <HAL_SPI_TransmitReceive+0x116>
 800478c:	8fe3      	ldrh	r3, [r4, #62]	@ 0x3e
 800478e:	b29b      	uxth	r3, r3
 8004790:	b14b      	cbz	r3, 80047a6 <HAL_SPI_TransmitReceive+0x116>
 8004792:	6ba3      	ldr	r3, [r4, #56]	@ 0x38
 8004794:	68c9      	ldr	r1, [r1, #12]
 8004796:	f823 1b02 	strh.w	r1, [r3], #2
 800479a:	63a3      	str	r3, [r4, #56]	@ 0x38
 800479c:	8fe3      	ldrh	r3, [r4, #62]	@ 0x3e
 800479e:	3b01      	subs	r3, #1
 80047a0:	b29b      	uxth	r3, r3
 80047a2:	87e3      	strh	r3, [r4, #62]	@ 0x3e
 80047a4:	4615      	mov	r5, r2
 80047a6:	f7fd fd61 	bl	800226c <HAL_GetTick>
 80047aa:	1bc0      	subs	r0, r0, r7
 80047ac:	4540      	cmp	r0, r8
 80047ae:	d3c6      	bcc.n	800473e <HAL_SPI_TransmitReceive+0xae>
 80047b0:	f1b8 3fff 	cmp.w	r8, #4294967295	@ 0xffffffff
 80047b4:	d0c3      	beq.n	800473e <HAL_SPI_TransmitReceive+0xae>
 80047b6:	2301      	movs	r3, #1
 80047b8:	f884 3051 	strb.w	r3, [r4, #81]	@ 0x51
 80047bc:	2003      	movs	r0, #3
 80047be:	2300      	movs	r3, #0
 80047c0:	f884 3050 	strb.w	r3, [r4, #80]	@ 0x50
 80047c4:	b003      	add	sp, #12
 80047c6:	e8bd 83f0 	ldmia.w	sp!, {r4, r5, r6, r7, r8, r9, pc}
 80047ca:	b10a      	cbz	r2, 80047d0 <HAL_SPI_TransmitReceive+0x140>
 80047cc:	2e01      	cmp	r6, #1
 80047ce:	d108      	bne.n	80047e2 <HAL_SPI_TransmitReceive+0x152>
 80047d0:	782a      	ldrb	r2, [r5, #0]
 80047d2:	731a      	strb	r2, [r3, #12]
 80047d4:	6b23      	ldr	r3, [r4, #48]	@ 0x30
 80047d6:	3301      	adds	r3, #1
 80047d8:	6323      	str	r3, [r4, #48]	@ 0x30
 80047da:	8ee3      	ldrh	r3, [r4, #54]	@ 0x36
 80047dc:	3b01      	subs	r3, #1
 80047de:	b29b      	uxth	r3, r3
 80047e0:	86e3      	strh	r3, [r4, #54]	@ 0x36
 80047e2:	2501      	movs	r5, #1
 80047e4:	e02d      	b.n	8004842 <HAL_SPI_TransmitReceive+0x1b2>
 80047e6:	6822      	ldr	r2, [r4, #0]
 80047e8:	6893      	ldr	r3, [r2, #8]
 80047ea:	079b      	lsls	r3, r3, #30
 80047ec:	d50e      	bpl.n	800480c <HAL_SPI_TransmitReceive+0x17c>
 80047ee:	8ee3      	ldrh	r3, [r4, #54]	@ 0x36
 80047f0:	b29b      	uxth	r3, r3
 80047f2:	b15b      	cbz	r3, 800480c <HAL_SPI_TransmitReceive+0x17c>
 80047f4:	b14d      	cbz	r5, 800480a <HAL_SPI_TransmitReceive+0x17a>
 80047f6:	6b23      	ldr	r3, [r4, #48]	@ 0x30
 80047f8:	781b      	ldrb	r3, [r3, #0]
 80047fa:	7313      	strb	r3, [r2, #12]
 80047fc:	6b23      	ldr	r3, [r4, #48]	@ 0x30
 80047fe:	3301      	adds	r3, #1
 8004800:	6323      	str	r3, [r4, #48]	@ 0x30
 8004802:	8ee3      	ldrh	r3, [r4, #54]	@ 0x36
 8004804:	3b01      	subs	r3, #1
 8004806:	b29b      	uxth	r3, r3
 8004808:	86e3      	strh	r3, [r4, #54]	@ 0x36
 800480a:	2500      	movs	r5, #0
 800480c:	6822      	ldr	r2, [r4, #0]
 800480e:	6891      	ldr	r1, [r2, #8]
 8004810:	f011 0101 	ands.w	r1, r1, #1
 8004814:	d00d      	beq.n	8004832 <HAL_SPI_TransmitReceive+0x1a2>
 8004816:	8fe3      	ldrh	r3, [r4, #62]	@ 0x3e
 8004818:	b29b      	uxth	r3, r3
 800481a:	b153      	cbz	r3, 8004832 <HAL_SPI_TransmitReceive+0x1a2>
 800481c:	6ba3      	ldr	r3, [r4, #56]	@ 0x38
 800481e:	68d2      	ldr	r2, [r2, #12]
 8004820:	701a      	strb	r2, [r3, #0]
 8004822:	6ba3      	ldr	r3, [r4, #56]	@ 0x38
 8004824:	3301      	adds	r3, #1
 8004826:	63a3      	str	r3, [r4, #56]	@ 0x38
 8004828:	8fe3      	ldrh	r3, [r4, #62]	@ 0x3e
 800482a:	3b01      	subs	r3, #1
 800482c:	b29b      	uxth	r3, r3
 800482e:	87e3      	strh	r3, [r4, #62]	@ 0x3e
 8004830:	460d      	mov	r5, r1
 8004832:	f7fd fd1b 	bl	800226c <HAL_GetTick>
 8004836:	1bc0      	subs	r0, r0, r7
 8004838:	4540      	cmp	r0, r8
 800483a:	d302      	bcc.n	8004842 <HAL_SPI_TransmitReceive+0x1b2>
 800483c:	f1b8 3fff 	cmp.w	r8, #4294967295	@ 0xffffffff
 8004840:	d1b9      	bne.n	80047b6 <HAL_SPI_TransmitReceive+0x126>
 8004842:	8ee3      	ldrh	r3, [r4, #54]	@ 0x36
 8004844:	b29b      	uxth	r3, r3
 8004846:	2b00      	cmp	r3, #0
 8004848:	d1cd      	bne.n	80047e6 <HAL_SPI_TransmitReceive+0x156>
 800484a:	8fe3      	ldrh	r3, [r4, #62]	@ 0x3e
 800484c:	b29b      	uxth	r3, r3
 800484e:	2b00      	cmp	r3, #0
 8004850:	d1c9      	bne.n	80047e6 <HAL_SPI_TransmitReceive+0x156>
 8004852:	e77a      	b.n	800474a <HAL_SPI_TransmitReceive+0xba>
 8004854:	68a3      	ldr	r3, [r4, #8]
 8004856:	b933      	cbnz	r3, 8004866 <HAL_SPI_TransmitReceive+0x1d6>
 8004858:	6823      	ldr	r3, [r4, #0]
 800485a:	9001      	str	r0, [sp, #4]
 800485c:	68da      	ldr	r2, [r3, #12]
 800485e:	9201      	str	r2, [sp, #4]
 8004860:	689b      	ldr	r3, [r3, #8]
 8004862:	9301      	str	r3, [sp, #4]
 8004864:	9b01      	ldr	r3, [sp, #4]
 8004866:	6d63      	ldr	r3, [r4, #84]	@ 0x54
 8004868:	2b00      	cmp	r3, #0
 800486a:	f47f af77 	bne.w	800475c <HAL_SPI_TransmitReceive+0xcc>
 800486e:	2301      	movs	r3, #1
 8004870:	f884 3051 	strb.w	r3, [r4, #81]	@ 0x51
 8004874:	e7a3      	b.n	80047be <HAL_SPI_TransmitReceive+0x12e>
 8004876:	2002      	movs	r0, #2
 8004878:	e7a1      	b.n	80047be <HAL_SPI_TransmitReceive+0x12e>
 800487a:	2002      	movs	r0, #2
 800487c:	e7a2      	b.n	80047c4 <HAL_SPI_TransmitReceive+0x134>

0800487e <HAL_SPI_Receive>:
 800487e:	e92d 47f3 	stmdb	sp!, {r0, r1, r4, r5, r6, r7, r8, r9, sl, lr}
 8004882:	461e      	mov	r6, r3
 8004884:	f890 3051 	ldrb.w	r3, [r0, #81]	@ 0x51
 8004888:	2b01      	cmp	r3, #1
 800488a:	4604      	mov	r4, r0
 800488c:	468a      	mov	sl, r1
 800488e:	4690      	mov	r8, r2
 8004890:	b2dd      	uxtb	r5, r3
 8004892:	f040 8095 	bne.w	80049c0 <HAL_SPI_Receive+0x142>
 8004896:	6843      	ldr	r3, [r0, #4]
 8004898:	f5b3 7f82 	cmp.w	r3, #260	@ 0x104
 800489c:	d10e      	bne.n	80048bc <HAL_SPI_Receive+0x3e>
 800489e:	6883      	ldr	r3, [r0, #8]
 80048a0:	b963      	cbnz	r3, 80048bc <HAL_SPI_Receive+0x3e>
 80048a2:	2304      	movs	r3, #4
 80048a4:	f880 3051 	strb.w	r3, [r0, #81]	@ 0x51
 80048a8:	4613      	mov	r3, r2
 80048aa:	9600      	str	r6, [sp, #0]
 80048ac:	460a      	mov	r2, r1
 80048ae:	f7ff feef 	bl	8004690 <HAL_SPI_TransmitReceive>
 80048b2:	4605      	mov	r5, r0
 80048b4:	4628      	mov	r0, r5
 80048b6:	b002      	add	sp, #8
 80048b8:	e8bd 87f0 	ldmia.w	sp!, {r4, r5, r6, r7, r8, r9, sl, pc}
 80048bc:	f894 3050 	ldrb.w	r3, [r4, #80]	@ 0x50
 80048c0:	2b01      	cmp	r3, #1
 80048c2:	d07f      	beq.n	80049c4 <HAL_SPI_Receive+0x146>
 80048c4:	2301      	movs	r3, #1
 80048c6:	f884 3050 	strb.w	r3, [r4, #80]	@ 0x50
 80048ca:	f7fd fccf 	bl	800226c <HAL_GetTick>
 80048ce:	4681      	mov	r9, r0
 80048d0:	f1ba 0f00 	cmp.w	sl, #0
 80048d4:	d064      	beq.n	80049a0 <HAL_SPI_Receive+0x122>
 80048d6:	f1b8 0f00 	cmp.w	r8, #0
 80048da:	d061      	beq.n	80049a0 <HAL_SPI_Receive+0x122>
 80048dc:	68a2      	ldr	r2, [r4, #8]
 80048de:	f8c4 a038 	str.w	sl, [r4, #56]	@ 0x38
 80048e2:	2700      	movs	r7, #0
 80048e4:	2304      	movs	r3, #4
 80048e6:	f5b2 4f00 	cmp.w	r2, #32768	@ 0x8000
 80048ea:	f884 3051 	strb.w	r3, [r4, #81]	@ 0x51
 80048ee:	e9c4 7710 	strd	r7, r7, [r4, #64]	@ 0x40
 80048f2:	6567      	str	r7, [r4, #84]	@ 0x54
 80048f4:	6823      	ldr	r3, [r4, #0]
 80048f6:	f8a4 803e 	strh.w	r8, [r4, #62]	@ 0x3e
 80048fa:	f8a4 803c 	strh.w	r8, [r4, #60]	@ 0x3c
 80048fe:	6327      	str	r7, [r4, #48]	@ 0x30
 8004900:	86a7      	strh	r7, [r4, #52]	@ 0x34
 8004902:	86e7      	strh	r7, [r4, #54]	@ 0x36
 8004904:	d107      	bne.n	8004916 <HAL_SPI_Receive+0x98>
 8004906:	681a      	ldr	r2, [r3, #0]
 8004908:	f022 0240 	bic.w	r2, r2, #64	@ 0x40
 800490c:	601a      	str	r2, [r3, #0]
 800490e:	681a      	ldr	r2, [r3, #0]
 8004910:	f422 4280 	bic.w	r2, r2, #16384	@ 0x4000
 8004914:	601a      	str	r2, [r3, #0]
 8004916:	681a      	ldr	r2, [r3, #0]
 8004918:	0657      	lsls	r7, r2, #25
 800491a:	bf5e      	ittt	pl
 800491c:	681a      	ldrpl	r2, [r3, #0]
 800491e:	f042 0240 	orrpl.w	r2, r2, #64	@ 0x40
 8004922:	601a      	strpl	r2, [r3, #0]
 8004924:	68e3      	ldr	r3, [r4, #12]
 8004926:	b1f3      	cbz	r3, 8004966 <HAL_SPI_Receive+0xe8>
 8004928:	8fe3      	ldrh	r3, [r4, #62]	@ 0x3e
 800492a:	b29b      	uxth	r3, r3
 800492c:	b1fb      	cbz	r3, 800496e <HAL_SPI_Receive+0xf0>
 800492e:	6823      	ldr	r3, [r4, #0]
 8004930:	689a      	ldr	r2, [r3, #8]
 8004932:	07d2      	lsls	r2, r2, #31
 8004934:	d538      	bpl.n	80049a8 <HAL_SPI_Receive+0x12a>
 8004936:	68da      	ldr	r2, [r3, #12]
 8004938:	6ba3      	ldr	r3, [r4, #56]	@ 0x38
 800493a:	f823 2b02 	strh.w	r2, [r3], #2
 800493e:	63a3      	str	r3, [r4, #56]	@ 0x38
 8004940:	8fe3      	ldrh	r3, [r4, #62]	@ 0x3e
 8004942:	3b01      	subs	r3, #1
 8004944:	b29b      	uxth	r3, r3
 8004946:	87e3      	strh	r3, [r4, #62]	@ 0x3e
 8004948:	e7ee      	b.n	8004928 <HAL_SPI_Receive+0xaa>
 800494a:	6823      	ldr	r3, [r4, #0]
 800494c:	689a      	ldr	r2, [r3, #8]
 800494e:	07d0      	lsls	r0, r2, #31
 8004950:	d51a      	bpl.n	8004988 <HAL_SPI_Receive+0x10a>
 8004952:	6ba2      	ldr	r2, [r4, #56]	@ 0x38
 8004954:	7b1b      	ldrb	r3, [r3, #12]
 8004956:	7013      	strb	r3, [r2, #0]
 8004958:	6ba3      	ldr	r3, [r4, #56]	@ 0x38
 800495a:	3301      	adds	r3, #1
 800495c:	63a3      	str	r3, [r4, #56]	@ 0x38
 800495e:	8fe3      	ldrh	r3, [r4, #62]	@ 0x3e
 8004960:	3b01      	subs	r3, #1
 8004962:	b29b      	uxth	r3, r3
 8004964:	87e3      	strh	r3, [r4, #62]	@ 0x3e
 8004966:	8fe3      	ldrh	r3, [r4, #62]	@ 0x3e
 8004968:	b29b      	uxth	r3, r3
 800496a:	2b00      	cmp	r3, #0
 800496c:	d1ed      	bne.n	800494a <HAL_SPI_Receive+0xcc>
 800496e:	464a      	mov	r2, r9
 8004970:	4631      	mov	r1, r6
 8004972:	4620      	mov	r0, r4
 8004974:	f7ff fd4e 	bl	8004414 <SPI_EndRxTransaction>
 8004978:	b9f8      	cbnz	r0, 80049ba <HAL_SPI_Receive+0x13c>
 800497a:	6d63      	ldr	r3, [r4, #84]	@ 0x54
 800497c:	b983      	cbnz	r3, 80049a0 <HAL_SPI_Receive+0x122>
 800497e:	2201      	movs	r2, #1
 8004980:	f884 2051 	strb.w	r2, [r4, #81]	@ 0x51
 8004984:	461d      	mov	r5, r3
 8004986:	e00b      	b.n	80049a0 <HAL_SPI_Receive+0x122>
 8004988:	f7fd fc70 	bl	800226c <HAL_GetTick>
 800498c:	eba0 0009 	sub.w	r0, r0, r9
 8004990:	42b0      	cmp	r0, r6
 8004992:	d3e8      	bcc.n	8004966 <HAL_SPI_Receive+0xe8>
 8004994:	1c71      	adds	r1, r6, #1
 8004996:	d0e6      	beq.n	8004966 <HAL_SPI_Receive+0xe8>
 8004998:	2301      	movs	r3, #1
 800499a:	f884 3051 	strb.w	r3, [r4, #81]	@ 0x51
 800499e:	2503      	movs	r5, #3
 80049a0:	2300      	movs	r3, #0
 80049a2:	f884 3050 	strb.w	r3, [r4, #80]	@ 0x50
 80049a6:	e785      	b.n	80048b4 <HAL_SPI_Receive+0x36>
 80049a8:	f7fd fc60 	bl	800226c <HAL_GetTick>
 80049ac:	eba0 0009 	sub.w	r0, r0, r9
 80049b0:	42b0      	cmp	r0, r6
 80049b2:	d3b9      	bcc.n	8004928 <HAL_SPI_Receive+0xaa>
 80049b4:	1c73      	adds	r3, r6, #1
 80049b6:	d0b7      	beq.n	8004928 <HAL_SPI_Receive+0xaa>
 80049b8:	e7ee      	b.n	8004998 <HAL_SPI_Receive+0x11a>
 80049ba:	2320      	movs	r3, #32
 80049bc:	6563      	str	r3, [r4, #84]	@ 0x54
 80049be:	e7dc      	b.n	800497a <HAL_SPI_Receive+0xfc>
 80049c0:	2502      	movs	r5, #2
 80049c2:	e7ed      	b.n	80049a0 <HAL_SPI_Receive+0x122>
 80049c4:	2502      	movs	r5, #2
 80049c6:	e775      	b.n	80048b4 <HAL_SPI_Receive+0x36>

080049c8 <HAL_SPI_Transmit_DMA>:
 80049c8:	b538      	push	{r3, r4, r5, lr}
 80049ca:	f890 3050 	ldrb.w	r3, [r0, #80]	@ 0x50
 80049ce:	2b01      	cmp	r3, #1
 80049d0:	4604      	mov	r4, r0
 80049d2:	d051      	beq.n	8004a78 <HAL_SPI_Transmit_DMA+0xb0>
 80049d4:	2301      	movs	r3, #1
 80049d6:	f880 3050 	strb.w	r3, [r0, #80]	@ 0x50
 80049da:	f890 3051 	ldrb.w	r3, [r0, #81]	@ 0x51
 80049de:	2b01      	cmp	r3, #1
 80049e0:	b2dd      	uxtb	r5, r3
 80049e2:	d147      	bne.n	8004a74 <HAL_SPI_Transmit_DMA+0xac>
 80049e4:	2900      	cmp	r1, #0
 80049e6:	d02e      	beq.n	8004a46 <HAL_SPI_Transmit_DMA+0x7e>
 80049e8:	2a00      	cmp	r2, #0
 80049ea:	d02c      	beq.n	8004a46 <HAL_SPI_Transmit_DMA+0x7e>
 80049ec:	2303      	movs	r3, #3
 80049ee:	f880 3051 	strb.w	r3, [r0, #81]	@ 0x51
 80049f2:	2300      	movs	r3, #0
 80049f4:	6543      	str	r3, [r0, #84]	@ 0x54
 80049f6:	e9c0 3310 	strd	r3, r3, [r0, #64]	@ 0x40
 80049fa:	86c2      	strh	r2, [r0, #54]	@ 0x36
 80049fc:	6383      	str	r3, [r0, #56]	@ 0x38
 80049fe:	8783      	strh	r3, [r0, #60]	@ 0x3c
 8004a00:	87c3      	strh	r3, [r0, #62]	@ 0x3e
 8004a02:	6883      	ldr	r3, [r0, #8]
 8004a04:	8682      	strh	r2, [r0, #52]	@ 0x34
 8004a06:	f5b3 4f00 	cmp.w	r3, #32768	@ 0x8000
 8004a0a:	6802      	ldr	r2, [r0, #0]
 8004a0c:	6301      	str	r1, [r0, #48]	@ 0x30
 8004a0e:	d107      	bne.n	8004a20 <HAL_SPI_Transmit_DMA+0x58>
 8004a10:	6813      	ldr	r3, [r2, #0]
 8004a12:	f023 0340 	bic.w	r3, r3, #64	@ 0x40
 8004a16:	6013      	str	r3, [r2, #0]
 8004a18:	6813      	ldr	r3, [r2, #0]
 8004a1a:	f443 4380 	orr.w	r3, r3, #16384	@ 0x4000
 8004a1e:	6013      	str	r3, [r2, #0]
 8004a20:	6ca0      	ldr	r0, [r4, #72]	@ 0x48
 8004a22:	4b16      	ldr	r3, [pc, #88]	@ (8004a7c <HAL_SPI_Transmit_DMA+0xb4>)
 8004a24:	6403      	str	r3, [r0, #64]	@ 0x40
 8004a26:	4b16      	ldr	r3, [pc, #88]	@ (8004a80 <HAL_SPI_Transmit_DMA+0xb8>)
 8004a28:	63c3      	str	r3, [r0, #60]	@ 0x3c
 8004a2a:	4b16      	ldr	r3, [pc, #88]	@ (8004a84 <HAL_SPI_Transmit_DMA+0xbc>)
 8004a2c:	64c3      	str	r3, [r0, #76]	@ 0x4c
 8004a2e:	2300      	movs	r3, #0
 8004a30:	6503      	str	r3, [r0, #80]	@ 0x50
 8004a32:	8ee3      	ldrh	r3, [r4, #54]	@ 0x36
 8004a34:	320c      	adds	r2, #12
 8004a36:	b29b      	uxth	r3, r3
 8004a38:	f7fe f842 	bl	8002ac0 <HAL_DMA_Start_IT>
 8004a3c:	b140      	cbz	r0, 8004a50 <HAL_SPI_Transmit_DMA+0x88>
 8004a3e:	6d63      	ldr	r3, [r4, #84]	@ 0x54
 8004a40:	f043 0310 	orr.w	r3, r3, #16
 8004a44:	6563      	str	r3, [r4, #84]	@ 0x54
 8004a46:	2300      	movs	r3, #0
 8004a48:	f884 3050 	strb.w	r3, [r4, #80]	@ 0x50
 8004a4c:	4628      	mov	r0, r5
 8004a4e:	bd38      	pop	{r3, r4, r5, pc}
 8004a50:	6823      	ldr	r3, [r4, #0]
 8004a52:	681a      	ldr	r2, [r3, #0]
 8004a54:	0652      	lsls	r2, r2, #25
 8004a56:	bf5e      	ittt	pl
 8004a58:	681a      	ldrpl	r2, [r3, #0]
 8004a5a:	f042 0240 	orrpl.w	r2, r2, #64	@ 0x40
 8004a5e:	601a      	strpl	r2, [r3, #0]
 8004a60:	685a      	ldr	r2, [r3, #4]
 8004a62:	f042 0220 	orr.w	r2, r2, #32
 8004a66:	605a      	str	r2, [r3, #4]
 8004a68:	685a      	ldr	r2, [r3, #4]
 8004a6a:	f042 0202 	orr.w	r2, r2, #2
 8004a6e:	605a      	str	r2, [r3, #4]
 8004a70:	2500      	movs	r5, #0
 8004a72:	e7e8      	b.n	8004a46 <HAL_SPI_Transmit_DMA+0x7e>
 8004a74:	2502      	movs	r5, #2
 8004a76:	e7e6      	b.n	8004a46 <HAL_SPI_Transmit_DMA+0x7e>
 8004a78:	2502      	movs	r5, #2
 8004a7a:	e7e7      	b.n	8004a4c <HAL_SPI_Transmit_DMA+0x84>
 8004a7c:	08004a8b 	.word	0x08004a8b
 8004a80:	08004ab9 	.word	0x08004ab9
 8004a84:	08004a97 	.word	0x08004a97

08004a88 <HAL_SPI_TxHalfCpltCallback>:
 8004a88:	4770      	bx	lr

08004a8a <SPI_DMAHalfTransmitCplt>:
 8004a8a:	b508      	push	{r3, lr}
 8004a8c:	6b80      	ldr	r0, [r0, #56]	@ 0x38
 8004a8e:	f7ff fffb 	bl	8004a88 <HAL_SPI_TxHalfCpltCallback>
 8004a92:	bd08      	pop	{r3, pc}

08004a94 <HAL_SPI_ErrorCallback>:
 8004a94:	4770      	bx	lr

08004a96 <SPI_DMAError>:
 8004a96:	6b80      	ldr	r0, [r0, #56]	@ 0x38
 8004a98:	6802      	ldr	r2, [r0, #0]
 8004a9a:	b508      	push	{r3, lr}
 8004a9c:	6853      	ldr	r3, [r2, #4]
 8004a9e:	f023 0303 	bic.w	r3, r3, #3
 8004aa2:	6053      	str	r3, [r2, #4]
 8004aa4:	6d43      	ldr	r3, [r0, #84]	@ 0x54
 8004aa6:	f043 0310 	orr.w	r3, r3, #16
 8004aaa:	6543      	str	r3, [r0, #84]	@ 0x54
 8004aac:	2301      	movs	r3, #1
 8004aae:	f880 3051 	strb.w	r3, [r0, #81]	@ 0x51
 8004ab2:	f7ff ffef 	bl	8004a94 <HAL_SPI_ErrorCallback>
 8004ab6:	bd08      	pop	{r3, pc}

08004ab8 <SPI_DMATransmitCplt>:
 8004ab8:	b537      	push	{r0, r1, r2, r4, r5, lr}
 8004aba:	4605      	mov	r5, r0
 8004abc:	6b84      	ldr	r4, [r0, #56]	@ 0x38
 8004abe:	f7fd fbd5 	bl	800226c <HAL_GetTick>
 8004ac2:	682b      	ldr	r3, [r5, #0]
 8004ac4:	681b      	ldr	r3, [r3, #0]
 8004ac6:	05db      	lsls	r3, r3, #23
 8004ac8:	4602      	mov	r2, r0
 8004aca:	d426      	bmi.n	8004b1a <SPI_DMATransmitCplt+0x62>
 8004acc:	6823      	ldr	r3, [r4, #0]
 8004ace:	6859      	ldr	r1, [r3, #4]
 8004ad0:	f021 0120 	bic.w	r1, r1, #32
 8004ad4:	6059      	str	r1, [r3, #4]
 8004ad6:	6859      	ldr	r1, [r3, #4]
 8004ad8:	f021 0102 	bic.w	r1, r1, #2
 8004adc:	6059      	str	r1, [r3, #4]
 8004ade:	4620      	mov	r0, r4
 8004ae0:	2164      	movs	r1, #100	@ 0x64
 8004ae2:	f7ff fc5b 	bl	800439c <SPI_EndRxTxTransaction>
 8004ae6:	b118      	cbz	r0, 8004af0 <SPI_DMATransmitCplt+0x38>
 8004ae8:	6d63      	ldr	r3, [r4, #84]	@ 0x54
 8004aea:	f043 0320 	orr.w	r3, r3, #32
 8004aee:	6563      	str	r3, [r4, #84]	@ 0x54
 8004af0:	68a3      	ldr	r3, [r4, #8]
 8004af2:	b933      	cbnz	r3, 8004b02 <SPI_DMATransmitCplt+0x4a>
 8004af4:	9301      	str	r3, [sp, #4]
 8004af6:	6823      	ldr	r3, [r4, #0]
 8004af8:	68da      	ldr	r2, [r3, #12]
 8004afa:	9201      	str	r2, [sp, #4]
 8004afc:	689b      	ldr	r3, [r3, #8]
 8004afe:	9301      	str	r3, [sp, #4]
 8004b00:	9b01      	ldr	r3, [sp, #4]
 8004b02:	2300      	movs	r3, #0
 8004b04:	86e3      	strh	r3, [r4, #54]	@ 0x36
 8004b06:	2301      	movs	r3, #1
 8004b08:	f884 3051 	strb.w	r3, [r4, #81]	@ 0x51
 8004b0c:	6d63      	ldr	r3, [r4, #84]	@ 0x54
 8004b0e:	b123      	cbz	r3, 8004b1a <SPI_DMATransmitCplt+0x62>
 8004b10:	4620      	mov	r0, r4
 8004b12:	f7ff ffbf 	bl	8004a94 <HAL_SPI_ErrorCallback>
 8004b16:	b003      	add	sp, #12
 8004b18:	bd30      	pop	{r4, r5, pc}
 8004b1a:	4620      	mov	r0, r4
 8004b1c:	f7fd fac8 	bl	80020b0 <HAL_SPI_TxCpltCallback>
 8004b20:	e7f9      	b.n	8004b16 <SPI_DMATransmitCplt+0x5e>
	...

08004b24 <HAL_TIM_Base_Start_IT>:
 8004b24:	f890 303d 	ldrb.w	r3, [r0, #61]	@ 0x3d
 8004b28:	2b01      	cmp	r3, #1
 8004b2a:	d130      	bne.n	8004b8e <HAL_TIM_Base_Start_IT+0x6a>
 8004b2c:	2302      	movs	r3, #2
 8004b2e:	f880 303d 	strb.w	r3, [r0, #61]	@ 0x3d
 8004b32:	6803      	ldr	r3, [r0, #0]
 8004b34:	68da      	ldr	r2, [r3, #12]
 8004b36:	f042 0201 	orr.w	r2, r2, #1
 8004b3a:	60da      	str	r2, [r3, #12]
 8004b3c:	4a15      	ldr	r2, [pc, #84]	@ (8004b94 <HAL_TIM_Base_Start_IT+0x70>)
 8004b3e:	4293      	cmp	r3, r2
 8004b40:	d01a      	beq.n	8004b78 <HAL_TIM_Base_Start_IT+0x54>
 8004b42:	f1b3 4f80 	cmp.w	r3, #1073741824	@ 0x40000000
 8004b46:	d017      	beq.n	8004b78 <HAL_TIM_Base_Start_IT+0x54>
 8004b48:	f5a2 427c 	sub.w	r2, r2, #64512	@ 0xfc00
 8004b4c:	4293      	cmp	r3, r2
 8004b4e:	d013      	beq.n	8004b78 <HAL_TIM_Base_Start_IT+0x54>
 8004b50:	f502 6280 	add.w	r2, r2, #1024	@ 0x400
 8004b54:	4293      	cmp	r3, r2
 8004b56:	d00f      	beq.n	8004b78 <HAL_TIM_Base_Start_IT+0x54>
 8004b58:	f502 6280 	add.w	r2, r2, #1024	@ 0x400
 8004b5c:	4293      	cmp	r3, r2
 8004b5e:	d00b      	beq.n	8004b78 <HAL_TIM_Base_Start_IT+0x54>
 8004b60:	f502 4278 	add.w	r2, r2, #63488	@ 0xf800
 8004b64:	4293      	cmp	r3, r2
 8004b66:	d007      	beq.n	8004b78 <HAL_TIM_Base_Start_IT+0x54>
 8004b68:	f502 5270 	add.w	r2, r2, #15360	@ 0x3c00
 8004b6c:	4293      	cmp	r3, r2
 8004b6e:	d003      	beq.n	8004b78 <HAL_TIM_Base_Start_IT+0x54>
 8004b70:	f5a2 3294 	sub.w	r2, r2, #75776	@ 0x12800
 8004b74:	4293      	cmp	r3, r2
 8004b76:	d104      	bne.n	8004b82 <HAL_TIM_Base_Start_IT+0x5e>
 8004b78:	689a      	ldr	r2, [r3, #8]
 8004b7a:	f002 0207 	and.w	r2, r2, #7
 8004b7e:	2a06      	cmp	r2, #6
 8004b80:	d003      	beq.n	8004b8a <HAL_TIM_Base_Start_IT+0x66>
 8004b82:	681a      	ldr	r2, [r3, #0]
 8004b84:	f042 0201 	orr.w	r2, r2, #1
 8004b88:	601a      	str	r2, [r3, #0]
 8004b8a:	2000      	movs	r0, #0
 8004b8c:	4770      	bx	lr
 8004b8e:	2001      	movs	r0, #1
 8004b90:	4770      	bx	lr
 8004b92:	bf00      	nop
 8004b94:	40010000 	.word	0x40010000

08004b98 <HAL_TIM_PeriodElapsedCallback>:
 8004b98:	4770      	bx	lr

08004b9a <HAL_TIM_OC_DelayElapsedCallback>:
 8004b9a:	4770      	bx	lr

08004b9c <HAL_TIM_IC_CaptureCallback>:
 8004b9c:	4770      	bx	lr

08004b9e <HAL_TIM_PWM_PulseFinishedCallback>:
 8004b9e:	4770      	bx	lr

08004ba0 <HAL_TIM_TriggerCallback>:
 8004ba0:	4770      	bx	lr

08004ba2 <HAL_TIM_IRQHandler>:
 8004ba2:	6803      	ldr	r3, [r0, #0]
 8004ba4:	b570      	push	{r4, r5, r6, lr}
 8004ba6:	68dd      	ldr	r5, [r3, #12]
 8004ba8:	691e      	ldr	r6, [r3, #16]
 8004baa:	07b1      	lsls	r1, r6, #30
 8004bac:	4604      	mov	r4, r0
 8004bae:	d50d      	bpl.n	8004bcc <HAL_TIM_IRQHandler+0x2a>
 8004bb0:	07aa      	lsls	r2, r5, #30
 8004bb2:	d50b      	bpl.n	8004bcc <HAL_TIM_IRQHandler+0x2a>
 8004bb4:	f06f 0202 	mvn.w	r2, #2
 8004bb8:	611a      	str	r2, [r3, #16]
 8004bba:	2201      	movs	r2, #1
 8004bbc:	7702      	strb	r2, [r0, #28]
 8004bbe:	699b      	ldr	r3, [r3, #24]
 8004bc0:	079b      	lsls	r3, r3, #30
 8004bc2:	d069      	beq.n	8004c98 <HAL_TIM_IRQHandler+0xf6>
 8004bc4:	f7ff ffea 	bl	8004b9c <HAL_TIM_IC_CaptureCallback>
 8004bc8:	2300      	movs	r3, #0
 8004bca:	7723      	strb	r3, [r4, #28]
 8004bcc:	0771      	lsls	r1, r6, #29
 8004bce:	d510      	bpl.n	8004bf2 <HAL_TIM_IRQHandler+0x50>
 8004bd0:	076a      	lsls	r2, r5, #29
 8004bd2:	d50e      	bpl.n	8004bf2 <HAL_TIM_IRQHandler+0x50>
 8004bd4:	6823      	ldr	r3, [r4, #0]
 8004bd6:	f06f 0204 	mvn.w	r2, #4
 8004bda:	611a      	str	r2, [r3, #16]
 8004bdc:	2202      	movs	r2, #2
 8004bde:	7722      	strb	r2, [r4, #28]
 8004be0:	699b      	ldr	r3, [r3, #24]
 8004be2:	f413 7f40 	tst.w	r3, #768	@ 0x300
 8004be6:	4620      	mov	r0, r4
 8004be8:	d05c      	beq.n	8004ca4 <HAL_TIM_IRQHandler+0x102>
 8004bea:	f7ff ffd7 	bl	8004b9c <HAL_TIM_IC_CaptureCallback>
 8004bee:	2300      	movs	r3, #0
 8004bf0:	7723      	strb	r3, [r4, #28]
 8004bf2:	0733      	lsls	r3, r6, #28
 8004bf4:	d50f      	bpl.n	8004c16 <HAL_TIM_IRQHandler+0x74>
 8004bf6:	0728      	lsls	r0, r5, #28
 8004bf8:	d50d      	bpl.n	8004c16 <HAL_TIM_IRQHandler+0x74>
 8004bfa:	6823      	ldr	r3, [r4, #0]
 8004bfc:	f06f 0208 	mvn.w	r2, #8
 8004c00:	611a      	str	r2, [r3, #16]
 8004c02:	2204      	movs	r2, #4
 8004c04:	7722      	strb	r2, [r4, #28]
 8004c06:	69db      	ldr	r3, [r3, #28]
 8004c08:	0799      	lsls	r1, r3, #30
 8004c0a:	4620      	mov	r0, r4
 8004c0c:	d050      	beq.n	8004cb0 <HAL_TIM_IRQHandler+0x10e>
 8004c0e:	f7ff ffc5 	bl	8004b9c <HAL_TIM_IC_CaptureCallback>
 8004c12:	2300      	movs	r3, #0
 8004c14:	7723      	strb	r3, [r4, #28]
 8004c16:	06f2      	lsls	r2, r6, #27
 8004c18:	d510      	bpl.n	8004c3c <HAL_TIM_IRQHandler+0x9a>
 8004c1a:	06eb      	lsls	r3, r5, #27
 8004c1c:	d50e      	bpl.n	8004c3c <HAL_TIM_IRQHandler+0x9a>
 8004c1e:	6823      	ldr	r3, [r4, #0]
 8004c20:	f06f 0210 	mvn.w	r2, #16
 8004c24:	611a      	str	r2, [r3, #16]
 8004c26:	2208      	movs	r2, #8
 8004c28:	7722      	strb	r2, [r4, #28]
 8004c2a:	69db      	ldr	r3, [r3, #28]
 8004c2c:	f413 7f40 	tst.w	r3, #768	@ 0x300
 8004c30:	4620      	mov	r0, r4
 8004c32:	d043      	beq.n	8004cbc <HAL_TIM_IRQHandler+0x11a>
 8004c34:	f7ff ffb2 	bl	8004b9c <HAL_TIM_IC_CaptureCallback>
 8004c38:	2300      	movs	r3, #0
 8004c3a:	7723      	strb	r3, [r4, #28]
 8004c3c:	07f0      	lsls	r0, r6, #31
 8004c3e:	d508      	bpl.n	8004c52 <HAL_TIM_IRQHandler+0xb0>
 8004c40:	07e9      	lsls	r1, r5, #31
 8004c42:	d506      	bpl.n	8004c52 <HAL_TIM_IRQHandler+0xb0>
 8004c44:	6823      	ldr	r3, [r4, #0]
 8004c46:	f06f 0201 	mvn.w	r2, #1
 8004c4a:	611a      	str	r2, [r3, #16]
 8004c4c:	4620      	mov	r0, r4
 8004c4e:	f7ff ffa3 	bl	8004b98 <HAL_TIM_PeriodElapsedCallback>
 8004c52:	0632      	lsls	r2, r6, #24
 8004c54:	d508      	bpl.n	8004c68 <HAL_TIM_IRQHandler+0xc6>
 8004c56:	062b      	lsls	r3, r5, #24
 8004c58:	d506      	bpl.n	8004c68 <HAL_TIM_IRQHandler+0xc6>
 8004c5a:	6823      	ldr	r3, [r4, #0]
 8004c5c:	f06f 0280 	mvn.w	r2, #128	@ 0x80
 8004c60:	611a      	str	r2, [r3, #16]
 8004c62:	4620      	mov	r0, r4
 8004c64:	f000 f909 	bl	8004e7a <HAL_TIMEx_BreakCallback>
 8004c68:	0670      	lsls	r0, r6, #25
 8004c6a:	d508      	bpl.n	8004c7e <HAL_TIM_IRQHandler+0xdc>
 8004c6c:	0669      	lsls	r1, r5, #25
 8004c6e:	d506      	bpl.n	8004c7e <HAL_TIM_IRQHandler+0xdc>
 8004c70:	6823      	ldr	r3, [r4, #0]
 8004c72:	f06f 0240 	mvn.w	r2, #64	@ 0x40
 8004c76:	611a      	str	r2, [r3, #16]
 8004c78:	4620      	mov	r0, r4
 8004c7a:	f7ff ff91 	bl	8004ba0 <HAL_TIM_TriggerCallback>
 8004c7e:	06b2      	lsls	r2, r6, #26
 8004c80:	d522      	bpl.n	8004cc8 <HAL_TIM_IRQHandler+0x126>
 8004c82:	06ab      	lsls	r3, r5, #26
 8004c84:	d520      	bpl.n	8004cc8 <HAL_TIM_IRQHandler+0x126>
 8004c86:	6823      	ldr	r3, [r4, #0]
 8004c88:	f06f 0220 	mvn.w	r2, #32
 8004c8c:	4620      	mov	r0, r4
 8004c8e:	611a      	str	r2, [r3, #16]
 8004c90:	e8bd 4070 	ldmia.w	sp!, {r4, r5, r6, lr}
 8004c94:	f000 b8f0 	b.w	8004e78 <HAL_TIMEx_CommutCallback>
 8004c98:	f7ff ff7f 	bl	8004b9a <HAL_TIM_OC_DelayElapsedCallback>
 8004c9c:	4620      	mov	r0, r4
 8004c9e:	f7ff ff7e 	bl	8004b9e <HAL_TIM_PWM_PulseFinishedCallback>
 8004ca2:	e791      	b.n	8004bc8 <HAL_TIM_IRQHandler+0x26>
 8004ca4:	f7ff ff79 	bl	8004b9a <HAL_TIM_OC_DelayElapsedCallback>
 8004ca8:	4620      	mov	r0, r4
 8004caa:	f7ff ff78 	bl	8004b9e <HAL_TIM_PWM_PulseFinishedCallback>
 8004cae:	e79e      	b.n	8004bee <HAL_TIM_IRQHandler+0x4c>
 8004cb0:	f7ff ff73 	bl	8004b9a <HAL_TIM_OC_DelayElapsedCallback>
 8004cb4:	4620      	mov	r0, r4
 8004cb6:	f7ff ff72 	bl	8004b9e <HAL_TIM_PWM_PulseFinishedCallback>
 8004cba:	e7aa      	b.n	8004c12 <HAL_TIM_IRQHandler+0x70>
 8004cbc:	f7ff ff6d 	bl	8004b9a <HAL_TIM_OC_DelayElapsedCallback>
 8004cc0:	4620      	mov	r0, r4
 8004cc2:	f7ff ff6c 	bl	8004b9e <HAL_TIM_PWM_PulseFinishedCallback>
 8004cc6:	e7b7      	b.n	8004c38 <HAL_TIM_IRQHandler+0x96>
 8004cc8:	bd70      	pop	{r4, r5, r6, pc}
	...

08004ccc <TIM_Base_SetConfig>:
 8004ccc:	4a33      	ldr	r2, [pc, #204]	@ (8004d9c <TIM_Base_SetConfig+0xd0>)
 8004cce:	6803      	ldr	r3, [r0, #0]
 8004cd0:	4290      	cmp	r0, r2
 8004cd2:	d012      	beq.n	8004cfa <TIM_Base_SetConfig+0x2e>
 8004cd4:	f1b0 4f80 	cmp.w	r0, #1073741824	@ 0x40000000
 8004cd8:	d00f      	beq.n	8004cfa <TIM_Base_SetConfig+0x2e>
 8004cda:	f5a2 427c 	sub.w	r2, r2, #64512	@ 0xfc00
 8004cde:	4290      	cmp	r0, r2
 8004ce0:	d00b      	beq.n	8004cfa <TIM_Base_SetConfig+0x2e>
 8004ce2:	f502 6280 	add.w	r2, r2, #1024	@ 0x400
 8004ce6:	4290      	cmp	r0, r2
 8004ce8:	d007      	beq.n	8004cfa <TIM_Base_SetConfig+0x2e>
 8004cea:	f502 6280 	add.w	r2, r2, #1024	@ 0x400
 8004cee:	4290      	cmp	r0, r2
 8004cf0:	d003      	beq.n	8004cfa <TIM_Base_SetConfig+0x2e>
 8004cf2:	f502 4278 	add.w	r2, r2, #63488	@ 0xf800
 8004cf6:	4290      	cmp	r0, r2
 8004cf8:	d119      	bne.n	8004d2e <TIM_Base_SetConfig+0x62>
 8004cfa:	684a      	ldr	r2, [r1, #4]
 8004cfc:	f023 0370 	bic.w	r3, r3, #112	@ 0x70
 8004d00:	4313      	orrs	r3, r2
 8004d02:	4a26      	ldr	r2, [pc, #152]	@ (8004d9c <TIM_Base_SetConfig+0xd0>)
 8004d04:	4290      	cmp	r0, r2
 8004d06:	d029      	beq.n	8004d5c <TIM_Base_SetConfig+0x90>
 8004d08:	f1b0 4f80 	cmp.w	r0, #1073741824	@ 0x40000000
 8004d0c:	d026      	beq.n	8004d5c <TIM_Base_SetConfig+0x90>
 8004d0e:	f5a2 427c 	sub.w	r2, r2, #64512	@ 0xfc00
 8004d12:	4290      	cmp	r0, r2
 8004d14:	d022      	beq.n	8004d5c <TIM_Base_SetConfig+0x90>
 8004d16:	f502 6280 	add.w	r2, r2, #1024	@ 0x400
 8004d1a:	4290      	cmp	r0, r2
 8004d1c:	d01e      	beq.n	8004d5c <TIM_Base_SetConfig+0x90>
 8004d1e:	f502 6280 	add.w	r2, r2, #1024	@ 0x400
 8004d22:	4290      	cmp	r0, r2
 8004d24:	d01a      	beq.n	8004d5c <TIM_Base_SetConfig+0x90>
 8004d26:	f502 4278 	add.w	r2, r2, #63488	@ 0xf800
 8004d2a:	4290      	cmp	r0, r2
 8004d2c:	d016      	beq.n	8004d5c <TIM_Base_SetConfig+0x90>
 8004d2e:	4a1c      	ldr	r2, [pc, #112]	@ (8004da0 <TIM_Base_SetConfig+0xd4>)
 8004d30:	4290      	cmp	r0, r2
 8004d32:	d013      	beq.n	8004d5c <TIM_Base_SetConfig+0x90>
 8004d34:	f502 6280 	add.w	r2, r2, #1024	@ 0x400
 8004d38:	4290      	cmp	r0, r2
 8004d3a:	d00f      	beq.n	8004d5c <TIM_Base_SetConfig+0x90>
 8004d3c:	f502 6280 	add.w	r2, r2, #1024	@ 0x400
 8004d40:	4290      	cmp	r0, r2
 8004d42:	d00b      	beq.n	8004d5c <TIM_Base_SetConfig+0x90>
 8004d44:	f5a2 3298 	sub.w	r2, r2, #77824	@ 0x13000
 8004d48:	4290      	cmp	r0, r2
 8004d4a:	d007      	beq.n	8004d5c <TIM_Base_SetConfig+0x90>
 8004d4c:	f502 6280 	add.w	r2, r2, #1024	@ 0x400
 8004d50:	4290      	cmp	r0, r2
 8004d52:	d003      	beq.n	8004d5c <TIM_Base_SetConfig+0x90>
 8004d54:	f502 6280 	add.w	r2, r2, #1024	@ 0x400
 8004d58:	4290      	cmp	r0, r2
 8004d5a:	d103      	bne.n	8004d64 <TIM_Base_SetConfig+0x98>
 8004d5c:	68ca      	ldr	r2, [r1, #12]
 8004d5e:	f423 7340 	bic.w	r3, r3, #768	@ 0x300
 8004d62:	4313      	orrs	r3, r2
 8004d64:	694a      	ldr	r2, [r1, #20]
 8004d66:	f023 0380 	bic.w	r3, r3, #128	@ 0x80
 8004d6a:	4313      	orrs	r3, r2
 8004d6c:	6003      	str	r3, [r0, #0]
 8004d6e:	688b      	ldr	r3, [r1, #8]
 8004d70:	62c3      	str	r3, [r0, #44]	@ 0x2c
 8004d72:	680b      	ldr	r3, [r1, #0]
 8004d74:	6283      	str	r3, [r0, #40]	@ 0x28
 8004d76:	4b09      	ldr	r3, [pc, #36]	@ (8004d9c <TIM_Base_SetConfig+0xd0>)
 8004d78:	4298      	cmp	r0, r3
 8004d7a:	d003      	beq.n	8004d84 <TIM_Base_SetConfig+0xb8>
 8004d7c:	f503 6380 	add.w	r3, r3, #1024	@ 0x400
 8004d80:	4298      	cmp	r0, r3
 8004d82:	d101      	bne.n	8004d88 <TIM_Base_SetConfig+0xbc>
 8004d84:	690b      	ldr	r3, [r1, #16]
 8004d86:	6303      	str	r3, [r0, #48]	@ 0x30
 8004d88:	2301      	movs	r3, #1
 8004d8a:	6143      	str	r3, [r0, #20]
 8004d8c:	6903      	ldr	r3, [r0, #16]
 8004d8e:	07db      	lsls	r3, r3, #31
 8004d90:	bf42      	ittt	mi
 8004d92:	6903      	ldrmi	r3, [r0, #16]
 8004d94:	f023 0301 	bicmi.w	r3, r3, #1
 8004d98:	6103      	strmi	r3, [r0, #16]
 8004d9a:	4770      	bx	lr
 8004d9c:	40010000 	.word	0x40010000
 8004da0:	40014000 	.word	0x40014000

08004da4 <HAL_TIM_Base_Init>:
 8004da4:	b510      	push	{r4, lr}
 8004da6:	4604      	mov	r4, r0
 8004da8:	b330      	cbz	r0, 8004df8 <HAL_TIM_Base_Init+0x54>
 8004daa:	f890 303d 	ldrb.w	r3, [r0, #61]	@ 0x3d
 8004dae:	f003 02ff 	and.w	r2, r3, #255	@ 0xff
 8004db2:	b91b      	cbnz	r3, 8004dbc <HAL_TIM_Base_Init+0x18>
 8004db4:	f880 203c 	strb.w	r2, [r0, #60]	@ 0x3c
 8004db8:	f7fd f8a0 	bl	8001efc <HAL_TIM_Base_MspInit>
 8004dbc:	2302      	movs	r3, #2
 8004dbe:	6820      	ldr	r0, [r4, #0]
 8004dc0:	f884 303d 	strb.w	r3, [r4, #61]	@ 0x3d
 8004dc4:	1d21      	adds	r1, r4, #4
 8004dc6:	f7ff ff81 	bl	8004ccc <TIM_Base_SetConfig>
 8004dca:	2301      	movs	r3, #1
 8004dcc:	f884 3046 	strb.w	r3, [r4, #70]	@ 0x46
 8004dd0:	2000      	movs	r0, #0
 8004dd2:	f884 303e 	strb.w	r3, [r4, #62]	@ 0x3e
 8004dd6:	f884 303f 	strb.w	r3, [r4, #63]	@ 0x3f
 8004dda:	f884 3040 	strb.w	r3, [r4, #64]	@ 0x40
 8004dde:	f884 3041 	strb.w	r3, [r4, #65]	@ 0x41
 8004de2:	f884 3042 	strb.w	r3, [r4, #66]	@ 0x42
 8004de6:	f884 3043 	strb.w	r3, [r4, #67]	@ 0x43
 8004dea:	f884 3044 	strb.w	r3, [r4, #68]	@ 0x44
 8004dee:	f884 3045 	strb.w	r3, [r4, #69]	@ 0x45
 8004df2:	f884 303d 	strb.w	r3, [r4, #61]	@ 0x3d
 8004df6:	bd10      	pop	{r4, pc}
 8004df8:	2001      	movs	r0, #1
 8004dfa:	e7fc      	b.n	8004df6 <HAL_TIM_Base_Init+0x52>

08004dfc <HAL_TIMEx_MasterConfigSynchronization>:
 8004dfc:	b530      	push	{r4, r5, lr}
 8004dfe:	f890 303c 	ldrb.w	r3, [r0, #60]	@ 0x3c
 8004e02:	2b01      	cmp	r3, #1
 8004e04:	4602      	mov	r2, r0
 8004e06:	f04f 0002 	mov.w	r0, #2
 8004e0a:	d032      	beq.n	8004e72 <HAL_TIMEx_MasterConfigSynchronization+0x76>
 8004e0c:	6813      	ldr	r3, [r2, #0]
 8004e0e:	f882 003d 	strb.w	r0, [r2, #61]	@ 0x3d
 8004e12:	685c      	ldr	r4, [r3, #4]
 8004e14:	680d      	ldr	r5, [r1, #0]
 8004e16:	6898      	ldr	r0, [r3, #8]
 8004e18:	f024 0470 	bic.w	r4, r4, #112	@ 0x70
 8004e1c:	432c      	orrs	r4, r5
 8004e1e:	605c      	str	r4, [r3, #4]
 8004e20:	4c14      	ldr	r4, [pc, #80]	@ (8004e74 <HAL_TIMEx_MasterConfigSynchronization+0x78>)
 8004e22:	42a3      	cmp	r3, r4
 8004e24:	d01a      	beq.n	8004e5c <HAL_TIMEx_MasterConfigSynchronization+0x60>
 8004e26:	f1b3 4f80 	cmp.w	r3, #1073741824	@ 0x40000000
 8004e2a:	d017      	beq.n	8004e5c <HAL_TIMEx_MasterConfigSynchronization+0x60>
 8004e2c:	f5a4 447c 	sub.w	r4, r4, #64512	@ 0xfc00
 8004e30:	42a3      	cmp	r3, r4
 8004e32:	d013      	beq.n	8004e5c <HAL_TIMEx_MasterConfigSynchronization+0x60>
 8004e34:	f504 6480 	add.w	r4, r4, #1024	@ 0x400
 8004e38:	42a3      	cmp	r3, r4
 8004e3a:	d00f      	beq.n	8004e5c <HAL_TIMEx_MasterConfigSynchronization+0x60>
 8004e3c:	f504 6480 	add.w	r4, r4, #1024	@ 0x400
 8004e40:	42a3      	cmp	r3, r4
 8004e42:	d00b      	beq.n	8004e5c <HAL_TIMEx_MasterConfigSynchronization+0x60>
 8004e44:	f504 4478 	add.w	r4, r4, #63488	@ 0xf800
 8004e48:	42a3      	cmp	r3, r4
 8004e4a:	d007      	beq.n	8004e5c <HAL_TIMEx_MasterConfigSynchronization+0x60>
 8004e4c:	f504 5470 	add.w	r4, r4, #15360	@ 0x3c00
 8004e50:	42a3      	cmp	r3, r4
 8004e52:	d003      	beq.n	8004e5c <HAL_TIMEx_MasterConfigSynchronization+0x60>
 8004e54:	f5a4 3494 	sub.w	r4, r4, #75776	@ 0x12800
 8004e58:	42a3      	cmp	r3, r4
 8004e5a:	d104      	bne.n	8004e66 <HAL_TIMEx_MasterConfigSynchronization+0x6a>
 8004e5c:	6849      	ldr	r1, [r1, #4]
 8004e5e:	f020 0080 	bic.w	r0, r0, #128	@ 0x80
 8004e62:	4301      	orrs	r1, r0
 8004e64:	6099      	str	r1, [r3, #8]
 8004e66:	2301      	movs	r3, #1
 8004e68:	2000      	movs	r0, #0
 8004e6a:	f882 303d 	strb.w	r3, [r2, #61]	@ 0x3d
 8004e6e:	f882 003c 	strb.w	r0, [r2, #60]	@ 0x3c
 8004e72:	bd30      	pop	{r4, r5, pc}
 8004e74:	40010000 	.word	0x40010000

08004e78 <HAL_TIMEx_CommutCallback>:
 8004e78:	4770      	bx	lr

08004e7a <HAL_TIMEx_BreakCallback>:
 8004e7a:	4770      	bx	lr

08004e7c <UART_EndRxTransfer>:
 8004e7c:	6802      	ldr	r2, [r0, #0]
 8004e7e:	f102 030c 	add.w	r3, r2, #12
 8004e82:	e853 3f00 	ldrex	r3, [r3]
 8004e86:	f423 7390 	bic.w	r3, r3, #288	@ 0x120
 8004e8a:	320c      	adds	r2, #12
 8004e8c:	e842 3100 	strex	r1, r3, [r2]
 8004e90:	6802      	ldr	r2, [r0, #0]
 8004e92:	2900      	cmp	r1, #0
 8004e94:	d1f2      	bne.n	8004e7c <UART_EndRxTransfer>
 8004e96:	f102 0314 	add.w	r3, r2, #20
 8004e9a:	e853 3f00 	ldrex	r3, [r3]
 8004e9e:	f023 0301 	bic.w	r3, r3, #1
 8004ea2:	f102 0c14 	add.w	ip, r2, #20
 8004ea6:	e84c 3100 	strex	r1, r3, [ip]
 8004eaa:	2900      	cmp	r1, #0
 8004eac:	d1f3      	bne.n	8004e96 <UART_EndRxTransfer+0x1a>
 8004eae:	6b03      	ldr	r3, [r0, #48]	@ 0x30
 8004eb0:	2b01      	cmp	r3, #1
 8004eb2:	d10b      	bne.n	8004ecc <UART_EndRxTransfer+0x50>
 8004eb4:	f102 030c 	add.w	r3, r2, #12
 8004eb8:	e853 3f00 	ldrex	r3, [r3]
 8004ebc:	f023 0310 	bic.w	r3, r3, #16
 8004ec0:	f102 0c0c 	add.w	ip, r2, #12
 8004ec4:	e84c 3100 	strex	r1, r3, [ip]
 8004ec8:	2900      	cmp	r1, #0
 8004eca:	d1f3      	bne.n	8004eb4 <UART_EndRxTransfer+0x38>
 8004ecc:	2320      	movs	r3, #32
 8004ece:	f880 3042 	strb.w	r3, [r0, #66]	@ 0x42
 8004ed2:	2300      	movs	r3, #0
 8004ed4:	6303      	str	r3, [r0, #48]	@ 0x30
 8004ed6:	4770      	bx	lr

08004ed8 <UART_SetConfig>:
 8004ed8:	6802      	ldr	r2, [r0, #0]
 8004eda:	68c1      	ldr	r1, [r0, #12]
 8004edc:	b538      	push	{r3, r4, r5, lr}
 8004ede:	6913      	ldr	r3, [r2, #16]
 8004ee0:	f423 5340 	bic.w	r3, r3, #12288	@ 0x3000
 8004ee4:	430b      	orrs	r3, r1
 8004ee6:	6113      	str	r3, [r2, #16]
 8004ee8:	4605      	mov	r5, r0
 8004eea:	6883      	ldr	r3, [r0, #8]
 8004eec:	6900      	ldr	r0, [r0, #16]
 8004eee:	68d1      	ldr	r1, [r2, #12]
 8004ef0:	4303      	orrs	r3, r0
 8004ef2:	6968      	ldr	r0, [r5, #20]
 8004ef4:	4303      	orrs	r3, r0
 8004ef6:	69e8      	ldr	r0, [r5, #28]
 8004ef8:	f421 4116 	bic.w	r1, r1, #38400	@ 0x9600
 8004efc:	f021 010c 	bic.w	r1, r1, #12
 8004f00:	4303      	orrs	r3, r0
 8004f02:	430b      	orrs	r3, r1
 8004f04:	60d3      	str	r3, [r2, #12]
 8004f06:	6953      	ldr	r3, [r2, #20]
 8004f08:	69a9      	ldr	r1, [r5, #24]
 8004f0a:	f423 7340 	bic.w	r3, r3, #768	@ 0x300
 8004f0e:	430b      	orrs	r3, r1
 8004f10:	6153      	str	r3, [r2, #20]
 8004f12:	4b1f      	ldr	r3, [pc, #124]	@ (8004f90 <UART_SetConfig+0xb8>)
 8004f14:	429a      	cmp	r2, r3
 8004f16:	d003      	beq.n	8004f20 <UART_SetConfig+0x48>
 8004f18:	f503 6380 	add.w	r3, r3, #1024	@ 0x400
 8004f1c:	429a      	cmp	r2, r3
 8004f1e:	d124      	bne.n	8004f6a <UART_SetConfig+0x92>
 8004f20:	f7fe ff1a 	bl	8003d58 <HAL_RCC_GetPCLK2Freq>
 8004f24:	69ea      	ldr	r2, [r5, #28]
 8004f26:	2119      	movs	r1, #25
 8004f28:	f5b2 4f00 	cmp.w	r2, #32768	@ 0x8000
 8004f2c:	e9d5 4300 	ldrd	r4, r3, [r5]
 8004f30:	fba0 0101 	umull	r0, r1, r0, r1
 8004f34:	d11c      	bne.n	8004f70 <UART_SetConfig+0x98>
 8004f36:	18da      	adds	r2, r3, r3
 8004f38:	f04f 0500 	mov.w	r5, #0
 8004f3c:	eb45 0305 	adc.w	r3, r5, r5
 8004f40:	f7fb f95c 	bl	80001fc <__aeabi_uldivmod>
 8004f44:	2264      	movs	r2, #100	@ 0x64
 8004f46:	fbb0 f1f2 	udiv	r1, r0, r2
 8004f4a:	fb02 0311 	mls	r3, r2, r1, r0
 8004f4e:	00db      	lsls	r3, r3, #3
 8004f50:	3332      	adds	r3, #50	@ 0x32
 8004f52:	fbb3 f3f2 	udiv	r3, r3, r2
 8004f56:	f003 0207 	and.w	r2, r3, #7
 8004f5a:	005b      	lsls	r3, r3, #1
 8004f5c:	eb02 1201 	add.w	r2, r2, r1, lsl #4
 8004f60:	f403 73f8 	and.w	r3, r3, #496	@ 0x1f0
 8004f64:	4413      	add	r3, r2
 8004f66:	60a3      	str	r3, [r4, #8]
 8004f68:	bd38      	pop	{r3, r4, r5, pc}
 8004f6a:	f7fe fee5 	bl	8003d38 <HAL_RCC_GetPCLK1Freq>
 8004f6e:	e7d9      	b.n	8004f24 <UART_SetConfig+0x4c>
 8004f70:	009a      	lsls	r2, r3, #2
 8004f72:	0f9b      	lsrs	r3, r3, #30
 8004f74:	f7fb f942 	bl	80001fc <__aeabi_uldivmod>
 8004f78:	2264      	movs	r2, #100	@ 0x64
 8004f7a:	fbb0 f1f2 	udiv	r1, r0, r2
 8004f7e:	fb02 0311 	mls	r3, r2, r1, r0
 8004f82:	011b      	lsls	r3, r3, #4
 8004f84:	3332      	adds	r3, #50	@ 0x32
 8004f86:	fbb3 f3f2 	udiv	r3, r3, r2
 8004f8a:	eb03 1301 	add.w	r3, r3, r1, lsl #4
 8004f8e:	e7ea      	b.n	8004f66 <UART_SetConfig+0x8e>
 8004f90:	40011000 	.word	0x40011000

08004f94 <UART_WaitOnFlagUntilTimeout.constprop.0>:
 8004f94:	b5f7      	push	{r0, r1, r2, r4, r5, r6, r7, lr}
 8004f96:	4605      	mov	r5, r0
 8004f98:	460c      	mov	r4, r1
 8004f9a:	4617      	mov	r7, r2
 8004f9c:	461e      	mov	r6, r3
 8004f9e:	682a      	ldr	r2, [r5, #0]
 8004fa0:	6813      	ldr	r3, [r2, #0]
 8004fa2:	ea34 0303 	bics.w	r3, r4, r3
 8004fa6:	d101      	bne.n	8004fac <UART_WaitOnFlagUntilTimeout.constprop.0+0x18>
 8004fa8:	2000      	movs	r0, #0
 8004faa:	e021      	b.n	8004ff0 <UART_WaitOnFlagUntilTimeout.constprop.0+0x5c>
 8004fac:	1c70      	adds	r0, r6, #1
 8004fae:	d0f7      	beq.n	8004fa0 <UART_WaitOnFlagUntilTimeout.constprop.0+0xc>
 8004fb0:	f7fd f95c 	bl	800226c <HAL_GetTick>
 8004fb4:	1bc0      	subs	r0, r0, r7
 8004fb6:	4286      	cmp	r6, r0
 8004fb8:	d31c      	bcc.n	8004ff4 <UART_WaitOnFlagUntilTimeout.constprop.0+0x60>
 8004fba:	b1de      	cbz	r6, 8004ff4 <UART_WaitOnFlagUntilTimeout.constprop.0+0x60>
 8004fbc:	682b      	ldr	r3, [r5, #0]
 8004fbe:	68da      	ldr	r2, [r3, #12]
 8004fc0:	0751      	lsls	r1, r2, #29
 8004fc2:	d5ec      	bpl.n	8004f9e <UART_WaitOnFlagUntilTimeout.constprop.0+0xa>
 8004fc4:	2c80      	cmp	r4, #128	@ 0x80
 8004fc6:	d0ea      	beq.n	8004f9e <UART_WaitOnFlagUntilTimeout.constprop.0+0xa>
 8004fc8:	2c40      	cmp	r4, #64	@ 0x40
 8004fca:	d0e8      	beq.n	8004f9e <UART_WaitOnFlagUntilTimeout.constprop.0+0xa>
 8004fcc:	681a      	ldr	r2, [r3, #0]
 8004fce:	0712      	lsls	r2, r2, #28
 8004fd0:	d5e5      	bpl.n	8004f9e <UART_WaitOnFlagUntilTimeout.constprop.0+0xa>
 8004fd2:	2400      	movs	r4, #0
 8004fd4:	9401      	str	r4, [sp, #4]
 8004fd6:	681a      	ldr	r2, [r3, #0]
 8004fd8:	9201      	str	r2, [sp, #4]
 8004fda:	685b      	ldr	r3, [r3, #4]
 8004fdc:	9301      	str	r3, [sp, #4]
 8004fde:	4628      	mov	r0, r5
 8004fe0:	9b01      	ldr	r3, [sp, #4]
 8004fe2:	f7ff ff4b 	bl	8004e7c <UART_EndRxTransfer>
 8004fe6:	2308      	movs	r3, #8
 8004fe8:	646b      	str	r3, [r5, #68]	@ 0x44
 8004fea:	f885 4040 	strb.w	r4, [r5, #64]	@ 0x40
 8004fee:	2001      	movs	r0, #1
 8004ff0:	b003      	add	sp, #12
 8004ff2:	bdf0      	pop	{r4, r5, r6, r7, pc}
 8004ff4:	2003      	movs	r0, #3
 8004ff6:	e7fb      	b.n	8004ff0 <UART_WaitOnFlagUntilTimeout.constprop.0+0x5c>

08004ff8 <HAL_UART_Init>:
 8004ff8:	b510      	push	{r4, lr}
 8004ffa:	4604      	mov	r4, r0
 8004ffc:	b348      	cbz	r0, 8005052 <HAL_UART_Init+0x5a>
 8004ffe:	f890 3041 	ldrb.w	r3, [r0, #65]	@ 0x41
 8005002:	f003 02ff 	and.w	r2, r3, #255	@ 0xff
 8005006:	b91b      	cbnz	r3, 8005010 <HAL_UART_Init+0x18>
 8005008:	f880 2040 	strb.w	r2, [r0, #64]	@ 0x40
 800500c:	f7fc ffb0 	bl	8001f70 <HAL_UART_MspInit>
 8005010:	6822      	ldr	r2, [r4, #0]
 8005012:	2324      	movs	r3, #36	@ 0x24
 8005014:	f884 3041 	strb.w	r3, [r4, #65]	@ 0x41
 8005018:	68d3      	ldr	r3, [r2, #12]
 800501a:	f423 5300 	bic.w	r3, r3, #8192	@ 0x2000
 800501e:	60d3      	str	r3, [r2, #12]
 8005020:	4620      	mov	r0, r4
 8005022:	f7ff ff59 	bl	8004ed8 <UART_SetConfig>
 8005026:	6823      	ldr	r3, [r4, #0]
 8005028:	691a      	ldr	r2, [r3, #16]
 800502a:	f422 4290 	bic.w	r2, r2, #18432	@ 0x4800
 800502e:	611a      	str	r2, [r3, #16]
 8005030:	695a      	ldr	r2, [r3, #20]
 8005032:	f022 022a 	bic.w	r2, r2, #42	@ 0x2a
 8005036:	615a      	str	r2, [r3, #20]
 8005038:	68da      	ldr	r2, [r3, #12]
 800503a:	f442 5200 	orr.w	r2, r2, #8192	@ 0x2000
 800503e:	60da      	str	r2, [r3, #12]
 8005040:	2000      	movs	r0, #0
 8005042:	2320      	movs	r3, #32
 8005044:	6460      	str	r0, [r4, #68]	@ 0x44
 8005046:	f884 3041 	strb.w	r3, [r4, #65]	@ 0x41
 800504a:	f884 3042 	strb.w	r3, [r4, #66]	@ 0x42
 800504e:	6360      	str	r0, [r4, #52]	@ 0x34
 8005050:	bd10      	pop	{r4, pc}
 8005052:	2001      	movs	r0, #1
 8005054:	e7fc      	b.n	8005050 <HAL_UART_Init+0x58>

08005056 <HAL_UART_Transmit>:
 8005056:	e92d 43f8 	stmdb	sp!, {r3, r4, r5, r6, r7, r8, r9, lr}
 800505a:	4698      	mov	r8, r3
 800505c:	f890 3041 	ldrb.w	r3, [r0, #65]	@ 0x41
 8005060:	2b20      	cmp	r3, #32
 8005062:	4604      	mov	r4, r0
 8005064:	460e      	mov	r6, r1
 8005066:	4617      	mov	r7, r2
 8005068:	d13f      	bne.n	80050ea <HAL_UART_Transmit+0x94>
 800506a:	2900      	cmp	r1, #0
 800506c:	d03f      	beq.n	80050ee <HAL_UART_Transmit+0x98>
 800506e:	2a00      	cmp	r2, #0
 8005070:	d03d      	beq.n	80050ee <HAL_UART_Transmit+0x98>
 8005072:	2321      	movs	r3, #33	@ 0x21
 8005074:	2500      	movs	r5, #0
 8005076:	6445      	str	r5, [r0, #68]	@ 0x44
 8005078:	f880 3041 	strb.w	r3, [r0, #65]	@ 0x41
 800507c:	f7fd f8f6 	bl	800226c <HAL_GetTick>
 8005080:	68a3      	ldr	r3, [r4, #8]
 8005082:	84a7      	strh	r7, [r4, #36]	@ 0x24
 8005084:	f5b3 5f80 	cmp.w	r3, #4096	@ 0x1000
 8005088:	4681      	mov	r9, r0
 800508a:	84e7      	strh	r7, [r4, #38]	@ 0x26
 800508c:	d103      	bne.n	8005096 <HAL_UART_Transmit+0x40>
 800508e:	6923      	ldr	r3, [r4, #16]
 8005090:	b90b      	cbnz	r3, 8005096 <HAL_UART_Transmit+0x40>
 8005092:	4635      	mov	r5, r6
 8005094:	461e      	mov	r6, r3
 8005096:	8ce3      	ldrh	r3, [r4, #38]	@ 0x26
 8005098:	b29b      	uxth	r3, r3
 800509a:	b953      	cbnz	r3, 80050b2 <HAL_UART_Transmit+0x5c>
 800509c:	4643      	mov	r3, r8
 800509e:	464a      	mov	r2, r9
 80050a0:	2140      	movs	r1, #64	@ 0x40
 80050a2:	4620      	mov	r0, r4
 80050a4:	f7ff ff76 	bl	8004f94 <UART_WaitOnFlagUntilTimeout.constprop.0>
 80050a8:	2320      	movs	r3, #32
 80050aa:	b950      	cbnz	r0, 80050c2 <HAL_UART_Transmit+0x6c>
 80050ac:	f884 3041 	strb.w	r3, [r4, #65]	@ 0x41
 80050b0:	e00a      	b.n	80050c8 <HAL_UART_Transmit+0x72>
 80050b2:	4643      	mov	r3, r8
 80050b4:	464a      	mov	r2, r9
 80050b6:	2180      	movs	r1, #128	@ 0x80
 80050b8:	4620      	mov	r0, r4
 80050ba:	f7ff ff6b 	bl	8004f94 <UART_WaitOnFlagUntilTimeout.constprop.0>
 80050be:	b128      	cbz	r0, 80050cc <HAL_UART_Transmit+0x76>
 80050c0:	2320      	movs	r3, #32
 80050c2:	f884 3041 	strb.w	r3, [r4, #65]	@ 0x41
 80050c6:	2003      	movs	r0, #3
 80050c8:	e8bd 83f8 	ldmia.w	sp!, {r3, r4, r5, r6, r7, r8, r9, pc}
 80050cc:	6822      	ldr	r2, [r4, #0]
 80050ce:	b94e      	cbnz	r6, 80050e4 <HAL_UART_Transmit+0x8e>
 80050d0:	f835 3b02 	ldrh.w	r3, [r5], #2
 80050d4:	f3c3 0308 	ubfx	r3, r3, #0, #9
 80050d8:	6053      	str	r3, [r2, #4]
 80050da:	8ce1      	ldrh	r1, [r4, #38]	@ 0x26
 80050dc:	3901      	subs	r1, #1
 80050de:	b289      	uxth	r1, r1
 80050e0:	84e1      	strh	r1, [r4, #38]	@ 0x26
 80050e2:	e7d8      	b.n	8005096 <HAL_UART_Transmit+0x40>
 80050e4:	f816 3b01 	ldrb.w	r3, [r6], #1
 80050e8:	e7f6      	b.n	80050d8 <HAL_UART_Transmit+0x82>
 80050ea:	2002      	movs	r0, #2
 80050ec:	e7ec      	b.n	80050c8 <HAL_UART_Transmit+0x72>
 80050ee:	2001      	movs	r0, #1
 80050f0:	e7ea      	b.n	80050c8 <HAL_UART_Transmit+0x72>

080050f2 <HAL_UART_TxCpltCallback>:
 80050f2:	4770      	bx	lr

080050f4 <HAL_UART_ErrorCallback>:
 80050f4:	4770      	bx	lr

080050f6 <UART_DMAAbortOnError>:
 80050f6:	b508      	push	{r3, lr}
 80050f8:	6b80      	ldr	r0, [r0, #56]	@ 0x38
 80050fa:	2300      	movs	r3, #0
 80050fc:	85c3      	strh	r3, [r0, #46]	@ 0x2e
 80050fe:	84c3      	strh	r3, [r0, #38]	@ 0x26
 8005100:	f7ff fff8 	bl	80050f4 <HAL_UART_ErrorCallback>
 8005104:	bd08      	pop	{r3, pc}

08005106 <HAL_UARTEx_RxEventCallback>:
 8005106:	4770      	bx	lr

08005108 <UART_Receive_IT.isra.0>:
 8005108:	f890 3042 	ldrb.w	r3, [r0, #66]	@ 0x42
 800510c:	2b22      	cmp	r3, #34	@ 0x22
 800510e:	b507      	push	{r0, r1, r2, lr}
 8005110:	d142      	bne.n	8005198 <UART_Receive_IT.isra.0+0x90>
 8005112:	6881      	ldr	r1, [r0, #8]
 8005114:	6802      	ldr	r2, [r0, #0]
 8005116:	6a83      	ldr	r3, [r0, #40]	@ 0x28
 8005118:	f5b1 5f80 	cmp.w	r1, #4096	@ 0x1000
 800511c:	d13f      	bne.n	800519e <UART_Receive_IT.isra.0+0x96>
 800511e:	6901      	ldr	r1, [r0, #16]
 8005120:	2900      	cmp	r1, #0
 8005122:	d13f      	bne.n	80051a4 <UART_Receive_IT.isra.0+0x9c>
 8005124:	6852      	ldr	r2, [r2, #4]
 8005126:	f3c2 0208 	ubfx	r2, r2, #0, #9
 800512a:	f823 2b02 	strh.w	r2, [r3], #2
 800512e:	6283      	str	r3, [r0, #40]	@ 0x28
 8005130:	8dc3      	ldrh	r3, [r0, #46]	@ 0x2e
 8005132:	3b01      	subs	r3, #1
 8005134:	b29b      	uxth	r3, r3
 8005136:	85c3      	strh	r3, [r0, #46]	@ 0x2e
 8005138:	2b00      	cmp	r3, #0
 800513a:	d12d      	bne.n	8005198 <UART_Receive_IT.isra.0+0x90>
 800513c:	6802      	ldr	r2, [r0, #0]
 800513e:	68d1      	ldr	r1, [r2, #12]
 8005140:	f021 0120 	bic.w	r1, r1, #32
 8005144:	60d1      	str	r1, [r2, #12]
 8005146:	68d1      	ldr	r1, [r2, #12]
 8005148:	f421 7180 	bic.w	r1, r1, #256	@ 0x100
 800514c:	60d1      	str	r1, [r2, #12]
 800514e:	6951      	ldr	r1, [r2, #20]
 8005150:	f021 0101 	bic.w	r1, r1, #1
 8005154:	6151      	str	r1, [r2, #20]
 8005156:	2220      	movs	r2, #32
 8005158:	f880 2042 	strb.w	r2, [r0, #66]	@ 0x42
 800515c:	6343      	str	r3, [r0, #52]	@ 0x34
 800515e:	6b02      	ldr	r2, [r0, #48]	@ 0x30
 8005160:	2a01      	cmp	r2, #1
 8005162:	6802      	ldr	r2, [r0, #0]
 8005164:	d128      	bne.n	80051b8 <UART_Receive_IT.isra.0+0xb0>
 8005166:	6303      	str	r3, [r0, #48]	@ 0x30
 8005168:	f102 030c 	add.w	r3, r2, #12
 800516c:	e853 3f00 	ldrex	r3, [r3]
 8005170:	f023 0310 	bic.w	r3, r3, #16
 8005174:	f102 0c0c 	add.w	ip, r2, #12
 8005178:	e84c 3100 	strex	r1, r3, [ip]
 800517c:	2900      	cmp	r1, #0
 800517e:	d1f3      	bne.n	8005168 <UART_Receive_IT.isra.0+0x60>
 8005180:	6813      	ldr	r3, [r2, #0]
 8005182:	06db      	lsls	r3, r3, #27
 8005184:	d505      	bpl.n	8005192 <UART_Receive_IT.isra.0+0x8a>
 8005186:	9101      	str	r1, [sp, #4]
 8005188:	6813      	ldr	r3, [r2, #0]
 800518a:	9301      	str	r3, [sp, #4]
 800518c:	6853      	ldr	r3, [r2, #4]
 800518e:	9301      	str	r3, [sp, #4]
 8005190:	9b01      	ldr	r3, [sp, #4]
 8005192:	8d81      	ldrh	r1, [r0, #44]	@ 0x2c
 8005194:	f7ff ffb7 	bl	8005106 <HAL_UARTEx_RxEventCallback>
 8005198:	b003      	add	sp, #12
 800519a:	f85d fb04 	ldr.w	pc, [sp], #4
 800519e:	b939      	cbnz	r1, 80051b0 <UART_Receive_IT.isra.0+0xa8>
 80051a0:	6901      	ldr	r1, [r0, #16]
 80051a2:	b929      	cbnz	r1, 80051b0 <UART_Receive_IT.isra.0+0xa8>
 80051a4:	6852      	ldr	r2, [r2, #4]
 80051a6:	b2d2      	uxtb	r2, r2
 80051a8:	701a      	strb	r2, [r3, #0]
 80051aa:	6a83      	ldr	r3, [r0, #40]	@ 0x28
 80051ac:	3301      	adds	r3, #1
 80051ae:	e7be      	b.n	800512e <UART_Receive_IT.isra.0+0x26>
 80051b0:	6852      	ldr	r2, [r2, #4]
 80051b2:	f002 027f 	and.w	r2, r2, #127	@ 0x7f
 80051b6:	e7f7      	b.n	80051a8 <UART_Receive_IT.isra.0+0xa0>
 80051b8:	f7fc ffaa 	bl	8002110 <HAL_UART_RxCpltCallback>
 80051bc:	e7ec      	b.n	8005198 <UART_Receive_IT.isra.0+0x90>
	...

080051c0 <HAL_UART_IRQHandler>:
 80051c0:	6803      	ldr	r3, [r0, #0]
 80051c2:	681a      	ldr	r2, [r3, #0]
 80051c4:	b573      	push	{r0, r1, r4, r5, r6, lr}
 80051c6:	0716      	lsls	r6, r2, #28
 80051c8:	68d9      	ldr	r1, [r3, #12]
 80051ca:	695d      	ldr	r5, [r3, #20]
 80051cc:	4604      	mov	r4, r0
 80051ce:	d108      	bne.n	80051e2 <HAL_UART_IRQHandler+0x22>
 80051d0:	0696      	lsls	r6, r2, #26
 80051d2:	d568      	bpl.n	80052a6 <HAL_UART_IRQHandler+0xe6>
 80051d4:	068d      	lsls	r5, r1, #26
 80051d6:	d566      	bpl.n	80052a6 <HAL_UART_IRQHandler+0xe6>
 80051d8:	b002      	add	sp, #8
 80051da:	e8bd 4070 	ldmia.w	sp!, {r4, r5, r6, lr}
 80051de:	f7ff bf93 	b.w	8005108 <UART_Receive_IT.isra.0>
 80051e2:	f005 0001 	and.w	r0, r5, #1
 80051e6:	f401 7590 	and.w	r5, r1, #288	@ 0x120
 80051ea:	4305      	orrs	r5, r0
 80051ec:	d05b      	beq.n	80052a6 <HAL_UART_IRQHandler+0xe6>
 80051ee:	07d6      	lsls	r6, r2, #31
 80051f0:	d505      	bpl.n	80051fe <HAL_UART_IRQHandler+0x3e>
 80051f2:	05cd      	lsls	r5, r1, #23
 80051f4:	bf42      	ittt	mi
 80051f6:	6c63      	ldrmi	r3, [r4, #68]	@ 0x44
 80051f8:	f043 0301 	orrmi.w	r3, r3, #1
 80051fc:	6463      	strmi	r3, [r4, #68]	@ 0x44
 80051fe:	0753      	lsls	r3, r2, #29
 8005200:	d504      	bpl.n	800520c <HAL_UART_IRQHandler+0x4c>
 8005202:	b118      	cbz	r0, 800520c <HAL_UART_IRQHandler+0x4c>
 8005204:	6c63      	ldr	r3, [r4, #68]	@ 0x44
 8005206:	f043 0302 	orr.w	r3, r3, #2
 800520a:	6463      	str	r3, [r4, #68]	@ 0x44
 800520c:	0796      	lsls	r6, r2, #30
 800520e:	d504      	bpl.n	800521a <HAL_UART_IRQHandler+0x5a>
 8005210:	b118      	cbz	r0, 800521a <HAL_UART_IRQHandler+0x5a>
 8005212:	6c63      	ldr	r3, [r4, #68]	@ 0x44
 8005214:	f043 0304 	orr.w	r3, r3, #4
 8005218:	6463      	str	r3, [r4, #68]	@ 0x44
 800521a:	0715      	lsls	r5, r2, #28
 800521c:	d507      	bpl.n	800522e <HAL_UART_IRQHandler+0x6e>
 800521e:	f001 0320 	and.w	r3, r1, #32
 8005222:	4303      	orrs	r3, r0
 8005224:	bf1e      	ittt	ne
 8005226:	6c63      	ldrne	r3, [r4, #68]	@ 0x44
 8005228:	f043 0308 	orrne.w	r3, r3, #8
 800522c:	6463      	strne	r3, [r4, #68]	@ 0x44
 800522e:	6c63      	ldr	r3, [r4, #68]	@ 0x44
 8005230:	2b00      	cmp	r3, #0
 8005232:	d032      	beq.n	800529a <HAL_UART_IRQHandler+0xda>
 8005234:	0692      	lsls	r2, r2, #26
 8005236:	d504      	bpl.n	8005242 <HAL_UART_IRQHandler+0x82>
 8005238:	068b      	lsls	r3, r1, #26
 800523a:	d502      	bpl.n	8005242 <HAL_UART_IRQHandler+0x82>
 800523c:	4620      	mov	r0, r4
 800523e:	f7ff ff63 	bl	8005108 <UART_Receive_IT.isra.0>
 8005242:	6826      	ldr	r6, [r4, #0]
 8005244:	6973      	ldr	r3, [r6, #20]
 8005246:	6c62      	ldr	r2, [r4, #68]	@ 0x44
 8005248:	f003 0340 	and.w	r3, r3, #64	@ 0x40
 800524c:	f002 0208 	and.w	r2, r2, #8
 8005250:	ea53 0502 	orrs.w	r5, r3, r2
 8005254:	4620      	mov	r0, r4
 8005256:	d022      	beq.n	800529e <HAL_UART_IRQHandler+0xde>
 8005258:	f7ff fe10 	bl	8004e7c <UART_EndRxTransfer>
 800525c:	6973      	ldr	r3, [r6, #20]
 800525e:	065e      	lsls	r6, r3, #25
 8005260:	d518      	bpl.n	8005294 <HAL_UART_IRQHandler+0xd4>
 8005262:	6822      	ldr	r2, [r4, #0]
 8005264:	f102 0314 	add.w	r3, r2, #20
 8005268:	e853 3f00 	ldrex	r3, [r3]
 800526c:	f023 0340 	bic.w	r3, r3, #64	@ 0x40
 8005270:	3214      	adds	r2, #20
 8005272:	e842 3100 	strex	r1, r3, [r2]
 8005276:	2900      	cmp	r1, #0
 8005278:	d1f3      	bne.n	8005262 <HAL_UART_IRQHandler+0xa2>
 800527a:	6be0      	ldr	r0, [r4, #60]	@ 0x3c
 800527c:	b150      	cbz	r0, 8005294 <HAL_UART_IRQHandler+0xd4>
 800527e:	4b74      	ldr	r3, [pc, #464]	@ (8005450 <HAL_UART_IRQHandler+0x290>)
 8005280:	6503      	str	r3, [r0, #80]	@ 0x50
 8005282:	f7fd fc94 	bl	8002bae <HAL_DMA_Abort_IT>
 8005286:	b140      	cbz	r0, 800529a <HAL_UART_IRQHandler+0xda>
 8005288:	6be0      	ldr	r0, [r4, #60]	@ 0x3c
 800528a:	6d03      	ldr	r3, [r0, #80]	@ 0x50
 800528c:	b002      	add	sp, #8
 800528e:	e8bd 4070 	ldmia.w	sp!, {r4, r5, r6, lr}
 8005292:	4718      	bx	r3
 8005294:	4620      	mov	r0, r4
 8005296:	f7ff ff2d 	bl	80050f4 <HAL_UART_ErrorCallback>
 800529a:	b002      	add	sp, #8
 800529c:	bd70      	pop	{r4, r5, r6, pc}
 800529e:	f7ff ff29 	bl	80050f4 <HAL_UART_ErrorCallback>
 80052a2:	6465      	str	r5, [r4, #68]	@ 0x44
 80052a4:	e7f9      	b.n	800529a <HAL_UART_IRQHandler+0xda>
 80052a6:	6b20      	ldr	r0, [r4, #48]	@ 0x30
 80052a8:	2801      	cmp	r0, #1
 80052aa:	f040 8095 	bne.w	80053d8 <HAL_UART_IRQHandler+0x218>
 80052ae:	06d5      	lsls	r5, r2, #27
 80052b0:	f140 8092 	bpl.w	80053d8 <HAL_UART_IRQHandler+0x218>
 80052b4:	06c8      	lsls	r0, r1, #27
 80052b6:	f140 808f 	bpl.w	80053d8 <HAL_UART_IRQHandler+0x218>
 80052ba:	2200      	movs	r2, #0
 80052bc:	9201      	str	r2, [sp, #4]
 80052be:	681a      	ldr	r2, [r3, #0]
 80052c0:	9201      	str	r2, [sp, #4]
 80052c2:	685a      	ldr	r2, [r3, #4]
 80052c4:	9201      	str	r2, [sp, #4]
 80052c6:	9a01      	ldr	r2, [sp, #4]
 80052c8:	695a      	ldr	r2, [r3, #20]
 80052ca:	0652      	lsls	r2, r2, #25
 80052cc:	d54e      	bpl.n	800536c <HAL_UART_IRQHandler+0x1ac>
 80052ce:	6be1      	ldr	r1, [r4, #60]	@ 0x3c
 80052d0:	680a      	ldr	r2, [r1, #0]
 80052d2:	6852      	ldr	r2, [r2, #4]
 80052d4:	b292      	uxth	r2, r2
 80052d6:	2a00      	cmp	r2, #0
 80052d8:	d0df      	beq.n	800529a <HAL_UART_IRQHandler+0xda>
 80052da:	8da0      	ldrh	r0, [r4, #44]	@ 0x2c
 80052dc:	4290      	cmp	r0, r2
 80052de:	d9dc      	bls.n	800529a <HAL_UART_IRQHandler+0xda>
 80052e0:	85e2      	strh	r2, [r4, #46]	@ 0x2e
 80052e2:	69ca      	ldr	r2, [r1, #28]
 80052e4:	f5b2 7f80 	cmp.w	r2, #256	@ 0x100
 80052e8:	d036      	beq.n	8005358 <HAL_UART_IRQHandler+0x198>
 80052ea:	f103 020c 	add.w	r2, r3, #12
 80052ee:	e852 2f00 	ldrex	r2, [r2]
 80052f2:	f422 7280 	bic.w	r2, r2, #256	@ 0x100
 80052f6:	f103 000c 	add.w	r0, r3, #12
 80052fa:	e840 2100 	strex	r1, r2, [r0]
 80052fe:	2900      	cmp	r1, #0
 8005300:	d1f3      	bne.n	80052ea <HAL_UART_IRQHandler+0x12a>
 8005302:	f103 0214 	add.w	r2, r3, #20
 8005306:	e852 2f00 	ldrex	r2, [r2]
 800530a:	f022 0201 	bic.w	r2, r2, #1
 800530e:	f103 0014 	add.w	r0, r3, #20
 8005312:	e840 2100 	strex	r1, r2, [r0]
 8005316:	2900      	cmp	r1, #0
 8005318:	d1f3      	bne.n	8005302 <HAL_UART_IRQHandler+0x142>
 800531a:	f103 0214 	add.w	r2, r3, #20
 800531e:	e852 2f00 	ldrex	r2, [r2]
 8005322:	f022 0240 	bic.w	r2, r2, #64	@ 0x40
 8005326:	f103 0014 	add.w	r0, r3, #20
 800532a:	e840 2100 	strex	r1, r2, [r0]
 800532e:	2900      	cmp	r1, #0
 8005330:	d1f3      	bne.n	800531a <HAL_UART_IRQHandler+0x15a>
 8005332:	2220      	movs	r2, #32
 8005334:	f884 2042 	strb.w	r2, [r4, #66]	@ 0x42
 8005338:	6321      	str	r1, [r4, #48]	@ 0x30
 800533a:	f103 020c 	add.w	r2, r3, #12
 800533e:	e852 2f00 	ldrex	r2, [r2]
 8005342:	f022 0210 	bic.w	r2, r2, #16
 8005346:	f103 000c 	add.w	r0, r3, #12
 800534a:	e840 2100 	strex	r1, r2, [r0]
 800534e:	2900      	cmp	r1, #0
 8005350:	d1f3      	bne.n	800533a <HAL_UART_IRQHandler+0x17a>
 8005352:	6be0      	ldr	r0, [r4, #60]	@ 0x3c
 8005354:	f7fd fbed 	bl	8002b32 <HAL_DMA_Abort>
 8005358:	2302      	movs	r3, #2
 800535a:	6363      	str	r3, [r4, #52]	@ 0x34
 800535c:	8de3      	ldrh	r3, [r4, #46]	@ 0x2e
 800535e:	8da1      	ldrh	r1, [r4, #44]	@ 0x2c
 8005360:	1ac9      	subs	r1, r1, r3
 8005362:	b289      	uxth	r1, r1
 8005364:	4620      	mov	r0, r4
 8005366:	f7ff fece 	bl	8005106 <HAL_UARTEx_RxEventCallback>
 800536a:	e796      	b.n	800529a <HAL_UART_IRQHandler+0xda>
 800536c:	8de2      	ldrh	r2, [r4, #46]	@ 0x2e
 800536e:	8de0      	ldrh	r0, [r4, #46]	@ 0x2e
 8005370:	8da1      	ldrh	r1, [r4, #44]	@ 0x2c
 8005372:	b280      	uxth	r0, r0
 8005374:	b292      	uxth	r2, r2
 8005376:	2800      	cmp	r0, #0
 8005378:	d08f      	beq.n	800529a <HAL_UART_IRQHandler+0xda>
 800537a:	1a89      	subs	r1, r1, r2
 800537c:	b289      	uxth	r1, r1
 800537e:	2900      	cmp	r1, #0
 8005380:	d08b      	beq.n	800529a <HAL_UART_IRQHandler+0xda>
 8005382:	f103 020c 	add.w	r2, r3, #12
 8005386:	e852 2f00 	ldrex	r2, [r2]
 800538a:	f422 7290 	bic.w	r2, r2, #288	@ 0x120
 800538e:	f103 050c 	add.w	r5, r3, #12
 8005392:	e845 2000 	strex	r0, r2, [r5]
 8005396:	2800      	cmp	r0, #0
 8005398:	d1f3      	bne.n	8005382 <HAL_UART_IRQHandler+0x1c2>
 800539a:	f103 0214 	add.w	r2, r3, #20
 800539e:	e852 2f00 	ldrex	r2, [r2]
 80053a2:	f022 0201 	bic.w	r2, r2, #1
 80053a6:	f103 0514 	add.w	r5, r3, #20
 80053aa:	e845 2000 	strex	r0, r2, [r5]
 80053ae:	2800      	cmp	r0, #0
 80053b0:	d1f3      	bne.n	800539a <HAL_UART_IRQHandler+0x1da>
 80053b2:	2220      	movs	r2, #32
 80053b4:	f884 2042 	strb.w	r2, [r4, #66]	@ 0x42
 80053b8:	6320      	str	r0, [r4, #48]	@ 0x30
 80053ba:	f103 020c 	add.w	r2, r3, #12
 80053be:	e852 2f00 	ldrex	r2, [r2]
 80053c2:	f022 0210 	bic.w	r2, r2, #16
 80053c6:	f103 050c 	add.w	r5, r3, #12
 80053ca:	e845 2000 	strex	r0, r2, [r5]
 80053ce:	2800      	cmp	r0, #0
 80053d0:	d1f3      	bne.n	80053ba <HAL_UART_IRQHandler+0x1fa>
 80053d2:	2302      	movs	r3, #2
 80053d4:	6363      	str	r3, [r4, #52]	@ 0x34
 80053d6:	e7c5      	b.n	8005364 <HAL_UART_IRQHandler+0x1a4>
 80053d8:	0616      	lsls	r6, r2, #24
 80053da:	d528      	bpl.n	800542e <HAL_UART_IRQHandler+0x26e>
 80053dc:	060d      	lsls	r5, r1, #24
 80053de:	d526      	bpl.n	800542e <HAL_UART_IRQHandler+0x26e>
 80053e0:	f894 2041 	ldrb.w	r2, [r4, #65]	@ 0x41
 80053e4:	2a21      	cmp	r2, #33	@ 0x21
 80053e6:	f47f af58 	bne.w	800529a <HAL_UART_IRQHandler+0xda>
 80053ea:	68a1      	ldr	r1, [r4, #8]
 80053ec:	6a22      	ldr	r2, [r4, #32]
 80053ee:	f5b1 5f80 	cmp.w	r1, #4096	@ 0x1000
 80053f2:	d117      	bne.n	8005424 <HAL_UART_IRQHandler+0x264>
 80053f4:	6921      	ldr	r1, [r4, #16]
 80053f6:	b9a9      	cbnz	r1, 8005424 <HAL_UART_IRQHandler+0x264>
 80053f8:	f832 1b02 	ldrh.w	r1, [r2], #2
 80053fc:	f3c1 0108 	ubfx	r1, r1, #0, #9
 8005400:	6059      	str	r1, [r3, #4]
 8005402:	6222      	str	r2, [r4, #32]
 8005404:	8ce2      	ldrh	r2, [r4, #38]	@ 0x26
 8005406:	3a01      	subs	r2, #1
 8005408:	b292      	uxth	r2, r2
 800540a:	84e2      	strh	r2, [r4, #38]	@ 0x26
 800540c:	2a00      	cmp	r2, #0
 800540e:	f47f af44 	bne.w	800529a <HAL_UART_IRQHandler+0xda>
 8005412:	68da      	ldr	r2, [r3, #12]
 8005414:	f022 0280 	bic.w	r2, r2, #128	@ 0x80
 8005418:	60da      	str	r2, [r3, #12]
 800541a:	68da      	ldr	r2, [r3, #12]
 800541c:	f042 0240 	orr.w	r2, r2, #64	@ 0x40
 8005420:	60da      	str	r2, [r3, #12]
 8005422:	e73a      	b.n	800529a <HAL_UART_IRQHandler+0xda>
 8005424:	1c51      	adds	r1, r2, #1
 8005426:	6221      	str	r1, [r4, #32]
 8005428:	7812      	ldrb	r2, [r2, #0]
 800542a:	605a      	str	r2, [r3, #4]
 800542c:	e7ea      	b.n	8005404 <HAL_UART_IRQHandler+0x244>
 800542e:	0650      	lsls	r0, r2, #25
 8005430:	f57f af33 	bpl.w	800529a <HAL_UART_IRQHandler+0xda>
 8005434:	064a      	lsls	r2, r1, #25
 8005436:	f57f af30 	bpl.w	800529a <HAL_UART_IRQHandler+0xda>
 800543a:	68da      	ldr	r2, [r3, #12]
 800543c:	f022 0240 	bic.w	r2, r2, #64	@ 0x40
 8005440:	60da      	str	r2, [r3, #12]
 8005442:	2320      	movs	r3, #32
 8005444:	f884 3041 	strb.w	r3, [r4, #65]	@ 0x41
 8005448:	4620      	mov	r0, r4
 800544a:	f7ff fe52 	bl	80050f2 <HAL_UART_TxCpltCallback>
 800544e:	e724      	b.n	800529a <HAL_UART_IRQHandler+0xda>
 8005450:	080050f7 	.word	0x080050f7

08005454 <UART_Start_Receive_IT>:
 8005454:	85c2      	strh	r2, [r0, #46]	@ 0x2e
 8005456:	2300      	movs	r3, #0
 8005458:	8582      	strh	r2, [r0, #44]	@ 0x2c
 800545a:	6902      	ldr	r2, [r0, #16]
 800545c:	6443      	str	r3, [r0, #68]	@ 0x44
 800545e:	2322      	movs	r3, #34	@ 0x22
 8005460:	f880 3042 	strb.w	r3, [r0, #66]	@ 0x42
 8005464:	6281      	str	r1, [r0, #40]	@ 0x28
 8005466:	6803      	ldr	r3, [r0, #0]
 8005468:	b11a      	cbz	r2, 8005472 <UART_Start_Receive_IT+0x1e>
 800546a:	68da      	ldr	r2, [r3, #12]
 800546c:	f442 7280 	orr.w	r2, r2, #256	@ 0x100
 8005470:	60da      	str	r2, [r3, #12]
 8005472:	695a      	ldr	r2, [r3, #20]
 8005474:	f042 0201 	orr.w	r2, r2, #1
 8005478:	615a      	str	r2, [r3, #20]
 800547a:	68da      	ldr	r2, [r3, #12]
 800547c:	f042 0220 	orr.w	r2, r2, #32
 8005480:	60da      	str	r2, [r3, #12]
 8005482:	2000      	movs	r0, #0
 8005484:	4770      	bx	lr

08005486 <HAL_UART_Receive_IT>:
 8005486:	b470      	push	{r4, r5, r6}
 8005488:	f890 6042 	ldrb.w	r6, [r0, #66]	@ 0x42
 800548c:	2e20      	cmp	r6, #32
 800548e:	d106      	bne.n	800549e <HAL_UART_Receive_IT+0x18>
 8005490:	b141      	cbz	r1, 80054a4 <HAL_UART_Receive_IT+0x1e>
 8005492:	b13a      	cbz	r2, 80054a4 <HAL_UART_Receive_IT+0x1e>
 8005494:	2400      	movs	r4, #0
 8005496:	6304      	str	r4, [r0, #48]	@ 0x30
 8005498:	bc70      	pop	{r4, r5, r6}
 800549a:	f7ff bfdb 	b.w	8005454 <UART_Start_Receive_IT>
 800549e:	2002      	movs	r0, #2
 80054a0:	bc70      	pop	{r4, r5, r6}
 80054a2:	4770      	bx	lr
 80054a4:	2001      	movs	r0, #1
 80054a6:	e7fb      	b.n	80054a0 <HAL_UART_Receive_IT+0x1a>

080054a8 <memset>:
 80054a8:	4402      	add	r2, r0
 80054aa:	4603      	mov	r3, r0
 80054ac:	4293      	cmp	r3, r2
 80054ae:	d100      	bne.n	80054b2 <memset+0xa>
 80054b0:	4770      	bx	lr
 80054b2:	f803 1b01 	strb.w	r1, [r3], #1
 80054b6:	e7f9      	b.n	80054ac <memset+0x4>

080054b8 <__libc_init_array>:
 80054b8:	b570      	push	{r4, r5, r6, lr}
 80054ba:	4d0d      	ldr	r5, [pc, #52]	@ (80054f0 <__libc_init_array+0x38>)
 80054bc:	4c0d      	ldr	r4, [pc, #52]	@ (80054f4 <__libc_init_array+0x3c>)
 80054be:	1b64      	subs	r4, r4, r5
 80054c0:	10a4      	asrs	r4, r4, #2
 80054c2:	2600      	movs	r6, #0
 80054c4:	42a6      	cmp	r6, r4
 80054c6:	d109      	bne.n	80054dc <__libc_init_array+0x24>
 80054c8:	4d0b      	ldr	r5, [pc, #44]	@ (80054f8 <__libc_init_array+0x40>)
 80054ca:	4c0c      	ldr	r4, [pc, #48]	@ (80054fc <__libc_init_array+0x44>)
 80054cc:	f000 f818 	bl	8005500 <_init>
 80054d0:	1b64      	subs	r4, r4, r5
 80054d2:	10a4      	asrs	r4, r4, #2
 80054d4:	2600      	movs	r6, #0
 80054d6:	42a6      	cmp	r6, r4
 80054d8:	d105      	bne.n	80054e6 <__libc_init_array+0x2e>
 80054da:	bd70      	pop	{r4, r5, r6, pc}
 80054dc:	f855 3b04 	ldr.w	r3, [r5], #4
 80054e0:	4798      	blx	r3
 80054e2:	3601      	adds	r6, #1
 80054e4:	e7ee      	b.n	80054c4 <__libc_init_array+0xc>
 80054e6:	f855 3b04 	ldr.w	r3, [r5], #4
 80054ea:	4798      	blx	r3
 80054ec:	3601      	adds	r6, #1
 80054ee:	e7f2      	b.n	80054d6 <__libc_init_array+0x1e>
 80054f0:	080055d4 	.word	0x080055d4
 80054f4:	080055d4 	.word	0x080055d4
 80054f8:	080055d4 	.word	0x080055d4
 80054fc:	080055d8 	.word	0x080055d8

08005500 <_init>:
 8005500:	b5f8      	push	{r3, r4, r5, r6, r7, lr}
 8005502:	bf00      	nop
 8005504:	bcf8      	pop	{r3, r4, r5, r6, r7}
 8005506:	bc08      	pop	{r3}
 8005508:	469e      	mov	lr, r3
 800550a:	4770      	bx	lr

0800550c <_fini>:
 800550c:	b5f8      	push	{r3, r4, r5, r6, r7, lr}
 800550e:	bf00      	nop
 8005510:	bcf8      	pop	{r3, r4, r5, r6, r7}
 8005512:	bc08      	pop	{r3}
 8005514:	469e      	mov	lr, r3
 8005516:	4770      	bx	lr
