
AuroraV_Payload_F439.elf:     file format elf32-littlearm

Sections:
Idx Name          Size      VMA       LMA       File off  Algn
  0 .isr_vector   000001ac  08000000  08000000  00001000  2**0
                  CONTENTS, ALLOC, LOAD, READONLY, DATA
  1 .text         000055c0  080001ac  080001ac  000011ac  2**2
                  CONTENTS, ALLOC, LOAD, READONLY, CODE
  2 .rodata       000000b4  0800576c  0800576c  0000676c  2**0
                  CONTENTS, ALLOC, LOAD, READONLY, DATA
  3 .ARM.extab    00000000  08005820  08005820  00007028  2**0
                  CONTENTS
  4 .ARM          00000008  08005820  08005820  00006820  2**2
                  CONTENTS, ALLOC, LOAD, READONLY, DATA
  5 .preinit_array 00000000  08005828  08005828  00007028  2**0
                  CONTENTS, ALLOC, LOAD, DATA
  6 .init_array   00000004  08005828  08005828  00006828  2**2
                  CONTENTS, ALLOC, LOAD, DATA
  7 .fini_array   00000004  0800582c  0800582c  0000682c  2**2
                  CONTENTS, ALLOC, LOAD, DATA
  8 .data         00000028  20000000  08005830  00007000  2**2
                  CONTENTS, ALLOC, LOAD, DATA
  9 .ccmram       00000000  10000000  10000000  00007028  2**0
                  CONTENTS
 10 .bss          00000608  20000028  20000028  00007028  2**2
                  ALLOC
 11 ._user_heap_stack 00000600  20000630  20000630  00007028  2**0
                  ALLOC
 12 .ARM.attributes 00000030  00000000  00000000  00007028  2**0
                  CONTENTS, READONLY
 13 .comment      00000043  00000000  00000000  00007058  2**0
                  CONTENTS, READONLY
 14 .debug_frame  000000ac  00000000  00000000  0000709c  2**2
                  CONTENTS, READONLY, DEBUGGING, OCTETS

Disassembly of section .text:

080001ac <__do_global_dtors_aux>:
 80001ac:	b510      	push	{r4, lr}
 80001ae:	4c05      	ldr	r4, [pc, #20]	@ (80001c4 <__do_global_dtors_aux+0x18>)
 80001b0:	7823      	ldrb	r3, [r4, #0]
 80001b2:	b933      	cbnz	r3, 80001c2 <__do_global_dtors_aux+0x16>
 80001b4:	4b04      	ldr	r3, [pc, #16]	@ (80001c8 <__do_global_dtors_aux+0x1c>)
 80001b6:	b113      	cbz	r3, 80001be <__do_global_dtors_aux+0x12>
 80001b8:	4804      	ldr	r0, [pc, #16]	@ (80001cc <__do_global_dtors_aux+0x20>)
 80001ba:	f3af 8000 	nop.w
 80001be:	2301      	movs	r3, #1
 80001c0:	7023      	strb	r3, [r4, #0]
 80001c2:	bd10      	pop	{r4, pc}
 80001c4:	20000028 	.word	0x20000028
 80001c8:	00000000 	.word	0x00000000
 80001cc:	08005754 	.word	0x08005754

080001d0 <frame_dummy>:
 80001d0:	b508      	push	{r3, lr}
 80001d2:	4b03      	ldr	r3, [pc, #12]	@ (80001e0 <frame_dummy+0x10>)
 80001d4:	b11b      	cbz	r3, 80001de <frame_dummy+0xe>
 80001d6:	4903      	ldr	r1, [pc, #12]	@ (80001e4 <frame_dummy+0x14>)
 80001d8:	4803      	ldr	r0, [pc, #12]	@ (80001e8 <frame_dummy+0x18>)
 80001da:	f3af 8000 	nop.w
 80001de:	bd08      	pop	{r3, pc}
 80001e0:	00000000 	.word	0x00000000
 80001e4:	2000002c 	.word	0x2000002c
 80001e8:	08005754 	.word	0x08005754

080001ec <strlen>:
 80001ec:	4603      	mov	r3, r0
 80001ee:	f813 2b01 	ldrb.w	r2, [r3], #1
 80001f2:	2a00      	cmp	r2, #0
 80001f4:	d1fb      	bne.n	80001ee <strlen+0x2>
 80001f6:	1a18      	subs	r0, r3, r0
 80001f8:	3801      	subs	r0, #1
 80001fa:	4770      	bx	lr

080001fc <__aeabi_uldivmod>:
 80001fc:	b953      	cbnz	r3, 8000214 <__aeabi_uldivmod+0x18>
 80001fe:	b94a      	cbnz	r2, 8000214 <__aeabi_uldivmod+0x18>
 8000200:	2900      	cmp	r1, #0
 8000202:	bf08      	it	eq
 8000204:	2800      	cmpeq	r0, #0
 8000206:	bf1c      	itt	ne
 8000208:	f04f 31ff 	movne.w	r1, #4294967295	@ 0xffffffff
 800020c:	f04f 30ff 	movne.w	r0, #4294967295	@ 0xffffffff
 8000210:	f000 b96a 	b.w	80004e8 <__aeabi_idiv0>
 8000214:	f1ad 0c08 	sub.w	ip, sp, #8
 8000218:	e96d ce04 	strd	ip, lr, [sp, #-16]!
 800021c:	f000 f806 	bl	800022c <__udivmoddi4>
 8000220:	f8dd e004 	ldr.w	lr, [sp, #4]
 8000224:	e9dd 2302 	ldrd	r2, r3, [sp, #8]
 8000228:	b004      	add	sp, #16
 800022a:	4770      	bx	lr

0800022c <__udivmoddi4>:
 800022c:	e92d 47f0 	stmdb	sp!, {r4, r5, r6, r7, r8, r9, sl, lr}
 8000230:	9d08      	ldr	r5, [sp, #32]
 8000232:	460c      	mov	r4, r1
 8000234:	2b00      	cmp	r3, #0
 8000236:	d14e      	bne.n	80002d6 <__udivmoddi4+0xaa>
 8000238:	4694      	mov	ip, r2
 800023a:	458c      	cmp	ip, r1
 800023c:	4686      	mov	lr, r0
 800023e:	fab2 f282 	clz	r2, r2
 8000242:	d962      	bls.n	800030a <__udivmoddi4+0xde>
 8000244:	b14a      	cbz	r2, 800025a <__udivmoddi4+0x2e>
 8000246:	f1c2 0320 	rsb	r3, r2, #32
 800024a:	4091      	lsls	r1, r2
 800024c:	fa20 f303 	lsr.w	r3, r0, r3
 8000250:	fa0c fc02 	lsl.w	ip, ip, r2
 8000254:	4319      	orrs	r1, r3
 8000256:	fa00 fe02 	lsl.w	lr, r0, r2
 800025a:	ea4f 471c 	mov.w	r7, ip, lsr #16
 800025e:	fa1f f68c 	uxth.w	r6, ip
 8000262:	fbb1 f4f7 	udiv	r4, r1, r7
 8000266:	ea4f 431e 	mov.w	r3, lr, lsr #16
 800026a:	fb07 1114 	mls	r1, r7, r4, r1
 800026e:	ea43 4301 	orr.w	r3, r3, r1, lsl #16
 8000272:	fb04 f106 	mul.w	r1, r4, r6
 8000276:	4299      	cmp	r1, r3
 8000278:	d90a      	bls.n	8000290 <__udivmoddi4+0x64>
 800027a:	eb1c 0303 	adds.w	r3, ip, r3
 800027e:	f104 30ff 	add.w	r0, r4, #4294967295	@ 0xffffffff
 8000282:	f080 8112 	bcs.w	80004aa <__udivmoddi4+0x27e>
 8000286:	4299      	cmp	r1, r3
 8000288:	f240 810f 	bls.w	80004aa <__udivmoddi4+0x27e>
 800028c:	3c02      	subs	r4, #2
 800028e:	4463      	add	r3, ip
 8000290:	1a59      	subs	r1, r3, r1
 8000292:	fa1f f38e 	uxth.w	r3, lr
 8000296:	fbb1 f0f7 	udiv	r0, r1, r7
 800029a:	fb07 1110 	mls	r1, r7, r0, r1
 800029e:	ea43 4301 	orr.w	r3, r3, r1, lsl #16
 80002a2:	fb00 f606 	mul.w	r6, r0, r6
 80002a6:	429e      	cmp	r6, r3
 80002a8:	d90a      	bls.n	80002c0 <__udivmoddi4+0x94>
 80002aa:	eb1c 0303 	adds.w	r3, ip, r3
 80002ae:	f100 31ff 	add.w	r1, r0, #4294967295	@ 0xffffffff
 80002b2:	f080 80fc 	bcs.w	80004ae <__udivmoddi4+0x282>
 80002b6:	429e      	cmp	r6, r3
 80002b8:	f240 80f9 	bls.w	80004ae <__udivmoddi4+0x282>
 80002bc:	4463      	add	r3, ip
 80002be:	3802      	subs	r0, #2
 80002c0:	1b9b      	subs	r3, r3, r6
 80002c2:	ea40 4004 	orr.w	r0, r0, r4, lsl #16
 80002c6:	2100      	movs	r1, #0
 80002c8:	b11d      	cbz	r5, 80002d2 <__udivmoddi4+0xa6>
 80002ca:	40d3      	lsrs	r3, r2
 80002cc:	2200      	movs	r2, #0
 80002ce:	e9c5 3200 	strd	r3, r2, [r5]
 80002d2:	e8bd 87f0 	ldmia.w	sp!, {r4, r5, r6, r7, r8, r9, sl, pc}
 80002d6:	428b      	cmp	r3, r1
 80002d8:	d905      	bls.n	80002e6 <__udivmoddi4+0xba>
 80002da:	b10d      	cbz	r5, 80002e0 <__udivmoddi4+0xb4>
 80002dc:	e9c5 0100 	strd	r0, r1, [r5]
 80002e0:	2100      	movs	r1, #0
 80002e2:	4608      	mov	r0, r1
 80002e4:	e7f5      	b.n	80002d2 <__udivmoddi4+0xa6>
 80002e6:	fab3 f183 	clz	r1, r3
 80002ea:	2900      	cmp	r1, #0
 80002ec:	d146      	bne.n	800037c <__udivmoddi4+0x150>
 80002ee:	42a3      	cmp	r3, r4
 80002f0:	d302      	bcc.n	80002f8 <__udivmoddi4+0xcc>
 80002f2:	4290      	cmp	r0, r2
 80002f4:	f0c0 80f0 	bcc.w	80004d8 <__udivmoddi4+0x2ac>
 80002f8:	1a86      	subs	r6, r0, r2
 80002fa:	eb64 0303 	sbc.w	r3, r4, r3
 80002fe:	2001      	movs	r0, #1
 8000300:	2d00      	cmp	r5, #0
 8000302:	d0e6      	beq.n	80002d2 <__udivmoddi4+0xa6>
 8000304:	e9c5 6300 	strd	r6, r3, [r5]
 8000308:	e7e3      	b.n	80002d2 <__udivmoddi4+0xa6>
 800030a:	2a00      	cmp	r2, #0
 800030c:	f040 8090 	bne.w	8000430 <__udivmoddi4+0x204>
 8000310:	eba1 040c 	sub.w	r4, r1, ip
 8000314:	ea4f 481c 	mov.w	r8, ip, lsr #16
 8000318:	fa1f f78c 	uxth.w	r7, ip
 800031c:	2101      	movs	r1, #1
 800031e:	fbb4 f6f8 	udiv	r6, r4, r8
 8000322:	ea4f 431e 	mov.w	r3, lr, lsr #16
 8000326:	fb08 4416 	mls	r4, r8, r6, r4
 800032a:	ea43 4304 	orr.w	r3, r3, r4, lsl #16
 800032e:	fb07 f006 	mul.w	r0, r7, r6
 8000332:	4298      	cmp	r0, r3
 8000334:	d908      	bls.n	8000348 <__udivmoddi4+0x11c>
 8000336:	eb1c 0303 	adds.w	r3, ip, r3
 800033a:	f106 34ff 	add.w	r4, r6, #4294967295	@ 0xffffffff
 800033e:	d202      	bcs.n	8000346 <__udivmoddi4+0x11a>
 8000340:	4298      	cmp	r0, r3
 8000342:	f200 80cd 	bhi.w	80004e0 <__udivmoddi4+0x2b4>
 8000346:	4626      	mov	r6, r4
 8000348:	1a1c      	subs	r4, r3, r0
 800034a:	fa1f f38e 	uxth.w	r3, lr
 800034e:	fbb4 f0f8 	udiv	r0, r4, r8
 8000352:	fb08 4410 	mls	r4, r8, r0, r4
 8000356:	ea43 4304 	orr.w	r3, r3, r4, lsl #16
 800035a:	fb00 f707 	mul.w	r7, r0, r7
 800035e:	429f      	cmp	r7, r3
 8000360:	d908      	bls.n	8000374 <__udivmoddi4+0x148>
 8000362:	eb1c 0303 	adds.w	r3, ip, r3
 8000366:	f100 34ff 	add.w	r4, r0, #4294967295	@ 0xffffffff
 800036a:	d202      	bcs.n	8000372 <__udivmoddi4+0x146>
 800036c:	429f      	cmp	r7, r3
 800036e:	f200 80b0 	bhi.w	80004d2 <__udivmoddi4+0x2a6>
 8000372:	4620      	mov	r0, r4
 8000374:	1bdb      	subs	r3, r3, r7
 8000376:	ea40 4006 	orr.w	r0, r0, r6, lsl #16
 800037a:	e7a5      	b.n	80002c8 <__udivmoddi4+0x9c>
 800037c:	f1c1 0620 	rsb	r6, r1, #32
 8000380:	408b      	lsls	r3, r1
 8000382:	fa22 f706 	lsr.w	r7, r2, r6
 8000386:	431f      	orrs	r7, r3
 8000388:	fa20 fc06 	lsr.w	ip, r0, r6
 800038c:	fa04 f301 	lsl.w	r3, r4, r1
 8000390:	ea43 030c 	orr.w	r3, r3, ip
 8000394:	40f4      	lsrs	r4, r6
 8000396:	fa00 f801 	lsl.w	r8, r0, r1
 800039a:	0c38      	lsrs	r0, r7, #16
 800039c:	ea4f 4913 	mov.w	r9, r3, lsr #16
 80003a0:	fbb4 fef0 	udiv	lr, r4, r0
 80003a4:	fa1f fc87 	uxth.w	ip, r7
 80003a8:	fb00 441e 	mls	r4, r0, lr, r4
 80003ac:	ea49 4404 	orr.w	r4, r9, r4, lsl #16
 80003b0:	fb0e f90c 	mul.w	r9, lr, ip
 80003b4:	45a1      	cmp	r9, r4
 80003b6:	fa02 f201 	lsl.w	r2, r2, r1
 80003ba:	d90a      	bls.n	80003d2 <__udivmoddi4+0x1a6>
 80003bc:	193c      	adds	r4, r7, r4
 80003be:	f10e 3aff 	add.w	sl, lr, #4294967295	@ 0xffffffff
 80003c2:	f080 8084 	bcs.w	80004ce <__udivmoddi4+0x2a2>
 80003c6:	45a1      	cmp	r9, r4
 80003c8:	f240 8081 	bls.w	80004ce <__udivmoddi4+0x2a2>
 80003cc:	f1ae 0e02 	sub.w	lr, lr, #2
 80003d0:	443c      	add	r4, r7
 80003d2:	eba4 0409 	sub.w	r4, r4, r9
 80003d6:	fa1f f983 	uxth.w	r9, r3
 80003da:	fbb4 f3f0 	udiv	r3, r4, r0
 80003de:	fb00 4413 	mls	r4, r0, r3, r4
 80003e2:	ea49 4404 	orr.w	r4, r9, r4, lsl #16
 80003e6:	fb03 fc0c 	mul.w	ip, r3, ip
 80003ea:	45a4      	cmp	ip, r4
 80003ec:	d907      	bls.n	80003fe <__udivmoddi4+0x1d2>
 80003ee:	193c      	adds	r4, r7, r4
 80003f0:	f103 30ff 	add.w	r0, r3, #4294967295	@ 0xffffffff
 80003f4:	d267      	bcs.n	80004c6 <__udivmoddi4+0x29a>
 80003f6:	45a4      	cmp	ip, r4
 80003f8:	d965      	bls.n	80004c6 <__udivmoddi4+0x29a>
 80003fa:	3b02      	subs	r3, #2
 80003fc:	443c      	add	r4, r7
 80003fe:	ea43 400e 	orr.w	r0, r3, lr, lsl #16
 8000402:	fba0 9302 	umull	r9, r3, r0, r2
 8000406:	eba4 040c 	sub.w	r4, r4, ip
 800040a:	429c      	cmp	r4, r3
 800040c:	46ce      	mov	lr, r9
 800040e:	469c      	mov	ip, r3
 8000410:	d351      	bcc.n	80004b6 <__udivmoddi4+0x28a>
 8000412:	d04e      	beq.n	80004b2 <__udivmoddi4+0x286>
 8000414:	b155      	cbz	r5, 800042c <__udivmoddi4+0x200>
 8000416:	ebb8 030e 	subs.w	r3, r8, lr
 800041a:	eb64 040c 	sbc.w	r4, r4, ip
 800041e:	fa04 f606 	lsl.w	r6, r4, r6
 8000422:	40cb      	lsrs	r3, r1
 8000424:	431e      	orrs	r6, r3
 8000426:	40cc      	lsrs	r4, r1
 8000428:	e9c5 6400 	strd	r6, r4, [r5]
 800042c:	2100      	movs	r1, #0
 800042e:	e750      	b.n	80002d2 <__udivmoddi4+0xa6>
 8000430:	f1c2 0320 	rsb	r3, r2, #32
 8000434:	fa20 f103 	lsr.w	r1, r0, r3
 8000438:	fa0c fc02 	lsl.w	ip, ip, r2
 800043c:	fa24 f303 	lsr.w	r3, r4, r3
 8000440:	4094      	lsls	r4, r2
 8000442:	430c      	orrs	r4, r1
 8000444:	ea4f 481c 	mov.w	r8, ip, lsr #16
 8000448:	fa00 fe02 	lsl.w	lr, r0, r2
 800044c:	fa1f f78c 	uxth.w	r7, ip
 8000450:	fbb3 f0f8 	udiv	r0, r3, r8
 8000454:	fb08 3110 	mls	r1, r8, r0, r3
 8000458:	0c23      	lsrs	r3, r4, #16
 800045a:	ea43 4301 	orr.w	r3, r3, r1, lsl #16
 800045e:	fb00 f107 	mul.w	r1, r0, r7
 8000462:	4299      	cmp	r1, r3
 8000464:	d908      	bls.n	8000478 <__udivmoddi4+0x24c>
 8000466:	eb1c 0303 	adds.w	r3, ip, r3
 800046a:	f100 36ff 	add.w	r6, r0, #4294967295	@ 0xffffffff
 800046e:	d22c      	bcs.n	80004ca <__udivmoddi4+0x29e>
 8000470:	4299      	cmp	r1, r3
 8000472:	d92a      	bls.n	80004ca <__udivmoddi4+0x29e>
 8000474:	3802      	subs	r0, #2
 8000476:	4463      	add	r3, ip
 8000478:	1a5b      	subs	r3, r3, r1
 800047a:	b2a4      	uxth	r4, r4
 800047c:	fbb3 f1f8 	udiv	r1, r3, r8
 8000480:	fb08 3311 	mls	r3, r8, r1, r3
 8000484:	ea44 4403 	orr.w	r4, r4, r3, lsl #16
 8000488:	fb01 f307 	mul.w	r3, r1, r7
 800048c:	42a3      	cmp	r3, r4
 800048e:	d908      	bls.n	80004a2 <__udivmoddi4+0x276>
 8000490:	eb1c 0404 	adds.w	r4, ip, r4
 8000494:	f101 36ff 	add.w	r6, r1, #4294967295	@ 0xffffffff
 8000498:	d213      	bcs.n	80004c2 <__udivmoddi4+0x296>
 800049a:	42a3      	cmp	r3, r4
 800049c:	d911      	bls.n	80004c2 <__udivmoddi4+0x296>
 800049e:	3902      	subs	r1, #2
 80004a0:	4464      	add	r4, ip
 80004a2:	1ae4      	subs	r4, r4, r3
 80004a4:	ea41 4100 	orr.w	r1, r1, r0, lsl #16
 80004a8:	e739      	b.n	800031e <__udivmoddi4+0xf2>
 80004aa:	4604      	mov	r4, r0
 80004ac:	e6f0      	b.n	8000290 <__udivmoddi4+0x64>
 80004ae:	4608      	mov	r0, r1
 80004b0:	e706      	b.n	80002c0 <__udivmoddi4+0x94>
 80004b2:	45c8      	cmp	r8, r9
 80004b4:	d2ae      	bcs.n	8000414 <__udivmoddi4+0x1e8>
 80004b6:	ebb9 0e02 	subs.w	lr, r9, r2
 80004ba:	eb63 0c07 	sbc.w	ip, r3, r7
 80004be:	3801      	subs	r0, #1
 80004c0:	e7a8      	b.n	8000414 <__udivmoddi4+0x1e8>
 80004c2:	4631      	mov	r1, r6
 80004c4:	e7ed      	b.n	80004a2 <__udivmoddi4+0x276>
 80004c6:	4603      	mov	r3, r0
 80004c8:	e799      	b.n	80003fe <__udivmoddi4+0x1d2>
 80004ca:	4630      	mov	r0, r6
 80004cc:	e7d4      	b.n	8000478 <__udivmoddi4+0x24c>
 80004ce:	46d6      	mov	lr, sl
 80004d0:	e77f      	b.n	80003d2 <__udivmoddi4+0x1a6>
 80004d2:	4463      	add	r3, ip
 80004d4:	3802      	subs	r0, #2
 80004d6:	e74d      	b.n	8000374 <__udivmoddi4+0x148>
 80004d8:	4606      	mov	r6, r0
 80004da:	4623      	mov	r3, r4
 80004dc:	4608      	mov	r0, r1
 80004de:	e70f      	b.n	8000300 <__udivmoddi4+0xd4>
 80004e0:	3e02      	subs	r6, #2
 80004e2:	4463      	add	r3, ip
 80004e4:	e730      	b.n	8000348 <__udivmoddi4+0x11c>
 80004e6:	bf00      	nop

080004e8 <__aeabi_idiv0>:
 80004e8:	4770      	bx	lr
 80004ea:	bf00      	nop

080004ec <readAccelerometer>:
 80004ec:	b507      	push	{r0, r1, r2, lr}
 80004ee:	4603      	mov	r3, r0
 80004f0:	2200      	movs	r2, #0
 80004f2:	601a      	str	r2, [r3, #0]
 80004f4:	809a      	strh	r2, [r3, #4]
 80004f6:	4608      	mov	r0, r1
 80004f8:	4a05      	ldr	r2, [pc, #20]	@ (8000510 <readAccelerometer+0x24>)
 80004fa:	4906      	ldr	r1, [pc, #24]	@ (8000514 <readAccelerometer+0x28>)
 80004fc:	9300      	str	r3, [sp, #0]
 80004fe:	7812      	ldrb	r2, [r2, #0]
 8000500:	7809      	ldrb	r1, [r1, #0]
 8000502:	2306      	movs	r3, #6
 8000504:	f000 fa62 	bl	80009cc <i2c_burst_read>
 8000508:	b003      	add	sp, #12
 800050a:	f85d fb04 	ldr.w	pc, [sp], #4
 800050e:	bf00      	nop
 8000510:	20000000 	.word	0x20000000
 8000514:	20000007 	.word	0x20000007

08000518 <readAccel_whoami>:
 8000518:	b507      	push	{r0, r1, r2, lr}
 800051a:	4a07      	ldr	r2, [pc, #28]	@ (8000538 <readAccel_whoami+0x20>)
 800051c:	2300      	movs	r3, #0
 800051e:	f88d 3007 	strb.w	r3, [sp, #7]
 8000522:	7812      	ldrb	r2, [r2, #0]
 8000524:	4b05      	ldr	r3, [pc, #20]	@ (800053c <readAccel_whoami+0x24>)
 8000526:	f10d 0107 	add.w	r1, sp, #7
 800052a:	f000 fa38 	bl	800099e <i2c_read_reg>
 800052e:	f89d 0007 	ldrb.w	r0, [sp, #7]
 8000532:	b003      	add	sp, #12
 8000534:	f85d fb04 	ldr.w	pc, [sp], #4
 8000538:	20000007 	.word	0x20000007
 800053c:	20000044 	.word	0x20000044

08000540 <writeOffset>:
 8000540:	b570      	push	{r4, r5, r6, lr}
 8000542:	4d0a      	ldr	r5, [pc, #40]	@ (800056c <writeOffset+0x2c>)
 8000544:	4a0a      	ldr	r2, [pc, #40]	@ (8000570 <writeOffset+0x30>)
 8000546:	7829      	ldrb	r1, [r5, #0]
 8000548:	4604      	mov	r4, r0
 800054a:	2302      	movs	r3, #2
 800054c:	f000 fa59 	bl	8000a02 <i2c_write_reg>
 8000550:	7829      	ldrb	r1, [r5, #0]
 8000552:	4a08      	ldr	r2, [pc, #32]	@ (8000574 <writeOffset+0x34>)
 8000554:	2301      	movs	r3, #1
 8000556:	4620      	mov	r0, r4
 8000558:	f000 fa53 	bl	8000a02 <i2c_write_reg>
 800055c:	7829      	ldrb	r1, [r5, #0]
 800055e:	4a06      	ldr	r2, [pc, #24]	@ (8000578 <writeOffset+0x38>)
 8000560:	4620      	mov	r0, r4
 8000562:	2301      	movs	r3, #1
 8000564:	e8bd 4070 	ldmia.w	sp!, {r4, r5, r6, lr}
 8000568:	f000 ba4b 	b.w	8000a02 <i2c_write_reg>
 800056c:	20000007 	.word	0x20000007
 8000570:	20000003 	.word	0x20000003
 8000574:	20000002 	.word	0x20000002
 8000578:	20000001 	.word	0x20000001

0800057c <init_accel>:
 800057c:	b570      	push	{r4, r5, r6, lr}
 800057e:	4d0f      	ldr	r5, [pc, #60]	@ (80005bc <init_accel+0x40>)
 8000580:	4e0f      	ldr	r6, [pc, #60]	@ (80005c0 <init_accel+0x44>)
 8000582:	7829      	ldrb	r1, [r5, #0]
 8000584:	4604      	mov	r4, r0
 8000586:	4632      	mov	r2, r6
 8000588:	2300      	movs	r3, #0
 800058a:	f000 fa3a 	bl	8000a02 <i2c_write_reg>
 800058e:	7829      	ldrb	r1, [r5, #0]
 8000590:	4a0c      	ldr	r2, [pc, #48]	@ (80005c4 <init_accel+0x48>)
 8000592:	230b      	movs	r3, #11
 8000594:	4620      	mov	r0, r4
 8000596:	f000 fa34 	bl	8000a02 <i2c_write_reg>
 800059a:	7829      	ldrb	r1, [r5, #0]
 800059c:	4a0a      	ldr	r2, [pc, #40]	@ (80005c8 <init_accel+0x4c>)
 800059e:	230b      	movs	r3, #11
 80005a0:	4620      	mov	r0, r4
 80005a2:	f000 fa2e 	bl	8000a02 <i2c_write_reg>
 80005a6:	4620      	mov	r0, r4
 80005a8:	f7ff ffca 	bl	8000540 <writeOffset>
 80005ac:	7829      	ldrb	r1, [r5, #0]
 80005ae:	4632      	mov	r2, r6
 80005b0:	4620      	mov	r0, r4
 80005b2:	2308      	movs	r3, #8
 80005b4:	e8bd 4070 	ldmia.w	sp!, {r4, r5, r6, lr}
 80005b8:	f000 ba23 	b.w	8000a02 <i2c_write_reg>
 80005bc:	20000007 	.word	0x20000007
 80005c0:	20000005 	.word	0x20000005
 80005c4:	20000004 	.word	0x20000004
 80005c8:	20000006 	.word	0x20000006

080005cc <getBME280Config>:
 80005cc:	2300      	movs	r3, #0
 80005ce:	b120      	cbz	r0, 80005da <getBME280Config+0xe>
 80005d0:	2801      	cmp	r0, #1
 80005d2:	bf08      	it	eq
 80005d4:	2377      	moveq	r3, #119	@ 0x77
 80005d6:	4618      	mov	r0, r3
 80005d8:	4770      	bx	lr
 80005da:	2376      	movs	r3, #118	@ 0x76
 80005dc:	e7fb      	b.n	80005d6 <getBME280Config+0xa>
	...

080005e0 <init_bme280>:
 80005e0:	b5f7      	push	{r0, r1, r2, r4, r5, r6, r7, lr}
 80005e2:	4604      	mov	r4, r0
 80005e4:	4608      	mov	r0, r1
 80005e6:	f7ff fff1 	bl	80005cc <getBME280Config>
 80005ea:	4f16      	ldr	r7, [pc, #88]	@ (8000644 <init_bme280+0x64>)
 80005ec:	4a16      	ldr	r2, [pc, #88]	@ (8000648 <init_bme280+0x68>)
 80005ee:	b2c5      	uxtb	r5, r0
 80005f0:	2600      	movs	r6, #0
 80005f2:	4629      	mov	r1, r5
 80005f4:	23b6      	movs	r3, #182	@ 0xb6
 80005f6:	4620      	mov	r0, r4
 80005f8:	f88d 6007 	strb.w	r6, [sp, #7]
 80005fc:	f000 fa01 	bl	8000a02 <i2c_write_reg>
 8000600:	463b      	mov	r3, r7
 8000602:	462a      	mov	r2, r5
 8000604:	f10d 0107 	add.w	r1, sp, #7
 8000608:	4620      	mov	r0, r4
 800060a:	f000 f9c8 	bl	800099e <i2c_read_reg>
 800060e:	f89d 3007 	ldrb.w	r3, [sp, #7]
 8000612:	f023 0307 	bic.w	r3, r3, #7
 8000616:	f043 0301 	orr.w	r3, r3, #1
 800061a:	463a      	mov	r2, r7
 800061c:	4629      	mov	r1, r5
 800061e:	4620      	mov	r0, r4
 8000620:	f88d 3007 	strb.w	r3, [sp, #7]
 8000624:	f000 f9ed 	bl	8000a02 <i2c_write_reg>
 8000628:	4629      	mov	r1, r5
 800062a:	4a08      	ldr	r2, [pc, #32]	@ (800064c <init_bme280+0x6c>)
 800062c:	2327      	movs	r3, #39	@ 0x27
 800062e:	4620      	mov	r0, r4
 8000630:	f000 f9e7 	bl	8000a02 <i2c_write_reg>
 8000634:	4a06      	ldr	r2, [pc, #24]	@ (8000650 <init_bme280+0x70>)
 8000636:	4633      	mov	r3, r6
 8000638:	4629      	mov	r1, r5
 800063a:	4620      	mov	r0, r4
 800063c:	f000 f9e1 	bl	8000a02 <i2c_write_reg>
 8000640:	b003      	add	sp, #12
 8000642:	bdf0      	pop	{r4, r5, r6, r7, pc}
 8000644:	2000000d 	.word	0x2000000d
 8000648:	2000000e 	.word	0x2000000e
 800064c:	2000000c 	.word	0x2000000c
 8000650:	2000000b 	.word	0x2000000b

08000654 <readBME280_id_reg>:
 8000654:	b513      	push	{r0, r1, r4, lr}
 8000656:	4604      	mov	r4, r0
 8000658:	4608      	mov	r0, r1
 800065a:	f7ff ffb7 	bl	80005cc <getBME280Config>
 800065e:	2300      	movs	r3, #0
 8000660:	f88d 3007 	strb.w	r3, [sp, #7]
 8000664:	b2c2      	uxtb	r2, r0
 8000666:	4b05      	ldr	r3, [pc, #20]	@ (800067c <readBME280_id_reg+0x28>)
 8000668:	f10d 0107 	add.w	r1, sp, #7
 800066c:	4620      	mov	r0, r4
 800066e:	f000 f996 	bl	800099e <i2c_read_reg>
 8000672:	f89d 0007 	ldrb.w	r0, [sp, #7]
 8000676:	b002      	add	sp, #8
 8000678:	bd10      	pop	{r4, pc}
 800067a:	bf00      	nop
 800067c:	2000000f 	.word	0x2000000f

08000680 <readBME280_calib>:
 8000680:	b573      	push	{r0, r1, r4, r5, r6, lr}
 8000682:	4604      	mov	r4, r0
 8000684:	4608      	mov	r0, r1
 8000686:	461e      	mov	r6, r3
 8000688:	f7ff ffa0 	bl	80005cc <getBME280Config>
 800068c:	9200      	str	r2, [sp, #0]
 800068e:	4a09      	ldr	r2, [pc, #36]	@ (80006b4 <readBME280_calib+0x34>)
 8000690:	b2c5      	uxtb	r5, r0
 8000692:	4629      	mov	r1, r5
 8000694:	7812      	ldrb	r2, [r2, #0]
 8000696:	2319      	movs	r3, #25
 8000698:	4620      	mov	r0, r4
 800069a:	f000 f997 	bl	80009cc <i2c_burst_read>
 800069e:	4a06      	ldr	r2, [pc, #24]	@ (80006b8 <readBME280_calib+0x38>)
 80006a0:	9600      	str	r6, [sp, #0]
 80006a2:	7812      	ldrb	r2, [r2, #0]
 80006a4:	2307      	movs	r3, #7
 80006a6:	4629      	mov	r1, r5
 80006a8:	4620      	mov	r0, r4
 80006aa:	f000 f98f 	bl	80009cc <i2c_burst_read>
 80006ae:	b002      	add	sp, #8
 80006b0:	bd70      	pop	{r4, r5, r6, pc}
 80006b2:	bf00      	nop
 80006b4:	20000009 	.word	0x20000009
 80006b8:	20000008 	.word	0x20000008

080006bc <readTempHumPres>:
 80006bc:	b57f      	push	{r0, r1, r2, r3, r4, r5, r6, lr}
 80006be:	460d      	mov	r5, r1
 80006c0:	4917      	ldr	r1, [pc, #92]	@ (8000720 <readTempHumPres+0x64>)
 80006c2:	4604      	mov	r4, r0
 80006c4:	6808      	ldr	r0, [r1, #0]
 80006c6:	6849      	ldr	r1, [r1, #4]
 80006c8:	ab02      	add	r3, sp, #8
 80006ca:	c303      	stmia	r3!, {r0, r1}
 80006cc:	4610      	mov	r0, r2
 80006ce:	f7ff ff7d 	bl	80005cc <getBME280Config>
 80006d2:	4a14      	ldr	r2, [pc, #80]	@ (8000724 <readTempHumPres+0x68>)
 80006d4:	ae02      	add	r6, sp, #8
 80006d6:	9600      	str	r6, [sp, #0]
 80006d8:	b2c1      	uxtb	r1, r0
 80006da:	7812      	ldrb	r2, [r2, #0]
 80006dc:	2308      	movs	r3, #8
 80006de:	4628      	mov	r0, r5
 80006e0:	f000 f974 	bl	80009cc <i2c_burst_read>
 80006e4:	2300      	movs	r3, #0
 80006e6:	461a      	mov	r2, r3
 80006e8:	2124      	movs	r1, #36	@ 0x24
 80006ea:	fa21 f003 	lsr.w	r0, r1, r3
 80006ee:	07c0      	lsls	r0, r0, #31
 80006f0:	bf5c      	itt	pl
 80006f2:	5cf0      	ldrbpl	r0, [r6, r3]
 80006f4:	54a0      	strbpl	r0, [r4, r2]
 80006f6:	f103 0301 	add.w	r3, r3, #1
 80006fa:	bf5c      	itt	pl
 80006fc:	3201      	addpl	r2, #1
 80006fe:	b2d2      	uxtbpl	r2, r2
 8000700:	2b08      	cmp	r3, #8
 8000702:	d1f2      	bne.n	80006ea <readTempHumPres+0x2e>
 8000704:	7823      	ldrb	r3, [r4, #0]
 8000706:	7862      	ldrb	r2, [r4, #1]
 8000708:	7022      	strb	r2, [r4, #0]
 800070a:	7063      	strb	r3, [r4, #1]
 800070c:	78e2      	ldrb	r2, [r4, #3]
 800070e:	78a3      	ldrb	r3, [r4, #2]
 8000710:	70e3      	strb	r3, [r4, #3]
 8000712:	70a2      	strb	r2, [r4, #2]
 8000714:	7923      	ldrb	r3, [r4, #4]
 8000716:	7962      	ldrb	r2, [r4, #5]
 8000718:	7122      	strb	r2, [r4, #4]
 800071a:	7163      	strb	r3, [r4, #5]
 800071c:	b004      	add	sp, #16
 800071e:	bd70      	pop	{r4, r5, r6, pc}
 8000720:	0800576c 	.word	0x0800576c
 8000724:	2000000a 	.word	0x2000000a

08000728 <sendCAN_TxMessage>:
 8000728:	b510      	push	{r4, lr}
 800072a:	b086      	sub	sp, #24
 800072c:	f8bd 4020 	ldrh.w	r4, [sp, #32]
 8000730:	9400      	str	r4, [sp, #0]
 8000732:	9104      	str	r1, [sp, #16]
 8000734:	2400      	movs	r4, #0
 8000736:	4669      	mov	r1, sp
 8000738:	e9cd 4402 	strd	r4, r4, [sp, #8]
 800073c:	f88d 4014 	strb.w	r4, [sp, #20]
 8000740:	f001 ff51 	bl	80025e6 <HAL_CAN_AddTxMessage>
 8000744:	b006      	add	sp, #24
 8000746:	bd10      	pop	{r4, pc}

08000748 <check_status_register>:
 8000748:	b57f      	push	{r0, r1, r2, r3, r4, r5, r6, lr}
 800074a:	ab02      	add	r3, sp, #8
 800074c:	e883 0006 	stmia.w	r3, {r1, r2}
 8000750:	2300      	movs	r3, #0
 8000752:	f88d 3017 	strb.w	r3, [sp, #23]
 8000756:	f8bd 300c 	ldrh.w	r3, [sp, #12]
 800075a:	9300      	str	r3, [sp, #0]
 800075c:	f10d 0217 	add.w	r2, sp, #23
 8000760:	460b      	mov	r3, r1
 8000762:	4601      	mov	r1, r0
 8000764:	4803      	ldr	r0, [pc, #12]	@ (8000774 <check_status_register+0x2c>)
 8000766:	f001 f9b3 	bl	8001ad0 <spi_sendOp_readByte>
 800076a:	f89d 0017 	ldrb.w	r0, [sp, #23]
 800076e:	b007      	add	sp, #28
 8000770:	f85d fb04 	ldr.w	pc, [sp], #4
 8000774:	20000015 	.word	0x20000015

08000778 <check_busy>:
 8000778:	e92d 41f3 	stmdb	sp!, {r0, r1, r4, r5, r6, r7, r8, lr}
 800077c:	466d      	mov	r5, sp
 800077e:	e885 0006 	stmia.w	r5, {r1, r2}
 8000782:	4607      	mov	r7, r0
 8000784:	4698      	mov	r8, r3
 8000786:	f001 fde7 	bl	8002358 <HAL_GetTick>
 800078a:	4606      	mov	r6, r0
 800078c:	e895 0006 	ldmia.w	r5, {r1, r2}
 8000790:	4638      	mov	r0, r7
 8000792:	f7ff ffd9 	bl	8000748 <check_status_register>
 8000796:	f000 0401 	and.w	r4, r0, #1
 800079a:	f001 fddd 	bl	8002358 <HAL_GetTick>
 800079e:	1b80      	subs	r0, r0, r6
 80007a0:	4540      	cmp	r0, r8
 80007a2:	d205      	bcs.n	80007b0 <check_busy+0x38>
 80007a4:	2c00      	cmp	r4, #0
 80007a6:	d1f1      	bne.n	800078c <check_busy+0x14>
 80007a8:	4620      	mov	r0, r4
 80007aa:	b002      	add	sp, #8
 80007ac:	e8bd 81f0 	ldmia.w	sp!, {r4, r5, r6, r7, r8, pc}
 80007b0:	2401      	movs	r4, #1
 80007b2:	e7f9      	b.n	80007a8 <check_busy+0x30>

080007b4 <write_enable_spi>:
 80007b4:	b082      	sub	sp, #8
 80007b6:	ab02      	add	r3, sp, #8
 80007b8:	e903 0006 	stmdb	r3, {r1, r2}
 80007bc:	460a      	mov	r2, r1
 80007be:	f8bd 3004 	ldrh.w	r3, [sp, #4]
 80007c2:	4601      	mov	r1, r0
 80007c4:	4801      	ldr	r0, [pc, #4]	@ (80007cc <write_enable_spi+0x18>)
 80007c6:	b002      	add	sp, #8
 80007c8:	f001 b9a4 	b.w	8001b14 <perform_operation>
 80007cc:	20000017 	.word	0x20000017

080007d0 <erase_chip_spi>:
 80007d0:	b537      	push	{r0, r1, r2, r4, r5, lr}
 80007d2:	466c      	mov	r4, sp
 80007d4:	e884 0006 	stmia.w	r4, {r1, r2}
 80007d8:	4605      	mov	r5, r0
 80007da:	e894 0006 	ldmia.w	r4, {r1, r2}
 80007de:	2305      	movs	r3, #5
 80007e0:	f7ff ffca 	bl	8000778 <check_busy>
 80007e4:	e894 0006 	ldmia.w	r4, {r1, r2}
 80007e8:	4628      	mov	r0, r5
 80007ea:	f7ff ffe3 	bl	80007b4 <write_enable_spi>
 80007ee:	f8bd 3004 	ldrh.w	r3, [sp, #4]
 80007f2:	9a00      	ldr	r2, [sp, #0]
 80007f4:	4806      	ldr	r0, [pc, #24]	@ (8000810 <erase_chip_spi+0x40>)
 80007f6:	4629      	mov	r1, r5
 80007f8:	f001 f98c 	bl	8001b14 <perform_operation>
 80007fc:	e894 0006 	ldmia.w	r4, {r1, r2}
 8000800:	4b04      	ldr	r3, [pc, #16]	@ (8000814 <erase_chip_spi+0x44>)
 8000802:	4628      	mov	r0, r5
 8000804:	f7ff ffb8 	bl	8000778 <check_busy>
 8000808:	2000      	movs	r0, #0
 800080a:	b003      	add	sp, #12
 800080c:	bd30      	pop	{r4, r5, pc}
 800080e:	bf00      	nop
 8000810:	20000012 	.word	0x20000012
 8000814:	00030d40 	.word	0x00030d40

08000818 <software_reset>:
 8000818:	b5f7      	push	{r0, r1, r2, r4, r5, r6, r7, lr}
 800081a:	466d      	mov	r5, sp
 800081c:	e885 0006 	stmia.w	r5, {r1, r2}
 8000820:	f8bd 7004 	ldrh.w	r7, [sp, #4]
 8000824:	4604      	mov	r4, r0
 8000826:	460e      	mov	r6, r1
 8000828:	2305      	movs	r3, #5
 800082a:	e895 0006 	ldmia.w	r5, {r1, r2}
 800082e:	f7ff ffa3 	bl	8000778 <check_busy>
 8000832:	463b      	mov	r3, r7
 8000834:	4632      	mov	r2, r6
 8000836:	4621      	mov	r1, r4
 8000838:	4807      	ldr	r0, [pc, #28]	@ (8000858 <software_reset+0x40>)
 800083a:	f001 f96b 	bl	8001b14 <perform_operation>
 800083e:	463b      	mov	r3, r7
 8000840:	4632      	mov	r2, r6
 8000842:	4621      	mov	r1, r4
 8000844:	4805      	ldr	r0, [pc, #20]	@ (800085c <software_reset+0x44>)
 8000846:	f001 f965 	bl	8001b14 <perform_operation>
 800084a:	2005      	movs	r0, #5
 800084c:	b003      	add	sp, #12
 800084e:	e8bd 40f0 	ldmia.w	sp!, {r4, r5, r6, r7, lr}
 8000852:	f001 bd87 	b.w	8002364 <HAL_Delay>
 8000856:	bf00      	nop
 8000858:	20000011 	.word	0x20000011
 800085c:	20000010 	.word	0x20000010

08000860 <write_data_spi_dma>:
 8000860:	b082      	sub	sp, #8
 8000862:	b5f0      	push	{r4, r5, r6, r7, lr}
 8000864:	b085      	sub	sp, #20
 8000866:	ac0a      	add	r4, sp, #40	@ 0x28
 8000868:	460d      	mov	r5, r1
 800086a:	f844 3f04 	str.w	r3, [r4, #4]!
 800086e:	4606      	mov	r6, r0
 8000870:	4617      	mov	r7, r2
 8000872:	2305      	movs	r3, #5
 8000874:	e894 0006 	ldmia.w	r4, {r1, r2}
 8000878:	4628      	mov	r0, r5
 800087a:	f7ff ff7d 	bl	8000778 <check_busy>
 800087e:	e894 0006 	ldmia.w	r4, {r1, r2}
 8000882:	4628      	mov	r0, r5
 8000884:	f7ff ff96 	bl	80007b4 <write_enable_spi>
 8000888:	f8bd 3030 	ldrh.w	r3, [sp, #48]	@ 0x30
 800088c:	9302      	str	r3, [sp, #8]
 800088e:	9b0b      	ldr	r3, [sp, #44]	@ 0x2c
 8000890:	4807      	ldr	r0, [pc, #28]	@ (80008b0 <write_data_spi_dma+0x50>)
 8000892:	e9cd 7300 	strd	r7, r3, [sp]
 8000896:	4632      	mov	r2, r6
 8000898:	462b      	mov	r3, r5
 800089a:	f44f 7180 	mov.w	r1, #256	@ 0x100
 800089e:	f001 f993 	bl	8001bc8 <spi_write_data_dma>
 80008a2:	2000      	movs	r0, #0
 80008a4:	b005      	add	sp, #20
 80008a6:	e8bd 40f0 	ldmia.w	sp!, {r4, r5, r6, r7, lr}
 80008aa:	b002      	add	sp, #8
 80008ac:	4770      	bx	lr
 80008ae:	bf00      	nop
 80008b0:	20000016 	.word	0x20000016

080008b4 <find_next_blank_page>:
 80008b4:	e92d 41f0 	stmdb	sp!, {r4, r5, r6, r7, r8, lr}
 80008b8:	b088      	sub	sp, #32
 80008ba:	af04      	add	r7, sp, #16
 80008bc:	e887 000c 	stmia.w	r7, {r2, r3}
 80008c0:	2400      	movs	r4, #0
 80008c2:	f8df 8050 	ldr.w	r8, [pc, #80]	@ 8000914 <find_next_blank_page+0x60>
 80008c6:	9407      	str	r4, [sp, #28]
 80008c8:	4606      	mov	r6, r0
 80008ca:	460d      	mov	r5, r1
 80008cc:	e897 0006 	ldmia.w	r7, {r1, r2}
 80008d0:	2305      	movs	r3, #5
 80008d2:	4630      	mov	r0, r6
 80008d4:	f7ff ff50 	bl	8000778 <check_busy>
 80008d8:	f8bd 3014 	ldrh.w	r3, [sp, #20]
 80008dc:	9302      	str	r3, [sp, #8]
 80008de:	9b04      	ldr	r3, [sp, #16]
 80008e0:	aa07      	add	r2, sp, #28
 80008e2:	e9cd 4300 	strd	r4, r3, [sp]
 80008e6:	2104      	movs	r1, #4
 80008e8:	4633      	mov	r3, r6
 80008ea:	4640      	mov	r0, r8
 80008ec:	f001 f92a 	bl	8001b44 <spi_read_data>
 80008f0:	9b07      	ldr	r3, [sp, #28]
 80008f2:	3301      	adds	r3, #1
 80008f4:	4620      	mov	r0, r4
 80008f6:	f504 7480 	add.w	r4, r4, #256	@ 0x100
 80008fa:	d1e7      	bne.n	80008cc <find_next_blank_page+0x18>
 80008fc:	4b04      	ldr	r3, [pc, #16]	@ (8000910 <find_next_blank_page+0x5c>)
 80008fe:	4298      	cmp	r0, r3
 8000900:	d103      	bne.n	800090a <find_next_blank_page+0x56>
 8000902:	782b      	ldrb	r3, [r5, #0]
 8000904:	b90b      	cbnz	r3, 800090a <find_next_blank_page+0x56>
 8000906:	2301      	movs	r3, #1
 8000908:	702b      	strb	r3, [r5, #0]
 800090a:	b008      	add	sp, #32
 800090c:	e8bd 81f0 	ldmia.w	sp!, {r4, r5, r6, r7, r8, pc}
 8000910:	00ffff00 	.word	0x00ffff00
 8000914:	20000014 	.word	0x20000014

08000918 <read_page_spi>:
 8000918:	b082      	sub	sp, #8
 800091a:	b57f      	push	{r0, r1, r2, r3, r4, r5, r6, lr}
 800091c:	460c      	mov	r4, r1
 800091e:	a908      	add	r1, sp, #32
 8000920:	4605      	mov	r5, r0
 8000922:	f841 3f04 	str.w	r3, [r1, #4]!
 8000926:	4616      	mov	r6, r2
 8000928:	2305      	movs	r3, #5
 800092a:	c906      	ldmia	r1, {r1, r2}
 800092c:	4620      	mov	r0, r4
 800092e:	f7ff ff23 	bl	8000778 <check_busy>
 8000932:	f8bd 3028 	ldrh.w	r3, [sp, #40]	@ 0x28
 8000936:	9302      	str	r3, [sp, #8]
 8000938:	9b09      	ldr	r3, [sp, #36]	@ 0x24
 800093a:	4807      	ldr	r0, [pc, #28]	@ (8000958 <read_page_spi+0x40>)
 800093c:	e9cd 6300 	strd	r6, r3, [sp]
 8000940:	462a      	mov	r2, r5
 8000942:	4623      	mov	r3, r4
 8000944:	f44f 7180 	mov.w	r1, #256	@ 0x100
 8000948:	f001 f8fc 	bl	8001b44 <spi_read_data>
 800094c:	b004      	add	sp, #16
 800094e:	e8bd 4070 	ldmia.w	sp!, {r4, r5, r6, lr}
 8000952:	b002      	add	sp, #8
 8000954:	4770      	bx	lr
 8000956:	bf00      	nop
 8000958:	20000014 	.word	0x20000014

0800095c <read_manufacturer_id>:
 800095c:	b530      	push	{r4, r5, lr}
 800095e:	b087      	sub	sp, #28
 8000960:	460c      	mov	r4, r1
 8000962:	a904      	add	r1, sp, #16
 8000964:	e881 000c 	stmia.w	r1, {r2, r3}
 8000968:	4605      	mov	r5, r0
 800096a:	c906      	ldmia	r1, {r1, r2}
 800096c:	2305      	movs	r3, #5
 800096e:	4620      	mov	r0, r4
 8000970:	f7ff ff02 	bl	8000778 <check_busy>
 8000974:	f8bd 3014 	ldrh.w	r3, [sp, #20]
 8000978:	9302      	str	r3, [sp, #8]
 800097a:	9b04      	ldr	r3, [sp, #16]
 800097c:	9301      	str	r3, [sp, #4]
 800097e:	2300      	movs	r3, #0
 8000980:	9300      	str	r3, [sp, #0]
 8000982:	462a      	mov	r2, r5
 8000984:	4623      	mov	r3, r4
 8000986:	2102      	movs	r1, #2
 8000988:	4802      	ldr	r0, [pc, #8]	@ (8000994 <read_manufacturer_id+0x38>)
 800098a:	f001 f8db 	bl	8001b44 <spi_read_data>
 800098e:	b007      	add	sp, #28
 8000990:	bd30      	pop	{r4, r5, pc}
 8000992:	bf00      	nop
 8000994:	20000013 	.word	0x20000013

08000998 <create_GPIO_Config>:
 8000998:	6001      	str	r1, [r0, #0]
 800099a:	8082      	strh	r2, [r0, #4]
 800099c:	4770      	bx	lr

0800099e <i2c_read_reg>:
 800099e:	b5f7      	push	{r0, r1, r2, r4, r5, r6, r7, lr}
 80009a0:	4614      	mov	r4, r2
 80009a2:	2501      	movs	r5, #1
 80009a4:	0064      	lsls	r4, r4, #1
 80009a6:	4606      	mov	r6, r0
 80009a8:	460f      	mov	r7, r1
 80009aa:	461a      	mov	r2, r3
 80009ac:	f004 01fe 	and.w	r1, r4, #254	@ 0xfe
 80009b0:	462b      	mov	r3, r5
 80009b2:	9500      	str	r5, [sp, #0]
 80009b4:	f002 fdc6 	bl	8003544 <HAL_I2C_Master_Transmit>
 80009b8:	9500      	str	r5, [sp, #0]
 80009ba:	462b      	mov	r3, r5
 80009bc:	463a      	mov	r2, r7
 80009be:	ea44 0105 	orr.w	r1, r4, r5
 80009c2:	4630      	mov	r0, r6
 80009c4:	f002 fe98 	bl	80036f8 <HAL_I2C_Master_Receive>
 80009c8:	b003      	add	sp, #12
 80009ca:	bdf0      	pop	{r4, r5, r6, r7, pc}

080009cc <i2c_burst_read>:
 80009cc:	b57f      	push	{r0, r1, r2, r3, r4, r5, r6, lr}
 80009ce:	461e      	mov	r6, r3
 80009d0:	004c      	lsls	r4, r1, #1
 80009d2:	2301      	movs	r3, #1
 80009d4:	f062 027f 	orn	r2, r2, #127	@ 0x7f
 80009d8:	f88d 200f 	strb.w	r2, [sp, #15]
 80009dc:	9300      	str	r3, [sp, #0]
 80009de:	f10d 020f 	add.w	r2, sp, #15
 80009e2:	f004 01fe 	and.w	r1, r4, #254	@ 0xfe
 80009e6:	4605      	mov	r5, r0
 80009e8:	f002 fdac 	bl	8003544 <HAL_I2C_Master_Transmit>
 80009ec:	230a      	movs	r3, #10
 80009ee:	9300      	str	r3, [sp, #0]
 80009f0:	9a08      	ldr	r2, [sp, #32]
 80009f2:	4633      	mov	r3, r6
 80009f4:	f044 0101 	orr.w	r1, r4, #1
 80009f8:	4628      	mov	r0, r5
 80009fa:	f002 fe7d 	bl	80036f8 <HAL_I2C_Master_Receive>
 80009fe:	b004      	add	sp, #16
 8000a00:	bd70      	pop	{r4, r5, r6, pc}

08000a02 <i2c_write_reg>:
 8000a02:	b51f      	push	{r0, r1, r2, r3, r4, lr}
 8000a04:	0049      	lsls	r1, r1, #1
 8000a06:	7812      	ldrb	r2, [r2, #0]
 8000a08:	f88d 300d 	strb.w	r3, [sp, #13]
 8000a0c:	2301      	movs	r3, #1
 8000a0e:	f88d 200c 	strb.w	r2, [sp, #12]
 8000a12:	9300      	str	r3, [sp, #0]
 8000a14:	aa03      	add	r2, sp, #12
 8000a16:	2302      	movs	r3, #2
 8000a18:	f001 01fe 	and.w	r1, r1, #254	@ 0xfe
 8000a1c:	f002 fd92 	bl	8003544 <HAL_I2C_Master_Transmit>
 8000a20:	b005      	add	sp, #20
 8000a22:	f85d fb04 	ldr.w	pc, [sp], #4
	...

08000a28 <SystemClock_Config>:
 8000a28:	b530      	push	{r4, r5, lr}
 8000a2a:	2400      	movs	r4, #0
 8000a2c:	b095      	sub	sp, #84	@ 0x54
 8000a2e:	2214      	movs	r2, #20
 8000a30:	4621      	mov	r1, r4
 8000a32:	a803      	add	r0, sp, #12
 8000a34:	e9cd 4409 	strd	r4, r4, [sp, #36]	@ 0x24
 8000a38:	f004 fe60 	bl	80056fc <memset>
 8000a3c:	4b1f      	ldr	r3, [pc, #124]	@ (8000abc <SystemClock_Config+0x94>)
 8000a3e:	9401      	str	r4, [sp, #4]
 8000a40:	6c1a      	ldr	r2, [r3, #64]	@ 0x40
 8000a42:	f042 5280 	orr.w	r2, r2, #268435456	@ 0x10000000
 8000a46:	641a      	str	r2, [r3, #64]	@ 0x40
 8000a48:	6c1b      	ldr	r3, [r3, #64]	@ 0x40
 8000a4a:	f003 5380 	and.w	r3, r3, #268435456	@ 0x10000000
 8000a4e:	9301      	str	r3, [sp, #4]
 8000a50:	9b01      	ldr	r3, [sp, #4]
 8000a52:	4b1b      	ldr	r3, [pc, #108]	@ (8000ac0 <SystemClock_Config+0x98>)
 8000a54:	9402      	str	r4, [sp, #8]
 8000a56:	681a      	ldr	r2, [r3, #0]
 8000a58:	f442 4240 	orr.w	r2, r2, #49152	@ 0xc000
 8000a5c:	601a      	str	r2, [r3, #0]
 8000a5e:	681b      	ldr	r3, [r3, #0]
 8000a60:	f403 4340 	and.w	r3, r3, #49152	@ 0xc000
 8000a64:	9302      	str	r3, [sp, #8]
 8000a66:	9b02      	ldr	r3, [sp, #8]
 8000a68:	230a      	movs	r3, #10
 8000a6a:	2201      	movs	r2, #1
 8000a6c:	9308      	str	r3, [sp, #32]
 8000a6e:	2310      	movs	r3, #16
 8000a70:	2502      	movs	r5, #2
 8000a72:	e9cd 230b 	strd	r2, r3, [sp, #44]	@ 0x2c
 8000a76:	9310      	str	r3, [sp, #64]	@ 0x40
 8000a78:	f44f 73a8 	mov.w	r3, #336	@ 0x150
 8000a7c:	e9cd 3511 	strd	r3, r5, [sp, #68]	@ 0x44
 8000a80:	a808      	add	r0, sp, #32
 8000a82:	2304      	movs	r3, #4
 8000a84:	e9cd 540e 	strd	r5, r4, [sp, #56]	@ 0x38
 8000a88:	920d      	str	r2, [sp, #52]	@ 0x34
 8000a8a:	9313      	str	r3, [sp, #76]	@ 0x4c
 8000a8c:	f003 f808 	bl	8003aa0 <HAL_RCC_OscConfig>
 8000a90:	b108      	cbz	r0, 8000a96 <SystemClock_Config+0x6e>
 8000a92:	b672      	cpsid	i
 8000a94:	e7fe      	b.n	8000a94 <SystemClock_Config+0x6c>
 8000a96:	230f      	movs	r3, #15
 8000a98:	e9cd 3503 	strd	r3, r5, [sp, #12]
 8000a9c:	9005      	str	r0, [sp, #20]
 8000a9e:	f44f 52a0 	mov.w	r2, #5120	@ 0x1400
 8000aa2:	f44f 5380 	mov.w	r3, #4096	@ 0x1000
 8000aa6:	2105      	movs	r1, #5
 8000aa8:	a803      	add	r0, sp, #12
 8000aaa:	e9cd 2306 	strd	r2, r3, [sp, #24]
 8000aae:	f003 f9d3 	bl	8003e58 <HAL_RCC_ClockConfig>
 8000ab2:	b108      	cbz	r0, 8000ab8 <SystemClock_Config+0x90>
 8000ab4:	b672      	cpsid	i
 8000ab6:	e7fe      	b.n	8000ab6 <SystemClock_Config+0x8e>
 8000ab8:	b015      	add	sp, #84	@ 0x54
 8000aba:	bd30      	pop	{r4, r5, pc}
 8000abc:	40023800 	.word	0x40023800
 8000ac0:	40007000 	.word	0x40007000

08000ac4 <clean_data_buffer>:
 8000ac4:	4602      	mov	r2, r0
 8000ac6:	4608      	mov	r0, r1
 8000ac8:	21ff      	movs	r1, #255	@ 0xff
 8000aca:	f004 be17 	b.w	80056fc <memset>
	...

08000ad0 <gpio_set_config>:
 8000ad0:	b5f7      	push	{r0, r1, r2, r4, r5, r6, r7, lr}
 8000ad2:	4d2c      	ldr	r5, [pc, #176]	@ (8000b84 <gpio_set_config+0xb4>)
 8000ad4:	4e2c      	ldr	r6, [pc, #176]	@ (8000b88 <gpio_set_config+0xb8>)
 8000ad6:	4f2d      	ldr	r7, [pc, #180]	@ (8000b8c <gpio_set_config+0xbc>)
 8000ad8:	466c      	mov	r4, sp
 8000ada:	4629      	mov	r1, r5
 8000adc:	4620      	mov	r0, r4
 8000ade:	f44f 4280 	mov.w	r2, #16384	@ 0x4000
 8000ae2:	f7ff ff59 	bl	8000998 <create_GPIO_Config>
 8000ae6:	e894 0003 	ldmia.w	r4, {r0, r1}
 8000aea:	f44f 5200 	mov.w	r2, #8192	@ 0x2000
 8000aee:	e886 0003 	stmia.w	r6, {r0, r1}
 8000af2:	4629      	mov	r1, r5
 8000af4:	4620      	mov	r0, r4
 8000af6:	f7ff ff4f 	bl	8000998 <create_GPIO_Config>
 8000afa:	e894 0003 	ldmia.w	r4, {r0, r1}
 8000afe:	4e24      	ldr	r6, [pc, #144]	@ (8000b90 <gpio_set_config+0xc0>)
 8000b00:	f44f 5280 	mov.w	r2, #4096	@ 0x1000
 8000b04:	e886 0003 	stmia.w	r6, {r0, r1}
 8000b08:	4629      	mov	r1, r5
 8000b0a:	4620      	mov	r0, r4
 8000b0c:	f7ff ff44 	bl	8000998 <create_GPIO_Config>
 8000b10:	e894 0003 	ldmia.w	r4, {r0, r1}
 8000b14:	4e1f      	ldr	r6, [pc, #124]	@ (8000b94 <gpio_set_config+0xc4>)
 8000b16:	e886 0003 	stmia.w	r6, {r0, r1}
 8000b1a:	4e1f      	ldr	r6, [pc, #124]	@ (8000b98 <gpio_set_config+0xc8>)
 8000b1c:	4620      	mov	r0, r4
 8000b1e:	4631      	mov	r1, r6
 8000b20:	2210      	movs	r2, #16
 8000b22:	f7ff ff39 	bl	8000998 <create_GPIO_Config>
 8000b26:	e894 0003 	ldmia.w	r4, {r0, r1}
 8000b2a:	2210      	movs	r2, #16
 8000b2c:	e887 0003 	stmia.w	r7, {r0, r1}
 8000b30:	4620      	mov	r0, r4
 8000b32:	491a      	ldr	r1, [pc, #104]	@ (8000b9c <gpio_set_config+0xcc>)
 8000b34:	4f1a      	ldr	r7, [pc, #104]	@ (8000ba0 <gpio_set_config+0xd0>)
 8000b36:	f7ff ff2f 	bl	8000998 <create_GPIO_Config>
 8000b3a:	e894 0003 	ldmia.w	r4, {r0, r1}
 8000b3e:	2202      	movs	r2, #2
 8000b40:	e887 0003 	stmia.w	r7, {r0, r1}
 8000b44:	4631      	mov	r1, r6
 8000b46:	4620      	mov	r0, r4
 8000b48:	f7ff ff26 	bl	8000998 <create_GPIO_Config>
 8000b4c:	e894 0003 	ldmia.w	r4, {r0, r1}
 8000b50:	4f14      	ldr	r7, [pc, #80]	@ (8000ba4 <gpio_set_config+0xd4>)
 8000b52:	2201      	movs	r2, #1
 8000b54:	e887 0003 	stmia.w	r7, {r0, r1}
 8000b58:	4631      	mov	r1, r6
 8000b5a:	4620      	mov	r0, r4
 8000b5c:	f7ff ff1c 	bl	8000998 <create_GPIO_Config>
 8000b60:	e894 0003 	ldmia.w	r4, {r0, r1}
 8000b64:	4f10      	ldr	r7, [pc, #64]	@ (8000ba8 <gpio_set_config+0xd8>)
 8000b66:	4e11      	ldr	r6, [pc, #68]	@ (8000bac <gpio_set_config+0xdc>)
 8000b68:	e887 0003 	stmia.w	r7, {r0, r1}
 8000b6c:	2202      	movs	r2, #2
 8000b6e:	4629      	mov	r1, r5
 8000b70:	4620      	mov	r0, r4
 8000b72:	f7ff ff11 	bl	8000998 <create_GPIO_Config>
 8000b76:	e894 0003 	ldmia.w	r4, {r0, r1}
 8000b7a:	e886 0003 	stmia.w	r6, {r0, r1}
 8000b7e:	b003      	add	sp, #12
 8000b80:	bdf0      	pop	{r4, r5, r6, r7, pc}
 8000b82:	bf00      	nop
 8000b84:	40020400 	.word	0x40020400
 8000b88:	20000084 	.word	0x20000084
 8000b8c:	2000006c 	.word	0x2000006c
 8000b90:	2000007c 	.word	0x2000007c
 8000b94:	20000074 	.word	0x20000074
 8000b98:	40020800 	.word	0x40020800
 8000b9c:	40020000 	.word	0x40020000
 8000ba0:	20000064 	.word	0x20000064
 8000ba4:	2000005c 	.word	0x2000005c
 8000ba8:	20000054 	.word	0x20000054
 8000bac:	2000004c 	.word	0x2000004c

08000bb0 <decodeASCII>:
 8000bb0:	3830      	subs	r0, #48	@ 0x30
 8000bb2:	b2c3      	uxtb	r3, r0
 8000bb4:	2b09      	cmp	r3, #9
 8000bb6:	bf88      	it	hi
 8000bb8:	f04f 30ff 	movhi.w	r0, #4294967295	@ 0xffffffff
 8000bbc:	b2c0      	uxtb	r0, r0
 8000bbe:	4770      	bx	lr

08000bc0 <combine_system_status>:
 8000bc0:	4b04      	ldr	r3, [pc, #16]	@ (8000bd4 <combine_system_status+0x14>)
 8000bc2:	7818      	ldrb	r0, [r3, #0]
 8000bc4:	4b04      	ldr	r3, [pc, #16]	@ (8000bd8 <combine_system_status+0x18>)
 8000bc6:	781b      	ldrb	r3, [r3, #0]
 8000bc8:	f000 001f 	and.w	r0, r0, #31
 8000bcc:	ea40 1043 	orr.w	r0, r0, r3, lsl #5
 8000bd0:	b2c0      	uxtb	r0, r0
 8000bd2:	4770      	bx	lr
 8000bd4:	20000047 	.word	0x20000047
 8000bd8:	20000046 	.word	0x20000046

08000bdc <handleCAN>:
 8000bdc:	b51f      	push	{r0, r1, r2, r3, r4, lr}
 8000bde:	4b27      	ldr	r3, [pc, #156]	@ (8000c7c <handleCAN+0xa0>)
 8000be0:	681b      	ldr	r3, [r3, #0]
 8000be2:	f240 72ff 	movw	r2, #2047	@ 0x7ff
 8000be6:	4293      	cmp	r3, r2
 8000be8:	d10c      	bne.n	8000c04 <handleCAN+0x28>
 8000bea:	4a25      	ldr	r2, [pc, #148]	@ (8000c80 <handleCAN+0xa4>)
 8000bec:	2101      	movs	r1, #1
 8000bee:	7011      	strb	r1, [r2, #0]
 8000bf0:	2200      	movs	r2, #0
 8000bf2:	9300      	str	r3, [sp, #0]
 8000bf4:	4b23      	ldr	r3, [pc, #140]	@ (8000c84 <handleCAN+0xa8>)
 8000bf6:	f88d 200c 	strb.w	r2, [sp, #12]
 8000bfa:	aa03      	add	r2, sp, #12
 8000bfc:	4822      	ldr	r0, [pc, #136]	@ (8000c88 <handleCAN+0xac>)
 8000bfe:	f7ff fd93 	bl	8000728 <sendCAN_TxMessage>
 8000c02:	e011      	b.n	8000c28 <handleCAN+0x4c>
 8000c04:	f240 5204 	movw	r2, #1284	@ 0x504
 8000c08:	4293      	cmp	r3, r2
 8000c0a:	d80a      	bhi.n	8000c22 <handleCAN+0x46>
 8000c0c:	f5b3 6fa0 	cmp.w	r3, #1280	@ 0x500
 8000c10:	d90a      	bls.n	8000c28 <handleCAN+0x4c>
 8000c12:	f2a3 5302 	subw	r3, r3, #1282	@ 0x502
 8000c16:	2b02      	cmp	r3, #2
 8000c18:	d809      	bhi.n	8000c2e <handleCAN+0x52>
 8000c1a:	e8df f003 	tbb	[pc, r3]
 8000c1e:	150f      	.short	0x150f
 8000c20:	1b          	.byte	0x1b
 8000c21:	00          	.byte	0x00
 8000c22:	f5b3 6fe0 	cmp.w	r3, #1792	@ 0x700
 8000c26:	d020      	beq.n	8000c6a <handleCAN+0x8e>
 8000c28:	b005      	add	sp, #20
 8000c2a:	f85d fb04 	ldr.w	pc, [sp], #4
 8000c2e:	f240 5301 	movw	r3, #1281	@ 0x501
 8000c32:	9300      	str	r3, [sp, #0]
 8000c34:	4a15      	ldr	r2, [pc, #84]	@ (8000c8c <handleCAN+0xb0>)
 8000c36:	4b13      	ldr	r3, [pc, #76]	@ (8000c84 <handleCAN+0xa8>)
 8000c38:	2106      	movs	r1, #6
 8000c3a:	e7df      	b.n	8000bfc <handleCAN+0x20>
 8000c3c:	f240 5302 	movw	r3, #1282	@ 0x502
 8000c40:	9300      	str	r3, [sp, #0]
 8000c42:	4a13      	ldr	r2, [pc, #76]	@ (8000c90 <handleCAN+0xb4>)
 8000c44:	4b0f      	ldr	r3, [pc, #60]	@ (8000c84 <handleCAN+0xa8>)
 8000c46:	e7f7      	b.n	8000c38 <handleCAN+0x5c>
 8000c48:	f240 5303 	movw	r3, #1283	@ 0x503
 8000c4c:	9300      	str	r3, [sp, #0]
 8000c4e:	4a11      	ldr	r2, [pc, #68]	@ (8000c94 <handleCAN+0xb8>)
 8000c50:	4b0c      	ldr	r3, [pc, #48]	@ (8000c84 <handleCAN+0xa8>)
 8000c52:	e7f1      	b.n	8000c38 <handleCAN+0x5c>
 8000c54:	f7ff ffb4 	bl	8000bc0 <combine_system_status>
 8000c58:	f240 5304 	movw	r3, #1284	@ 0x504
 8000c5c:	9300      	str	r3, [sp, #0]
 8000c5e:	f88d 000c 	strb.w	r0, [sp, #12]
 8000c62:	4b08      	ldr	r3, [pc, #32]	@ (8000c84 <handleCAN+0xa8>)
 8000c64:	aa03      	add	r2, sp, #12
 8000c66:	2101      	movs	r1, #1
 8000c68:	e7c8      	b.n	8000bfc <handleCAN+0x20>
 8000c6a:	4b0b      	ldr	r3, [pc, #44]	@ (8000c98 <handleCAN+0xbc>)
 8000c6c:	480b      	ldr	r0, [pc, #44]	@ (8000c9c <handleCAN+0xc0>)
 8000c6e:	7819      	ldrb	r1, [r3, #0]
 8000c70:	b005      	add	sp, #20
 8000c72:	f85d eb04 	ldr.w	lr, [sp], #4
 8000c76:	f001 baee 	b.w	8002256 <send_uart_hex>
 8000c7a:	bf00      	nop
 8000c7c:	200002b4 	.word	0x200002b4
 8000c80:	20000046 	.word	0x20000046
 8000c84:	200002d0 	.word	0x200002d0
 8000c88:	200005f0 	.word	0x200005f0
 8000c8c:	2000009b 	.word	0x2000009b
 8000c90:	20000095 	.word	0x20000095
 8000c94:	200000a1 	.word	0x200000a1
 8000c98:	20000047 	.word	0x20000047
 8000c9c:	200002e0 	.word	0x200002e0

08000ca0 <configureCAN>:
 8000ca0:	b500      	push	{lr}
 8000ca2:	2300      	movs	r3, #0
 8000ca4:	b08b      	sub	sp, #44	@ 0x2c
 8000ca6:	210a      	movs	r1, #10
 8000ca8:	e9cd 3104 	strd	r3, r1, [sp, #16]
 8000cac:	f44f 4120 	mov.w	r1, #40960	@ 0xa000
 8000cb0:	2201      	movs	r2, #1
 8000cb2:	e9cd 1300 	strd	r1, r3, [sp]
 8000cb6:	e9cd 1302 	strd	r1, r3, [sp, #8]
 8000cba:	4805      	ldr	r0, [pc, #20]	@ (8000cd0 <configureCAN+0x30>)
 8000cbc:	9208      	str	r2, [sp, #32]
 8000cbe:	4669      	mov	r1, sp
 8000cc0:	e9cd 3206 	strd	r3, r2, [sp, #24]
 8000cc4:	9309      	str	r3, [sp, #36]	@ 0x24
 8000cc6:	f001 fbdd 	bl	8002484 <HAL_CAN_ConfigFilter>
 8000cca:	b00b      	add	sp, #44	@ 0x2c
 8000ccc:	f85d fb04 	ldr.w	pc, [sp], #4
 8000cd0:	200005f0 	.word	0x200005f0

08000cd4 <find_next_blank_page_all>:
 8000cd4:	b538      	push	{r3, r4, r5, lr}
 8000cd6:	4d0a      	ldr	r5, [pc, #40]	@ (8000d00 <find_next_blank_page_all+0x2c>)
 8000cd8:	4b0a      	ldr	r3, [pc, #40]	@ (8000d04 <find_next_blank_page_all+0x30>)
 8000cda:	480b      	ldr	r0, [pc, #44]	@ (8000d08 <find_next_blank_page_all+0x34>)
 8000cdc:	cb0c      	ldmia	r3, {r2, r3}
 8000cde:	4629      	mov	r1, r5
 8000ce0:	f7ff fde8 	bl	80008b4 <find_next_blank_page>
 8000ce4:	4b09      	ldr	r3, [pc, #36]	@ (8000d0c <find_next_blank_page_all+0x38>)
 8000ce6:	4604      	mov	r4, r0
 8000ce8:	cb0c      	ldmia	r3, {r2, r3}
 8000cea:	4629      	mov	r1, r5
 8000cec:	4808      	ldr	r0, [pc, #32]	@ (8000d10 <find_next_blank_page_all+0x3c>)
 8000cee:	f7ff fde1 	bl	80008b4 <find_next_blank_page>
 8000cf2:	4b08      	ldr	r3, [pc, #32]	@ (8000d14 <find_next_blank_page_all+0x40>)
 8000cf4:	42a0      	cmp	r0, r4
 8000cf6:	bfb8      	it	lt
 8000cf8:	4620      	movlt	r0, r4
 8000cfa:	6018      	str	r0, [r3, #0]
 8000cfc:	bd38      	pop	{r3, r4, r5, pc}
 8000cfe:	bf00      	nop
 8000d00:	2000008c 	.word	0x2000008c
 8000d04:	2000006c 	.word	0x2000006c
 8000d08:	200004d0 	.word	0x200004d0
 8000d0c:	2000005c 	.word	0x2000005c
 8000d10:	20000478 	.word	0x20000478
 8000d14:	20000090 	.word	0x20000090

08000d18 <systemInit>:
 8000d18:	e92d 43f8 	stmdb	sp!, {r3, r4, r5, r6, r7, r8, r9, lr}
 8000d1c:	f8df 81b0 	ldr.w	r8, [pc, #432]	@ 8000ed0 <systemInit+0x1b8>
 8000d20:	4d4b      	ldr	r5, [pc, #300]	@ (8000e50 <systemInit+0x138>)
 8000d22:	4b4c      	ldr	r3, [pc, #304]	@ (8000e54 <systemInit+0x13c>)
 8000d24:	f8c8 3000 	str.w	r3, [r8]
 8000d28:	4b4b      	ldr	r3, [pc, #300]	@ (8000e58 <systemInit+0x140>)
 8000d2a:	602b      	str	r3, [r5, #0]
 8000d2c:	f7ff ffb8 	bl	8000ca0 <configureCAN>
 8000d30:	4b4a      	ldr	r3, [pc, #296]	@ (8000e5c <systemInit+0x144>)
 8000d32:	494b      	ldr	r1, [pc, #300]	@ (8000e60 <systemInit+0x148>)
 8000d34:	4f4b      	ldr	r7, [pc, #300]	@ (8000e64 <systemInit+0x14c>)
 8000d36:	4e4c      	ldr	r6, [pc, #304]	@ (8000e68 <systemInit+0x150>)
 8000d38:	f8df 9198 	ldr.w	r9, [pc, #408]	@ 8000ed4 <systemInit+0x1bc>
 8000d3c:	2400      	movs	r4, #0
 8000d3e:	601c      	str	r4, [r3, #0]
 8000d40:	4b4a      	ldr	r3, [pc, #296]	@ (8000e6c <systemInit+0x154>)
 8000d42:	2008      	movs	r0, #8
 8000d44:	701c      	strb	r4, [r3, #0]
 8000d46:	f7ff febd 	bl	8000ac4 <clean_data_buffer>
 8000d4a:	f7ff fec1 	bl	8000ad0 <gpio_set_config>
 8000d4e:	4b48      	ldr	r3, [pc, #288]	@ (8000e70 <systemInit+0x158>)
 8000d50:	4622      	mov	r2, r4
 8000d52:	8899      	ldrh	r1, [r3, #4]
 8000d54:	6818      	ldr	r0, [r3, #0]
 8000d56:	f002 f9f5 	bl	8003144 <HAL_GPIO_WritePin>
 8000d5a:	4b46      	ldr	r3, [pc, #280]	@ (8000e74 <systemInit+0x15c>)
 8000d5c:	4622      	mov	r2, r4
 8000d5e:	8899      	ldrh	r1, [r3, #4]
 8000d60:	6818      	ldr	r0, [r3, #0]
 8000d62:	f002 f9ef 	bl	8003144 <HAL_GPIO_WritePin>
 8000d66:	88b9      	ldrh	r1, [r7, #4]
 8000d68:	6838      	ldr	r0, [r7, #0]
 8000d6a:	2201      	movs	r2, #1
 8000d6c:	f002 f9ea 	bl	8003144 <HAL_GPIO_WritePin>
 8000d70:	2201      	movs	r2, #1
 8000d72:	88b1      	ldrh	r1, [r6, #4]
 8000d74:	6830      	ldr	r0, [r6, #0]
 8000d76:	f002 f9e5 	bl	8003144 <HAL_GPIO_WritePin>
 8000d7a:	4649      	mov	r1, r9
 8000d7c:	f44f 7080 	mov.w	r0, #256	@ 0x100
 8000d80:	f7ff fea0 	bl	8000ac4 <clean_data_buffer>
 8000d84:	f509 7180 	add.w	r1, r9, #256	@ 0x100
 8000d88:	f44f 7080 	mov.w	r0, #256	@ 0x100
 8000d8c:	f7ff fe9a 	bl	8000ac4 <clean_data_buffer>
 8000d90:	4b39      	ldr	r3, [pc, #228]	@ (8000e78 <systemInit+0x160>)
 8000d92:	f8d8 0000 	ldr.w	r0, [r8]
 8000d96:	601c      	str	r4, [r3, #0]
 8000d98:	809c      	strh	r4, [r3, #4]
 8000d9a:	4b38      	ldr	r3, [pc, #224]	@ (8000e7c <systemInit+0x164>)
 8000d9c:	f8df 9138 	ldr.w	r9, [pc, #312]	@ 8000ed8 <systemInit+0x1c0>
 8000da0:	601c      	str	r4, [r3, #0]
 8000da2:	809c      	strh	r4, [r3, #4]
 8000da4:	4b36      	ldr	r3, [pc, #216]	@ (8000e80 <systemInit+0x168>)
 8000da6:	601c      	str	r4, [r3, #0]
 8000da8:	809c      	strh	r4, [r3, #4]
 8000daa:	f7ff fbe7 	bl	800057c <init_accel>
 8000dae:	4621      	mov	r1, r4
 8000db0:	6828      	ldr	r0, [r5, #0]
 8000db2:	f7ff fc15 	bl	80005e0 <init_bme280>
 8000db6:	6828      	ldr	r0, [r5, #0]
 8000db8:	2101      	movs	r1, #1
 8000dba:	f7ff fc11 	bl	80005e0 <init_bme280>
 8000dbe:	e897 0006 	ldmia.w	r7, {r1, r2}
 8000dc2:	4f30      	ldr	r7, [pc, #192]	@ (8000e84 <systemInit+0x16c>)
 8000dc4:	4648      	mov	r0, r9
 8000dc6:	f7ff fd27 	bl	8000818 <software_reset>
 8000dca:	e896 0006 	ldmia.w	r6, {r1, r2}
 8000dce:	4638      	mov	r0, r7
 8000dd0:	f7ff fd22 	bl	8000818 <software_reset>
 8000dd4:	4b2c      	ldr	r3, [pc, #176]	@ (8000e88 <systemInit+0x170>)
 8000dd6:	701c      	strb	r4, [r3, #0]
 8000dd8:	f7ff ff7c 	bl	8000cd4 <find_next_blank_page_all>
 8000ddc:	4b2b      	ldr	r3, [pc, #172]	@ (8000e8c <systemInit+0x174>)
 8000dde:	682a      	ldr	r2, [r5, #0]
 8000de0:	6018      	str	r0, [r3, #0]
 8000de2:	4b2b      	ldr	r3, [pc, #172]	@ (8000e90 <systemInit+0x178>)
 8000de4:	701c      	strb	r4, [r3, #0]
 8000de6:	4b2b      	ldr	r3, [pc, #172]	@ (8000e94 <systemInit+0x17c>)
 8000de8:	801c      	strh	r4, [r3, #0]
 8000dea:	4b2b      	ldr	r3, [pc, #172]	@ (8000e98 <systemInit+0x180>)
 8000dec:	701c      	strb	r4, [r3, #0]
 8000dee:	4b2b      	ldr	r3, [pc, #172]	@ (8000e9c <systemInit+0x184>)
 8000df0:	701c      	strb	r4, [r3, #0]
 8000df2:	4b2b      	ldr	r3, [pc, #172]	@ (8000ea0 <systemInit+0x188>)
 8000df4:	701c      	strb	r4, [r3, #0]
 8000df6:	4b2b      	ldr	r3, [pc, #172]	@ (8000ea4 <systemInit+0x18c>)
 8000df8:	701c      	strb	r4, [r3, #0]
 8000dfa:	4b2b      	ldr	r3, [pc, #172]	@ (8000ea8 <systemInit+0x190>)
 8000dfc:	701c      	strb	r4, [r3, #0]
 8000dfe:	4b2b      	ldr	r3, [pc, #172]	@ (8000eac <systemInit+0x194>)
 8000e00:	701c      	strb	r4, [r3, #0]
 8000e02:	4b2b      	ldr	r3, [pc, #172]	@ (8000eb0 <systemInit+0x198>)
 8000e04:	4639      	mov	r1, r7
 8000e06:	701c      	strb	r4, [r3, #0]
 8000e08:	4648      	mov	r0, r9
 8000e0a:	f8d8 3000 	ldr.w	r3, [r8]
 8000e0e:	4c29      	ldr	r4, [pc, #164]	@ (8000eb4 <systemInit+0x19c>)
 8000e10:	f000 fc48 	bl	80016a4 <systemStatus>
 8000e14:	4b28      	ldr	r3, [pc, #160]	@ (8000eb8 <systemInit+0x1a0>)
 8000e16:	4601      	mov	r1, r0
 8000e18:	7018      	strb	r0, [r3, #0]
 8000e1a:	4620      	mov	r0, r4
 8000e1c:	f001 fa1b 	bl	8002256 <send_uart_hex>
 8000e20:	4620      	mov	r0, r4
 8000e22:	4c26      	ldr	r4, [pc, #152]	@ (8000ebc <systemInit+0x1a4>)
 8000e24:	4926      	ldr	r1, [pc, #152]	@ (8000ec0 <systemInit+0x1a8>)
 8000e26:	2202      	movs	r2, #2
 8000e28:	f004 fc57 	bl	80056da <HAL_UART_Receive_IT>
 8000e2c:	4620      	mov	r0, r4
 8000e2e:	f001 fbaf 	bl	8002590 <HAL_CAN_Start>
 8000e32:	2102      	movs	r1, #2
 8000e34:	4620      	mov	r0, r4
 8000e36:	f001 fc9d 	bl	8002774 <HAL_CAN_ActivateNotification>
 8000e3a:	4822      	ldr	r0, [pc, #136]	@ (8000ec4 <systemInit+0x1ac>)
 8000e3c:	f000 fdde 	bl	80019fc <initialise_rtc_default>
 8000e40:	4821      	ldr	r0, [pc, #132]	@ (8000ec8 <systemInit+0x1b0>)
 8000e42:	f003 ff99 	bl	8004d78 <HAL_TIM_Base_Start_IT>
 8000e46:	e8bd 43f8 	ldmia.w	sp!, {r3, r4, r5, r6, r7, r8, r9, lr}
 8000e4a:	4820      	ldr	r0, [pc, #128]	@ (8000ecc <systemInit+0x1b4>)
 8000e4c:	f003 bf94 	b.w	8004d78 <HAL_TIM_Base_Start_IT>
 8000e50:	200002d8 	.word	0x200002d8
 8000e54:	20000548 	.word	0x20000548
 8000e58:	2000059c 	.word	0x2000059c
 8000e5c:	200002d0 	.word	0x200002d0
 8000e60:	200002ac 	.word	0x200002ac
 8000e64:	2000006c 	.word	0x2000006c
 8000e68:	2000005c 	.word	0x2000005c
 8000e6c:	200002aa 	.word	0x200002aa
 8000e70:	20000084 	.word	0x20000084
 8000e74:	20000074 	.word	0x20000074
 8000e78:	200000a1 	.word	0x200000a1
 8000e7c:	2000009b 	.word	0x2000009b
 8000e80:	20000095 	.word	0x20000095
 8000e84:	20000478 	.word	0x20000478
 8000e88:	2000008c 	.word	0x2000008c
 8000e8c:	20000090 	.word	0x20000090
 8000e90:	20000094 	.word	0x20000094
 8000e94:	2000008e 	.word	0x2000008e
 8000e98:	200002d4 	.word	0x200002d4
 8000e9c:	200002ab 	.word	0x200002ab
 8000ea0:	200002a9 	.word	0x200002a9
 8000ea4:	200002a8 	.word	0x200002a8
 8000ea8:	20000046 	.word	0x20000046
 8000eac:	20000048 	.word	0x20000048
 8000eb0:	20000045 	.word	0x20000045
 8000eb4:	200002e0 	.word	0x200002e0
 8000eb8:	20000047 	.word	0x20000047
 8000ebc:	200005f0 	.word	0x200005f0
 8000ec0:	200002d5 	.word	0x200002d5
 8000ec4:	20000528 	.word	0x20000528
 8000ec8:	20000370 	.word	0x20000370
 8000ecc:	20000328 	.word	0x20000328
 8000ed0:	200002dc 	.word	0x200002dc
 8000ed4:	200000a8 	.word	0x200000a8
 8000ed8:	200004d0 	.word	0x200004d0

08000edc <handleUART>:
 8000edc:	b530      	push	{r4, r5, lr}
 8000ede:	4c78      	ldr	r4, [pc, #480]	@ (80010c0 <handleUART+0x1e4>)
 8000ee0:	7823      	ldrb	r3, [r4, #0]
 8000ee2:	2b68      	cmp	r3, #104	@ 0x68
 8000ee4:	b085      	sub	sp, #20
 8000ee6:	d10c      	bne.n	8000f02 <handleUART+0x26>
 8000ee8:	4876      	ldr	r0, [pc, #472]	@ (80010c4 <handleUART+0x1e8>)
 8000eea:	f000 fc1f 	bl	800172c <heartbeatUART>
 8000eee:	4b76      	ldr	r3, [pc, #472]	@ (80010c8 <handleUART+0x1ec>)
 8000ef0:	4874      	ldr	r0, [pc, #464]	@ (80010c4 <handleUART+0x1e8>)
 8000ef2:	7819      	ldrb	r1, [r3, #0]
 8000ef4:	f001 f9af 	bl	8002256 <send_uart_hex>
 8000ef8:	2300      	movs	r3, #0
 8000efa:	7023      	strb	r3, [r4, #0]
 8000efc:	7063      	strb	r3, [r4, #1]
 8000efe:	b005      	add	sp, #20
 8000f00:	bd30      	pop	{r4, r5, pc}
 8000f02:	3b61      	subs	r3, #97	@ 0x61
 8000f04:	2b17      	cmp	r3, #23
 8000f06:	d8f7      	bhi.n	8000ef8 <handleUART+0x1c>
 8000f08:	a201      	add	r2, pc, #4	@ (adr r2, 8000f10 <handleUART+0x34>)
 8000f0a:	f852 f023 	ldr.w	pc, [r2, r3, lsl #2]
 8000f0e:	bf00      	nop
 8000f10:	08001061 	.word	0x08001061
 8000f14:	08001069 	.word	0x08001069
 8000f18:	08001055 	.word	0x08001055
 8000f1c:	08000ef9 	.word	0x08000ef9
 8000f20:	08000f71 	.word	0x08000f71
 8000f24:	08000ef9 	.word	0x08000ef9
 8000f28:	08000ef9 	.word	0x08000ef9
 8000f2c:	08000ef9 	.word	0x08000ef9
 8000f30:	08000ef9 	.word	0x08000ef9
 8000f34:	08000ef9 	.word	0x08000ef9
 8000f38:	08000ef9 	.word	0x08000ef9
 8000f3c:	08000ef9 	.word	0x08000ef9
 8000f40:	08000fe3 	.word	0x08000fe3
 8000f44:	080010a5 	.word	0x080010a5
 8000f48:	08000ef9 	.word	0x08000ef9
 8000f4c:	0800107f 	.word	0x0800107f
 8000f50:	08000ef9 	.word	0x08000ef9
 8000f54:	08000fb3 	.word	0x08000fb3
 8000f58:	08000ef9 	.word	0x08000ef9
 8000f5c:	08001095 	.word	0x08001095
 8000f60:	08000ef9 	.word	0x08000ef9
 8000f64:	08000ef9 	.word	0x08000ef9
 8000f68:	08001009 	.word	0x08001009
 8000f6c:	0800102f 	.word	0x0800102f
 8000f70:	4d56      	ldr	r5, [pc, #344]	@ (80010cc <handleUART+0x1f0>)
 8000f72:	2201      	movs	r2, #1
 8000f74:	6828      	ldr	r0, [r5, #0]
 8000f76:	88a9      	ldrh	r1, [r5, #4]
 8000f78:	f002 f8e4 	bl	8003144 <HAL_GPIO_WritePin>
 8000f7c:	7860      	ldrb	r0, [r4, #1]
 8000f7e:	f7ff fe17 	bl	8000bb0 <decodeASCII>
 8000f82:	b978      	cbnz	r0, 8000fa4 <handleUART+0xc8>
 8000f84:	4b52      	ldr	r3, [pc, #328]	@ (80010d0 <handleUART+0x1f4>)
 8000f86:	494f      	ldr	r1, [pc, #316]	@ (80010c4 <handleUART+0x1e8>)
 8000f88:	4852      	ldr	r0, [pc, #328]	@ (80010d4 <handleUART+0x1f8>)
 8000f8a:	cb0c      	ldmia	r3, {r2, r3}
 8000f8c:	f000 fbd2 	bl	8001734 <eraseFlashSPI>
 8000f90:	f7ff fea0 	bl	8000cd4 <find_next_blank_page_all>
 8000f94:	4b50      	ldr	r3, [pc, #320]	@ (80010d8 <handleUART+0x1fc>)
 8000f96:	6018      	str	r0, [r3, #0]
 8000f98:	88a9      	ldrh	r1, [r5, #4]
 8000f9a:	6828      	ldr	r0, [r5, #0]
 8000f9c:	2200      	movs	r2, #0
 8000f9e:	f002 f8d1 	bl	8003144 <HAL_GPIO_WritePin>
 8000fa2:	e7a9      	b.n	8000ef8 <handleUART+0x1c>
 8000fa4:	2801      	cmp	r0, #1
 8000fa6:	d1f3      	bne.n	8000f90 <handleUART+0xb4>
 8000fa8:	4b4c      	ldr	r3, [pc, #304]	@ (80010dc <handleUART+0x200>)
 8000faa:	4946      	ldr	r1, [pc, #280]	@ (80010c4 <handleUART+0x1e8>)
 8000fac:	484c      	ldr	r0, [pc, #304]	@ (80010e0 <handleUART+0x204>)
 8000fae:	cb0c      	ldmia	r3, {r2, r3}
 8000fb0:	e7ec      	b.n	8000f8c <handleUART+0xb0>
 8000fb2:	4d46      	ldr	r5, [pc, #280]	@ (80010cc <handleUART+0x1f0>)
 8000fb4:	2201      	movs	r2, #1
 8000fb6:	6828      	ldr	r0, [r5, #0]
 8000fb8:	88a9      	ldrh	r1, [r5, #4]
 8000fba:	f002 f8c3 	bl	8003144 <HAL_GPIO_WritePin>
 8000fbe:	7860      	ldrb	r0, [r4, #1]
 8000fc0:	f7ff fdf6 	bl	8000bb0 <decodeASCII>
 8000fc4:	b930      	cbnz	r0, 8000fd4 <handleUART+0xf8>
 8000fc6:	4b42      	ldr	r3, [pc, #264]	@ (80010d0 <handleUART+0x1f4>)
 8000fc8:	493e      	ldr	r1, [pc, #248]	@ (80010c4 <handleUART+0x1e8>)
 8000fca:	4842      	ldr	r0, [pc, #264]	@ (80010d4 <handleUART+0x1f8>)
 8000fcc:	cb0c      	ldmia	r3, {r2, r3}
 8000fce:	f000 fbc7 	bl	8001760 <readFlashToUART>
 8000fd2:	e7e1      	b.n	8000f98 <handleUART+0xbc>
 8000fd4:	2801      	cmp	r0, #1
 8000fd6:	d1df      	bne.n	8000f98 <handleUART+0xbc>
 8000fd8:	4b40      	ldr	r3, [pc, #256]	@ (80010dc <handleUART+0x200>)
 8000fda:	493a      	ldr	r1, [pc, #232]	@ (80010c4 <handleUART+0x1e8>)
 8000fdc:	4840      	ldr	r0, [pc, #256]	@ (80010e0 <handleUART+0x204>)
 8000fde:	cb0c      	ldmia	r3, {r2, r3}
 8000fe0:	e7f5      	b.n	8000fce <handleUART+0xf2>
 8000fe2:	7860      	ldrb	r0, [r4, #1]
 8000fe4:	f7ff fde4 	bl	8000bb0 <decodeASCII>
 8000fe8:	b930      	cbnz	r0, 8000ff8 <handleUART+0x11c>
 8000fea:	4b39      	ldr	r3, [pc, #228]	@ (80010d0 <handleUART+0x1f4>)
 8000fec:	4935      	ldr	r1, [pc, #212]	@ (80010c4 <handleUART+0x1e8>)
 8000fee:	4839      	ldr	r0, [pc, #228]	@ (80010d4 <handleUART+0x1f8>)
 8000ff0:	cb0c      	ldmia	r3, {r2, r3}
 8000ff2:	f000 fbdb 	bl	80017ac <readFlashManuSPI>
 8000ff6:	e77f      	b.n	8000ef8 <handleUART+0x1c>
 8000ff8:	2801      	cmp	r0, #1
 8000ffa:	f47f af7d 	bne.w	8000ef8 <handleUART+0x1c>
 8000ffe:	4b37      	ldr	r3, [pc, #220]	@ (80010dc <handleUART+0x200>)
 8001000:	4930      	ldr	r1, [pc, #192]	@ (80010c4 <handleUART+0x1e8>)
 8001002:	4837      	ldr	r0, [pc, #220]	@ (80010e0 <handleUART+0x204>)
 8001004:	cb0c      	ldmia	r3, {r2, r3}
 8001006:	e7f4      	b.n	8000ff2 <handleUART+0x116>
 8001008:	7860      	ldrb	r0, [r4, #1]
 800100a:	f7ff fdd1 	bl	8000bb0 <decodeASCII>
 800100e:	b930      	cbnz	r0, 800101e <handleUART+0x142>
 8001010:	4b2f      	ldr	r3, [pc, #188]	@ (80010d0 <handleUART+0x1f4>)
 8001012:	492c      	ldr	r1, [pc, #176]	@ (80010c4 <handleUART+0x1e8>)
 8001014:	482f      	ldr	r0, [pc, #188]	@ (80010d4 <handleUART+0x1f8>)
 8001016:	cb0c      	ldmia	r3, {r2, r3}
 8001018:	f000 fbe2 	bl	80017e0 <writePageSPI_W>
 800101c:	e76c      	b.n	8000ef8 <handleUART+0x1c>
 800101e:	2801      	cmp	r0, #1
 8001020:	f47f af6a 	bne.w	8000ef8 <handleUART+0x1c>
 8001024:	4b2d      	ldr	r3, [pc, #180]	@ (80010dc <handleUART+0x200>)
 8001026:	4927      	ldr	r1, [pc, #156]	@ (80010c4 <handleUART+0x1e8>)
 8001028:	482d      	ldr	r0, [pc, #180]	@ (80010e0 <handleUART+0x204>)
 800102a:	cb0c      	ldmia	r3, {r2, r3}
 800102c:	e7f4      	b.n	8001018 <handleUART+0x13c>
 800102e:	7860      	ldrb	r0, [r4, #1]
 8001030:	f7ff fdbe 	bl	8000bb0 <decodeASCII>
 8001034:	b930      	cbnz	r0, 8001044 <handleUART+0x168>
 8001036:	4b26      	ldr	r3, [pc, #152]	@ (80010d0 <handleUART+0x1f4>)
 8001038:	4922      	ldr	r1, [pc, #136]	@ (80010c4 <handleUART+0x1e8>)
 800103a:	4826      	ldr	r0, [pc, #152]	@ (80010d4 <handleUART+0x1f8>)
 800103c:	cb0c      	ldmia	r3, {r2, r3}
 800103e:	f000 fbf3 	bl	8001828 <resetSPIFlash>
 8001042:	e759      	b.n	8000ef8 <handleUART+0x1c>
 8001044:	2801      	cmp	r0, #1
 8001046:	f47f af57 	bne.w	8000ef8 <handleUART+0x1c>
 800104a:	4b24      	ldr	r3, [pc, #144]	@ (80010dc <handleUART+0x200>)
 800104c:	491d      	ldr	r1, [pc, #116]	@ (80010c4 <handleUART+0x1e8>)
 800104e:	4824      	ldr	r0, [pc, #144]	@ (80010e0 <handleUART+0x204>)
 8001050:	cb0c      	ldmia	r3, {r2, r3}
 8001052:	e7f4      	b.n	800103e <handleUART+0x162>
 8001054:	4b23      	ldr	r3, [pc, #140]	@ (80010e4 <handleUART+0x208>)
 8001056:	491b      	ldr	r1, [pc, #108]	@ (80010c4 <handleUART+0x1e8>)
 8001058:	6818      	ldr	r0, [r3, #0]
 800105a:	f000 fbf7 	bl	800184c <checkAccelWhoAmI>
 800105e:	e74b      	b.n	8000ef8 <handleUART+0x1c>
 8001060:	4818      	ldr	r0, [pc, #96]	@ (80010c4 <handleUART+0x1e8>)
 8001062:	f000 fbfd 	bl	8001860 <accelToUART>
 8001066:	e747      	b.n	8000ef8 <handleUART+0x1c>
 8001068:	4b1f      	ldr	r3, [pc, #124]	@ (80010e8 <handleUART+0x20c>)
 800106a:	7860      	ldrb	r0, [r4, #1]
 800106c:	681d      	ldr	r5, [r3, #0]
 800106e:	4915      	ldr	r1, [pc, #84]	@ (80010c4 <handleUART+0x1e8>)
 8001070:	f7ff fd9e 	bl	8000bb0 <decodeASCII>
 8001074:	4602      	mov	r2, r0
 8001076:	4628      	mov	r0, r5
 8001078:	f000 fc02 	bl	8001880 <readTempSensorID>
 800107c:	e73c      	b.n	8000ef8 <handleUART+0x1c>
 800107e:	4b1a      	ldr	r3, [pc, #104]	@ (80010e8 <handleUART+0x20c>)
 8001080:	7860      	ldrb	r0, [r4, #1]
 8001082:	681d      	ldr	r5, [r3, #0]
 8001084:	490f      	ldr	r1, [pc, #60]	@ (80010c4 <handleUART+0x1e8>)
 8001086:	f7ff fd93 	bl	8000bb0 <decodeASCII>
 800108a:	4602      	mov	r2, r0
 800108c:	4628      	mov	r0, r5
 800108e:	f000 fc02 	bl	8001896 <readTempCalibration>
 8001092:	e731      	b.n	8000ef8 <handleUART+0x1c>
 8001094:	7860      	ldrb	r0, [r4, #1]
 8001096:	f7ff fd8b 	bl	8000bb0 <decodeASCII>
 800109a:	4601      	mov	r1, r0
 800109c:	4809      	ldr	r0, [pc, #36]	@ (80010c4 <handleUART+0x1e8>)
 800109e:	f000 fc2d 	bl	80018fc <readTempSensor>
 80010a2:	e729      	b.n	8000ef8 <handleUART+0x1c>
 80010a4:	7863      	ldrb	r3, [r4, #1]
 80010a6:	f88d 300c 	strb.w	r3, [sp, #12]
 80010aa:	f44f 63e0 	mov.w	r3, #1792	@ 0x700
 80010ae:	9300      	str	r3, [sp, #0]
 80010b0:	480e      	ldr	r0, [pc, #56]	@ (80010ec <handleUART+0x210>)
 80010b2:	4b0f      	ldr	r3, [pc, #60]	@ (80010f0 <handleUART+0x214>)
 80010b4:	aa03      	add	r2, sp, #12
 80010b6:	2101      	movs	r1, #1
 80010b8:	f7ff fb36 	bl	8000728 <sendCAN_TxMessage>
 80010bc:	e71c      	b.n	8000ef8 <handleUART+0x1c>
 80010be:	bf00      	nop
 80010c0:	200002d5 	.word	0x200002d5
 80010c4:	200002e0 	.word	0x200002e0
 80010c8:	20000047 	.word	0x20000047
 80010cc:	2000007c 	.word	0x2000007c
 80010d0:	2000006c 	.word	0x2000006c
 80010d4:	200004d0 	.word	0x200004d0
 80010d8:	20000090 	.word	0x20000090
 80010dc:	2000005c 	.word	0x2000005c
 80010e0:	20000478 	.word	0x20000478
 80010e4:	200002dc 	.word	0x200002dc
 80010e8:	200002d8 	.word	0x200002d8
 80010ec:	200005f0 	.word	0x200005f0
 80010f0:	200002d0 	.word	0x200002d0

080010f4 <main>:
 80010f4:	e92d 47f0 	stmdb	sp!, {r4, r5, r6, r7, r8, r9, sl, lr}
 80010f8:	b08e      	sub	sp, #56	@ 0x38
 80010fa:	2400      	movs	r4, #0
 80010fc:	4dae      	ldr	r5, [pc, #696]	@ (80013b8 <main+0x2c4>)
 80010fe:	f8df 92fc 	ldr.w	r9, [pc, #764]	@ 80013fc <main+0x308>
 8001102:	f001 f903 	bl	800230c <HAL_Init>
 8001106:	f7ff fc8f 	bl	8000a28 <SystemClock_Config>
 800110a:	2214      	movs	r2, #20
 800110c:	2100      	movs	r1, #0
 800110e:	a809      	add	r0, sp, #36	@ 0x24
 8001110:	f004 faf4 	bl	80056fc <memset>
 8001114:	9404      	str	r4, [sp, #16]
 8001116:	6b2b      	ldr	r3, [r5, #48]	@ 0x30
 8001118:	48a8      	ldr	r0, [pc, #672]	@ (80013bc <main+0x2c8>)
 800111a:	f043 0304 	orr.w	r3, r3, #4
 800111e:	632b      	str	r3, [r5, #48]	@ 0x30
 8001120:	6b2b      	ldr	r3, [r5, #48]	@ 0x30
 8001122:	f003 0304 	and.w	r3, r3, #4
 8001126:	9304      	str	r3, [sp, #16]
 8001128:	9b04      	ldr	r3, [sp, #16]
 800112a:	9405      	str	r4, [sp, #20]
 800112c:	6b2b      	ldr	r3, [r5, #48]	@ 0x30
 800112e:	f043 0380 	orr.w	r3, r3, #128	@ 0x80
 8001132:	632b      	str	r3, [r5, #48]	@ 0x30
 8001134:	6b2b      	ldr	r3, [r5, #48]	@ 0x30
 8001136:	f003 0380 	and.w	r3, r3, #128	@ 0x80
 800113a:	9305      	str	r3, [sp, #20]
 800113c:	9b05      	ldr	r3, [sp, #20]
 800113e:	9406      	str	r4, [sp, #24]
 8001140:	6b2b      	ldr	r3, [r5, #48]	@ 0x30
 8001142:	f043 0301 	orr.w	r3, r3, #1
 8001146:	632b      	str	r3, [r5, #48]	@ 0x30
 8001148:	6b2b      	ldr	r3, [r5, #48]	@ 0x30
 800114a:	f003 0301 	and.w	r3, r3, #1
 800114e:	9306      	str	r3, [sp, #24]
 8001150:	9b06      	ldr	r3, [sp, #24]
 8001152:	9407      	str	r4, [sp, #28]
 8001154:	6b2b      	ldr	r3, [r5, #48]	@ 0x30
 8001156:	f043 0302 	orr.w	r3, r3, #2
 800115a:	632b      	str	r3, [r5, #48]	@ 0x30
 800115c:	6b2b      	ldr	r3, [r5, #48]	@ 0x30
 800115e:	f003 0302 	and.w	r3, r3, #2
 8001162:	9307      	str	r3, [sp, #28]
 8001164:	9b07      	ldr	r3, [sp, #28]
 8001166:	9408      	str	r4, [sp, #32]
 8001168:	6b2b      	ldr	r3, [r5, #48]	@ 0x30
 800116a:	f043 0308 	orr.w	r3, r3, #8
 800116e:	632b      	str	r3, [r5, #48]	@ 0x30
 8001170:	6b2b      	ldr	r3, [r5, #48]	@ 0x30
 8001172:	f003 0308 	and.w	r3, r3, #8
 8001176:	9308      	str	r3, [sp, #32]
 8001178:	4622      	mov	r2, r4
 800117a:	2113      	movs	r1, #19
 800117c:	9b08      	ldr	r3, [sp, #32]
 800117e:	f001 ffe1 	bl	8003144 <HAL_GPIO_WritePin>
 8001182:	488f      	ldr	r0, [pc, #572]	@ (80013c0 <main+0x2cc>)
 8001184:	4622      	mov	r2, r4
 8001186:	2110      	movs	r1, #16
 8001188:	f001 ffdc 	bl	8003144 <HAL_GPIO_WritePin>
 800118c:	4622      	mov	r2, r4
 800118e:	488d      	ldr	r0, [pc, #564]	@ (80013c4 <main+0x2d0>)
 8001190:	f44f 41e0 	mov.w	r1, #28672	@ 0x7000
 8001194:	f001 ffd6 	bl	8003144 <HAL_GPIO_WritePin>
 8001198:	2601      	movs	r6, #1
 800119a:	4888      	ldr	r0, [pc, #544]	@ (80013bc <main+0x2c8>)
 800119c:	a909      	add	r1, sp, #36	@ 0x24
 800119e:	e9cd 6609 	strd	r6, r6, [sp, #36]	@ 0x24
 80011a2:	e9cd 640b 	strd	r6, r4, [sp, #44]	@ 0x2c
 80011a6:	f001 fe49 	bl	8002e3c <HAL_GPIO_Init>
 80011aa:	2312      	movs	r3, #18
 80011ac:	4883      	ldr	r0, [pc, #524]	@ (80013bc <main+0x2c8>)
 80011ae:	a909      	add	r1, sp, #36	@ 0x24
 80011b0:	e9cd 3609 	strd	r3, r6, [sp, #36]	@ 0x24
 80011b4:	e9cd 440b 	strd	r4, r4, [sp, #44]	@ 0x2c
 80011b8:	f001 fe40 	bl	8002e3c <HAL_GPIO_Init>
 80011bc:	2310      	movs	r3, #16
 80011be:	4880      	ldr	r0, [pc, #512]	@ (80013c0 <main+0x2cc>)
 80011c0:	a909      	add	r1, sp, #36	@ 0x24
 80011c2:	2702      	movs	r7, #2
 80011c4:	e9cd 3609 	strd	r3, r6, [sp, #36]	@ 0x24
 80011c8:	e9cd 640b 	strd	r6, r4, [sp, #44]	@ 0x2c
 80011cc:	f001 fe36 	bl	8002e3c <HAL_GPIO_Init>
 80011d0:	f44f 1388 	mov.w	r3, #1114112	@ 0x110000
 80011d4:	487b      	ldr	r0, [pc, #492]	@ (80013c4 <main+0x2d0>)
 80011d6:	940b      	str	r4, [sp, #44]	@ 0x2c
 80011d8:	a909      	add	r1, sp, #36	@ 0x24
 80011da:	e9cd 7309 	strd	r7, r3, [sp, #36]	@ 0x24
 80011de:	f001 fe2d 	bl	8002e3c <HAL_GPIO_Init>
 80011e2:	f44f 43e0 	mov.w	r3, #28672	@ 0x7000
 80011e6:	4877      	ldr	r0, [pc, #476]	@ (80013c4 <main+0x2d0>)
 80011e8:	a909      	add	r1, sp, #36	@ 0x24
 80011ea:	e9cd 3609 	strd	r3, r6, [sp, #36]	@ 0x24
 80011ee:	e9cd 740b 	strd	r7, r4, [sp, #44]	@ 0x2c
 80011f2:	f001 fe23 	bl	8002e3c <HAL_GPIO_Init>
 80011f6:	f44f 53c0 	mov.w	r3, #6144	@ 0x1800
 80011fa:	e9cd 3709 	strd	r3, r7, [sp, #36]	@ 0x24
 80011fe:	4870      	ldr	r0, [pc, #448]	@ (80013c0 <main+0x2cc>)
 8001200:	940b      	str	r4, [sp, #44]	@ 0x2c
 8001202:	2309      	movs	r3, #9
 8001204:	a909      	add	r1, sp, #36	@ 0x24
 8001206:	f04f 0803 	mov.w	r8, #3
 800120a:	e9cd 830c 	strd	r8, r3, [sp, #48]	@ 0x30
 800120e:	f001 fe15 	bl	8002e3c <HAL_GPIO_Init>
 8001212:	4622      	mov	r2, r4
 8001214:	4621      	mov	r1, r4
 8001216:	2007      	movs	r0, #7
 8001218:	f001 fbe0 	bl	80029dc <HAL_NVIC_SetPriority>
 800121c:	2007      	movs	r0, #7
 800121e:	f001 fc0f 	bl	8002a40 <HAL_NVIC_EnableIRQ>
 8001222:	9402      	str	r4, [sp, #8]
 8001224:	6b2b      	ldr	r3, [r5, #48]	@ 0x30
 8001226:	f443 0380 	orr.w	r3, r3, #4194304	@ 0x400000
 800122a:	632b      	str	r3, [r5, #48]	@ 0x30
 800122c:	6b2b      	ldr	r3, [r5, #48]	@ 0x30
 800122e:	f403 0380 	and.w	r3, r3, #4194304	@ 0x400000
 8001232:	9302      	str	r3, [sp, #8]
 8001234:	9b02      	ldr	r3, [sp, #8]
 8001236:	9403      	str	r4, [sp, #12]
 8001238:	6b2b      	ldr	r3, [r5, #48]	@ 0x30
 800123a:	f443 1300 	orr.w	r3, r3, #2097152	@ 0x200000
 800123e:	632b      	str	r3, [r5, #48]	@ 0x30
 8001240:	6b2b      	ldr	r3, [r5, #48]	@ 0x30
 8001242:	4d61      	ldr	r5, [pc, #388]	@ (80013c8 <main+0x2d4>)
 8001244:	f403 1300 	and.w	r3, r3, #2097152	@ 0x200000
 8001248:	4622      	mov	r2, r4
 800124a:	4621      	mov	r1, r4
 800124c:	9303      	str	r3, [sp, #12]
 800124e:	200f      	movs	r0, #15
 8001250:	9b03      	ldr	r3, [sp, #12]
 8001252:	f001 fbc3 	bl	80029dc <HAL_NVIC_SetPriority>
 8001256:	200f      	movs	r0, #15
 8001258:	f001 fbf2 	bl	8002a40 <HAL_NVIC_EnableIRQ>
 800125c:	4621      	mov	r1, r4
 800125e:	4622      	mov	r2, r4
 8001260:	203b      	movs	r0, #59	@ 0x3b
 8001262:	f001 fbbb 	bl	80029dc <HAL_NVIC_SetPriority>
 8001266:	203b      	movs	r0, #59	@ 0x3b
 8001268:	f001 fbea 	bl	8002a40 <HAL_NVIC_EnableIRQ>
 800126c:	4b57      	ldr	r3, [pc, #348]	@ (80013cc <main+0x2d8>)
 800126e:	622c      	str	r4, [r5, #32]
 8001270:	e9c5 9300 	strd	r9, r3, [r5]
 8001274:	4628      	mov	r0, r5
 8001276:	f44f 4380 	mov.w	r3, #16384	@ 0x4000
 800127a:	e9c5 4402 	strd	r4, r4, [r5, #8]
 800127e:	e9c5 3404 	strd	r3, r4, [r5, #16]
 8001282:	e9c5 4406 	strd	r4, r4, [r5, #24]
 8001286:	f002 f89b 	bl	80033c0 <HAL_I2C_Init>
 800128a:	4601      	mov	r1, r0
 800128c:	b108      	cbz	r0, 8001292 <main+0x19e>
 800128e:	b672      	cpsid	i
 8001290:	e7fe      	b.n	8001290 <main+0x19c>
 8001292:	4628      	mov	r0, r5
 8001294:	f002 fbaa 	bl	80039ec <HAL_I2CEx_ConfigAnalogFilter>
 8001298:	4601      	mov	r1, r0
 800129a:	b108      	cbz	r0, 80012a0 <main+0x1ac>
 800129c:	b672      	cpsid	i
 800129e:	e7fe      	b.n	800129e <main+0x1aa>
 80012a0:	4628      	mov	r0, r5
 80012a2:	f002 fbc2 	bl	8003a2a <HAL_I2CEx_ConfigDigitalFilter>
 80012a6:	4603      	mov	r3, r0
 80012a8:	b108      	cbz	r0, 80012ae <main+0x1ba>
 80012aa:	b672      	cpsid	i
 80012ac:	e7fe      	b.n	80012ac <main+0x1b8>
 80012ae:	4848      	ldr	r0, [pc, #288]	@ (80013d0 <main+0x2dc>)
 80012b0:	4a48      	ldr	r2, [pc, #288]	@ (80013d4 <main+0x2e0>)
 80012b2:	6183      	str	r3, [r0, #24]
 80012b4:	e9c0 2300 	strd	r2, r3, [r0]
 80012b8:	f04f 0e7f 	mov.w	lr, #127	@ 0x7f
 80012bc:	22ff      	movs	r2, #255	@ 0xff
 80012be:	e9c0 3304 	strd	r3, r3, [r0, #16]
 80012c2:	e9c0 e202 	strd	lr, r2, [r0, #8]
 80012c6:	f002 fffa 	bl	80042be <HAL_RTC_Init>
 80012ca:	4603      	mov	r3, r0
 80012cc:	b108      	cbz	r0, 80012d2 <main+0x1de>
 80012ce:	b672      	cpsid	i
 80012d0:	e7fe      	b.n	80012d0 <main+0x1dc>
 80012d2:	4841      	ldr	r0, [pc, #260]	@ (80013d8 <main+0x2e4>)
 80012d4:	4a41      	ldr	r2, [pc, #260]	@ (80013dc <main+0x2e8>)
 80012d6:	6283      	str	r3, [r0, #40]	@ 0x28
 80012d8:	f44f 7582 	mov.w	r5, #260	@ 0x104
 80012dc:	e9c0 2500 	strd	r2, r5, [r0]
 80012e0:	f44f 7400 	mov.w	r4, #512	@ 0x200
 80012e4:	2208      	movs	r2, #8
 80012e6:	260a      	movs	r6, #10
 80012e8:	e9c0 3302 	strd	r3, r3, [r0, #8]
 80012ec:	e9c0 3304 	strd	r3, r3, [r0, #16]
 80012f0:	e9c0 4206 	strd	r4, r2, [r0, #24]
 80012f4:	e9c0 3308 	strd	r3, r3, [r0, #32]
 80012f8:	62c6      	str	r6, [r0, #44]	@ 0x2c
 80012fa:	f003 f9e3 	bl	80046c4 <HAL_SPI_Init>
 80012fe:	b108      	cbz	r0, 8001304 <main+0x210>
 8001300:	b672      	cpsid	i
 8001302:	e7fe      	b.n	8001302 <main+0x20e>
 8001304:	4f36      	ldr	r7, [pc, #216]	@ (80013e0 <main+0x2ec>)
 8001306:	f8df c0f8 	ldr.w	ip, [pc, #248]	@ 8001400 <main+0x30c>
 800130a:	60b8      	str	r0, [r7, #8]
 800130c:	f245 2307 	movw	r3, #20999	@ 0x5207
 8001310:	e9cd 0009 	strd	r0, r0, [sp, #36]	@ 0x24
 8001314:	e9c7 c300 	strd	ip, r3, [r7]
 8001318:	61b8      	str	r0, [r7, #24]
 800131a:	2328      	movs	r3, #40	@ 0x28
 800131c:	4638      	mov	r0, r7
 800131e:	60fb      	str	r3, [r7, #12]
 8001320:	f003 fe6a 	bl	8004ff8 <HAL_TIM_Base_Init>
 8001324:	b108      	cbz	r0, 800132a <main+0x236>
 8001326:	b672      	cpsid	i
 8001328:	e7fe      	b.n	8001328 <main+0x234>
 800132a:	e9cd 0009 	strd	r0, r0, [sp, #36]	@ 0x24
 800132e:	a909      	add	r1, sp, #36	@ 0x24
 8001330:	4638      	mov	r0, r7
 8001332:	f003 fe8d 	bl	8005050 <HAL_TIMEx_MasterConfigSynchronization>
 8001336:	4603      	mov	r3, r0
 8001338:	b108      	cbz	r0, 800133e <main+0x24a>
 800133a:	b672      	cpsid	i
 800133c:	e7fe      	b.n	800133c <main+0x248>
 800133e:	4829      	ldr	r0, [pc, #164]	@ (80013e4 <main+0x2f0>)
 8001340:	4f29      	ldr	r7, [pc, #164]	@ (80013e8 <main+0x2f4>)
 8001342:	6103      	str	r3, [r0, #16]
 8001344:	f44f 2261 	mov.w	r2, #921600	@ 0xe1000
 8001348:	e9c0 7200 	strd	r7, r2, [r0]
 800134c:	220c      	movs	r2, #12
 800134e:	e9c0 3302 	strd	r3, r3, [r0, #8]
 8001352:	e9c0 2305 	strd	r2, r3, [r0, #20]
 8001356:	61c3      	str	r3, [r0, #28]
 8001358:	f003 ff78 	bl	800524c <HAL_UART_Init>
 800135c:	4603      	mov	r3, r0
 800135e:	b108      	cbz	r0, 8001364 <main+0x270>
 8001360:	b672      	cpsid	i
 8001362:	e7fe      	b.n	8001362 <main+0x26e>
 8001364:	4821      	ldr	r0, [pc, #132]	@ (80013ec <main+0x2f8>)
 8001366:	4a22      	ldr	r2, [pc, #136]	@ (80013f0 <main+0x2fc>)
 8001368:	e9c0 3302 	strd	r3, r3, [r0, #8]
 800136c:	e9c0 3304 	strd	r3, r3, [r0, #16]
 8001370:	e9c0 4306 	strd	r4, r3, [r0, #24]
 8001374:	e9c0 3308 	strd	r3, r3, [r0, #32]
 8001378:	e9c0 360a 	strd	r3, r6, [r0, #40]	@ 0x28
 800137c:	e9c0 2500 	strd	r2, r5, [r0]
 8001380:	f003 f9a0 	bl	80046c4 <HAL_SPI_Init>
 8001384:	4603      	mov	r3, r0
 8001386:	b108      	cbz	r0, 800138c <main+0x298>
 8001388:	b672      	cpsid	i
 800138a:	e7fe      	b.n	800138a <main+0x296>
 800138c:	4819      	ldr	r0, [pc, #100]	@ (80013f4 <main+0x300>)
 800138e:	4c1a      	ldr	r4, [pc, #104]	@ (80013f8 <main+0x304>)
 8001390:	6083      	str	r3, [r0, #8]
 8001392:	2218      	movs	r2, #24
 8001394:	e9c0 4200 	strd	r4, r2, [r0]
 8001398:	f04f 7580 	mov.w	r5, #16777216	@ 0x1000000
 800139c:	f44f 2220 	mov.w	r2, #655360	@ 0xa0000
 80013a0:	e9c0 5203 	strd	r5, r2, [r0, #12]
 80013a4:	f44f 1280 	mov.w	r2, #1048576	@ 0x100000
 80013a8:	e9c0 2305 	strd	r2, r3, [r0, #20]
 80013ac:	8383      	strh	r3, [r0, #28]
 80013ae:	f000 ffed 	bl	800238c <HAL_CAN_Init>
 80013b2:	b338      	cbz	r0, 8001404 <main+0x310>
 80013b4:	b672      	cpsid	i
 80013b6:	e7fe      	b.n	80013b6 <main+0x2c2>
 80013b8:	40023800 	.word	0x40023800
 80013bc:	40020800 	.word	0x40020800
 80013c0:	40020000 	.word	0x40020000
 80013c4:	40020400 	.word	0x40020400
 80013c8:	2000059c 	.word	0x2000059c
 80013cc:	000186a0 	.word	0x000186a0
 80013d0:	20000528 	.word	0x20000528
 80013d4:	40002800 	.word	0x40002800
 80013d8:	200004d0 	.word	0x200004d0
 80013dc:	40013000 	.word	0x40013000
 80013e0:	20000370 	.word	0x20000370
 80013e4:	200002e0 	.word	0x200002e0
 80013e8:	40004400 	.word	0x40004400
 80013ec:	20000478 	.word	0x20000478
 80013f0:	40003800 	.word	0x40003800
 80013f4:	200005f0 	.word	0x200005f0
 80013f8:	40006800 	.word	0x40006800
 80013fc:	40005400 	.word	0x40005400
 8001400:	40001000 	.word	0x40001000
 8001404:	4c87      	ldr	r4, [pc, #540]	@ (8001624 <main+0x530>)
 8001406:	4988      	ldr	r1, [pc, #544]	@ (8001628 <main+0x534>)
 8001408:	f245 2207 	movw	r2, #20999	@ 0x5207
 800140c:	2300      	movs	r3, #0
 800140e:	e9c4 1200 	strd	r1, r2, [r4]
 8001412:	4620      	mov	r0, r4
 8001414:	f44f 62fa 	mov.w	r2, #2000	@ 0x7d0
 8001418:	e9cd 3309 	strd	r3, r3, [sp, #36]	@ 0x24
 800141c:	60a3      	str	r3, [r4, #8]
 800141e:	60e2      	str	r2, [r4, #12]
 8001420:	61a3      	str	r3, [r4, #24]
 8001422:	f003 fde9 	bl	8004ff8 <HAL_TIM_Base_Init>
 8001426:	b108      	cbz	r0, 800142c <main+0x338>
 8001428:	b672      	cpsid	i
 800142a:	e7fe      	b.n	800142a <main+0x336>
 800142c:	e9cd 0009 	strd	r0, r0, [sp, #36]	@ 0x24
 8001430:	a909      	add	r1, sp, #36	@ 0x24
 8001432:	4620      	mov	r0, r4
 8001434:	f003 fe0c 	bl	8005050 <HAL_TIMEx_MasterConfigSynchronization>
 8001438:	b108      	cbz	r0, 800143e <main+0x34a>
 800143a:	b672      	cpsid	i
 800143c:	e7fe      	b.n	800143c <main+0x348>
 800143e:	4c7b      	ldr	r4, [pc, #492]	@ (800162c <main+0x538>)
 8001440:	4a7b      	ldr	r2, [pc, #492]	@ (8001630 <main+0x53c>)
 8001442:	4b7c      	ldr	r3, [pc, #496]	@ (8001634 <main+0x540>)
 8001444:	6220      	str	r0, [r4, #32]
 8001446:	e9c4 2300 	strd	r2, r3, [r4]
 800144a:	f44f 4380 	mov.w	r3, #16384	@ 0x4000
 800144e:	e9c4 0002 	strd	r0, r0, [r4, #8]
 8001452:	e9c4 3004 	strd	r3, r0, [r4, #16]
 8001456:	e9c4 0006 	strd	r0, r0, [r4, #24]
 800145a:	4620      	mov	r0, r4
 800145c:	f001 ffb0 	bl	80033c0 <HAL_I2C_Init>
 8001460:	4601      	mov	r1, r0
 8001462:	b108      	cbz	r0, 8001468 <main+0x374>
 8001464:	b672      	cpsid	i
 8001466:	e7fe      	b.n	8001466 <main+0x372>
 8001468:	4620      	mov	r0, r4
 800146a:	f002 fabf 	bl	80039ec <HAL_I2CEx_ConfigAnalogFilter>
 800146e:	4601      	mov	r1, r0
 8001470:	b108      	cbz	r0, 8001476 <main+0x382>
 8001472:	b672      	cpsid	i
 8001474:	e7fe      	b.n	8001474 <main+0x380>
 8001476:	4620      	mov	r0, r4
 8001478:	f002 fad7 	bl	8003a2a <HAL_I2CEx_ConfigDigitalFilter>
 800147c:	b108      	cbz	r0, 8001482 <main+0x38e>
 800147e:	b672      	cpsid	i
 8001480:	e7fe      	b.n	8001480 <main+0x38c>
 8001482:	f7ff fc49 	bl	8000d18 <systemInit>
 8001486:	4e6c      	ldr	r6, [pc, #432]	@ (8001638 <main+0x544>)
 8001488:	4f6c      	ldr	r7, [pc, #432]	@ (800163c <main+0x548>)
 800148a:	7833      	ldrb	r3, [r6, #0]
 800148c:	2b01      	cmp	r3, #1
 800148e:	d104      	bne.n	800149a <main+0x3a6>
 8001490:	486b      	ldr	r0, [pc, #428]	@ (8001640 <main+0x54c>)
 8001492:	f000 fab3 	bl	80019fc <initialise_rtc_default>
 8001496:	2300      	movs	r3, #0
 8001498:	7033      	strb	r3, [r6, #0]
 800149a:	4c6a      	ldr	r4, [pc, #424]	@ (8001644 <main+0x550>)
 800149c:	7823      	ldrb	r3, [r4, #0]
 800149e:	2b01      	cmp	r3, #1
 80014a0:	d103      	bne.n	80014aa <main+0x3b6>
 80014a2:	f7ff fd1b 	bl	8000edc <handleUART>
 80014a6:	2300      	movs	r3, #0
 80014a8:	7023      	strb	r3, [r4, #0]
 80014aa:	783b      	ldrb	r3, [r7, #0]
 80014ac:	2b01      	cmp	r3, #1
 80014ae:	d10b      	bne.n	80014c8 <main+0x3d4>
 80014b0:	4b65      	ldr	r3, [pc, #404]	@ (8001648 <main+0x554>)
 80014b2:	781a      	ldrb	r2, [r3, #0]
 80014b4:	2a01      	cmp	r2, #1
 80014b6:	d103      	bne.n	80014c0 <main+0x3cc>
 80014b8:	4b64      	ldr	r3, [pc, #400]	@ (800164c <main+0x558>)
 80014ba:	7819      	ldrb	r1, [r3, #0]
 80014bc:	b901      	cbnz	r1, 80014c0 <main+0x3cc>
 80014be:	701a      	strb	r2, [r3, #0]
 80014c0:	f7ff fb8c 	bl	8000bdc <handleCAN>
 80014c4:	2300      	movs	r3, #0
 80014c6:	703b      	strb	r3, [r7, #0]
 80014c8:	f8df 81c4 	ldr.w	r8, [pc, #452]	@ 8001690 <main+0x59c>
 80014cc:	4d60      	ldr	r5, [pc, #384]	@ (8001650 <main+0x55c>)
 80014ce:	f898 9000 	ldrb.w	r9, [r8]
 80014d2:	f1b9 0f01 	cmp.w	r9, #1
 80014d6:	d11c      	bne.n	8001512 <main+0x41e>
 80014d8:	4b5e      	ldr	r3, [pc, #376]	@ (8001654 <main+0x560>)
 80014da:	8899      	ldrh	r1, [r3, #4]
 80014dc:	6818      	ldr	r0, [r3, #0]
 80014de:	f001 fe36 	bl	800314e <HAL_GPIO_TogglePin>
 80014e2:	4b5d      	ldr	r3, [pc, #372]	@ (8001658 <main+0x564>)
 80014e4:	4a5d      	ldr	r2, [pc, #372]	@ (800165c <main+0x568>)
 80014e6:	681b      	ldr	r3, [r3, #0]
 80014e8:	6812      	ldr	r2, [r2, #0]
 80014ea:	495d      	ldr	r1, [pc, #372]	@ (8001660 <main+0x56c>)
 80014ec:	485d      	ldr	r0, [pc, #372]	@ (8001664 <main+0x570>)
 80014ee:	f000 f8d9 	bl	80016a4 <systemStatus>
 80014f2:	4b5d      	ldr	r3, [pc, #372]	@ (8001668 <main+0x574>)
 80014f4:	4604      	mov	r4, r0
 80014f6:	7018      	strb	r0, [r3, #0]
 80014f8:	4b5c      	ldr	r3, [pc, #368]	@ (800166c <main+0x578>)
 80014fa:	2800      	cmp	r0, #0
 80014fc:	f040 8089 	bne.w	8001612 <main+0x51e>
 8001500:	8899      	ldrh	r1, [r3, #4]
 8001502:	6818      	ldr	r0, [r3, #0]
 8001504:	464a      	mov	r2, r9
 8001506:	f001 fe1d 	bl	8003144 <HAL_GPIO_WritePin>
 800150a:	2300      	movs	r3, #0
 800150c:	702c      	strb	r4, [r5, #0]
 800150e:	f888 3000 	strb.w	r3, [r8]
 8001512:	782b      	ldrb	r3, [r5, #0]
 8001514:	2b03      	cmp	r3, #3
 8001516:	d919      	bls.n	800154c <main+0x458>
 8001518:	4c53      	ldr	r4, [pc, #332]	@ (8001668 <main+0x574>)
 800151a:	7823      	ldrb	r3, [r4, #0]
 800151c:	075b      	lsls	r3, r3, #29
 800151e:	d509      	bpl.n	8001534 <main+0x440>
 8001520:	f8df 8134 	ldr.w	r8, [pc, #308]	@ 8001658 <main+0x564>
 8001524:	f8d8 0000 	ldr.w	r0, [r8]
 8001528:	f001 fff2 	bl	8003510 <HAL_I2C_DeInit>
 800152c:	f8d8 0000 	ldr.w	r0, [r8]
 8001530:	f001 ff46 	bl	80033c0 <HAL_I2C_Init>
 8001534:	7823      	ldrb	r3, [r4, #0]
 8001536:	08db      	lsrs	r3, r3, #3
 8001538:	d006      	beq.n	8001548 <main+0x454>
 800153a:	4c48      	ldr	r4, [pc, #288]	@ (800165c <main+0x568>)
 800153c:	6820      	ldr	r0, [r4, #0]
 800153e:	f001 ffe7 	bl	8003510 <HAL_I2C_DeInit>
 8001542:	6820      	ldr	r0, [r4, #0]
 8001544:	f001 ff3c 	bl	80033c0 <HAL_I2C_Init>
 8001548:	2300      	movs	r3, #0
 800154a:	702b      	strb	r3, [r5, #0]
 800154c:	4c48      	ldr	r4, [pc, #288]	@ (8001670 <main+0x57c>)
 800154e:	7823      	ldrb	r3, [r4, #0]
 8001550:	2b01      	cmp	r3, #1
 8001552:	d108      	bne.n	8001566 <main+0x472>
 8001554:	4b41      	ldr	r3, [pc, #260]	@ (800165c <main+0x568>)
 8001556:	4a3a      	ldr	r2, [pc, #232]	@ (8001640 <main+0x54c>)
 8001558:	6819      	ldr	r1, [r3, #0]
 800155a:	4b3f      	ldr	r3, [pc, #252]	@ (8001658 <main+0x564>)
 800155c:	6818      	ldr	r0, [r3, #0]
 800155e:	f000 f9ed 	bl	800193c <readAllSensors>
 8001562:	2300      	movs	r3, #0
 8001564:	7023      	strb	r3, [r4, #0]
 8001566:	f8df 912c 	ldr.w	r9, [pc, #300]	@ 8001694 <main+0x5a0>
 800156a:	4c42      	ldr	r4, [pc, #264]	@ (8001674 <main+0x580>)
 800156c:	f8b9 3000 	ldrh.w	r3, [r9]
 8001570:	2beb      	cmp	r3, #235	@ 0xeb
 8001572:	d940      	bls.n	80015f6 <main+0x502>
 8001574:	4b40      	ldr	r3, [pc, #256]	@ (8001678 <main+0x584>)
 8001576:	4d41      	ldr	r5, [pc, #260]	@ (800167c <main+0x588>)
 8001578:	6818      	ldr	r0, [r3, #0]
 800157a:	8899      	ldrh	r1, [r3, #4]
 800157c:	b289      	uxth	r1, r1
 800157e:	f001 fddb 	bl	8003138 <HAL_GPIO_ReadPin>
 8001582:	4b3f      	ldr	r3, [pc, #252]	@ (8001680 <main+0x58c>)
 8001584:	781b      	ldrb	r3, [r3, #0]
 8001586:	2b00      	cmp	r3, #0
 8001588:	bf14      	ite	ne
 800158a:	2200      	movne	r2, #0
 800158c:	f000 0201 	andeq.w	r2, r0, #1
 8001590:	b352      	cbz	r2, 80015e8 <main+0x4f4>
 8001592:	f8df 8104 	ldr.w	r8, [pc, #260]	@ 8001698 <main+0x5a4>
 8001596:	f8df a104 	ldr.w	sl, [pc, #260]	@ 800169c <main+0x5a8>
 800159a:	f8b8 1004 	ldrh.w	r1, [r8, #4]
 800159e:	f8d8 0000 	ldr.w	r0, [r8]
 80015a2:	f001 fdcf 	bl	8003144 <HAL_GPIO_WritePin>
 80015a6:	4b37      	ldr	r3, [pc, #220]	@ (8001684 <main+0x590>)
 80015a8:	7828      	ldrb	r0, [r5, #0]
 80015aa:	685a      	ldr	r2, [r3, #4]
 80015ac:	9200      	str	r2, [sp, #0]
 80015ae:	681b      	ldr	r3, [r3, #0]
 80015b0:	6822      	ldr	r2, [r4, #0]
 80015b2:	492c      	ldr	r1, [pc, #176]	@ (8001664 <main+0x570>)
 80015b4:	eb0a 2000 	add.w	r0, sl, r0, lsl #8
 80015b8:	f7ff f952 	bl	8000860 <write_data_spi_dma>
 80015bc:	4b32      	ldr	r3, [pc, #200]	@ (8001688 <main+0x594>)
 80015be:	7828      	ldrb	r0, [r5, #0]
 80015c0:	685a      	ldr	r2, [r3, #4]
 80015c2:	9200      	str	r2, [sp, #0]
 80015c4:	681b      	ldr	r3, [r3, #0]
 80015c6:	6822      	ldr	r2, [r4, #0]
 80015c8:	4925      	ldr	r1, [pc, #148]	@ (8001660 <main+0x56c>)
 80015ca:	eb0a 2000 	add.w	r0, sl, r0, lsl #8
 80015ce:	f7ff f947 	bl	8000860 <write_data_spi_dma>
 80015d2:	6823      	ldr	r3, [r4, #0]
 80015d4:	f8b8 1004 	ldrh.w	r1, [r8, #4]
 80015d8:	f8d8 0000 	ldr.w	r0, [r8]
 80015dc:	f503 7380 	add.w	r3, r3, #256	@ 0x100
 80015e0:	2200      	movs	r2, #0
 80015e2:	6023      	str	r3, [r4, #0]
 80015e4:	f001 fdae 	bl	8003144 <HAL_GPIO_WritePin>
 80015e8:	782b      	ldrb	r3, [r5, #0]
 80015ea:	f083 0301 	eor.w	r3, r3, #1
 80015ee:	702b      	strb	r3, [r5, #0]
 80015f0:	2300      	movs	r3, #0
 80015f2:	f8a9 3000 	strh.w	r3, [r9]
 80015f6:	6822      	ldr	r2, [r4, #0]
 80015f8:	4b24      	ldr	r3, [pc, #144]	@ (800168c <main+0x598>)
 80015fa:	429a      	cmp	r2, r3
 80015fc:	f47f af45 	bne.w	800148a <main+0x396>
 8001600:	4b1f      	ldr	r3, [pc, #124]	@ (8001680 <main+0x58c>)
 8001602:	781b      	ldrb	r3, [r3, #0]
 8001604:	2b00      	cmp	r3, #0
 8001606:	f47f af40 	bne.w	800148a <main+0x396>
 800160a:	f7ff fb63 	bl	8000cd4 <find_next_blank_page_all>
 800160e:	6020      	str	r0, [r4, #0]
 8001610:	e73b      	b.n	800148a <main+0x396>
 8001612:	8899      	ldrh	r1, [r3, #4]
 8001614:	6818      	ldr	r0, [r3, #0]
 8001616:	2200      	movs	r2, #0
 8001618:	f001 fd94 	bl	8003144 <HAL_GPIO_WritePin>
 800161c:	782c      	ldrb	r4, [r5, #0]
 800161e:	3401      	adds	r4, #1
 8001620:	b2e4      	uxtb	r4, r4
 8001622:	e772      	b.n	800150a <main+0x416>
 8001624:	20000328 	.word	0x20000328
 8001628:	40001400 	.word	0x40001400
 800162c:	20000548 	.word	0x20000548
 8001630:	40005c00 	.word	0x40005c00
 8001634:	000186a0 	.word	0x000186a0
 8001638:	20000048 	.word	0x20000048
 800163c:	200002ab 	.word	0x200002ab
 8001640:	20000528 	.word	0x20000528
 8001644:	200002d4 	.word	0x200002d4
 8001648:	200002aa 	.word	0x200002aa
 800164c:	20000046 	.word	0x20000046
 8001650:	20000045 	.word	0x20000045
 8001654:	20000084 	.word	0x20000084
 8001658:	200002dc 	.word	0x200002dc
 800165c:	200002d8 	.word	0x200002d8
 8001660:	20000478 	.word	0x20000478
 8001664:	200004d0 	.word	0x200004d0
 8001668:	20000047 	.word	0x20000047
 800166c:	20000074 	.word	0x20000074
 8001670:	200002a9 	.word	0x200002a9
 8001674:	20000090 	.word	0x20000090
 8001678:	2000004c 	.word	0x2000004c
 800167c:	200000a7 	.word	0x200000a7
 8001680:	2000008c 	.word	0x2000008c
 8001684:	2000006c 	.word	0x2000006c
 8001688:	2000005c 	.word	0x2000005c
 800168c:	00ffff00 	.word	0x00ffff00
 8001690:	200002a8 	.word	0x200002a8
 8001694:	2000008e 	.word	0x2000008e
 8001698:	2000007c 	.word	0x2000007c
 800169c:	200000a8 	.word	0x200000a8

080016a0 <Error_Handler>:
 80016a0:	b672      	cpsid	i
 80016a2:	e7fe      	b.n	80016a2 <Error_Handler+0x2>

080016a4 <systemStatus>:
 80016a4:	e92d 41f3 	stmdb	sp!, {r0, r1, r4, r5, r6, r7, r8, lr}
 80016a8:	4607      	mov	r7, r0
 80016aa:	4688      	mov	r8, r1
 80016ac:	4610      	mov	r0, r2
 80016ae:	2101      	movs	r1, #1
 80016b0:	4615      	mov	r5, r2
 80016b2:	461e      	mov	r6, r3
 80016b4:	f7fe ffce 	bl	8000654 <readBME280_id_reg>
 80016b8:	2100      	movs	r1, #0
 80016ba:	f1b0 0460 	subs.w	r4, r0, #96	@ 0x60
 80016be:	4628      	mov	r0, r5
 80016c0:	bf18      	it	ne
 80016c2:	2401      	movne	r4, #1
 80016c4:	f7fe ffc6 	bl	8000654 <readBME280_id_reg>
 80016c8:	0124      	lsls	r4, r4, #4
 80016ca:	2860      	cmp	r0, #96	@ 0x60
 80016cc:	4630      	mov	r0, r6
 80016ce:	bf18      	it	ne
 80016d0:	f044 0408 	orrne.w	r4, r4, #8
 80016d4:	f7fe ff20 	bl	8000518 <readAccel_whoami>
 80016d8:	4b12      	ldr	r3, [pc, #72]	@ (8001724 <systemStatus+0x80>)
 80016da:	28e5      	cmp	r0, #229	@ 0xe5
 80016dc:	cb0c      	ldmia	r3, {r2, r3}
 80016de:	f04f 0500 	mov.w	r5, #0
 80016e2:	4641      	mov	r1, r8
 80016e4:	4668      	mov	r0, sp
 80016e6:	bf18      	it	ne
 80016e8:	f044 0404 	orrne.w	r4, r4, #4
 80016ec:	f8ad 5000 	strh.w	r5, [sp]
 80016f0:	f7ff f934 	bl	800095c <read_manufacturer_id>
 80016f4:	f89d 3000 	ldrb.w	r3, [sp]
 80016f8:	f8ad 5004 	strh.w	r5, [sp, #4]
 80016fc:	2bef      	cmp	r3, #239	@ 0xef
 80016fe:	4b0a      	ldr	r3, [pc, #40]	@ (8001728 <systemStatus+0x84>)
 8001700:	a801      	add	r0, sp, #4
 8001702:	cb0c      	ldmia	r3, {r2, r3}
 8001704:	4639      	mov	r1, r7
 8001706:	bf18      	it	ne
 8001708:	f044 0402 	orrne.w	r4, r4, #2
 800170c:	f7ff f926 	bl	800095c <read_manufacturer_id>
 8001710:	f89d 3004 	ldrb.w	r3, [sp, #4]
 8001714:	2bef      	cmp	r3, #239	@ 0xef
 8001716:	bf18      	it	ne
 8001718:	f044 0401 	orrne.w	r4, r4, #1
 800171c:	4620      	mov	r0, r4
 800171e:	b002      	add	sp, #8
 8001720:	e8bd 81f0 	ldmia.w	sp!, {r4, r5, r6, r7, r8, pc}
 8001724:	2000005c 	.word	0x2000005c
 8001728:	2000006c 	.word	0x2000006c

0800172c <heartbeatUART>:
 800172c:	2151      	movs	r1, #81	@ 0x51
 800172e:	f000 bd92 	b.w	8002256 <send_uart_hex>
	...

08001734 <eraseFlashSPI>:
 8001734:	b513      	push	{r0, r1, r4, lr}
 8001736:	460c      	mov	r4, r1
 8001738:	4669      	mov	r1, sp
 800173a:	e881 000c 	stmia.w	r1, {r2, r3}
 800173e:	c906      	ldmia	r1, {r1, r2}
 8001740:	f7ff f846 	bl	80007d0 <erase_chip_spi>
 8001744:	b930      	cbnz	r0, 8001754 <eraseFlashSPI+0x20>
 8001746:	4904      	ldr	r1, [pc, #16]	@ (8001758 <eraseFlashSPI+0x24>)
 8001748:	4620      	mov	r0, r4
 800174a:	b002      	add	sp, #8
 800174c:	e8bd 4010 	ldmia.w	sp!, {r4, lr}
 8001750:	f000 bd72 	b.w	8002238 <send_uart_string>
 8001754:	4901      	ldr	r1, [pc, #4]	@ (800175c <eraseFlashSPI+0x28>)
 8001756:	e7f7      	b.n	8001748 <eraseFlashSPI+0x14>
 8001758:	08005774 	.word	0x08005774
 800175c:	0800578c 	.word	0x0800578c

08001760 <readFlashToUART>:
 8001760:	e92d 41f0 	stmdb	sp!, {r4, r5, r6, r7, r8, lr}
 8001764:	b0c4      	sub	sp, #272	@ 0x110
 8001766:	ae02      	add	r6, sp, #8
 8001768:	e886 000c 	stmia.w	r6, {r2, r3}
 800176c:	4b0e      	ldr	r3, [pc, #56]	@ (80017a8 <readFlashToUART+0x48>)
 800176e:	681c      	ldr	r4, [r3, #0]
 8001770:	2c00      	cmp	r4, #0
 8001772:	bf08      	it	eq
 8001774:	f44f 7480 	moveq.w	r4, #256	@ 0x100
 8001778:	4607      	mov	r7, r0
 800177a:	4688      	mov	r8, r1
 800177c:	0a24      	lsrs	r4, r4, #8
 800177e:	2500      	movs	r5, #0
 8001780:	42a5      	cmp	r5, r4
 8001782:	ea4f 2205 	mov.w	r2, r5, lsl #8
 8001786:	d102      	bne.n	800178e <readFlashToUART+0x2e>
 8001788:	b044      	add	sp, #272	@ 0x110
 800178a:	e8bd 81f0 	ldmia.w	sp!, {r4, r5, r6, r7, r8, pc}
 800178e:	6873      	ldr	r3, [r6, #4]
 8001790:	9300      	str	r3, [sp, #0]
 8001792:	6833      	ldr	r3, [r6, #0]
 8001794:	4639      	mov	r1, r7
 8001796:	a804      	add	r0, sp, #16
 8001798:	f7ff f8be 	bl	8000918 <read_page_spi>
 800179c:	a904      	add	r1, sp, #16
 800179e:	4640      	mov	r0, r8
 80017a0:	f000 fd44 	bl	800222c <uart_transmit_page>
 80017a4:	3501      	adds	r5, #1
 80017a6:	e7eb      	b.n	8001780 <readFlashToUART+0x20>
 80017a8:	20000090 	.word	0x20000090

080017ac <readFlashManuSPI>:
 80017ac:	b51f      	push	{r0, r1, r2, r3, r4, lr}
 80017ae:	460c      	mov	r4, r1
 80017b0:	4669      	mov	r1, sp
 80017b2:	e881 000c 	stmia.w	r1, {r2, r3}
 80017b6:	2300      	movs	r3, #0
 80017b8:	f8ad 300c 	strh.w	r3, [sp, #12]
 80017bc:	e891 000c 	ldmia.w	r1, {r2, r3}
 80017c0:	4601      	mov	r1, r0
 80017c2:	a803      	add	r0, sp, #12
 80017c4:	f7ff f8ca 	bl	800095c <read_manufacturer_id>
 80017c8:	f89d 100c 	ldrb.w	r1, [sp, #12]
 80017cc:	4620      	mov	r0, r4
 80017ce:	f000 fd42 	bl	8002256 <send_uart_hex>
 80017d2:	f89d 100d 	ldrb.w	r1, [sp, #13]
 80017d6:	4620      	mov	r0, r4
 80017d8:	f000 fd3d 	bl	8002256 <send_uart_hex>
 80017dc:	b004      	add	sp, #16
 80017de:	bd10      	pop	{r4, pc}

080017e0 <writePageSPI_W>:
 80017e0:	b5f0      	push	{r4, r5, r6, r7, lr}
 80017e2:	b0c5      	sub	sp, #276	@ 0x114
 80017e4:	ac02      	add	r4, sp, #8
 80017e6:	e884 000c 	stmia.w	r4, {r2, r3}
 80017ea:	4607      	mov	r7, r0
 80017ec:	460d      	mov	r5, r1
 80017ee:	f44f 7280 	mov.w	r2, #256	@ 0x100
 80017f2:	2177      	movs	r1, #119	@ 0x77
 80017f4:	a804      	add	r0, sp, #16
 80017f6:	f003 ff81 	bl	80056fc <memset>
 80017fa:	4e09      	ldr	r6, [pc, #36]	@ (8001820 <writePageSPI_W+0x40>)
 80017fc:	6863      	ldr	r3, [r4, #4]
 80017fe:	9300      	str	r3, [sp, #0]
 8001800:	6823      	ldr	r3, [r4, #0]
 8001802:	6832      	ldr	r2, [r6, #0]
 8001804:	4639      	mov	r1, r7
 8001806:	a804      	add	r0, sp, #16
 8001808:	f7ff f82a 	bl	8000860 <write_data_spi_dma>
 800180c:	6833      	ldr	r3, [r6, #0]
 800180e:	4905      	ldr	r1, [pc, #20]	@ (8001824 <writePageSPI_W+0x44>)
 8001810:	f503 7380 	add.w	r3, r3, #256	@ 0x100
 8001814:	4628      	mov	r0, r5
 8001816:	6033      	str	r3, [r6, #0]
 8001818:	f000 fd0e 	bl	8002238 <send_uart_string>
 800181c:	b045      	add	sp, #276	@ 0x114
 800181e:	bdf0      	pop	{r4, r5, r6, r7, pc}
 8001820:	20000090 	.word	0x20000090
 8001824:	080057d2 	.word	0x080057d2

08001828 <resetSPIFlash>:
 8001828:	b537      	push	{r0, r1, r2, r4, r5, lr}
 800182a:	466c      	mov	r4, sp
 800182c:	e884 000c 	stmia.w	r4, {r2, r3}
 8001830:	460d      	mov	r5, r1
 8001832:	e894 0006 	ldmia.w	r4, {r1, r2}
 8001836:	f7fe ffef 	bl	8000818 <software_reset>
 800183a:	4903      	ldr	r1, [pc, #12]	@ (8001848 <resetSPIFlash+0x20>)
 800183c:	4628      	mov	r0, r5
 800183e:	b003      	add	sp, #12
 8001840:	e8bd 4030 	ldmia.w	sp!, {r4, r5, lr}
 8001844:	f000 bcf8 	b.w	8002238 <send_uart_string>
 8001848:	080057ec 	.word	0x080057ec

0800184c <checkAccelWhoAmI>:
 800184c:	b510      	push	{r4, lr}
 800184e:	460c      	mov	r4, r1
 8001850:	f7fe fe62 	bl	8000518 <readAccel_whoami>
 8001854:	4601      	mov	r1, r0
 8001856:	4620      	mov	r0, r4
 8001858:	e8bd 4010 	ldmia.w	sp!, {r4, lr}
 800185c:	f000 bcfb 	b.w	8002256 <send_uart_hex>

08001860 <accelToUART>:
 8001860:	b570      	push	{r4, r5, r6, lr}
 8001862:	4e06      	ldr	r6, [pc, #24]	@ (800187c <accelToUART+0x1c>)
 8001864:	4605      	mov	r5, r0
 8001866:	2400      	movs	r4, #0
 8001868:	f816 1b01 	ldrb.w	r1, [r6], #1
 800186c:	4628      	mov	r0, r5
 800186e:	3401      	adds	r4, #1
 8001870:	f000 fcf1 	bl	8002256 <send_uart_hex>
 8001874:	2c06      	cmp	r4, #6
 8001876:	d1f7      	bne.n	8001868 <accelToUART+0x8>
 8001878:	bd70      	pop	{r4, r5, r6, pc}
 800187a:	bf00      	nop
 800187c:	200000a1 	.word	0x200000a1

08001880 <readTempSensorID>:
 8001880:	b510      	push	{r4, lr}
 8001882:	460c      	mov	r4, r1
 8001884:	4611      	mov	r1, r2
 8001886:	f7fe fee5 	bl	8000654 <readBME280_id_reg>
 800188a:	4601      	mov	r1, r0
 800188c:	4620      	mov	r0, r4
 800188e:	e8bd 4010 	ldmia.w	sp!, {r4, lr}
 8001892:	f000 bce0 	b.w	8002256 <send_uart_hex>

08001896 <readTempCalibration>:
 8001896:	b570      	push	{r4, r5, r6, lr}
 8001898:	b08a      	sub	sp, #40	@ 0x28
 800189a:	4604      	mov	r4, r0
 800189c:	460d      	mov	r5, r1
 800189e:	4616      	mov	r6, r2
 80018a0:	2100      	movs	r1, #0
 80018a2:	2219      	movs	r2, #25
 80018a4:	a803      	add	r0, sp, #12
 80018a6:	f003 ff29 	bl	80056fc <memset>
 80018aa:	2300      	movs	r3, #0
 80018ac:	a901      	add	r1, sp, #4
 80018ae:	4618      	mov	r0, r3
 80018b0:	2b06      	cmp	r3, #6
 80018b2:	f103 0201 	add.w	r2, r3, #1
 80018b6:	d802      	bhi.n	80018be <readTempCalibration+0x28>
 80018b8:	5458      	strb	r0, [r3, r1]
 80018ba:	4613      	mov	r3, r2
 80018bc:	e7f8      	b.n	80018b0 <readTempCalibration+0x1a>
 80018be:	2a19      	cmp	r2, #25
 80018c0:	4613      	mov	r3, r2
 80018c2:	d1f5      	bne.n	80018b0 <readTempCalibration+0x1a>
 80018c4:	4631      	mov	r1, r6
 80018c6:	4620      	mov	r0, r4
 80018c8:	ab01      	add	r3, sp, #4
 80018ca:	aa03      	add	r2, sp, #12
 80018cc:	f7fe fed8 	bl	8000680 <readBME280_calib>
 80018d0:	ac03      	add	r4, sp, #12
 80018d2:	2600      	movs	r6, #0
 80018d4:	f814 1b01 	ldrb.w	r1, [r4], #1
 80018d8:	4628      	mov	r0, r5
 80018da:	3601      	adds	r6, #1
 80018dc:	f000 fcbb 	bl	8002256 <send_uart_hex>
 80018e0:	2e19      	cmp	r6, #25
 80018e2:	d1f7      	bne.n	80018d4 <readTempCalibration+0x3e>
 80018e4:	ac01      	add	r4, sp, #4
 80018e6:	2600      	movs	r6, #0
 80018e8:	f814 1b01 	ldrb.w	r1, [r4], #1
 80018ec:	4628      	mov	r0, r5
 80018ee:	3601      	adds	r6, #1
 80018f0:	f000 fcb1 	bl	8002256 <send_uart_hex>
 80018f4:	2e07      	cmp	r6, #7
 80018f6:	d1f7      	bne.n	80018e8 <readTempCalibration+0x52>
 80018f8:	b00a      	add	sp, #40	@ 0x28
 80018fa:	bd70      	pop	{r4, r5, r6, pc}

080018fc <readTempSensor>:
 80018fc:	b570      	push	{r4, r5, r6, lr}
 80018fe:	4605      	mov	r5, r0
 8001900:	460c      	mov	r4, r1
 8001902:	b949      	cbnz	r1, 8001918 <readTempSensor+0x1c>
 8001904:	4e0b      	ldr	r6, [pc, #44]	@ (8001934 <readTempSensor+0x38>)
 8001906:	f816 1b01 	ldrb.w	r1, [r6], #1
 800190a:	4628      	mov	r0, r5
 800190c:	3401      	adds	r4, #1
 800190e:	f000 fca2 	bl	8002256 <send_uart_hex>
 8001912:	2c06      	cmp	r4, #6
 8001914:	d1f7      	bne.n	8001906 <readTempSensor+0xa>
 8001916:	bd70      	pop	{r4, r5, r6, pc}
 8001918:	2901      	cmp	r1, #1
 800191a:	d1fc      	bne.n	8001916 <readTempSensor+0x1a>
 800191c:	4e06      	ldr	r6, [pc, #24]	@ (8001938 <readTempSensor+0x3c>)
 800191e:	2400      	movs	r4, #0
 8001920:	f816 1b01 	ldrb.w	r1, [r6], #1
 8001924:	4628      	mov	r0, r5
 8001926:	3401      	adds	r4, #1
 8001928:	f000 fc95 	bl	8002256 <send_uart_hex>
 800192c:	2c06      	cmp	r4, #6
 800192e:	d1f7      	bne.n	8001920 <readTempSensor+0x24>
 8001930:	e7f1      	b.n	8001916 <readTempSensor+0x1a>
 8001932:	bf00      	nop
 8001934:	2000009b 	.word	0x2000009b
 8001938:	20000095 	.word	0x20000095

0800193c <readAllSensors>:
 800193c:	e92d 43f8 	stmdb	sp!, {r3, r4, r5, r6, r7, r8, r9, lr}
 8001940:	f8df 80b4 	ldr.w	r8, [pc, #180]	@ 80019f8 <readAllSensors+0xbc>
 8001944:	4f27      	ldr	r7, [pc, #156]	@ (80019e4 <readAllSensors+0xa8>)
 8001946:	4e28      	ldr	r6, [pc, #160]	@ (80019e8 <readAllSensors+0xac>)
 8001948:	460c      	mov	r4, r1
 800194a:	4601      	mov	r1, r0
 800194c:	4640      	mov	r0, r8
 800194e:	4615      	mov	r5, r2
 8001950:	f7fe fdcc 	bl	80004ec <readAccelerometer>
 8001954:	2200      	movs	r2, #0
 8001956:	4621      	mov	r1, r4
 8001958:	4638      	mov	r0, r7
 800195a:	f7fe feaf 	bl	80006bc <readTempHumPres>
 800195e:	4823      	ldr	r0, [pc, #140]	@ (80019ec <readAllSensors+0xb0>)
 8001960:	2201      	movs	r2, #1
 8001962:	4621      	mov	r1, r4
 8001964:	f7fe feaa 	bl	80006bc <readTempHumPres>
 8001968:	4628      	mov	r0, r5
 800196a:	f000 f877 	bl	8001a5c <getTimestampMilliseconds>
 800196e:	8835      	ldrh	r5, [r6, #0]
 8001970:	2dea      	cmp	r5, #234	@ 0xea
 8001972:	d834      	bhi.n	80019de <readAllSensors+0xa2>
 8001974:	4b1e      	ldr	r3, [pc, #120]	@ (80019f0 <readAllSensors+0xb4>)
 8001976:	4c1f      	ldr	r4, [pc, #124]	@ (80019f4 <readAllSensors+0xb8>)
 8001978:	781a      	ldrb	r2, [r3, #0]
 800197a:	f8d8 c000 	ldr.w	ip, [r8]
 800197e:	eb04 2302 	add.w	r3, r4, r2, lsl #8
 8001982:	1959      	adds	r1, r3, r5
 8001984:	5558      	strb	r0, [r3, r5]
 8001986:	f3c0 2007 	ubfx	r0, r0, #8, #8
 800198a:	7048      	strb	r0, [r1, #1]
 800198c:	eb05 2302 	add.w	r3, r5, r2, lsl #8
 8001990:	1ca1      	adds	r1, r4, #2
 8001992:	1858      	adds	r0, r3, r1
 8001994:	f841 c003 	str.w	ip, [r1, r3]
 8001998:	f8b8 1004 	ldrh.w	r1, [r8, #4]
 800199c:	8081      	strh	r1, [r0, #4]
 800199e:	f104 0108 	add.w	r1, r4, #8
 80019a2:	f8d7 c000 	ldr.w	ip, [r7]
 80019a6:	f841 c003 	str.w	ip, [r1, r3]
 80019aa:	1858      	adds	r0, r3, r1
 80019ac:	88bb      	ldrh	r3, [r7, #4]
 80019ae:	8083      	strh	r3, [r0, #4]
 80019b0:	f105 030d 	add.w	r3, r5, #13
 80019b4:	eb03 2302 	add.w	r3, r3, r2, lsl #8
 80019b8:	490c      	ldr	r1, [pc, #48]	@ (80019ec <readAllSensors+0xb0>)
 80019ba:	ea4f 2902 	mov.w	r9, r2, lsl #8
 80019be:	4423      	add	r3, r4
 80019c0:	2206      	movs	r2, #6
 80019c2:	f811 0b01 	ldrb.w	r0, [r1], #1
 80019c6:	f803 0f01 	strb.w	r0, [r3, #1]!
 80019ca:	3a01      	subs	r2, #1
 80019cc:	d1f9      	bne.n	80019c2 <readAllSensors+0x86>
 80019ce:	f7ff f8f7 	bl	8000bc0 <combine_system_status>
 80019d2:	444c      	add	r4, r9
 80019d4:	8833      	ldrh	r3, [r6, #0]
 80019d6:	442c      	add	r4, r5
 80019d8:	3315      	adds	r3, #21
 80019da:	7520      	strb	r0, [r4, #20]
 80019dc:	8033      	strh	r3, [r6, #0]
 80019de:	e8bd 83f8 	ldmia.w	sp!, {r3, r4, r5, r6, r7, r8, r9, pc}
 80019e2:	bf00      	nop
 80019e4:	2000009b 	.word	0x2000009b
 80019e8:	2000008e 	.word	0x2000008e
 80019ec:	20000095 	.word	0x20000095
 80019f0:	200000a7 	.word	0x200000a7
 80019f4:	200000a8 	.word	0x200000a8
 80019f8:	200000a1 	.word	0x200000a1

080019fc <initialise_rtc_default>:
 80019fc:	b537      	push	{r0, r1, r2, r4, r5, lr}
 80019fe:	4b13      	ldr	r3, [pc, #76]	@ (8001a4c <initialise_rtc_default+0x50>)
 8001a00:	2500      	movs	r5, #0
 8001a02:	9501      	str	r5, [sp, #4]
 8001a04:	6c1a      	ldr	r2, [r3, #64]	@ 0x40
 8001a06:	f042 5280 	orr.w	r2, r2, #268435456	@ 0x10000000
 8001a0a:	641a      	str	r2, [r3, #64]	@ 0x40
 8001a0c:	6c1b      	ldr	r3, [r3, #64]	@ 0x40
 8001a0e:	f003 5380 	and.w	r3, r3, #268435456	@ 0x10000000
 8001a12:	9301      	str	r3, [sp, #4]
 8001a14:	4604      	mov	r4, r0
 8001a16:	9b01      	ldr	r3, [sp, #4]
 8001a18:	f002 f826 	bl	8003a68 <HAL_PWR_EnableBkUpAccess>
 8001a1c:	4b0c      	ldr	r3, [pc, #48]	@ (8001a50 <initialise_rtc_default+0x54>)
 8001a1e:	2201      	movs	r2, #1
 8001a20:	f8c3 2e40 	str.w	r2, [r3, #3648]	@ 0xe40
 8001a24:	4620      	mov	r0, r4
 8001a26:	f8c3 5e40 	str.w	r5, [r3, #3648]	@ 0xe40
 8001a2a:	f000 fa19 	bl	8001e60 <HAL_RTC_MspInit>
 8001a2e:	462a      	mov	r2, r5
 8001a30:	4908      	ldr	r1, [pc, #32]	@ (8001a54 <initialise_rtc_default+0x58>)
 8001a32:	4620      	mov	r0, r4
 8001a34:	f002 fc96 	bl	8004364 <HAL_RTC_SetTime>
 8001a38:	4907      	ldr	r1, [pc, #28]	@ (8001a58 <initialise_rtc_default+0x5c>)
 8001a3a:	462a      	mov	r2, r5
 8001a3c:	4620      	mov	r0, r4
 8001a3e:	f002 fceb 	bl	8004418 <HAL_RTC_SetDate>
 8001a42:	b003      	add	sp, #12
 8001a44:	e8bd 4030 	ldmia.w	sp!, {r4, r5, lr}
 8001a48:	f002 b81c 	b.w	8003a84 <HAL_PWR_DisableBkUpAccess>
 8001a4c:	40023800 	.word	0x40023800
 8001a50:	42470000 	.word	0x42470000
 8001a54:	20000618 	.word	0x20000618
 8001a58:	20000018 	.word	0x20000018

08001a5c <getTimestampMilliseconds>:
 8001a5c:	b510      	push	{r4, lr}
 8001a5e:	b086      	sub	sp, #24
 8001a60:	4604      	mov	r4, r0
 8001a62:	a901      	add	r1, sp, #4
 8001a64:	2200      	movs	r2, #0
 8001a66:	f002 fd27 	bl	80044b8 <HAL_RTC_GetTime>
 8001a6a:	4669      	mov	r1, sp
 8001a6c:	2200      	movs	r2, #0
 8001a6e:	4620      	mov	r0, r4
 8001a70:	f002 fd45 	bl	80044fe <HAL_RTC_GetDate>
 8001a74:	e9dd 2302 	ldrd	r2, r3, [sp, #8]
 8001a78:	1a9a      	subs	r2, r3, r2
 8001a7a:	ee07 2a90 	vmov	s15, r2
 8001a7e:	3301      	adds	r3, #1
 8001a80:	eeb8 7a67 	vcvt.f32.u32	s14, s15
 8001a84:	ee07 3a90 	vmov	s15, r3
 8001a88:	eef8 7a67 	vcvt.f32.u32	s15, s15
 8001a8c:	f89d 1005 	ldrb.w	r1, [sp, #5]
 8001a90:	f89d 2006 	ldrb.w	r2, [sp, #6]
 8001a94:	eec7 6a27 	vdiv.f32	s13, s14, s15
 8001a98:	233c      	movs	r3, #60	@ 0x3c
 8001a9a:	fb13 2301 	smlabb	r3, r3, r1, r2
 8001a9e:	f89d 2004 	ldrb.w	r2, [sp, #4]
 8001aa2:	f44f 6161 	mov.w	r1, #3600	@ 0xe10
 8001aa6:	fb01 3302 	mla	r3, r1, r2, r3
 8001aaa:	f44f 727a 	mov.w	r2, #1000	@ 0x3e8
 8001aae:	4353      	muls	r3, r2
 8001ab0:	ee07 3a90 	vmov	s15, r3
 8001ab4:	ed9f 7a05 	vldr	s14, [pc, #20]	@ 8001acc <getTimestampMilliseconds+0x70>
 8001ab8:	eef8 7ae7 	vcvt.f32.s32	s15, s15
 8001abc:	eee6 7a87 	vfma.f32	s15, s13, s14
 8001ac0:	eefc 7ae7 	vcvt.u32.f32	s15, s15
 8001ac4:	ee17 0a90 	vmov	r0, s15
 8001ac8:	b006      	add	sp, #24
 8001aca:	bd10      	pop	{r4, pc}
 8001acc:	447a0000 	.word	0x447a0000

08001ad0 <spi_sendOp_readByte>:
 8001ad0:	e92d 41f0 	stmdb	sp!, {r4, r5, r6, r7, r8, lr}
 8001ad4:	f8bd 8018 	ldrh.w	r8, [sp, #24]
 8001ad8:	460d      	mov	r5, r1
 8001ada:	4607      	mov	r7, r0
 8001adc:	4616      	mov	r6, r2
 8001ade:	4641      	mov	r1, r8
 8001ae0:	4618      	mov	r0, r3
 8001ae2:	2200      	movs	r2, #0
 8001ae4:	461c      	mov	r4, r3
 8001ae6:	f001 fb2d 	bl	8003144 <HAL_GPIO_WritePin>
 8001aea:	4639      	mov	r1, r7
 8001aec:	2302      	movs	r3, #2
 8001aee:	2201      	movs	r2, #1
 8001af0:	4628      	mov	r0, r5
 8001af2:	f002 fe43 	bl	800477c <HAL_SPI_Transmit>
 8001af6:	2302      	movs	r3, #2
 8001af8:	4631      	mov	r1, r6
 8001afa:	2201      	movs	r2, #1
 8001afc:	4628      	mov	r0, r5
 8001afe:	f002 ffe8 	bl	8004ad2 <HAL_SPI_Receive>
 8001b02:	2201      	movs	r2, #1
 8001b04:	4605      	mov	r5, r0
 8001b06:	4641      	mov	r1, r8
 8001b08:	4620      	mov	r0, r4
 8001b0a:	f001 fb1b 	bl	8003144 <HAL_GPIO_WritePin>
 8001b0e:	4628      	mov	r0, r5
 8001b10:	e8bd 81f0 	ldmia.w	sp!, {r4, r5, r6, r7, r8, pc}

08001b14 <perform_operation>:
 8001b14:	b5f8      	push	{r3, r4, r5, r6, r7, lr}
 8001b16:	4614      	mov	r4, r2
 8001b18:	4607      	mov	r7, r0
 8001b1a:	460e      	mov	r6, r1
 8001b1c:	4620      	mov	r0, r4
 8001b1e:	4619      	mov	r1, r3
 8001b20:	2200      	movs	r2, #0
 8001b22:	461d      	mov	r5, r3
 8001b24:	f001 fb0e 	bl	8003144 <HAL_GPIO_WritePin>
 8001b28:	2302      	movs	r3, #2
 8001b2a:	4639      	mov	r1, r7
 8001b2c:	2201      	movs	r2, #1
 8001b2e:	4630      	mov	r0, r6
 8001b30:	f002 fe24 	bl	800477c <HAL_SPI_Transmit>
 8001b34:	2201      	movs	r2, #1
 8001b36:	4606      	mov	r6, r0
 8001b38:	4629      	mov	r1, r5
 8001b3a:	4620      	mov	r0, r4
 8001b3c:	f001 fb02 	bl	8003144 <HAL_GPIO_WritePin>
 8001b40:	4630      	mov	r0, r6
 8001b42:	bdf8      	pop	{r3, r4, r5, r6, r7, pc}

08001b44 <spi_read_data>:
 8001b44:	e92d 43f7 	stmdb	sp!, {r0, r1, r2, r4, r5, r6, r7, r8, r9, lr}
 8001b48:	461c      	mov	r4, r3
 8001b4a:	e9dd 360a 	ldrd	r3, r6, [sp, #40]	@ 0x28
 8001b4e:	f8bd 7030 	ldrh.w	r7, [sp, #48]	@ 0x30
 8001b52:	f88d 3005 	strb.w	r3, [sp, #5]
 8001b56:	4615      	mov	r5, r2
 8001b58:	0a1a      	lsrs	r2, r3, #8
 8001b5a:	4681      	mov	r9, r0
 8001b5c:	4688      	mov	r8, r1
 8001b5e:	f88d 2006 	strb.w	r2, [sp, #6]
 8001b62:	0c1b      	lsrs	r3, r3, #16
 8001b64:	4639      	mov	r1, r7
 8001b66:	4630      	mov	r0, r6
 8001b68:	2200      	movs	r2, #0
 8001b6a:	f88d 3007 	strb.w	r3, [sp, #7]
 8001b6e:	f001 fae9 	bl	8003144 <HAL_GPIO_WritePin>
 8001b72:	4649      	mov	r1, r9
 8001b74:	2302      	movs	r3, #2
 8001b76:	2201      	movs	r2, #1
 8001b78:	4620      	mov	r0, r4
 8001b7a:	f002 fdff 	bl	800477c <HAL_SPI_Transmit>
 8001b7e:	f10d 0107 	add.w	r1, sp, #7
 8001b82:	2302      	movs	r3, #2
 8001b84:	2201      	movs	r2, #1
 8001b86:	4620      	mov	r0, r4
 8001b88:	f002 fdf8 	bl	800477c <HAL_SPI_Transmit>
 8001b8c:	f10d 0106 	add.w	r1, sp, #6
 8001b90:	2302      	movs	r3, #2
 8001b92:	2201      	movs	r2, #1
 8001b94:	4620      	mov	r0, r4
 8001b96:	f002 fdf1 	bl	800477c <HAL_SPI_Transmit>
 8001b9a:	f10d 0105 	add.w	r1, sp, #5
 8001b9e:	2302      	movs	r3, #2
 8001ba0:	2201      	movs	r2, #1
 8001ba2:	4620      	mov	r0, r4
 8001ba4:	f002 fdea 	bl	800477c <HAL_SPI_Transmit>
 8001ba8:	2364      	movs	r3, #100	@ 0x64
 8001baa:	4642      	mov	r2, r8
 8001bac:	4629      	mov	r1, r5
 8001bae:	4620      	mov	r0, r4
 8001bb0:	f002 ff8f 	bl	8004ad2 <HAL_SPI_Receive>
 8001bb4:	2201      	movs	r2, #1
 8001bb6:	4604      	mov	r4, r0
 8001bb8:	4639      	mov	r1, r7
 8001bba:	4630      	mov	r0, r6
 8001bbc:	f001 fac2 	bl	8003144 <HAL_GPIO_WritePin>
 8001bc0:	4620      	mov	r0, r4
 8001bc2:	b003      	add	sp, #12
 8001bc4:	e8bd 83f0 	ldmia.w	sp!, {r4, r5, r6, r7, r8, r9, pc}

08001bc8 <spi_write_data_dma>:
 8001bc8:	b5f7      	push	{r0, r1, r2, r4, r5, r6, r7, lr}
 8001bca:	461c      	mov	r4, r3
 8001bcc:	9b08      	ldr	r3, [sp, #32]
 8001bce:	f88d 3005 	strb.w	r3, [sp, #5]
 8001bd2:	4615      	mov	r5, r2
 8001bd4:	0a1a      	lsrs	r2, r3, #8
 8001bd6:	4607      	mov	r7, r0
 8001bd8:	460e      	mov	r6, r1
 8001bda:	9809      	ldr	r0, [sp, #36]	@ 0x24
 8001bdc:	f8bd 1028 	ldrh.w	r1, [sp, #40]	@ 0x28
 8001be0:	f88d 2006 	strb.w	r2, [sp, #6]
 8001be4:	0c1b      	lsrs	r3, r3, #16
 8001be6:	2200      	movs	r2, #0
 8001be8:	f88d 3007 	strb.w	r3, [sp, #7]
 8001bec:	f001 faaa 	bl	8003144 <HAL_GPIO_WritePin>
 8001bf0:	4639      	mov	r1, r7
 8001bf2:	2302      	movs	r3, #2
 8001bf4:	2201      	movs	r2, #1
 8001bf6:	4620      	mov	r0, r4
 8001bf8:	f002 fdc0 	bl	800477c <HAL_SPI_Transmit>
 8001bfc:	f10d 0107 	add.w	r1, sp, #7
 8001c00:	2302      	movs	r3, #2
 8001c02:	2201      	movs	r2, #1
 8001c04:	4620      	mov	r0, r4
 8001c06:	f002 fdb9 	bl	800477c <HAL_SPI_Transmit>
 8001c0a:	f10d 0106 	add.w	r1, sp, #6
 8001c0e:	2302      	movs	r3, #2
 8001c10:	2201      	movs	r2, #1
 8001c12:	4620      	mov	r0, r4
 8001c14:	f002 fdb2 	bl	800477c <HAL_SPI_Transmit>
 8001c18:	2302      	movs	r3, #2
 8001c1a:	f10d 0105 	add.w	r1, sp, #5
 8001c1e:	2201      	movs	r2, #1
 8001c20:	4620      	mov	r0, r4
 8001c22:	f002 fdab 	bl	800477c <HAL_SPI_Transmit>
 8001c26:	4632      	mov	r2, r6
 8001c28:	4629      	mov	r1, r5
 8001c2a:	4620      	mov	r0, r4
 8001c2c:	f002 fff6 	bl	8004c1c <HAL_SPI_Transmit_DMA>
 8001c30:	b003      	add	sp, #12
 8001c32:	bdf0      	pop	{r4, r5, r6, r7, pc}

08001c34 <HAL_MspInit>:
 8001c34:	b082      	sub	sp, #8
 8001c36:	4b0c      	ldr	r3, [pc, #48]	@ (8001c68 <HAL_MspInit+0x34>)
 8001c38:	2100      	movs	r1, #0
 8001c3a:	9100      	str	r1, [sp, #0]
 8001c3c:	6c5a      	ldr	r2, [r3, #68]	@ 0x44
 8001c3e:	f442 4280 	orr.w	r2, r2, #16384	@ 0x4000
 8001c42:	645a      	str	r2, [r3, #68]	@ 0x44
 8001c44:	6c5a      	ldr	r2, [r3, #68]	@ 0x44
 8001c46:	f402 4280 	and.w	r2, r2, #16384	@ 0x4000
 8001c4a:	9200      	str	r2, [sp, #0]
 8001c4c:	9a00      	ldr	r2, [sp, #0]
 8001c4e:	9101      	str	r1, [sp, #4]
 8001c50:	6c1a      	ldr	r2, [r3, #64]	@ 0x40
 8001c52:	f042 5280 	orr.w	r2, r2, #268435456	@ 0x10000000
 8001c56:	641a      	str	r2, [r3, #64]	@ 0x40
 8001c58:	6c1b      	ldr	r3, [r3, #64]	@ 0x40
 8001c5a:	f003 5380 	and.w	r3, r3, #268435456	@ 0x10000000
 8001c5e:	9301      	str	r3, [sp, #4]
 8001c60:	9b01      	ldr	r3, [sp, #4]
 8001c62:	b002      	add	sp, #8
 8001c64:	4770      	bx	lr
 8001c66:	bf00      	nop
 8001c68:	40023800 	.word	0x40023800

08001c6c <HAL_CAN_MspInit>:
 8001c6c:	b510      	push	{r4, lr}
 8001c6e:	4604      	mov	r4, r0
 8001c70:	b088      	sub	sp, #32
 8001c72:	2214      	movs	r2, #20
 8001c74:	2100      	movs	r1, #0
 8001c76:	a803      	add	r0, sp, #12
 8001c78:	f003 fd40 	bl	80056fc <memset>
 8001c7c:	6822      	ldr	r2, [r4, #0]
 8001c7e:	4b1d      	ldr	r3, [pc, #116]	@ (8001cf4 <HAL_CAN_MspInit+0x88>)
 8001c80:	429a      	cmp	r2, r3
 8001c82:	d134      	bne.n	8001cee <HAL_CAN_MspInit+0x82>
 8001c84:	f503 33e8 	add.w	r3, r3, #118784	@ 0x1d000
 8001c88:	2400      	movs	r4, #0
 8001c8a:	9400      	str	r4, [sp, #0]
 8001c8c:	6c1a      	ldr	r2, [r3, #64]	@ 0x40
 8001c8e:	481a      	ldr	r0, [pc, #104]	@ (8001cf8 <HAL_CAN_MspInit+0x8c>)
 8001c90:	f042 6280 	orr.w	r2, r2, #67108864	@ 0x4000000
 8001c94:	641a      	str	r2, [r3, #64]	@ 0x40
 8001c96:	6c1a      	ldr	r2, [r3, #64]	@ 0x40
 8001c98:	f002 6280 	and.w	r2, r2, #67108864	@ 0x4000000
 8001c9c:	9200      	str	r2, [sp, #0]
 8001c9e:	9a00      	ldr	r2, [sp, #0]
 8001ca0:	9401      	str	r4, [sp, #4]
 8001ca2:	6c1a      	ldr	r2, [r3, #64]	@ 0x40
 8001ca4:	f042 7200 	orr.w	r2, r2, #33554432	@ 0x2000000
 8001ca8:	641a      	str	r2, [r3, #64]	@ 0x40
 8001caa:	6c1a      	ldr	r2, [r3, #64]	@ 0x40
 8001cac:	f002 7200 	and.w	r2, r2, #33554432	@ 0x2000000
 8001cb0:	9201      	str	r2, [sp, #4]
 8001cb2:	9a01      	ldr	r2, [sp, #4]
 8001cb4:	9402      	str	r4, [sp, #8]
 8001cb6:	6b1a      	ldr	r2, [r3, #48]	@ 0x30
 8001cb8:	f042 0202 	orr.w	r2, r2, #2
 8001cbc:	631a      	str	r2, [r3, #48]	@ 0x30
 8001cbe:	6b1b      	ldr	r3, [r3, #48]	@ 0x30
 8001cc0:	f003 0302 	and.w	r3, r3, #2
 8001cc4:	9302      	str	r3, [sp, #8]
 8001cc6:	2260      	movs	r2, #96	@ 0x60
 8001cc8:	9b02      	ldr	r3, [sp, #8]
 8001cca:	2302      	movs	r3, #2
 8001ccc:	e9cd 2303 	strd	r2, r3, [sp, #12]
 8001cd0:	2103      	movs	r1, #3
 8001cd2:	2309      	movs	r3, #9
 8001cd4:	e9cd 1306 	strd	r1, r3, [sp, #24]
 8001cd8:	a903      	add	r1, sp, #12
 8001cda:	f001 f8af 	bl	8002e3c <HAL_GPIO_Init>
 8001cde:	2040      	movs	r0, #64	@ 0x40
 8001ce0:	4622      	mov	r2, r4
 8001ce2:	4621      	mov	r1, r4
 8001ce4:	f000 fe7a 	bl	80029dc <HAL_NVIC_SetPriority>
 8001ce8:	2040      	movs	r0, #64	@ 0x40
 8001cea:	f000 fea9 	bl	8002a40 <HAL_NVIC_EnableIRQ>
 8001cee:	b008      	add	sp, #32
 8001cf0:	bd10      	pop	{r4, pc}
 8001cf2:	bf00      	nop
 8001cf4:	40006800 	.word	0x40006800
 8001cf8:	40020400 	.word	0x40020400

08001cfc <HAL_I2C_MspInit>:
 8001cfc:	e92d 41f0 	stmdb	sp!, {r4, r5, r6, r7, r8, lr}
 8001d00:	2214      	movs	r2, #20
 8001d02:	b08a      	sub	sp, #40	@ 0x28
 8001d04:	4604      	mov	r4, r0
 8001d06:	2100      	movs	r1, #0
 8001d08:	eb0d 0002 	add.w	r0, sp, r2
 8001d0c:	f003 fcf6 	bl	80056fc <memset>
 8001d10:	6823      	ldr	r3, [r4, #0]
 8001d12:	4a33      	ldr	r2, [pc, #204]	@ (8001de0 <HAL_I2C_MspInit+0xe4>)
 8001d14:	4293      	cmp	r3, r2
 8001d16:	d125      	bne.n	8001d64 <HAL_I2C_MspInit+0x68>
 8001d18:	4c32      	ldr	r4, [pc, #200]	@ (8001de4 <HAL_I2C_MspInit+0xe8>)
 8001d1a:	4833      	ldr	r0, [pc, #204]	@ (8001de8 <HAL_I2C_MspInit+0xec>)
 8001d1c:	2500      	movs	r5, #0
 8001d1e:	9500      	str	r5, [sp, #0]
 8001d20:	6b23      	ldr	r3, [r4, #48]	@ 0x30
 8001d22:	f043 0302 	orr.w	r3, r3, #2
 8001d26:	6323      	str	r3, [r4, #48]	@ 0x30
 8001d28:	6b23      	ldr	r3, [r4, #48]	@ 0x30
 8001d2a:	f003 0302 	and.w	r3, r3, #2
 8001d2e:	9300      	str	r3, [sp, #0]
 8001d30:	9b00      	ldr	r3, [sp, #0]
 8001d32:	f44f 7240 	mov.w	r2, #768	@ 0x300
 8001d36:	2312      	movs	r3, #18
 8001d38:	e9cd 2305 	strd	r2, r3, [sp, #20]
 8001d3c:	2103      	movs	r1, #3
 8001d3e:	2304      	movs	r3, #4
 8001d40:	e9cd 1308 	strd	r1, r3, [sp, #32]
 8001d44:	a905      	add	r1, sp, #20
 8001d46:	f001 f879 	bl	8002e3c <HAL_GPIO_Init>
 8001d4a:	9501      	str	r5, [sp, #4]
 8001d4c:	6c23      	ldr	r3, [r4, #64]	@ 0x40
 8001d4e:	f443 1300 	orr.w	r3, r3, #2097152	@ 0x200000
 8001d52:	6423      	str	r3, [r4, #64]	@ 0x40
 8001d54:	6c23      	ldr	r3, [r4, #64]	@ 0x40
 8001d56:	f403 1300 	and.w	r3, r3, #2097152	@ 0x200000
 8001d5a:	9301      	str	r3, [sp, #4]
 8001d5c:	9b01      	ldr	r3, [sp, #4]
 8001d5e:	b00a      	add	sp, #40	@ 0x28
 8001d60:	e8bd 81f0 	ldmia.w	sp!, {r4, r5, r6, r7, r8, pc}
 8001d64:	4a21      	ldr	r2, [pc, #132]	@ (8001dec <HAL_I2C_MspInit+0xf0>)
 8001d66:	4293      	cmp	r3, r2
 8001d68:	d1f9      	bne.n	8001d5e <HAL_I2C_MspInit+0x62>
 8001d6a:	4c1e      	ldr	r4, [pc, #120]	@ (8001de4 <HAL_I2C_MspInit+0xe8>)
 8001d6c:	4820      	ldr	r0, [pc, #128]	@ (8001df0 <HAL_I2C_MspInit+0xf4>)
 8001d6e:	2500      	movs	r5, #0
 8001d70:	9502      	str	r5, [sp, #8]
 8001d72:	6b23      	ldr	r3, [r4, #48]	@ 0x30
 8001d74:	f043 0304 	orr.w	r3, r3, #4
 8001d78:	6323      	str	r3, [r4, #48]	@ 0x30
 8001d7a:	6b23      	ldr	r3, [r4, #48]	@ 0x30
 8001d7c:	f003 0304 	and.w	r3, r3, #4
 8001d80:	9302      	str	r3, [sp, #8]
 8001d82:	9b02      	ldr	r3, [sp, #8]
 8001d84:	9503      	str	r5, [sp, #12]
 8001d86:	6b23      	ldr	r3, [r4, #48]	@ 0x30
 8001d88:	f043 0301 	orr.w	r3, r3, #1
 8001d8c:	6323      	str	r3, [r4, #48]	@ 0x30
 8001d8e:	6b23      	ldr	r3, [r4, #48]	@ 0x30
 8001d90:	f003 0301 	and.w	r3, r3, #1
 8001d94:	9303      	str	r3, [sp, #12]
 8001d96:	9b03      	ldr	r3, [sp, #12]
 8001d98:	f04f 0812 	mov.w	r8, #18
 8001d9c:	f44f 7300 	mov.w	r3, #512	@ 0x200
 8001da0:	2703      	movs	r7, #3
 8001da2:	2604      	movs	r6, #4
 8001da4:	a905      	add	r1, sp, #20
 8001da6:	e9cd 3805 	strd	r3, r8, [sp, #20]
 8001daa:	e9cd 7608 	strd	r7, r6, [sp, #32]
 8001dae:	f001 f845 	bl	8002e3c <HAL_GPIO_Init>
 8001db2:	f44f 7380 	mov.w	r3, #256	@ 0x100
 8001db6:	480f      	ldr	r0, [pc, #60]	@ (8001df4 <HAL_I2C_MspInit+0xf8>)
 8001db8:	9609      	str	r6, [sp, #36]	@ 0x24
 8001dba:	a905      	add	r1, sp, #20
 8001dbc:	e9cd 3805 	strd	r3, r8, [sp, #20]
 8001dc0:	e9cd 5707 	strd	r5, r7, [sp, #28]
 8001dc4:	f001 f83a 	bl	8002e3c <HAL_GPIO_Init>
 8001dc8:	9504      	str	r5, [sp, #16]
 8001dca:	6c23      	ldr	r3, [r4, #64]	@ 0x40
 8001dcc:	f443 0300 	orr.w	r3, r3, #8388608	@ 0x800000
 8001dd0:	6423      	str	r3, [r4, #64]	@ 0x40
 8001dd2:	6c23      	ldr	r3, [r4, #64]	@ 0x40
 8001dd4:	f403 0300 	and.w	r3, r3, #8388608	@ 0x800000
 8001dd8:	9304      	str	r3, [sp, #16]
 8001dda:	9b04      	ldr	r3, [sp, #16]
 8001ddc:	e7bf      	b.n	8001d5e <HAL_I2C_MspInit+0x62>
 8001dde:	bf00      	nop
 8001de0:	40005400 	.word	0x40005400
 8001de4:	40023800 	.word	0x40023800
 8001de8:	40020400 	.word	0x40020400
 8001dec:	40005c00 	.word	0x40005c00
 8001df0:	40020800 	.word	0x40020800
 8001df4:	40020000 	.word	0x40020000

08001df8 <HAL_I2C_MspDeInit>:
 8001df8:	b508      	push	{r3, lr}
 8001dfa:	4a14      	ldr	r2, [pc, #80]	@ (8001e4c <HAL_I2C_MspDeInit+0x54>)
 8001dfc:	6803      	ldr	r3, [r0, #0]
 8001dfe:	4293      	cmp	r3, r2
 8001e00:	d111      	bne.n	8001e26 <HAL_I2C_MspDeInit+0x2e>
 8001e02:	f502 32f2 	add.w	r2, r2, #123904	@ 0x1e400
 8001e06:	4812      	ldr	r0, [pc, #72]	@ (8001e50 <HAL_I2C_MspDeInit+0x58>)
 8001e08:	6c13      	ldr	r3, [r2, #64]	@ 0x40
 8001e0a:	f423 1300 	bic.w	r3, r3, #2097152	@ 0x200000
 8001e0e:	f44f 7180 	mov.w	r1, #256	@ 0x100
 8001e12:	6413      	str	r3, [r2, #64]	@ 0x40
 8001e14:	f001 f8f6 	bl	8003004 <HAL_GPIO_DeInit>
 8001e18:	480d      	ldr	r0, [pc, #52]	@ (8001e50 <HAL_I2C_MspDeInit+0x58>)
 8001e1a:	f44f 7100 	mov.w	r1, #512	@ 0x200
 8001e1e:	e8bd 4008 	ldmia.w	sp!, {r3, lr}
 8001e22:	f001 b8ef 	b.w	8003004 <HAL_GPIO_DeInit>
 8001e26:	4a0b      	ldr	r2, [pc, #44]	@ (8001e54 <HAL_I2C_MspDeInit+0x5c>)
 8001e28:	4293      	cmp	r3, r2
 8001e2a:	d10e      	bne.n	8001e4a <HAL_I2C_MspDeInit+0x52>
 8001e2c:	f502 32ee 	add.w	r2, r2, #121856	@ 0x1dc00
 8001e30:	4809      	ldr	r0, [pc, #36]	@ (8001e58 <HAL_I2C_MspDeInit+0x60>)
 8001e32:	6c13      	ldr	r3, [r2, #64]	@ 0x40
 8001e34:	f423 0300 	bic.w	r3, r3, #8388608	@ 0x800000
 8001e38:	f44f 7100 	mov.w	r1, #512	@ 0x200
 8001e3c:	6413      	str	r3, [r2, #64]	@ 0x40
 8001e3e:	f001 f8e1 	bl	8003004 <HAL_GPIO_DeInit>
 8001e42:	4806      	ldr	r0, [pc, #24]	@ (8001e5c <HAL_I2C_MspDeInit+0x64>)
 8001e44:	f44f 7180 	mov.w	r1, #256	@ 0x100
 8001e48:	e7e9      	b.n	8001e1e <HAL_I2C_MspDeInit+0x26>
 8001e4a:	bd08      	pop	{r3, pc}
 8001e4c:	40005400 	.word	0x40005400
 8001e50:	40020400 	.word	0x40020400
 8001e54:	40005c00 	.word	0x40005c00
 8001e58:	40020800 	.word	0x40020800
 8001e5c:	40020000 	.word	0x40020000

08001e60 <HAL_RTC_MspInit>:
 8001e60:	b510      	push	{r4, lr}
 8001e62:	4604      	mov	r4, r0
 8001e64:	b08c      	sub	sp, #48	@ 0x30
 8001e66:	2230      	movs	r2, #48	@ 0x30
 8001e68:	2100      	movs	r1, #0
 8001e6a:	4668      	mov	r0, sp
 8001e6c:	f003 fc46 	bl	80056fc <memset>
 8001e70:	6822      	ldr	r2, [r4, #0]
 8001e72:	4b0a      	ldr	r3, [pc, #40]	@ (8001e9c <HAL_RTC_MspInit+0x3c>)
 8001e74:	429a      	cmp	r2, r3
 8001e76:	d10e      	bne.n	8001e96 <HAL_RTC_MspInit+0x36>
 8001e78:	2320      	movs	r3, #32
 8001e7a:	9300      	str	r3, [sp, #0]
 8001e7c:	4668      	mov	r0, sp
 8001e7e:	f44f 7300 	mov.w	r3, #512	@ 0x200
 8001e82:	930a      	str	r3, [sp, #40]	@ 0x28
 8001e84:	f002 f8a2 	bl	8003fcc <HAL_RCCEx_PeriphCLKConfig>
 8001e88:	b108      	cbz	r0, 8001e8e <HAL_RTC_MspInit+0x2e>
 8001e8a:	f7ff fc09 	bl	80016a0 <Error_Handler>
 8001e8e:	4b04      	ldr	r3, [pc, #16]	@ (8001ea0 <HAL_RTC_MspInit+0x40>)
 8001e90:	2201      	movs	r2, #1
 8001e92:	f8c3 2e3c 	str.w	r2, [r3, #3644]	@ 0xe3c
 8001e96:	b00c      	add	sp, #48	@ 0x30
 8001e98:	bd10      	pop	{r4, pc}
 8001e9a:	bf00      	nop
 8001e9c:	40002800 	.word	0x40002800
 8001ea0:	42470000 	.word	0x42470000

08001ea4 <HAL_SPI_MspInit>:
 8001ea4:	e92d 41f0 	stmdb	sp!, {r4, r5, r6, r7, r8, lr}
 8001ea8:	2214      	movs	r2, #20
 8001eaa:	b08a      	sub	sp, #40	@ 0x28
 8001eac:	4606      	mov	r6, r0
 8001eae:	2100      	movs	r1, #0
 8001eb0:	eb0d 0002 	add.w	r0, sp, r2
 8001eb4:	f003 fc22 	bl	80056fc <memset>
 8001eb8:	6833      	ldr	r3, [r6, #0]
 8001eba:	4a41      	ldr	r2, [pc, #260]	@ (8001fc0 <HAL_SPI_MspInit+0x11c>)
 8001ebc:	4293      	cmp	r3, r2
 8001ebe:	d13f      	bne.n	8001f40 <HAL_SPI_MspInit+0x9c>
 8001ec0:	4b40      	ldr	r3, [pc, #256]	@ (8001fc4 <HAL_SPI_MspInit+0x120>)
 8001ec2:	4841      	ldr	r0, [pc, #260]	@ (8001fc8 <HAL_SPI_MspInit+0x124>)
 8001ec4:	4c41      	ldr	r4, [pc, #260]	@ (8001fcc <HAL_SPI_MspInit+0x128>)
 8001ec6:	2500      	movs	r5, #0
 8001ec8:	9500      	str	r5, [sp, #0]
 8001eca:	6c5a      	ldr	r2, [r3, #68]	@ 0x44
 8001ecc:	f442 5280 	orr.w	r2, r2, #4096	@ 0x1000
 8001ed0:	645a      	str	r2, [r3, #68]	@ 0x44
 8001ed2:	6c5a      	ldr	r2, [r3, #68]	@ 0x44
 8001ed4:	f402 5280 	and.w	r2, r2, #4096	@ 0x1000
 8001ed8:	9200      	str	r2, [sp, #0]
 8001eda:	9a00      	ldr	r2, [sp, #0]
 8001edc:	9501      	str	r5, [sp, #4]
 8001ede:	6b1a      	ldr	r2, [r3, #48]	@ 0x30
 8001ee0:	f042 0201 	orr.w	r2, r2, #1
 8001ee4:	631a      	str	r2, [r3, #48]	@ 0x30
 8001ee6:	6b1b      	ldr	r3, [r3, #48]	@ 0x30
 8001ee8:	f003 0301 	and.w	r3, r3, #1
 8001eec:	9301      	str	r3, [sp, #4]
 8001eee:	9b01      	ldr	r3, [sp, #4]
 8001ef0:	22e0      	movs	r2, #224	@ 0xe0
 8001ef2:	2302      	movs	r3, #2
 8001ef4:	e9cd 2305 	strd	r2, r3, [sp, #20]
 8001ef8:	2103      	movs	r1, #3
 8001efa:	2305      	movs	r3, #5
 8001efc:	e9cd 1308 	strd	r1, r3, [sp, #32]
 8001f00:	a905      	add	r1, sp, #20
 8001f02:	f000 ff9b 	bl	8002e3c <HAL_GPIO_Init>
 8001f06:	4832      	ldr	r0, [pc, #200]	@ (8001fd0 <HAL_SPI_MspInit+0x12c>)
 8001f08:	f04f 63c0 	mov.w	r3, #100663296	@ 0x6000000
 8001f0c:	e9c4 0300 	strd	r0, r3, [r4]
 8001f10:	2340      	movs	r3, #64	@ 0x40
 8001f12:	e9c4 3502 	strd	r3, r5, [r4, #8]
 8001f16:	f44f 6380 	mov.w	r3, #1024	@ 0x400
 8001f1a:	e9c4 3504 	strd	r3, r5, [r4, #16]
 8001f1e:	f44f 3380 	mov.w	r3, #65536	@ 0x10000
 8001f22:	e9c4 5506 	strd	r5, r5, [r4, #24]
 8001f26:	e9c4 3508 	strd	r3, r5, [r4, #32]
 8001f2a:	4620      	mov	r0, r4
 8001f2c:	f000 fdc0 	bl	8002ab0 <HAL_DMA_Init>
 8001f30:	b108      	cbz	r0, 8001f36 <HAL_SPI_MspInit+0x92>
 8001f32:	f7ff fbb5 	bl	80016a0 <Error_Handler>
 8001f36:	64b4      	str	r4, [r6, #72]	@ 0x48
 8001f38:	63a6      	str	r6, [r4, #56]	@ 0x38
 8001f3a:	b00a      	add	sp, #40	@ 0x28
 8001f3c:	e8bd 81f0 	ldmia.w	sp!, {r4, r5, r6, r7, r8, pc}
 8001f40:	4a24      	ldr	r2, [pc, #144]	@ (8001fd4 <HAL_SPI_MspInit+0x130>)
 8001f42:	4293      	cmp	r3, r2
 8001f44:	d1f9      	bne.n	8001f3a <HAL_SPI_MspInit+0x96>
 8001f46:	4b1f      	ldr	r3, [pc, #124]	@ (8001fc4 <HAL_SPI_MspInit+0x120>)
 8001f48:	4823      	ldr	r0, [pc, #140]	@ (8001fd8 <HAL_SPI_MspInit+0x134>)
 8001f4a:	2500      	movs	r5, #0
 8001f4c:	9502      	str	r5, [sp, #8]
 8001f4e:	6c1a      	ldr	r2, [r3, #64]	@ 0x40
 8001f50:	f442 4280 	orr.w	r2, r2, #16384	@ 0x4000
 8001f54:	641a      	str	r2, [r3, #64]	@ 0x40
 8001f56:	6c1a      	ldr	r2, [r3, #64]	@ 0x40
 8001f58:	f402 4280 	and.w	r2, r2, #16384	@ 0x4000
 8001f5c:	9202      	str	r2, [sp, #8]
 8001f5e:	9a02      	ldr	r2, [sp, #8]
 8001f60:	9503      	str	r5, [sp, #12]
 8001f62:	6b1a      	ldr	r2, [r3, #48]	@ 0x30
 8001f64:	f042 0204 	orr.w	r2, r2, #4
 8001f68:	631a      	str	r2, [r3, #48]	@ 0x30
 8001f6a:	6b1a      	ldr	r2, [r3, #48]	@ 0x30
 8001f6c:	f002 0204 	and.w	r2, r2, #4
 8001f70:	9203      	str	r2, [sp, #12]
 8001f72:	9a03      	ldr	r2, [sp, #12]
 8001f74:	9504      	str	r5, [sp, #16]
 8001f76:	6b1a      	ldr	r2, [r3, #48]	@ 0x30
 8001f78:	f042 0208 	orr.w	r2, r2, #8
 8001f7c:	631a      	str	r2, [r3, #48]	@ 0x30
 8001f7e:	6b1b      	ldr	r3, [r3, #48]	@ 0x30
 8001f80:	f003 0308 	and.w	r3, r3, #8
 8001f84:	9304      	str	r3, [sp, #16]
 8001f86:	2405      	movs	r4, #5
 8001f88:	9b04      	ldr	r3, [sp, #16]
 8001f8a:	f04f 0802 	mov.w	r8, #2
 8001f8e:	230c      	movs	r3, #12
 8001f90:	2703      	movs	r7, #3
 8001f92:	a905      	add	r1, sp, #20
 8001f94:	e9cd 3805 	strd	r3, r8, [sp, #20]
 8001f98:	e9cd 7408 	strd	r7, r4, [sp, #32]
 8001f9c:	f000 ff4e 	bl	8002e3c <HAL_GPIO_Init>
 8001fa0:	2308      	movs	r3, #8
 8001fa2:	480e      	ldr	r0, [pc, #56]	@ (8001fdc <HAL_SPI_MspInit+0x138>)
 8001fa4:	9409      	str	r4, [sp, #36]	@ 0x24
 8001fa6:	a905      	add	r1, sp, #20
 8001fa8:	e9cd 3805 	strd	r3, r8, [sp, #20]
 8001fac:	e9cd 5707 	strd	r5, r7, [sp, #28]
 8001fb0:	4c0b      	ldr	r4, [pc, #44]	@ (8001fe0 <HAL_SPI_MspInit+0x13c>)
 8001fb2:	f000 ff43 	bl	8002e3c <HAL_GPIO_Init>
 8001fb6:	4b0b      	ldr	r3, [pc, #44]	@ (8001fe4 <HAL_SPI_MspInit+0x140>)
 8001fb8:	e9c4 3500 	strd	r3, r5, [r4]
 8001fbc:	e7a8      	b.n	8001f10 <HAL_SPI_MspInit+0x6c>
 8001fbe:	bf00      	nop
 8001fc0:	40013000 	.word	0x40013000
 8001fc4:	40023800 	.word	0x40023800
 8001fc8:	40020000 	.word	0x40020000
 8001fcc:	20000418 	.word	0x20000418
 8001fd0:	40026458 	.word	0x40026458
 8001fd4:	40003800 	.word	0x40003800
 8001fd8:	40020800 	.word	0x40020800
 8001fdc:	40020c00 	.word	0x40020c00
 8001fe0:	200003b8 	.word	0x200003b8
 8001fe4:	40026070 	.word	0x40026070

08001fe8 <HAL_TIM_Base_MspInit>:
 8001fe8:	b507      	push	{r0, r1, r2, lr}
 8001fea:	6803      	ldr	r3, [r0, #0]
 8001fec:	4a18      	ldr	r2, [pc, #96]	@ (8002050 <HAL_TIM_Base_MspInit+0x68>)
 8001fee:	4293      	cmp	r3, r2
 8001ff0:	d115      	bne.n	800201e <HAL_TIM_Base_MspInit+0x36>
 8001ff2:	4b18      	ldr	r3, [pc, #96]	@ (8002054 <HAL_TIM_Base_MspInit+0x6c>)
 8001ff4:	2200      	movs	r2, #0
 8001ff6:	9200      	str	r2, [sp, #0]
 8001ff8:	6c19      	ldr	r1, [r3, #64]	@ 0x40
 8001ffa:	f041 0110 	orr.w	r1, r1, #16
 8001ffe:	6419      	str	r1, [r3, #64]	@ 0x40
 8002000:	6c1b      	ldr	r3, [r3, #64]	@ 0x40
 8002002:	f003 0310 	and.w	r3, r3, #16
 8002006:	9300      	str	r3, [sp, #0]
 8002008:	2036      	movs	r0, #54	@ 0x36
 800200a:	4611      	mov	r1, r2
 800200c:	9b00      	ldr	r3, [sp, #0]
 800200e:	f000 fce5 	bl	80029dc <HAL_NVIC_SetPriority>
 8002012:	2036      	movs	r0, #54	@ 0x36
 8002014:	b003      	add	sp, #12
 8002016:	f85d eb04 	ldr.w	lr, [sp], #4
 800201a:	f000 bd11 	b.w	8002a40 <HAL_NVIC_EnableIRQ>
 800201e:	4a0e      	ldr	r2, [pc, #56]	@ (8002058 <HAL_TIM_Base_MspInit+0x70>)
 8002020:	4293      	cmp	r3, r2
 8002022:	d111      	bne.n	8002048 <HAL_TIM_Base_MspInit+0x60>
 8002024:	4b0b      	ldr	r3, [pc, #44]	@ (8002054 <HAL_TIM_Base_MspInit+0x6c>)
 8002026:	2200      	movs	r2, #0
 8002028:	9201      	str	r2, [sp, #4]
 800202a:	6c19      	ldr	r1, [r3, #64]	@ 0x40
 800202c:	f041 0120 	orr.w	r1, r1, #32
 8002030:	6419      	str	r1, [r3, #64]	@ 0x40
 8002032:	6c1b      	ldr	r3, [r3, #64]	@ 0x40
 8002034:	f003 0320 	and.w	r3, r3, #32
 8002038:	9301      	str	r3, [sp, #4]
 800203a:	2037      	movs	r0, #55	@ 0x37
 800203c:	4611      	mov	r1, r2
 800203e:	9b01      	ldr	r3, [sp, #4]
 8002040:	f000 fccc 	bl	80029dc <HAL_NVIC_SetPriority>
 8002044:	2037      	movs	r0, #55	@ 0x37
 8002046:	e7e5      	b.n	8002014 <HAL_TIM_Base_MspInit+0x2c>
 8002048:	b003      	add	sp, #12
 800204a:	f85d fb04 	ldr.w	pc, [sp], #4
 800204e:	bf00      	nop
 8002050:	40001000 	.word	0x40001000
 8002054:	40023800 	.word	0x40023800
 8002058:	40001400 	.word	0x40001400

0800205c <HAL_UART_MspInit>:
 800205c:	b510      	push	{r4, lr}
 800205e:	4604      	mov	r4, r0
 8002060:	b088      	sub	sp, #32
 8002062:	2214      	movs	r2, #20
 8002064:	2100      	movs	r1, #0
 8002066:	a803      	add	r0, sp, #12
 8002068:	f003 fb48 	bl	80056fc <memset>
 800206c:	6822      	ldr	r2, [r4, #0]
 800206e:	4b18      	ldr	r3, [pc, #96]	@ (80020d0 <HAL_UART_MspInit+0x74>)
 8002070:	429a      	cmp	r2, r3
 8002072:	d12a      	bne.n	80020ca <HAL_UART_MspInit+0x6e>
 8002074:	f503 33fa 	add.w	r3, r3, #128000	@ 0x1f400
 8002078:	2400      	movs	r4, #0
 800207a:	9401      	str	r4, [sp, #4]
 800207c:	6c1a      	ldr	r2, [r3, #64]	@ 0x40
 800207e:	4815      	ldr	r0, [pc, #84]	@ (80020d4 <HAL_UART_MspInit+0x78>)
 8002080:	f442 3200 	orr.w	r2, r2, #131072	@ 0x20000
 8002084:	641a      	str	r2, [r3, #64]	@ 0x40
 8002086:	6c1a      	ldr	r2, [r3, #64]	@ 0x40
 8002088:	f402 3200 	and.w	r2, r2, #131072	@ 0x20000
 800208c:	9201      	str	r2, [sp, #4]
 800208e:	9a01      	ldr	r2, [sp, #4]
 8002090:	9402      	str	r4, [sp, #8]
 8002092:	6b1a      	ldr	r2, [r3, #48]	@ 0x30
 8002094:	f042 0208 	orr.w	r2, r2, #8
 8002098:	631a      	str	r2, [r3, #48]	@ 0x30
 800209a:	6b1b      	ldr	r3, [r3, #48]	@ 0x30
 800209c:	f003 0308 	and.w	r3, r3, #8
 80020a0:	9302      	str	r3, [sp, #8]
 80020a2:	2260      	movs	r2, #96	@ 0x60
 80020a4:	9b02      	ldr	r3, [sp, #8]
 80020a6:	2302      	movs	r3, #2
 80020a8:	e9cd 2303 	strd	r2, r3, [sp, #12]
 80020ac:	2103      	movs	r1, #3
 80020ae:	2307      	movs	r3, #7
 80020b0:	e9cd 1306 	strd	r1, r3, [sp, #24]
 80020b4:	a903      	add	r1, sp, #12
 80020b6:	f000 fec1 	bl	8002e3c <HAL_GPIO_Init>
 80020ba:	2026      	movs	r0, #38	@ 0x26
 80020bc:	4622      	mov	r2, r4
 80020be:	4621      	mov	r1, r4
 80020c0:	f000 fc8c 	bl	80029dc <HAL_NVIC_SetPriority>
 80020c4:	2026      	movs	r0, #38	@ 0x26
 80020c6:	f000 fcbb 	bl	8002a40 <HAL_NVIC_EnableIRQ>
 80020ca:	b008      	add	sp, #32
 80020cc:	bd10      	pop	{r4, pc}
 80020ce:	bf00      	nop
 80020d0:	40004400 	.word	0x40004400
 80020d4:	40020c00 	.word	0x40020c00

080020d8 <NMI_Handler>:
 80020d8:	e7fe      	b.n	80020d8 <NMI_Handler>

080020da <HardFault_Handler>:
 80020da:	e7fe      	b.n	80020da <HardFault_Handler>

080020dc <MemManage_Handler>:
 80020dc:	e7fe      	b.n	80020dc <MemManage_Handler>

080020de <BusFault_Handler>:
 80020de:	e7fe      	b.n	80020de <BusFault_Handler>

080020e0 <UsageFault_Handler>:
 80020e0:	e7fe      	b.n	80020e0 <UsageFault_Handler>

080020e2 <SVC_Handler>:
 80020e2:	4770      	bx	lr

080020e4 <DebugMon_Handler>:
 80020e4:	4770      	bx	lr

080020e6 <PendSV_Handler>:
 80020e6:	4770      	bx	lr

080020e8 <SysTick_Handler>:
 80020e8:	f000 b92a 	b.w	8002340 <HAL_IncTick>

080020ec <EXTI1_IRQHandler>:
 80020ec:	2002      	movs	r0, #2
 80020ee:	f001 b837 	b.w	8003160 <HAL_GPIO_EXTI_IRQHandler>
	...

080020f4 <DMA1_Stream4_IRQHandler>:
 80020f4:	4801      	ldr	r0, [pc, #4]	@ (80020fc <DMA1_Stream4_IRQHandler+0x8>)
 80020f6:	f000 bde3 	b.w	8002cc0 <HAL_DMA_IRQHandler>
 80020fa:	bf00      	nop
 80020fc:	200003b8 	.word	0x200003b8

08002100 <USART2_IRQHandler>:
 8002100:	4801      	ldr	r0, [pc, #4]	@ (8002108 <USART2_IRQHandler+0x8>)
 8002102:	f003 b987 	b.w	8005414 <HAL_UART_IRQHandler>
 8002106:	bf00      	nop
 8002108:	200002e0 	.word	0x200002e0

0800210c <TIM6_DAC_IRQHandler>:
 800210c:	b508      	push	{r3, lr}
 800210e:	4803      	ldr	r0, [pc, #12]	@ (800211c <TIM6_DAC_IRQHandler+0x10>)
 8002110:	f002 fe71 	bl	8004df6 <HAL_TIM_IRQHandler>
 8002114:	4b02      	ldr	r3, [pc, #8]	@ (8002120 <TIM6_DAC_IRQHandler+0x14>)
 8002116:	2201      	movs	r2, #1
 8002118:	701a      	strb	r2, [r3, #0]
 800211a:	bd08      	pop	{r3, pc}
 800211c:	20000370 	.word	0x20000370
 8002120:	200002a9 	.word	0x200002a9

08002124 <TIM7_IRQHandler>:
 8002124:	b508      	push	{r3, lr}
 8002126:	4803      	ldr	r0, [pc, #12]	@ (8002134 <TIM7_IRQHandler+0x10>)
 8002128:	f002 fe65 	bl	8004df6 <HAL_TIM_IRQHandler>
 800212c:	4b02      	ldr	r3, [pc, #8]	@ (8002138 <TIM7_IRQHandler+0x14>)
 800212e:	2201      	movs	r2, #1
 8002130:	701a      	strb	r2, [r3, #0]
 8002132:	bd08      	pop	{r3, pc}
 8002134:	20000328 	.word	0x20000328
 8002138:	200002a8 	.word	0x200002a8

0800213c <DMA2_Stream3_IRQHandler>:
 800213c:	4801      	ldr	r0, [pc, #4]	@ (8002144 <DMA2_Stream3_IRQHandler+0x8>)
 800213e:	f000 bdbf 	b.w	8002cc0 <HAL_DMA_IRQHandler>
 8002142:	bf00      	nop
 8002144:	20000418 	.word	0x20000418

08002148 <CAN2_RX0_IRQHandler>:
 8002148:	4801      	ldr	r0, [pc, #4]	@ (8002150 <CAN2_RX0_IRQHandler+0x8>)
 800214a:	f000 bb30 	b.w	80027ae <HAL_CAN_IRQHandler>
 800214e:	bf00      	nop
 8002150:	200005f0 	.word	0x200005f0

08002154 <HAL_CAN_RxFifo0MsgPendingCallback>:
 8002154:	b508      	push	{r3, lr}
 8002156:	4a06      	ldr	r2, [pc, #24]	@ (8002170 <HAL_CAN_RxFifo0MsgPendingCallback+0x1c>)
 8002158:	4b06      	ldr	r3, [pc, #24]	@ (8002174 <HAL_CAN_RxFifo0MsgPendingCallback+0x20>)
 800215a:	2100      	movs	r1, #0
 800215c:	f000 fa8e 	bl	800267c <HAL_CAN_GetRxMessage>
 8002160:	4b05      	ldr	r3, [pc, #20]	@ (8002178 <HAL_CAN_RxFifo0MsgPendingCallback+0x24>)
 8002162:	2201      	movs	r2, #1
 8002164:	701a      	strb	r2, [r3, #0]
 8002166:	4b05      	ldr	r3, [pc, #20]	@ (800217c <HAL_CAN_RxFifo0MsgPendingCallback+0x28>)
 8002168:	7819      	ldrb	r1, [r3, #0]
 800216a:	b901      	cbnz	r1, 800216e <HAL_CAN_RxFifo0MsgPendingCallback+0x1a>
 800216c:	701a      	strb	r2, [r3, #0]
 800216e:	bd08      	pop	{r3, pc}
 8002170:	200002b4 	.word	0x200002b4
 8002174:	200002ac 	.word	0x200002ac
 8002178:	200002ab 	.word	0x200002ab
 800217c:	200002aa 	.word	0x200002aa

08002180 <HAL_GPIO_EXTI_Callback>:
 8002180:	4b04      	ldr	r3, [pc, #16]	@ (8002194 <HAL_GPIO_EXTI_Callback+0x14>)
 8002182:	889b      	ldrh	r3, [r3, #4]
 8002184:	b29b      	uxth	r3, r3
 8002186:	4283      	cmp	r3, r0
 8002188:	bf02      	ittt	eq
 800218a:	4b03      	ldreq	r3, [pc, #12]	@ (8002198 <HAL_GPIO_EXTI_Callback+0x18>)
 800218c:	2201      	moveq	r2, #1
 800218e:	701a      	strbeq	r2, [r3, #0]
 8002190:	4770      	bx	lr
 8002192:	bf00      	nop
 8002194:	2000004c 	.word	0x2000004c
 8002198:	20000048 	.word	0x20000048

0800219c <HAL_SPI_TxCpltCallback>:
 800219c:	6803      	ldr	r3, [r0, #0]
 800219e:	4a11      	ldr	r2, [pc, #68]	@ (80021e4 <HAL_SPI_TxCpltCallback+0x48>)
 80021a0:	4293      	cmp	r3, r2
 80021a2:	b510      	push	{r4, lr}
 80021a4:	4604      	mov	r4, r0
 80021a6:	d117      	bne.n	80021d8 <HAL_SPI_TxCpltCallback+0x3c>
 80021a8:	4b0f      	ldr	r3, [pc, #60]	@ (80021e8 <HAL_SPI_TxCpltCallback+0x4c>)
 80021aa:	8899      	ldrh	r1, [r3, #4]
 80021ac:	6818      	ldr	r0, [r3, #0]
 80021ae:	2201      	movs	r2, #1
 80021b0:	f000 ffc8 	bl	8003144 <HAL_GPIO_WritePin>
 80021b4:	6822      	ldr	r2, [r4, #0]
 80021b6:	490d      	ldr	r1, [pc, #52]	@ (80021ec <HAL_SPI_TxCpltCallback+0x50>)
 80021b8:	6853      	ldr	r3, [r2, #4]
 80021ba:	f023 0302 	bic.w	r3, r3, #2
 80021be:	6053      	str	r3, [r2, #4]
 80021c0:	4b0b      	ldr	r3, [pc, #44]	@ (80021f0 <HAL_SPI_TxCpltCallback+0x54>)
 80021c2:	781b      	ldrb	r3, [r3, #0]
 80021c4:	f083 0301 	eor.w	r3, r3, #1
 80021c8:	e8bd 4010 	ldmia.w	sp!, {r4, lr}
 80021cc:	eb01 2103 	add.w	r1, r1, r3, lsl #8
 80021d0:	f44f 7080 	mov.w	r0, #256	@ 0x100
 80021d4:	f7fe bc76 	b.w	8000ac4 <clean_data_buffer>
 80021d8:	4a06      	ldr	r2, [pc, #24]	@ (80021f4 <HAL_SPI_TxCpltCallback+0x58>)
 80021da:	4293      	cmp	r3, r2
 80021dc:	d1ea      	bne.n	80021b4 <HAL_SPI_TxCpltCallback+0x18>
 80021de:	4b06      	ldr	r3, [pc, #24]	@ (80021f8 <HAL_SPI_TxCpltCallback+0x5c>)
 80021e0:	e7e3      	b.n	80021aa <HAL_SPI_TxCpltCallback+0xe>
 80021e2:	bf00      	nop
 80021e4:	40013000 	.word	0x40013000
 80021e8:	2000006c 	.word	0x2000006c
 80021ec:	200000a8 	.word	0x200000a8
 80021f0:	200000a7 	.word	0x200000a7
 80021f4:	40003800 	.word	0x40003800
 80021f8:	2000005c 	.word	0x2000005c

080021fc <HAL_UART_RxCpltCallback>:
 80021fc:	4b03      	ldr	r3, [pc, #12]	@ (800220c <HAL_UART_RxCpltCallback+0x10>)
 80021fe:	4904      	ldr	r1, [pc, #16]	@ (8002210 <HAL_UART_RxCpltCallback+0x14>)
 8002200:	4804      	ldr	r0, [pc, #16]	@ (8002214 <HAL_UART_RxCpltCallback+0x18>)
 8002202:	2201      	movs	r2, #1
 8002204:	701a      	strb	r2, [r3, #0]
 8002206:	2202      	movs	r2, #2
 8002208:	f003 ba67 	b.w	80056da <HAL_UART_Receive_IT>
 800220c:	200002d4 	.word	0x200002d4
 8002210:	200002d5 	.word	0x200002d5
 8002214:	200002e0 	.word	0x200002e0

08002218 <SystemInit>:
 8002218:	4a03      	ldr	r2, [pc, #12]	@ (8002228 <SystemInit+0x10>)
 800221a:	f8d2 3088 	ldr.w	r3, [r2, #136]	@ 0x88
 800221e:	f443 0370 	orr.w	r3, r3, #15728640	@ 0xf00000
 8002222:	f8c2 3088 	str.w	r3, [r2, #136]	@ 0x88
 8002226:	4770      	bx	lr
 8002228:	e000ed00 	.word	0xe000ed00

0800222c <uart_transmit_page>:
 800222c:	f04f 33ff 	mov.w	r3, #4294967295	@ 0xffffffff
 8002230:	f44f 7280 	mov.w	r2, #256	@ 0x100
 8002234:	f003 b839 	b.w	80052aa <HAL_UART_Transmit>

08002238 <send_uart_string>:
 8002238:	b570      	push	{r4, r5, r6, lr}
 800223a:	4605      	mov	r5, r0
 800223c:	4608      	mov	r0, r1
 800223e:	460c      	mov	r4, r1
 8002240:	f7fd ffd4 	bl	80001ec <strlen>
 8002244:	4621      	mov	r1, r4
 8002246:	b282      	uxth	r2, r0
 8002248:	f04f 33ff 	mov.w	r3, #4294967295	@ 0xffffffff
 800224c:	4628      	mov	r0, r5
 800224e:	e8bd 4070 	ldmia.w	sp!, {r4, r5, r6, lr}
 8002252:	f003 b82a 	b.w	80052aa <HAL_UART_Transmit>

08002256 <send_uart_hex>:
 8002256:	b507      	push	{r0, r1, r2, lr}
 8002258:	f04f 33ff 	mov.w	r3, #4294967295	@ 0xffffffff
 800225c:	f88d 1004 	strb.w	r1, [sp, #4]
 8002260:	2201      	movs	r2, #1
 8002262:	a901      	add	r1, sp, #4
 8002264:	f003 f821 	bl	80052aa <HAL_UART_Transmit>
 8002268:	b003      	add	sp, #12
 800226a:	f85d fb04 	ldr.w	pc, [sp], #4
	...

08002270 <Reset_Handler>:
 8002270:	f8df d034 	ldr.w	sp, [pc, #52]	@ 80022a8 <LoopFillZerobss+0xe>
 8002274:	f7ff ffd0 	bl	8002218 <SystemInit>
 8002278:	480c      	ldr	r0, [pc, #48]	@ (80022ac <LoopFillZerobss+0x12>)
 800227a:	490d      	ldr	r1, [pc, #52]	@ (80022b0 <LoopFillZerobss+0x16>)
 800227c:	4a0d      	ldr	r2, [pc, #52]	@ (80022b4 <LoopFillZerobss+0x1a>)
 800227e:	2300      	movs	r3, #0
 8002280:	e002      	b.n	8002288 <LoopCopyDataInit>

08002282 <CopyDataInit>:
 8002282:	58d4      	ldr	r4, [r2, r3]
 8002284:	50c4      	str	r4, [r0, r3]
 8002286:	3304      	adds	r3, #4

08002288 <LoopCopyDataInit>:
 8002288:	18c4      	adds	r4, r0, r3
 800228a:	428c      	cmp	r4, r1
 800228c:	d3f9      	bcc.n	8002282 <CopyDataInit>
 800228e:	4a0a      	ldr	r2, [pc, #40]	@ (80022b8 <LoopFillZerobss+0x1e>)
 8002290:	4c0a      	ldr	r4, [pc, #40]	@ (80022bc <LoopFillZerobss+0x22>)
 8002292:	2300      	movs	r3, #0
 8002294:	e001      	b.n	800229a <LoopFillZerobss>

08002296 <FillZerobss>:
 8002296:	6013      	str	r3, [r2, #0]
 8002298:	3204      	adds	r2, #4

0800229a <LoopFillZerobss>:
 800229a:	42a2      	cmp	r2, r4
 800229c:	d3fb      	bcc.n	8002296 <FillZerobss>
 800229e:	f003 fa35 	bl	800570c <__libc_init_array>
 80022a2:	f7fe ff27 	bl	80010f4 <main>
 80022a6:	4770      	bx	lr
 80022a8:	20030000 	.word	0x20030000
 80022ac:	20000000 	.word	0x20000000
 80022b0:	20000028 	.word	0x20000028
 80022b4:	08005830 	.word	0x08005830
 80022b8:	20000028 	.word	0x20000028
 80022bc:	20000630 	.word	0x20000630

080022c0 <ADC_IRQHandler>:
 80022c0:	e7fe      	b.n	80022c0 <ADC_IRQHandler>
	...

080022c4 <HAL_InitTick>:
 80022c4:	b538      	push	{r3, r4, r5, lr}
 80022c6:	4b0e      	ldr	r3, [pc, #56]	@ (8002300 <HAL_InitTick+0x3c>)
 80022c8:	781a      	ldrb	r2, [r3, #0]
 80022ca:	f44f 737a 	mov.w	r3, #1000	@ 0x3e8
 80022ce:	fbb3 f3f2 	udiv	r3, r3, r2
 80022d2:	4a0c      	ldr	r2, [pc, #48]	@ (8002304 <HAL_InitTick+0x40>)
 80022d4:	4605      	mov	r5, r0
 80022d6:	6810      	ldr	r0, [r2, #0]
 80022d8:	fbb0 f0f3 	udiv	r0, r0, r3
 80022dc:	f000 fbbe 	bl	8002a5c <HAL_SYSTICK_Config>
 80022e0:	4604      	mov	r4, r0
 80022e2:	b958      	cbnz	r0, 80022fc <HAL_InitTick+0x38>
 80022e4:	2d0f      	cmp	r5, #15
 80022e6:	d809      	bhi.n	80022fc <HAL_InitTick+0x38>
 80022e8:	4602      	mov	r2, r0
 80022ea:	4629      	mov	r1, r5
 80022ec:	f04f 30ff 	mov.w	r0, #4294967295	@ 0xffffffff
 80022f0:	f000 fb74 	bl	80029dc <HAL_NVIC_SetPriority>
 80022f4:	4b04      	ldr	r3, [pc, #16]	@ (8002308 <HAL_InitTick+0x44>)
 80022f6:	4620      	mov	r0, r4
 80022f8:	601d      	str	r5, [r3, #0]
 80022fa:	bd38      	pop	{r3, r4, r5, pc}
 80022fc:	2001      	movs	r0, #1
 80022fe:	e7fc      	b.n	80022fa <HAL_InitTick+0x36>
 8002300:	20000020 	.word	0x20000020
 8002304:	2000001c 	.word	0x2000001c
 8002308:	20000024 	.word	0x20000024

0800230c <HAL_Init>:
 800230c:	b508      	push	{r3, lr}
 800230e:	4b0b      	ldr	r3, [pc, #44]	@ (800233c <HAL_Init+0x30>)
 8002310:	681a      	ldr	r2, [r3, #0]
 8002312:	f442 7200 	orr.w	r2, r2, #512	@ 0x200
 8002316:	601a      	str	r2, [r3, #0]
 8002318:	681a      	ldr	r2, [r3, #0]
 800231a:	f442 6280 	orr.w	r2, r2, #1024	@ 0x400
 800231e:	601a      	str	r2, [r3, #0]
 8002320:	681a      	ldr	r2, [r3, #0]
 8002322:	f442 7280 	orr.w	r2, r2, #256	@ 0x100
 8002326:	601a      	str	r2, [r3, #0]
 8002328:	2003      	movs	r0, #3
 800232a:	f000 fb45 	bl	80029b8 <HAL_NVIC_SetPriorityGrouping>
 800232e:	200f      	movs	r0, #15
 8002330:	f7ff ffc8 	bl	80022c4 <HAL_InitTick>
 8002334:	f7ff fc7e 	bl	8001c34 <HAL_MspInit>
 8002338:	2000      	movs	r0, #0
 800233a:	bd08      	pop	{r3, pc}
 800233c:	40023c00 	.word	0x40023c00

08002340 <HAL_IncTick>:
 8002340:	4a03      	ldr	r2, [pc, #12]	@ (8002350 <HAL_IncTick+0x10>)
 8002342:	4b04      	ldr	r3, [pc, #16]	@ (8002354 <HAL_IncTick+0x14>)
 8002344:	6811      	ldr	r1, [r2, #0]
 8002346:	781b      	ldrb	r3, [r3, #0]
 8002348:	440b      	add	r3, r1
 800234a:	6013      	str	r3, [r2, #0]
 800234c:	4770      	bx	lr
 800234e:	bf00      	nop
 8002350:	2000062c 	.word	0x2000062c
 8002354:	20000020 	.word	0x20000020

08002358 <HAL_GetTick>:
 8002358:	4b01      	ldr	r3, [pc, #4]	@ (8002360 <HAL_GetTick+0x8>)
 800235a:	6818      	ldr	r0, [r3, #0]
 800235c:	4770      	bx	lr
 800235e:	bf00      	nop
 8002360:	2000062c 	.word	0x2000062c

08002364 <HAL_Delay>:
 8002364:	b538      	push	{r3, r4, r5, lr}
 8002366:	4604      	mov	r4, r0
 8002368:	f7ff fff6 	bl	8002358 <HAL_GetTick>
 800236c:	1c63      	adds	r3, r4, #1
 800236e:	bf1c      	itt	ne
 8002370:	4b05      	ldrne	r3, [pc, #20]	@ (8002388 <HAL_Delay+0x24>)
 8002372:	781b      	ldrbne	r3, [r3, #0]
 8002374:	4605      	mov	r5, r0
 8002376:	bf18      	it	ne
 8002378:	18e4      	addne	r4, r4, r3
 800237a:	f7ff ffed 	bl	8002358 <HAL_GetTick>
 800237e:	1b43      	subs	r3, r0, r5
 8002380:	42a3      	cmp	r3, r4
 8002382:	d3fa      	bcc.n	800237a <HAL_Delay+0x16>
 8002384:	bd38      	pop	{r3, r4, r5, pc}
 8002386:	bf00      	nop
 8002388:	20000020 	.word	0x20000020

0800238c <HAL_CAN_Init>:
 800238c:	b538      	push	{r3, r4, r5, lr}
 800238e:	4604      	mov	r4, r0
 8002390:	2800      	cmp	r0, #0
 8002392:	d06e      	beq.n	8002472 <HAL_CAN_Init+0xe6>
 8002394:	f890 3020 	ldrb.w	r3, [r0, #32]
 8002398:	b90b      	cbnz	r3, 800239e <HAL_CAN_Init+0x12>
 800239a:	f7ff fc67 	bl	8001c6c <HAL_CAN_MspInit>
 800239e:	6822      	ldr	r2, [r4, #0]
 80023a0:	6813      	ldr	r3, [r2, #0]
 80023a2:	f043 0301 	orr.w	r3, r3, #1
 80023a6:	6013      	str	r3, [r2, #0]
 80023a8:	f7ff ffd6 	bl	8002358 <HAL_GetTick>
 80023ac:	4605      	mov	r5, r0
 80023ae:	6823      	ldr	r3, [r4, #0]
 80023b0:	685a      	ldr	r2, [r3, #4]
 80023b2:	07d1      	lsls	r1, r2, #31
 80023b4:	d551      	bpl.n	800245a <HAL_CAN_Init+0xce>
 80023b6:	681a      	ldr	r2, [r3, #0]
 80023b8:	f022 0202 	bic.w	r2, r2, #2
 80023bc:	601a      	str	r2, [r3, #0]
 80023be:	f7ff ffcb 	bl	8002358 <HAL_GetTick>
 80023c2:	4605      	mov	r5, r0
 80023c4:	6823      	ldr	r3, [r4, #0]
 80023c6:	685a      	ldr	r2, [r3, #4]
 80023c8:	0792      	lsls	r2, r2, #30
 80023ca:	d454      	bmi.n	8002476 <HAL_CAN_Init+0xea>
 80023cc:	7e22      	ldrb	r2, [r4, #24]
 80023ce:	2a01      	cmp	r2, #1
 80023d0:	681a      	ldr	r2, [r3, #0]
 80023d2:	bf0c      	ite	eq
 80023d4:	f042 0280 	orreq.w	r2, r2, #128	@ 0x80
 80023d8:	f022 0280 	bicne.w	r2, r2, #128	@ 0x80
 80023dc:	601a      	str	r2, [r3, #0]
 80023de:	7e62      	ldrb	r2, [r4, #25]
 80023e0:	2a01      	cmp	r2, #1
 80023e2:	681a      	ldr	r2, [r3, #0]
 80023e4:	bf0c      	ite	eq
 80023e6:	f042 0240 	orreq.w	r2, r2, #64	@ 0x40
 80023ea:	f022 0240 	bicne.w	r2, r2, #64	@ 0x40
 80023ee:	601a      	str	r2, [r3, #0]
 80023f0:	7ea2      	ldrb	r2, [r4, #26]
 80023f2:	2a01      	cmp	r2, #1
 80023f4:	681a      	ldr	r2, [r3, #0]
 80023f6:	bf0c      	ite	eq
 80023f8:	f042 0220 	orreq.w	r2, r2, #32
 80023fc:	f022 0220 	bicne.w	r2, r2, #32
 8002400:	601a      	str	r2, [r3, #0]
 8002402:	7ee2      	ldrb	r2, [r4, #27]
 8002404:	2a01      	cmp	r2, #1
 8002406:	681a      	ldr	r2, [r3, #0]
 8002408:	bf0c      	ite	eq
 800240a:	f022 0210 	biceq.w	r2, r2, #16
 800240e:	f042 0210 	orrne.w	r2, r2, #16
 8002412:	601a      	str	r2, [r3, #0]
 8002414:	7f22      	ldrb	r2, [r4, #28]
 8002416:	2a01      	cmp	r2, #1
 8002418:	681a      	ldr	r2, [r3, #0]
 800241a:	bf0c      	ite	eq
 800241c:	f042 0208 	orreq.w	r2, r2, #8
 8002420:	f022 0208 	bicne.w	r2, r2, #8
 8002424:	601a      	str	r2, [r3, #0]
 8002426:	7f62      	ldrb	r2, [r4, #29]
 8002428:	2a01      	cmp	r2, #1
 800242a:	681a      	ldr	r2, [r3, #0]
 800242c:	bf0c      	ite	eq
 800242e:	f042 0204 	orreq.w	r2, r2, #4
 8002432:	f022 0204 	bicne.w	r2, r2, #4
 8002436:	601a      	str	r2, [r3, #0]
 8002438:	e9d4 2102 	ldrd	r2, r1, [r4, #8]
 800243c:	430a      	orrs	r2, r1
 800243e:	6921      	ldr	r1, [r4, #16]
 8002440:	430a      	orrs	r2, r1
 8002442:	6961      	ldr	r1, [r4, #20]
 8002444:	430a      	orrs	r2, r1
 8002446:	6861      	ldr	r1, [r4, #4]
 8002448:	3901      	subs	r1, #1
 800244a:	430a      	orrs	r2, r1
 800244c:	61da      	str	r2, [r3, #28]
 800244e:	2000      	movs	r0, #0
 8002450:	2301      	movs	r3, #1
 8002452:	6260      	str	r0, [r4, #36]	@ 0x24
 8002454:	f884 3020 	strb.w	r3, [r4, #32]
 8002458:	e00c      	b.n	8002474 <HAL_CAN_Init+0xe8>
 800245a:	f7ff ff7d 	bl	8002358 <HAL_GetTick>
 800245e:	1b40      	subs	r0, r0, r5
 8002460:	280a      	cmp	r0, #10
 8002462:	d9a4      	bls.n	80023ae <HAL_CAN_Init+0x22>
 8002464:	6a63      	ldr	r3, [r4, #36]	@ 0x24
 8002466:	f443 3300 	orr.w	r3, r3, #131072	@ 0x20000
 800246a:	6263      	str	r3, [r4, #36]	@ 0x24
 800246c:	2305      	movs	r3, #5
 800246e:	f884 3020 	strb.w	r3, [r4, #32]
 8002472:	2001      	movs	r0, #1
 8002474:	bd38      	pop	{r3, r4, r5, pc}
 8002476:	f7ff ff6f 	bl	8002358 <HAL_GetTick>
 800247a:	1b40      	subs	r0, r0, r5
 800247c:	280a      	cmp	r0, #10
 800247e:	d9a1      	bls.n	80023c4 <HAL_CAN_Init+0x38>
 8002480:	e7f0      	b.n	8002464 <HAL_CAN_Init+0xd8>
	...

08002484 <HAL_CAN_ConfigFilter>:
 8002484:	b530      	push	{r4, r5, lr}
 8002486:	f890 3020 	ldrb.w	r3, [r0, #32]
 800248a:	3b01      	subs	r3, #1
 800248c:	2b01      	cmp	r3, #1
 800248e:	d877      	bhi.n	8002580 <HAL_CAN_ConfigFilter+0xfc>
 8002490:	4b3e      	ldr	r3, [pc, #248]	@ (800258c <HAL_CAN_ConfigFilter+0x108>)
 8002492:	f8d3 2200 	ldr.w	r2, [r3, #512]	@ 0x200
 8002496:	f042 0201 	orr.w	r2, r2, #1
 800249a:	f8c3 2200 	str.w	r2, [r3, #512]	@ 0x200
 800249e:	f8d3 2200 	ldr.w	r2, [r3, #512]	@ 0x200
 80024a2:	f422 527c 	bic.w	r2, r2, #16128	@ 0x3f00
 80024a6:	f8c3 2200 	str.w	r2, [r3, #512]	@ 0x200
 80024aa:	f8d3 2200 	ldr.w	r2, [r3, #512]	@ 0x200
 80024ae:	6a48      	ldr	r0, [r1, #36]	@ 0x24
 80024b0:	ea42 2200 	orr.w	r2, r2, r0, lsl #8
 80024b4:	f8c3 2200 	str.w	r2, [r3, #512]	@ 0x200
 80024b8:	694a      	ldr	r2, [r1, #20]
 80024ba:	f8d3 521c 	ldr.w	r5, [r3, #540]	@ 0x21c
 80024be:	f002 041f 	and.w	r4, r2, #31
 80024c2:	2001      	movs	r0, #1
 80024c4:	40a0      	lsls	r0, r4
 80024c6:	ea25 0500 	bic.w	r5, r5, r0
 80024ca:	f8c3 521c 	str.w	r5, [r3, #540]	@ 0x21c
 80024ce:	69cd      	ldr	r5, [r1, #28]
 80024d0:	43c4      	mvns	r4, r0
 80024d2:	2d00      	cmp	r5, #0
 80024d4:	d135      	bne.n	8002542 <HAL_CAN_ConfigFilter+0xbe>
 80024d6:	f8d3 520c 	ldr.w	r5, [r3, #524]	@ 0x20c
 80024da:	4025      	ands	r5, r4
 80024dc:	f8c3 520c 	str.w	r5, [r3, #524]	@ 0x20c
 80024e0:	68cb      	ldr	r3, [r1, #12]
 80024e2:	888d      	ldrh	r5, [r1, #4]
 80024e4:	ea45 4503 	orr.w	r5, r5, r3, lsl #16
 80024e8:	00d3      	lsls	r3, r2, #3
 80024ea:	f103 4380 	add.w	r3, r3, #1073741824	@ 0x40000000
 80024ee:	f503 43c8 	add.w	r3, r3, #25600	@ 0x6400
 80024f2:	880a      	ldrh	r2, [r1, #0]
 80024f4:	f8c3 5240 	str.w	r5, [r3, #576]	@ 0x240
 80024f8:	688d      	ldr	r5, [r1, #8]
 80024fa:	ea42 4205 	orr.w	r2, r2, r5, lsl #16
 80024fe:	f8c3 2244 	str.w	r2, [r3, #580]	@ 0x244
 8002502:	698a      	ldr	r2, [r1, #24]
 8002504:	4b21      	ldr	r3, [pc, #132]	@ (800258c <HAL_CAN_ConfigFilter+0x108>)
 8002506:	bb8a      	cbnz	r2, 800256c <HAL_CAN_ConfigFilter+0xe8>
 8002508:	f8d3 2204 	ldr.w	r2, [r3, #516]	@ 0x204
 800250c:	4022      	ands	r2, r4
 800250e:	f8c3 2204 	str.w	r2, [r3, #516]	@ 0x204
 8002512:	690a      	ldr	r2, [r1, #16]
 8002514:	bb72      	cbnz	r2, 8002574 <HAL_CAN_ConfigFilter+0xf0>
 8002516:	f8d3 2214 	ldr.w	r2, [r3, #532]	@ 0x214
 800251a:	4014      	ands	r4, r2
 800251c:	f8c3 4214 	str.w	r4, [r3, #532]	@ 0x214
 8002520:	6a0b      	ldr	r3, [r1, #32]
 8002522:	2b01      	cmp	r3, #1
 8002524:	4b19      	ldr	r3, [pc, #100]	@ (800258c <HAL_CAN_ConfigFilter+0x108>)
 8002526:	bf02      	ittt	eq
 8002528:	f8d3 221c 	ldreq.w	r2, [r3, #540]	@ 0x21c
 800252c:	4302      	orreq	r2, r0
 800252e:	f8c3 221c 	streq.w	r2, [r3, #540]	@ 0x21c
 8002532:	f8d3 2200 	ldr.w	r2, [r3, #512]	@ 0x200
 8002536:	f022 0201 	bic.w	r2, r2, #1
 800253a:	f8c3 2200 	str.w	r2, [r3, #512]	@ 0x200
 800253e:	2000      	movs	r0, #0
 8002540:	bd30      	pop	{r4, r5, pc}
 8002542:	2d01      	cmp	r5, #1
 8002544:	d1dd      	bne.n	8002502 <HAL_CAN_ConfigFilter+0x7e>
 8002546:	f8d3 520c 	ldr.w	r5, [r3, #524]	@ 0x20c
 800254a:	4305      	orrs	r5, r0
 800254c:	f8c3 520c 	str.w	r5, [r3, #524]	@ 0x20c
 8002550:	680b      	ldr	r3, [r1, #0]
 8002552:	888d      	ldrh	r5, [r1, #4]
 8002554:	ea45 4503 	orr.w	r5, r5, r3, lsl #16
 8002558:	00d3      	lsls	r3, r2, #3
 800255a:	f103 4380 	add.w	r3, r3, #1073741824	@ 0x40000000
 800255e:	f503 43c8 	add.w	r3, r3, #25600	@ 0x6400
 8002562:	898a      	ldrh	r2, [r1, #12]
 8002564:	f8c3 5240 	str.w	r5, [r3, #576]	@ 0x240
 8002568:	688d      	ldr	r5, [r1, #8]
 800256a:	e7c6      	b.n	80024fa <HAL_CAN_ConfigFilter+0x76>
 800256c:	f8d3 2204 	ldr.w	r2, [r3, #516]	@ 0x204
 8002570:	4302      	orrs	r2, r0
 8002572:	e7cc      	b.n	800250e <HAL_CAN_ConfigFilter+0x8a>
 8002574:	f8d3 2214 	ldr.w	r2, [r3, #532]	@ 0x214
 8002578:	4302      	orrs	r2, r0
 800257a:	f8c3 2214 	str.w	r2, [r3, #532]	@ 0x214
 800257e:	e7cf      	b.n	8002520 <HAL_CAN_ConfigFilter+0x9c>
 8002580:	6a43      	ldr	r3, [r0, #36]	@ 0x24
 8002582:	f443 2380 	orr.w	r3, r3, #262144	@ 0x40000
 8002586:	6243      	str	r3, [r0, #36]	@ 0x24
 8002588:	2001      	movs	r0, #1
 800258a:	e7d9      	b.n	8002540 <HAL_CAN_ConfigFilter+0xbc>
 800258c:	40006400 	.word	0x40006400

08002590 <HAL_CAN_Start>:
 8002590:	b538      	push	{r3, r4, r5, lr}
 8002592:	f890 3020 	ldrb.w	r3, [r0, #32]
 8002596:	2b01      	cmp	r3, #1
 8002598:	4604      	mov	r4, r0
 800259a:	d11f      	bne.n	80025dc <HAL_CAN_Start+0x4c>
 800259c:	6802      	ldr	r2, [r0, #0]
 800259e:	2302      	movs	r3, #2
 80025a0:	f880 3020 	strb.w	r3, [r0, #32]
 80025a4:	6813      	ldr	r3, [r2, #0]
 80025a6:	f023 0301 	bic.w	r3, r3, #1
 80025aa:	6013      	str	r3, [r2, #0]
 80025ac:	f7ff fed4 	bl	8002358 <HAL_GetTick>
 80025b0:	4605      	mov	r5, r0
 80025b2:	6823      	ldr	r3, [r4, #0]
 80025b4:	6858      	ldr	r0, [r3, #4]
 80025b6:	f010 0001 	ands.w	r0, r0, #1
 80025ba:	d101      	bne.n	80025c0 <HAL_CAN_Start+0x30>
 80025bc:	6260      	str	r0, [r4, #36]	@ 0x24
 80025be:	bd38      	pop	{r3, r4, r5, pc}
 80025c0:	f7ff feca 	bl	8002358 <HAL_GetTick>
 80025c4:	1b40      	subs	r0, r0, r5
 80025c6:	280a      	cmp	r0, #10
 80025c8:	d9f3      	bls.n	80025b2 <HAL_CAN_Start+0x22>
 80025ca:	6a63      	ldr	r3, [r4, #36]	@ 0x24
 80025cc:	f443 3300 	orr.w	r3, r3, #131072	@ 0x20000
 80025d0:	6263      	str	r3, [r4, #36]	@ 0x24
 80025d2:	2305      	movs	r3, #5
 80025d4:	f884 3020 	strb.w	r3, [r4, #32]
 80025d8:	2001      	movs	r0, #1
 80025da:	e7f0      	b.n	80025be <HAL_CAN_Start+0x2e>
 80025dc:	6a43      	ldr	r3, [r0, #36]	@ 0x24
 80025de:	f443 2300 	orr.w	r3, r3, #524288	@ 0x80000
 80025e2:	6243      	str	r3, [r0, #36]	@ 0x24
 80025e4:	e7f8      	b.n	80025d8 <HAL_CAN_Start+0x48>

080025e6 <HAL_CAN_AddTxMessage>:
 80025e6:	b5f0      	push	{r4, r5, r6, r7, lr}
 80025e8:	f890 5020 	ldrb.w	r5, [r0, #32]
 80025ec:	6804      	ldr	r4, [r0, #0]
 80025ee:	3d01      	subs	r5, #1
 80025f0:	2d01      	cmp	r5, #1
 80025f2:	68a6      	ldr	r6, [r4, #8]
 80025f4:	d83e      	bhi.n	8002674 <HAL_CAN_AddTxMessage+0x8e>
 80025f6:	f016 5fe0 	tst.w	r6, #469762048	@ 0x1c000000
 80025fa:	d035      	beq.n	8002668 <HAL_CAN_AddTxMessage+0x82>
 80025fc:	f3c6 6001 	ubfx	r0, r6, #24, #2
 8002600:	2501      	movs	r5, #1
 8002602:	4085      	lsls	r5, r0
 8002604:	601d      	str	r5, [r3, #0]
 8002606:	e9d1 5702 	ldrd	r5, r7, [r1, #8]
 800260a:	f100 0318 	add.w	r3, r0, #24
 800260e:	bb25      	cbnz	r5, 800265a <HAL_CAN_AddTxMessage+0x74>
 8002610:	680d      	ldr	r5, [r1, #0]
 8002612:	011b      	lsls	r3, r3, #4
 8002614:	ea47 5745 	orr.w	r7, r7, r5, lsl #21
 8002618:	50e7      	str	r7, [r4, r3]
 800261a:	eb04 1300 	add.w	r3, r4, r0, lsl #4
 800261e:	690e      	ldr	r6, [r1, #16]
 8002620:	f8c3 6184 	str.w	r6, [r3, #388]	@ 0x184
 8002624:	7d09      	ldrb	r1, [r1, #20]
 8002626:	2901      	cmp	r1, #1
 8002628:	bf08      	it	eq
 800262a:	f8d3 1184 	ldreq.w	r1, [r3, #388]	@ 0x184
 800262e:	ea4f 1500 	mov.w	r5, r0, lsl #4
 8002632:	bf04      	itt	eq
 8002634:	f441 7180 	orreq.w	r1, r1, #256	@ 0x100
 8002638:	f8c3 1184 	streq.w	r1, [r3, #388]	@ 0x184
 800263c:	442c      	add	r4, r5
 800263e:	6851      	ldr	r1, [r2, #4]
 8002640:	f8c4 118c 	str.w	r1, [r4, #396]	@ 0x18c
 8002644:	6812      	ldr	r2, [r2, #0]
 8002646:	f8c4 2188 	str.w	r2, [r4, #392]	@ 0x188
 800264a:	f8d3 2180 	ldr.w	r2, [r3, #384]	@ 0x180
 800264e:	f042 0201 	orr.w	r2, r2, #1
 8002652:	f8c3 2180 	str.w	r2, [r3, #384]	@ 0x180
 8002656:	2000      	movs	r0, #0
 8002658:	bdf0      	pop	{r4, r5, r6, r7, pc}
 800265a:	684e      	ldr	r6, [r1, #4]
 800265c:	433d      	orrs	r5, r7
 800265e:	011b      	lsls	r3, r3, #4
 8002660:	ea45 05c6 	orr.w	r5, r5, r6, lsl #3
 8002664:	50e5      	str	r5, [r4, r3]
 8002666:	e7d8      	b.n	800261a <HAL_CAN_AddTxMessage+0x34>
 8002668:	6a43      	ldr	r3, [r0, #36]	@ 0x24
 800266a:	f443 1300 	orr.w	r3, r3, #2097152	@ 0x200000
 800266e:	6243      	str	r3, [r0, #36]	@ 0x24
 8002670:	2001      	movs	r0, #1
 8002672:	e7f1      	b.n	8002658 <HAL_CAN_AddTxMessage+0x72>
 8002674:	6a43      	ldr	r3, [r0, #36]	@ 0x24
 8002676:	f443 2380 	orr.w	r3, r3, #262144	@ 0x40000
 800267a:	e7f8      	b.n	800266e <HAL_CAN_AddTxMessage+0x88>

0800267c <HAL_CAN_GetRxMessage>:
 800267c:	b5f0      	push	{r4, r5, r6, r7, lr}
 800267e:	f890 4020 	ldrb.w	r4, [r0, #32]
 8002682:	3c01      	subs	r4, #1
 8002684:	2c01      	cmp	r4, #1
 8002686:	d871      	bhi.n	800276c <HAL_CAN_GetRxMessage+0xf0>
 8002688:	6806      	ldr	r6, [r0, #0]
 800268a:	b941      	cbnz	r1, 800269e <HAL_CAN_GetRxMessage+0x22>
 800268c:	68f4      	ldr	r4, [r6, #12]
 800268e:	07a4      	lsls	r4, r4, #30
 8002690:	d107      	bne.n	80026a2 <HAL_CAN_GetRxMessage+0x26>
 8002692:	6a43      	ldr	r3, [r0, #36]	@ 0x24
 8002694:	f443 1300 	orr.w	r3, r3, #2097152	@ 0x200000
 8002698:	6243      	str	r3, [r0, #36]	@ 0x24
 800269a:	2001      	movs	r0, #1
 800269c:	bdf0      	pop	{r4, r5, r6, r7, pc}
 800269e:	6934      	ldr	r4, [r6, #16]
 80026a0:	e7f5      	b.n	800268e <HAL_CAN_GetRxMessage+0x12>
 80026a2:	eb06 1501 	add.w	r5, r6, r1, lsl #4
 80026a6:	010c      	lsls	r4, r1, #4
 80026a8:	f8d5 71b0 	ldr.w	r7, [r5, #432]	@ 0x1b0
 80026ac:	f007 0704 	and.w	r7, r7, #4
 80026b0:	6097      	str	r7, [r2, #8]
 80026b2:	2f00      	cmp	r7, #0
 80026b4:	d150      	bne.n	8002758 <HAL_CAN_GetRxMessage+0xdc>
 80026b6:	f8d5 71b0 	ldr.w	r7, [r5, #432]	@ 0x1b0
 80026ba:	0d7f      	lsrs	r7, r7, #21
 80026bc:	6017      	str	r7, [r2, #0]
 80026be:	f8d5 71b0 	ldr.w	r7, [r5, #432]	@ 0x1b0
 80026c2:	f007 0702 	and.w	r7, r7, #2
 80026c6:	60d7      	str	r7, [r2, #12]
 80026c8:	f8d5 71b4 	ldr.w	r7, [r5, #436]	@ 0x1b4
 80026cc:	073f      	lsls	r7, r7, #28
 80026ce:	bf56      	itet	pl
 80026d0:	f8d5 71b4 	ldrpl.w	r7, [r5, #436]	@ 0x1b4
 80026d4:	2708      	movmi	r7, #8
 80026d6:	f007 070f 	andpl.w	r7, r7, #15
 80026da:	6117      	str	r7, [r2, #16]
 80026dc:	f8d5 71b4 	ldr.w	r7, [r5, #436]	@ 0x1b4
 80026e0:	f8d5 51b4 	ldr.w	r5, [r5, #436]	@ 0x1b4
 80026e4:	4426      	add	r6, r4
 80026e6:	f3c7 2707 	ubfx	r7, r7, #8, #8
 80026ea:	0c2d      	lsrs	r5, r5, #16
 80026ec:	6197      	str	r7, [r2, #24]
 80026ee:	6155      	str	r5, [r2, #20]
 80026f0:	f8d6 21b8 	ldr.w	r2, [r6, #440]	@ 0x1b8
 80026f4:	701a      	strb	r2, [r3, #0]
 80026f6:	6802      	ldr	r2, [r0, #0]
 80026f8:	4422      	add	r2, r4
 80026fa:	f8d2 21b8 	ldr.w	r2, [r2, #440]	@ 0x1b8
 80026fe:	0a12      	lsrs	r2, r2, #8
 8002700:	705a      	strb	r2, [r3, #1]
 8002702:	6802      	ldr	r2, [r0, #0]
 8002704:	4422      	add	r2, r4
 8002706:	f8d2 21b8 	ldr.w	r2, [r2, #440]	@ 0x1b8
 800270a:	0c12      	lsrs	r2, r2, #16
 800270c:	709a      	strb	r2, [r3, #2]
 800270e:	6802      	ldr	r2, [r0, #0]
 8002710:	4422      	add	r2, r4
 8002712:	f8d2 21b8 	ldr.w	r2, [r2, #440]	@ 0x1b8
 8002716:	0e12      	lsrs	r2, r2, #24
 8002718:	70da      	strb	r2, [r3, #3]
 800271a:	6802      	ldr	r2, [r0, #0]
 800271c:	4422      	add	r2, r4
 800271e:	f8d2 21bc 	ldr.w	r2, [r2, #444]	@ 0x1bc
 8002722:	711a      	strb	r2, [r3, #4]
 8002724:	6802      	ldr	r2, [r0, #0]
 8002726:	4422      	add	r2, r4
 8002728:	f8d2 21bc 	ldr.w	r2, [r2, #444]	@ 0x1bc
 800272c:	0a12      	lsrs	r2, r2, #8
 800272e:	715a      	strb	r2, [r3, #5]
 8002730:	6802      	ldr	r2, [r0, #0]
 8002732:	4422      	add	r2, r4
 8002734:	f8d2 21bc 	ldr.w	r2, [r2, #444]	@ 0x1bc
 8002738:	0c12      	lsrs	r2, r2, #16
 800273a:	719a      	strb	r2, [r3, #6]
 800273c:	6802      	ldr	r2, [r0, #0]
 800273e:	4422      	add	r2, r4
 8002740:	f8d2 21bc 	ldr.w	r2, [r2, #444]	@ 0x1bc
 8002744:	0e12      	lsrs	r2, r2, #24
 8002746:	71da      	strb	r2, [r3, #7]
 8002748:	6803      	ldr	r3, [r0, #0]
 800274a:	b951      	cbnz	r1, 8002762 <HAL_CAN_GetRxMessage+0xe6>
 800274c:	68da      	ldr	r2, [r3, #12]
 800274e:	f042 0220 	orr.w	r2, r2, #32
 8002752:	60da      	str	r2, [r3, #12]
 8002754:	2000      	movs	r0, #0
 8002756:	e7a1      	b.n	800269c <HAL_CAN_GetRxMessage+0x20>
 8002758:	f8d5 71b0 	ldr.w	r7, [r5, #432]	@ 0x1b0
 800275c:	08ff      	lsrs	r7, r7, #3
 800275e:	6057      	str	r7, [r2, #4]
 8002760:	e7ad      	b.n	80026be <HAL_CAN_GetRxMessage+0x42>
 8002762:	691a      	ldr	r2, [r3, #16]
 8002764:	f042 0220 	orr.w	r2, r2, #32
 8002768:	611a      	str	r2, [r3, #16]
 800276a:	e7f3      	b.n	8002754 <HAL_CAN_GetRxMessage+0xd8>
 800276c:	6a43      	ldr	r3, [r0, #36]	@ 0x24
 800276e:	f443 2380 	orr.w	r3, r3, #262144	@ 0x40000
 8002772:	e791      	b.n	8002698 <HAL_CAN_GetRxMessage+0x1c>

08002774 <HAL_CAN_ActivateNotification>:
 8002774:	f890 3020 	ldrb.w	r3, [r0, #32]
 8002778:	3b01      	subs	r3, #1
 800277a:	2b01      	cmp	r3, #1
 800277c:	d805      	bhi.n	800278a <HAL_CAN_ActivateNotification+0x16>
 800277e:	6802      	ldr	r2, [r0, #0]
 8002780:	6953      	ldr	r3, [r2, #20]
 8002782:	4319      	orrs	r1, r3
 8002784:	6151      	str	r1, [r2, #20]
 8002786:	2000      	movs	r0, #0
 8002788:	4770      	bx	lr
 800278a:	6a43      	ldr	r3, [r0, #36]	@ 0x24
 800278c:	f443 2380 	orr.w	r3, r3, #262144	@ 0x40000
 8002790:	6243      	str	r3, [r0, #36]	@ 0x24
 8002792:	2001      	movs	r0, #1
 8002794:	4770      	bx	lr

08002796 <HAL_CAN_TxMailbox0CompleteCallback>:
 8002796:	4770      	bx	lr

08002798 <HAL_CAN_TxMailbox1CompleteCallback>:
 8002798:	4770      	bx	lr

0800279a <HAL_CAN_TxMailbox2CompleteCallback>:
 800279a:	4770      	bx	lr

0800279c <HAL_CAN_TxMailbox0AbortCallback>:
 800279c:	4770      	bx	lr

0800279e <HAL_CAN_TxMailbox1AbortCallback>:
 800279e:	4770      	bx	lr

080027a0 <HAL_CAN_TxMailbox2AbortCallback>:
 80027a0:	4770      	bx	lr

080027a2 <HAL_CAN_RxFifo0FullCallback>:
 80027a2:	4770      	bx	lr

080027a4 <HAL_CAN_RxFifo1MsgPendingCallback>:
 80027a4:	4770      	bx	lr

080027a6 <HAL_CAN_RxFifo1FullCallback>:
 80027a6:	4770      	bx	lr

080027a8 <HAL_CAN_SleepCallback>:
 80027a8:	4770      	bx	lr

080027aa <HAL_CAN_WakeUpFromRxMsgCallback>:
 80027aa:	4770      	bx	lr

080027ac <HAL_CAN_ErrorCallback>:
 80027ac:	4770      	bx	lr

080027ae <HAL_CAN_IRQHandler>:
 80027ae:	e92d 4ff8 	stmdb	sp!, {r3, r4, r5, r6, r7, r8, r9, sl, fp, lr}
 80027b2:	6803      	ldr	r3, [r0, #0]
 80027b4:	695e      	ldr	r6, [r3, #20]
 80027b6:	f8d3 9004 	ldr.w	r9, [r3, #4]
 80027ba:	f8d3 8008 	ldr.w	r8, [r3, #8]
 80027be:	f8d3 b00c 	ldr.w	fp, [r3, #12]
 80027c2:	f8d3 a010 	ldr.w	sl, [r3, #16]
 80027c6:	699f      	ldr	r7, [r3, #24]
 80027c8:	f016 0401 	ands.w	r4, r6, #1
 80027cc:	4605      	mov	r5, r0
 80027ce:	d027      	beq.n	8002820 <HAL_CAN_IRQHandler+0x72>
 80027d0:	f018 0f01 	tst.w	r8, #1
 80027d4:	d007      	beq.n	80027e6 <HAL_CAN_IRQHandler+0x38>
 80027d6:	2201      	movs	r2, #1
 80027d8:	f018 0f02 	tst.w	r8, #2
 80027dc:	609a      	str	r2, [r3, #8]
 80027de:	f000 80a6 	beq.w	800292e <HAL_CAN_IRQHandler+0x180>
 80027e2:	f7ff ffd8 	bl	8002796 <HAL_CAN_TxMailbox0CompleteCallback>
 80027e6:	2400      	movs	r4, #0
 80027e8:	f418 7f80 	tst.w	r8, #256	@ 0x100
 80027ec:	d00a      	beq.n	8002804 <HAL_CAN_IRQHandler+0x56>
 80027ee:	682b      	ldr	r3, [r5, #0]
 80027f0:	f44f 7280 	mov.w	r2, #256	@ 0x100
 80027f4:	f418 7f00 	tst.w	r8, #512	@ 0x200
 80027f8:	609a      	str	r2, [r3, #8]
 80027fa:	f000 80a7 	beq.w	800294c <HAL_CAN_IRQHandler+0x19e>
 80027fe:	4628      	mov	r0, r5
 8002800:	f7ff ffca 	bl	8002798 <HAL_CAN_TxMailbox1CompleteCallback>
 8002804:	f418 3f80 	tst.w	r8, #65536	@ 0x10000
 8002808:	d00a      	beq.n	8002820 <HAL_CAN_IRQHandler+0x72>
 800280a:	682b      	ldr	r3, [r5, #0]
 800280c:	f44f 3280 	mov.w	r2, #65536	@ 0x10000
 8002810:	f418 3f00 	tst.w	r8, #131072	@ 0x20000
 8002814:	609a      	str	r2, [r3, #8]
 8002816:	f000 80a9 	beq.w	800296c <HAL_CAN_IRQHandler+0x1be>
 800281a:	4628      	mov	r0, r5
 800281c:	f7ff ffbd 	bl	800279a <HAL_CAN_TxMailbox2CompleteCallback>
 8002820:	0730      	lsls	r0, r6, #28
 8002822:	d507      	bpl.n	8002834 <HAL_CAN_IRQHandler+0x86>
 8002824:	f01b 0f10 	tst.w	fp, #16
 8002828:	bf1f      	itttt	ne
 800282a:	682b      	ldrne	r3, [r5, #0]
 800282c:	2210      	movne	r2, #16
 800282e:	f444 7400 	orrne.w	r4, r4, #512	@ 0x200
 8002832:	60da      	strne	r2, [r3, #12]
 8002834:	0771      	lsls	r1, r6, #29
 8002836:	d508      	bpl.n	800284a <HAL_CAN_IRQHandler+0x9c>
 8002838:	f01b 0f08 	tst.w	fp, #8
 800283c:	d005      	beq.n	800284a <HAL_CAN_IRQHandler+0x9c>
 800283e:	682b      	ldr	r3, [r5, #0]
 8002840:	2208      	movs	r2, #8
 8002842:	60da      	str	r2, [r3, #12]
 8002844:	4628      	mov	r0, r5
 8002846:	f7ff ffac 	bl	80027a2 <HAL_CAN_RxFifo0FullCallback>
 800284a:	07b2      	lsls	r2, r6, #30
 800284c:	d506      	bpl.n	800285c <HAL_CAN_IRQHandler+0xae>
 800284e:	682b      	ldr	r3, [r5, #0]
 8002850:	68db      	ldr	r3, [r3, #12]
 8002852:	079b      	lsls	r3, r3, #30
 8002854:	d002      	beq.n	800285c <HAL_CAN_IRQHandler+0xae>
 8002856:	4628      	mov	r0, r5
 8002858:	f7ff fc7c 	bl	8002154 <HAL_CAN_RxFifo0MsgPendingCallback>
 800285c:	0670      	lsls	r0, r6, #25
 800285e:	d507      	bpl.n	8002870 <HAL_CAN_IRQHandler+0xc2>
 8002860:	f01a 0f10 	tst.w	sl, #16
 8002864:	bf1f      	itttt	ne
 8002866:	682b      	ldrne	r3, [r5, #0]
 8002868:	2210      	movne	r2, #16
 800286a:	f444 6480 	orrne.w	r4, r4, #1024	@ 0x400
 800286e:	611a      	strne	r2, [r3, #16]
 8002870:	06b1      	lsls	r1, r6, #26
 8002872:	d508      	bpl.n	8002886 <HAL_CAN_IRQHandler+0xd8>
 8002874:	f01a 0f08 	tst.w	sl, #8
 8002878:	d005      	beq.n	8002886 <HAL_CAN_IRQHandler+0xd8>
 800287a:	682b      	ldr	r3, [r5, #0]
 800287c:	2208      	movs	r2, #8
 800287e:	611a      	str	r2, [r3, #16]
 8002880:	4628      	mov	r0, r5
 8002882:	f7ff ff90 	bl	80027a6 <HAL_CAN_RxFifo1FullCallback>
 8002886:	06f2      	lsls	r2, r6, #27
 8002888:	d506      	bpl.n	8002898 <HAL_CAN_IRQHandler+0xea>
 800288a:	682b      	ldr	r3, [r5, #0]
 800288c:	691b      	ldr	r3, [r3, #16]
 800288e:	079b      	lsls	r3, r3, #30
 8002890:	d002      	beq.n	8002898 <HAL_CAN_IRQHandler+0xea>
 8002892:	4628      	mov	r0, r5
 8002894:	f7ff ff86 	bl	80027a4 <HAL_CAN_RxFifo1MsgPendingCallback>
 8002898:	03b0      	lsls	r0, r6, #14
 800289a:	d508      	bpl.n	80028ae <HAL_CAN_IRQHandler+0x100>
 800289c:	f019 0f10 	tst.w	r9, #16
 80028a0:	d005      	beq.n	80028ae <HAL_CAN_IRQHandler+0x100>
 80028a2:	682b      	ldr	r3, [r5, #0]
 80028a4:	2210      	movs	r2, #16
 80028a6:	605a      	str	r2, [r3, #4]
 80028a8:	4628      	mov	r0, r5
 80028aa:	f7ff ff7d 	bl	80027a8 <HAL_CAN_SleepCallback>
 80028ae:	03f1      	lsls	r1, r6, #15
 80028b0:	d508      	bpl.n	80028c4 <HAL_CAN_IRQHandler+0x116>
 80028b2:	f019 0f08 	tst.w	r9, #8
 80028b6:	d005      	beq.n	80028c4 <HAL_CAN_IRQHandler+0x116>
 80028b8:	682b      	ldr	r3, [r5, #0]
 80028ba:	2208      	movs	r2, #8
 80028bc:	605a      	str	r2, [r3, #4]
 80028be:	4628      	mov	r0, r5
 80028c0:	f7ff ff73 	bl	80027aa <HAL_CAN_WakeUpFromRxMsgCallback>
 80028c4:	0432      	lsls	r2, r6, #16
 80028c6:	d529      	bpl.n	800291c <HAL_CAN_IRQHandler+0x16e>
 80028c8:	f019 0f04 	tst.w	r9, #4
 80028cc:	682a      	ldr	r2, [r5, #0]
 80028ce:	d023      	beq.n	8002918 <HAL_CAN_IRQHandler+0x16a>
 80028d0:	05f3      	lsls	r3, r6, #23
 80028d2:	d503      	bpl.n	80028dc <HAL_CAN_IRQHandler+0x12e>
 80028d4:	07f8      	lsls	r0, r7, #31
 80028d6:	bf48      	it	mi
 80028d8:	f044 0401 	orrmi.w	r4, r4, #1
 80028dc:	05b1      	lsls	r1, r6, #22
 80028de:	d503      	bpl.n	80028e8 <HAL_CAN_IRQHandler+0x13a>
 80028e0:	07bb      	lsls	r3, r7, #30
 80028e2:	bf48      	it	mi
 80028e4:	f044 0402 	orrmi.w	r4, r4, #2
 80028e8:	0570      	lsls	r0, r6, #21
 80028ea:	d503      	bpl.n	80028f4 <HAL_CAN_IRQHandler+0x146>
 80028ec:	0779      	lsls	r1, r7, #29
 80028ee:	bf48      	it	mi
 80028f0:	f044 0404 	orrmi.w	r4, r4, #4
 80028f4:	0533      	lsls	r3, r6, #20
 80028f6:	d50f      	bpl.n	8002918 <HAL_CAN_IRQHandler+0x16a>
 80028f8:	f017 0370 	ands.w	r3, r7, #112	@ 0x70
 80028fc:	d00c      	beq.n	8002918 <HAL_CAN_IRQHandler+0x16a>
 80028fe:	2b40      	cmp	r3, #64	@ 0x40
 8002900:	d054      	beq.n	80029ac <HAL_CAN_IRQHandler+0x1fe>
 8002902:	d843      	bhi.n	800298c <HAL_CAN_IRQHandler+0x1de>
 8002904:	2b20      	cmp	r3, #32
 8002906:	d04b      	beq.n	80029a0 <HAL_CAN_IRQHandler+0x1f2>
 8002908:	2b30      	cmp	r3, #48	@ 0x30
 800290a:	d04c      	beq.n	80029a6 <HAL_CAN_IRQHandler+0x1f8>
 800290c:	2b10      	cmp	r3, #16
 800290e:	d044      	beq.n	800299a <HAL_CAN_IRQHandler+0x1ec>
 8002910:	6993      	ldr	r3, [r2, #24]
 8002912:	f023 0370 	bic.w	r3, r3, #112	@ 0x70
 8002916:	6193      	str	r3, [r2, #24]
 8002918:	2304      	movs	r3, #4
 800291a:	6053      	str	r3, [r2, #4]
 800291c:	b12c      	cbz	r4, 800292a <HAL_CAN_IRQHandler+0x17c>
 800291e:	6a6b      	ldr	r3, [r5, #36]	@ 0x24
 8002920:	4323      	orrs	r3, r4
 8002922:	626b      	str	r3, [r5, #36]	@ 0x24
 8002924:	4628      	mov	r0, r5
 8002926:	f7ff ff41 	bl	80027ac <HAL_CAN_ErrorCallback>
 800292a:	e8bd 8ff8 	ldmia.w	sp!, {r3, r4, r5, r6, r7, r8, r9, sl, fp, pc}
 800292e:	f018 0f04 	tst.w	r8, #4
 8002932:	d105      	bne.n	8002940 <HAL_CAN_IRQHandler+0x192>
 8002934:	f018 0f08 	tst.w	r8, #8
 8002938:	d105      	bne.n	8002946 <HAL_CAN_IRQHandler+0x198>
 800293a:	f7ff ff2f 	bl	800279c <HAL_CAN_TxMailbox0AbortCallback>
 800293e:	e752      	b.n	80027e6 <HAL_CAN_IRQHandler+0x38>
 8002940:	f44f 6400 	mov.w	r4, #2048	@ 0x800
 8002944:	e750      	b.n	80027e8 <HAL_CAN_IRQHandler+0x3a>
 8002946:	f44f 5480 	mov.w	r4, #4096	@ 0x1000
 800294a:	e74d      	b.n	80027e8 <HAL_CAN_IRQHandler+0x3a>
 800294c:	f418 6f80 	tst.w	r8, #1024	@ 0x400
 8002950:	d002      	beq.n	8002958 <HAL_CAN_IRQHandler+0x1aa>
 8002952:	f444 5400 	orr.w	r4, r4, #8192	@ 0x2000
 8002956:	e755      	b.n	8002804 <HAL_CAN_IRQHandler+0x56>
 8002958:	f418 6f00 	tst.w	r8, #2048	@ 0x800
 800295c:	d002      	beq.n	8002964 <HAL_CAN_IRQHandler+0x1b6>
 800295e:	f444 4480 	orr.w	r4, r4, #16384	@ 0x4000
 8002962:	e74f      	b.n	8002804 <HAL_CAN_IRQHandler+0x56>
 8002964:	4628      	mov	r0, r5
 8002966:	f7ff ff1a 	bl	800279e <HAL_CAN_TxMailbox1AbortCallback>
 800296a:	e74b      	b.n	8002804 <HAL_CAN_IRQHandler+0x56>
 800296c:	f418 2f80 	tst.w	r8, #262144	@ 0x40000
 8002970:	d002      	beq.n	8002978 <HAL_CAN_IRQHandler+0x1ca>
 8002972:	f444 4400 	orr.w	r4, r4, #32768	@ 0x8000
 8002976:	e753      	b.n	8002820 <HAL_CAN_IRQHandler+0x72>
 8002978:	f418 2f00 	tst.w	r8, #524288	@ 0x80000
 800297c:	d002      	beq.n	8002984 <HAL_CAN_IRQHandler+0x1d6>
 800297e:	f444 3480 	orr.w	r4, r4, #65536	@ 0x10000
 8002982:	e74d      	b.n	8002820 <HAL_CAN_IRQHandler+0x72>
 8002984:	4628      	mov	r0, r5
 8002986:	f7ff ff0b 	bl	80027a0 <HAL_CAN_TxMailbox2AbortCallback>
 800298a:	e749      	b.n	8002820 <HAL_CAN_IRQHandler+0x72>
 800298c:	2b50      	cmp	r3, #80	@ 0x50
 800298e:	d010      	beq.n	80029b2 <HAL_CAN_IRQHandler+0x204>
 8002990:	2b60      	cmp	r3, #96	@ 0x60
 8002992:	d1bd      	bne.n	8002910 <HAL_CAN_IRQHandler+0x162>
 8002994:	f444 7480 	orr.w	r4, r4, #256	@ 0x100
 8002998:	e7ba      	b.n	8002910 <HAL_CAN_IRQHandler+0x162>
 800299a:	f044 0408 	orr.w	r4, r4, #8
 800299e:	e7b7      	b.n	8002910 <HAL_CAN_IRQHandler+0x162>
 80029a0:	f044 0410 	orr.w	r4, r4, #16
 80029a4:	e7b4      	b.n	8002910 <HAL_CAN_IRQHandler+0x162>
 80029a6:	f044 0420 	orr.w	r4, r4, #32
 80029aa:	e7b1      	b.n	8002910 <HAL_CAN_IRQHandler+0x162>
 80029ac:	f044 0440 	orr.w	r4, r4, #64	@ 0x40
 80029b0:	e7ae      	b.n	8002910 <HAL_CAN_IRQHandler+0x162>
 80029b2:	f044 0480 	orr.w	r4, r4, #128	@ 0x80
 80029b6:	e7ab      	b.n	8002910 <HAL_CAN_IRQHandler+0x162>

080029b8 <HAL_NVIC_SetPriorityGrouping>:
 80029b8:	4907      	ldr	r1, [pc, #28]	@ (80029d8 <HAL_NVIC_SetPriorityGrouping+0x20>)
 80029ba:	68ca      	ldr	r2, [r1, #12]
 80029bc:	f422 62e0 	bic.w	r2, r2, #1792	@ 0x700
 80029c0:	0203      	lsls	r3, r0, #8
 80029c2:	0412      	lsls	r2, r2, #16
 80029c4:	f403 63e0 	and.w	r3, r3, #1792	@ 0x700
 80029c8:	0c12      	lsrs	r2, r2, #16
 80029ca:	4313      	orrs	r3, r2
 80029cc:	f043 63bf 	orr.w	r3, r3, #100139008	@ 0x5f80000
 80029d0:	f443 3300 	orr.w	r3, r3, #131072	@ 0x20000
 80029d4:	60cb      	str	r3, [r1, #12]
 80029d6:	4770      	bx	lr
 80029d8:	e000ed00 	.word	0xe000ed00

080029dc <HAL_NVIC_SetPriority>:
 80029dc:	4b16      	ldr	r3, [pc, #88]	@ (8002a38 <HAL_NVIC_SetPriority+0x5c>)
 80029de:	b530      	push	{r4, r5, lr}
 80029e0:	68dc      	ldr	r4, [r3, #12]
 80029e2:	f3c4 2402 	ubfx	r4, r4, #8, #3
 80029e6:	f1c4 0307 	rsb	r3, r4, #7
 80029ea:	1d25      	adds	r5, r4, #4
 80029ec:	2b04      	cmp	r3, #4
 80029ee:	bf28      	it	cs
 80029f0:	2304      	movcs	r3, #4
 80029f2:	2d06      	cmp	r5, #6
 80029f4:	f04f 35ff 	mov.w	r5, #4294967295	@ 0xffffffff
 80029f8:	bf8c      	ite	hi
 80029fa:	3c03      	subhi	r4, #3
 80029fc:	2400      	movls	r4, #0
 80029fe:	fa05 f303 	lsl.w	r3, r5, r3
 8002a02:	ea21 0303 	bic.w	r3, r1, r3
 8002a06:	40a5      	lsls	r5, r4
 8002a08:	ea22 0205 	bic.w	r2, r2, r5
 8002a0c:	40a3      	lsls	r3, r4
 8002a0e:	2800      	cmp	r0, #0
 8002a10:	ea43 0302 	orr.w	r3, r3, r2
 8002a14:	bfac      	ite	ge
 8002a16:	f100 4060 	addge.w	r0, r0, #3758096384	@ 0xe0000000
 8002a1a:	4a08      	ldrlt	r2, [pc, #32]	@ (8002a3c <HAL_NVIC_SetPriority+0x60>)
 8002a1c:	ea4f 1303 	mov.w	r3, r3, lsl #4
 8002a20:	bfb8      	it	lt
 8002a22:	f000 000f 	andlt.w	r0, r0, #15
 8002a26:	b2db      	uxtb	r3, r3
 8002a28:	bfaa      	itet	ge
 8002a2a:	f500 4061 	addge.w	r0, r0, #57600	@ 0xe100
 8002a2e:	5413      	strblt	r3, [r2, r0]
 8002a30:	f880 3300 	strbge.w	r3, [r0, #768]	@ 0x300
 8002a34:	bd30      	pop	{r4, r5, pc}
 8002a36:	bf00      	nop
 8002a38:	e000ed00 	.word	0xe000ed00
 8002a3c:	e000ed14 	.word	0xe000ed14

08002a40 <HAL_NVIC_EnableIRQ>:
 8002a40:	2800      	cmp	r0, #0
 8002a42:	db07      	blt.n	8002a54 <HAL_NVIC_EnableIRQ+0x14>
 8002a44:	4a04      	ldr	r2, [pc, #16]	@ (8002a58 <HAL_NVIC_EnableIRQ+0x18>)
 8002a46:	0941      	lsrs	r1, r0, #5
 8002a48:	2301      	movs	r3, #1
 8002a4a:	f000 001f 	and.w	r0, r0, #31
 8002a4e:	4083      	lsls	r3, r0
 8002a50:	f842 3021 	str.w	r3, [r2, r1, lsl #2]
 8002a54:	4770      	bx	lr
 8002a56:	bf00      	nop
 8002a58:	e000e100 	.word	0xe000e100

08002a5c <HAL_SYSTICK_Config>:
 8002a5c:	3801      	subs	r0, #1
 8002a5e:	f1b0 7f80 	cmp.w	r0, #16777216	@ 0x1000000
 8002a62:	d20b      	bcs.n	8002a7c <HAL_SYSTICK_Config+0x20>
 8002a64:	f04f 23e0 	mov.w	r3, #3758153728	@ 0xe000e000
 8002a68:	4a05      	ldr	r2, [pc, #20]	@ (8002a80 <HAL_SYSTICK_Config+0x24>)
 8002a6a:	6158      	str	r0, [r3, #20]
 8002a6c:	21f0      	movs	r1, #240	@ 0xf0
 8002a6e:	f882 1023 	strb.w	r1, [r2, #35]	@ 0x23
 8002a72:	2000      	movs	r0, #0
 8002a74:	2207      	movs	r2, #7
 8002a76:	6198      	str	r0, [r3, #24]
 8002a78:	611a      	str	r2, [r3, #16]
 8002a7a:	4770      	bx	lr
 8002a7c:	2001      	movs	r0, #1
 8002a7e:	4770      	bx	lr
 8002a80:	e000ed00 	.word	0xe000ed00

08002a84 <DMA_CalcBaseAndBitshift>:
 8002a84:	6803      	ldr	r3, [r0, #0]
 8002a86:	b510      	push	{r4, lr}
 8002a88:	4c08      	ldr	r4, [pc, #32]	@ (8002aac <DMA_CalcBaseAndBitshift+0x28>)
 8002a8a:	4602      	mov	r2, r0
 8002a8c:	b2d9      	uxtb	r1, r3
 8002a8e:	3910      	subs	r1, #16
 8002a90:	2018      	movs	r0, #24
 8002a92:	fbb1 f0f0 	udiv	r0, r1, r0
 8002a96:	5c20      	ldrb	r0, [r4, r0]
 8002a98:	65d0      	str	r0, [r2, #92]	@ 0x5c
 8002a9a:	f423 707f 	bic.w	r0, r3, #1020	@ 0x3fc
 8002a9e:	f020 0003 	bic.w	r0, r0, #3
 8002aa2:	295f      	cmp	r1, #95	@ 0x5f
 8002aa4:	bf88      	it	hi
 8002aa6:	3004      	addhi	r0, #4
 8002aa8:	6590      	str	r0, [r2, #88]	@ 0x58
 8002aaa:	bd10      	pop	{r4, pc}
 8002aac:	08005817 	.word	0x08005817

08002ab0 <HAL_DMA_Init>:
 8002ab0:	b570      	push	{r4, r5, r6, lr}
 8002ab2:	4604      	mov	r4, r0
 8002ab4:	f7ff fc50 	bl	8002358 <HAL_GetTick>
 8002ab8:	4605      	mov	r5, r0
 8002aba:	2c00      	cmp	r4, #0
 8002abc:	d060      	beq.n	8002b80 <HAL_DMA_Init+0xd0>
 8002abe:	2302      	movs	r3, #2
 8002ac0:	f884 3035 	strb.w	r3, [r4, #53]	@ 0x35
 8002ac4:	6822      	ldr	r2, [r4, #0]
 8002ac6:	2300      	movs	r3, #0
 8002ac8:	f884 3034 	strb.w	r3, [r4, #52]	@ 0x34
 8002acc:	6813      	ldr	r3, [r2, #0]
 8002ace:	f023 0301 	bic.w	r3, r3, #1
 8002ad2:	6013      	str	r3, [r2, #0]
 8002ad4:	6822      	ldr	r2, [r4, #0]
 8002ad6:	6813      	ldr	r3, [r2, #0]
 8002ad8:	07d8      	lsls	r0, r3, #31
 8002ada:	d42e      	bmi.n	8002b3a <HAL_DMA_Init+0x8a>
 8002adc:	6813      	ldr	r3, [r2, #0]
 8002ade:	4832      	ldr	r0, [pc, #200]	@ (8002ba8 <HAL_DMA_Init+0xf8>)
 8002ae0:	69a1      	ldr	r1, [r4, #24]
 8002ae2:	4018      	ands	r0, r3
 8002ae4:	e9d4 3501 	ldrd	r3, r5, [r4, #4]
 8002ae8:	432b      	orrs	r3, r5
 8002aea:	68e5      	ldr	r5, [r4, #12]
 8002aec:	432b      	orrs	r3, r5
 8002aee:	6925      	ldr	r5, [r4, #16]
 8002af0:	432b      	orrs	r3, r5
 8002af2:	6965      	ldr	r5, [r4, #20]
 8002af4:	432b      	orrs	r3, r5
 8002af6:	69e5      	ldr	r5, [r4, #28]
 8002af8:	430b      	orrs	r3, r1
 8002afa:	432b      	orrs	r3, r5
 8002afc:	6a25      	ldr	r5, [r4, #32]
 8002afe:	432b      	orrs	r3, r5
 8002b00:	4303      	orrs	r3, r0
 8002b02:	6a60      	ldr	r0, [r4, #36]	@ 0x24
 8002b04:	2804      	cmp	r0, #4
 8002b06:	bf02      	ittt	eq
 8002b08:	e9d4 560b 	ldrdeq	r5, r6, [r4, #44]	@ 0x2c
 8002b0c:	4335      	orreq	r5, r6
 8002b0e:	432b      	orreq	r3, r5
 8002b10:	6013      	str	r3, [r2, #0]
 8002b12:	6953      	ldr	r3, [r2, #20]
 8002b14:	2804      	cmp	r0, #4
 8002b16:	f023 0307 	bic.w	r3, r3, #7
 8002b1a:	ea43 0300 	orr.w	r3, r3, r0
 8002b1e:	d135      	bne.n	8002b8c <HAL_DMA_Init+0xdc>
 8002b20:	6aa0      	ldr	r0, [r4, #40]	@ 0x28
 8002b22:	6ae5      	ldr	r5, [r4, #44]	@ 0x2c
 8002b24:	4303      	orrs	r3, r0
 8002b26:	b38d      	cbz	r5, 8002b8c <HAL_DMA_Init+0xdc>
 8002b28:	b991      	cbnz	r1, 8002b50 <HAL_DMA_Init+0xa0>
 8002b2a:	2801      	cmp	r0, #1
 8002b2c:	d020      	beq.n	8002b70 <HAL_DMA_Init+0xc0>
 8002b2e:	f030 0102 	bics.w	r1, r0, #2
 8002b32:	d12b      	bne.n	8002b8c <HAL_DMA_Init+0xdc>
 8002b34:	01e9      	lsls	r1, r5, #7
 8002b36:	d529      	bpl.n	8002b8c <HAL_DMA_Init+0xdc>
 8002b38:	e01d      	b.n	8002b76 <HAL_DMA_Init+0xc6>
 8002b3a:	f7ff fc0d 	bl	8002358 <HAL_GetTick>
 8002b3e:	1b40      	subs	r0, r0, r5
 8002b40:	2805      	cmp	r0, #5
 8002b42:	d9c7      	bls.n	8002ad4 <HAL_DMA_Init+0x24>
 8002b44:	2320      	movs	r3, #32
 8002b46:	2003      	movs	r0, #3
 8002b48:	6563      	str	r3, [r4, #84]	@ 0x54
 8002b4a:	f884 0035 	strb.w	r0, [r4, #53]	@ 0x35
 8002b4e:	bd70      	pop	{r4, r5, r6, pc}
 8002b50:	f5b1 5f00 	cmp.w	r1, #8192	@ 0x2000
 8002b54:	d116      	bne.n	8002b84 <HAL_DMA_Init+0xd4>
 8002b56:	2803      	cmp	r0, #3
 8002b58:	d818      	bhi.n	8002b8c <HAL_DMA_Init+0xdc>
 8002b5a:	a101      	add	r1, pc, #4	@ (adr r1, 8002b60 <HAL_DMA_Init+0xb0>)
 8002b5c:	f851 f020 	ldr.w	pc, [r1, r0, lsl #2]
 8002b60:	08002b77 	.word	0x08002b77
 8002b64:	08002b35 	.word	0x08002b35
 8002b68:	08002b77 	.word	0x08002b77
 8002b6c:	08002b71 	.word	0x08002b71
 8002b70:	f1b5 7fc0 	cmp.w	r5, #25165824	@ 0x1800000
 8002b74:	d10a      	bne.n	8002b8c <HAL_DMA_Init+0xdc>
 8002b76:	2340      	movs	r3, #64	@ 0x40
 8002b78:	6563      	str	r3, [r4, #84]	@ 0x54
 8002b7a:	2301      	movs	r3, #1
 8002b7c:	f884 3035 	strb.w	r3, [r4, #53]	@ 0x35
 8002b80:	2001      	movs	r0, #1
 8002b82:	e7e4      	b.n	8002b4e <HAL_DMA_Init+0x9e>
 8002b84:	2802      	cmp	r0, #2
 8002b86:	d9f6      	bls.n	8002b76 <HAL_DMA_Init+0xc6>
 8002b88:	2803      	cmp	r0, #3
 8002b8a:	d0d3      	beq.n	8002b34 <HAL_DMA_Init+0x84>
 8002b8c:	6153      	str	r3, [r2, #20]
 8002b8e:	4620      	mov	r0, r4
 8002b90:	f7ff ff78 	bl	8002a84 <DMA_CalcBaseAndBitshift>
 8002b94:	6de2      	ldr	r2, [r4, #92]	@ 0x5c
 8002b96:	233f      	movs	r3, #63	@ 0x3f
 8002b98:	4093      	lsls	r3, r2
 8002b9a:	6083      	str	r3, [r0, #8]
 8002b9c:	2000      	movs	r0, #0
 8002b9e:	2301      	movs	r3, #1
 8002ba0:	6560      	str	r0, [r4, #84]	@ 0x54
 8002ba2:	f884 3035 	strb.w	r3, [r4, #53]	@ 0x35
 8002ba6:	e7d2      	b.n	8002b4e <HAL_DMA_Init+0x9e>
 8002ba8:	f010803f 	.word	0xf010803f

08002bac <HAL_DMA_Start_IT>:
 8002bac:	b570      	push	{r4, r5, r6, lr}
 8002bae:	f890 4034 	ldrb.w	r4, [r0, #52]	@ 0x34
 8002bb2:	6d86      	ldr	r6, [r0, #88]	@ 0x58
 8002bb4:	2c01      	cmp	r4, #1
 8002bb6:	d030      	beq.n	8002c1a <HAL_DMA_Start_IT+0x6e>
 8002bb8:	2401      	movs	r4, #1
 8002bba:	f880 4034 	strb.w	r4, [r0, #52]	@ 0x34
 8002bbe:	f890 4035 	ldrb.w	r4, [r0, #53]	@ 0x35
 8002bc2:	2c01      	cmp	r4, #1
 8002bc4:	f04f 0400 	mov.w	r4, #0
 8002bc8:	d125      	bne.n	8002c16 <HAL_DMA_Start_IT+0x6a>
 8002bca:	2502      	movs	r5, #2
 8002bcc:	f880 5035 	strb.w	r5, [r0, #53]	@ 0x35
 8002bd0:	6544      	str	r4, [r0, #84]	@ 0x54
 8002bd2:	6804      	ldr	r4, [r0, #0]
 8002bd4:	6825      	ldr	r5, [r4, #0]
 8002bd6:	f425 2580 	bic.w	r5, r5, #262144	@ 0x40000
 8002bda:	6025      	str	r5, [r4, #0]
 8002bdc:	6063      	str	r3, [r4, #4]
 8002bde:	6883      	ldr	r3, [r0, #8]
 8002be0:	2b40      	cmp	r3, #64	@ 0x40
 8002be2:	bf0e      	itee	eq
 8002be4:	60a2      	streq	r2, [r4, #8]
 8002be6:	60a1      	strne	r1, [r4, #8]
 8002be8:	60e2      	strne	r2, [r4, #12]
 8002bea:	6dc2      	ldr	r2, [r0, #92]	@ 0x5c
 8002bec:	bf08      	it	eq
 8002bee:	60e1      	streq	r1, [r4, #12]
 8002bf0:	233f      	movs	r3, #63	@ 0x3f
 8002bf2:	4093      	lsls	r3, r2
 8002bf4:	60b3      	str	r3, [r6, #8]
 8002bf6:	6823      	ldr	r3, [r4, #0]
 8002bf8:	f043 0316 	orr.w	r3, r3, #22
 8002bfc:	6023      	str	r3, [r4, #0]
 8002bfe:	6c03      	ldr	r3, [r0, #64]	@ 0x40
 8002c00:	b11b      	cbz	r3, 8002c0a <HAL_DMA_Start_IT+0x5e>
 8002c02:	6823      	ldr	r3, [r4, #0]
 8002c04:	f043 0308 	orr.w	r3, r3, #8
 8002c08:	6023      	str	r3, [r4, #0]
 8002c0a:	6823      	ldr	r3, [r4, #0]
 8002c0c:	f043 0301 	orr.w	r3, r3, #1
 8002c10:	6023      	str	r3, [r4, #0]
 8002c12:	2000      	movs	r0, #0
 8002c14:	bd70      	pop	{r4, r5, r6, pc}
 8002c16:	f880 4034 	strb.w	r4, [r0, #52]	@ 0x34
 8002c1a:	2002      	movs	r0, #2
 8002c1c:	e7fa      	b.n	8002c14 <HAL_DMA_Start_IT+0x68>

08002c1e <HAL_DMA_Abort>:
 8002c1e:	b570      	push	{r4, r5, r6, lr}
 8002c20:	4604      	mov	r4, r0
 8002c22:	6d86      	ldr	r6, [r0, #88]	@ 0x58
 8002c24:	f7ff fb98 	bl	8002358 <HAL_GetTick>
 8002c28:	f894 3035 	ldrb.w	r3, [r4, #53]	@ 0x35
 8002c2c:	2b02      	cmp	r3, #2
 8002c2e:	4605      	mov	r5, r0
 8002c30:	d006      	beq.n	8002c40 <HAL_DMA_Abort+0x22>
 8002c32:	2380      	movs	r3, #128	@ 0x80
 8002c34:	6563      	str	r3, [r4, #84]	@ 0x54
 8002c36:	2001      	movs	r0, #1
 8002c38:	2300      	movs	r3, #0
 8002c3a:	f884 3034 	strb.w	r3, [r4, #52]	@ 0x34
 8002c3e:	bd70      	pop	{r4, r5, r6, pc}
 8002c40:	6823      	ldr	r3, [r4, #0]
 8002c42:	681a      	ldr	r2, [r3, #0]
 8002c44:	f022 0216 	bic.w	r2, r2, #22
 8002c48:	601a      	str	r2, [r3, #0]
 8002c4a:	695a      	ldr	r2, [r3, #20]
 8002c4c:	f022 0280 	bic.w	r2, r2, #128	@ 0x80
 8002c50:	615a      	str	r2, [r3, #20]
 8002c52:	6c22      	ldr	r2, [r4, #64]	@ 0x40
 8002c54:	b90a      	cbnz	r2, 8002c5a <HAL_DMA_Abort+0x3c>
 8002c56:	6ca2      	ldr	r2, [r4, #72]	@ 0x48
 8002c58:	b11a      	cbz	r2, 8002c62 <HAL_DMA_Abort+0x44>
 8002c5a:	681a      	ldr	r2, [r3, #0]
 8002c5c:	f022 0208 	bic.w	r2, r2, #8
 8002c60:	601a      	str	r2, [r3, #0]
 8002c62:	681a      	ldr	r2, [r3, #0]
 8002c64:	f022 0201 	bic.w	r2, r2, #1
 8002c68:	601a      	str	r2, [r3, #0]
 8002c6a:	6823      	ldr	r3, [r4, #0]
 8002c6c:	6818      	ldr	r0, [r3, #0]
 8002c6e:	f010 0001 	ands.w	r0, r0, #1
 8002c72:	d107      	bne.n	8002c84 <HAL_DMA_Abort+0x66>
 8002c74:	6de2      	ldr	r2, [r4, #92]	@ 0x5c
 8002c76:	233f      	movs	r3, #63	@ 0x3f
 8002c78:	4093      	lsls	r3, r2
 8002c7a:	60b3      	str	r3, [r6, #8]
 8002c7c:	2301      	movs	r3, #1
 8002c7e:	f884 3035 	strb.w	r3, [r4, #53]	@ 0x35
 8002c82:	e7d9      	b.n	8002c38 <HAL_DMA_Abort+0x1a>
 8002c84:	f7ff fb68 	bl	8002358 <HAL_GetTick>
 8002c88:	1b40      	subs	r0, r0, r5
 8002c8a:	2805      	cmp	r0, #5
 8002c8c:	d9ed      	bls.n	8002c6a <HAL_DMA_Abort+0x4c>
 8002c8e:	2320      	movs	r3, #32
 8002c90:	2003      	movs	r0, #3
 8002c92:	6563      	str	r3, [r4, #84]	@ 0x54
 8002c94:	f884 0035 	strb.w	r0, [r4, #53]	@ 0x35
 8002c98:	e7ce      	b.n	8002c38 <HAL_DMA_Abort+0x1a>

08002c9a <HAL_DMA_Abort_IT>:
 8002c9a:	f890 3035 	ldrb.w	r3, [r0, #53]	@ 0x35
 8002c9e:	2b02      	cmp	r3, #2
 8002ca0:	d003      	beq.n	8002caa <HAL_DMA_Abort_IT+0x10>
 8002ca2:	2380      	movs	r3, #128	@ 0x80
 8002ca4:	6543      	str	r3, [r0, #84]	@ 0x54
 8002ca6:	2001      	movs	r0, #1
 8002ca8:	4770      	bx	lr
 8002caa:	6802      	ldr	r2, [r0, #0]
 8002cac:	2305      	movs	r3, #5
 8002cae:	f880 3035 	strb.w	r3, [r0, #53]	@ 0x35
 8002cb2:	6813      	ldr	r3, [r2, #0]
 8002cb4:	f023 0301 	bic.w	r3, r3, #1
 8002cb8:	6013      	str	r3, [r2, #0]
 8002cba:	2000      	movs	r0, #0
 8002cbc:	4770      	bx	lr
	...

08002cc0 <HAL_DMA_IRQHandler>:
 8002cc0:	b5f7      	push	{r0, r1, r2, r4, r5, r6, r7, lr}
 8002cc2:	2300      	movs	r3, #0
 8002cc4:	9301      	str	r3, [sp, #4]
 8002cc6:	4b5c      	ldr	r3, [pc, #368]	@ (8002e38 <HAL_DMA_IRQHandler+0x178>)
 8002cc8:	6d85      	ldr	r5, [r0, #88]	@ 0x58
 8002cca:	681f      	ldr	r7, [r3, #0]
 8002ccc:	6dc3      	ldr	r3, [r0, #92]	@ 0x5c
 8002cce:	682e      	ldr	r6, [r5, #0]
 8002cd0:	2208      	movs	r2, #8
 8002cd2:	409a      	lsls	r2, r3
 8002cd4:	4232      	tst	r2, r6
 8002cd6:	4604      	mov	r4, r0
 8002cd8:	d00c      	beq.n	8002cf4 <HAL_DMA_IRQHandler+0x34>
 8002cda:	6801      	ldr	r1, [r0, #0]
 8002cdc:	6808      	ldr	r0, [r1, #0]
 8002cde:	0740      	lsls	r0, r0, #29
 8002ce0:	d508      	bpl.n	8002cf4 <HAL_DMA_IRQHandler+0x34>
 8002ce2:	6808      	ldr	r0, [r1, #0]
 8002ce4:	f020 0004 	bic.w	r0, r0, #4
 8002ce8:	6008      	str	r0, [r1, #0]
 8002cea:	60aa      	str	r2, [r5, #8]
 8002cec:	6d62      	ldr	r2, [r4, #84]	@ 0x54
 8002cee:	f042 0201 	orr.w	r2, r2, #1
 8002cf2:	6562      	str	r2, [r4, #84]	@ 0x54
 8002cf4:	2201      	movs	r2, #1
 8002cf6:	409a      	lsls	r2, r3
 8002cf8:	4232      	tst	r2, r6
 8002cfa:	d008      	beq.n	8002d0e <HAL_DMA_IRQHandler+0x4e>
 8002cfc:	6821      	ldr	r1, [r4, #0]
 8002cfe:	6949      	ldr	r1, [r1, #20]
 8002d00:	0609      	lsls	r1, r1, #24
 8002d02:	bf41      	itttt	mi
 8002d04:	60aa      	strmi	r2, [r5, #8]
 8002d06:	6d62      	ldrmi	r2, [r4, #84]	@ 0x54
 8002d08:	f042 0202 	orrmi.w	r2, r2, #2
 8002d0c:	6562      	strmi	r2, [r4, #84]	@ 0x54
 8002d0e:	2204      	movs	r2, #4
 8002d10:	409a      	lsls	r2, r3
 8002d12:	4232      	tst	r2, r6
 8002d14:	d008      	beq.n	8002d28 <HAL_DMA_IRQHandler+0x68>
 8002d16:	6821      	ldr	r1, [r4, #0]
 8002d18:	6809      	ldr	r1, [r1, #0]
 8002d1a:	0788      	lsls	r0, r1, #30
 8002d1c:	bf41      	itttt	mi
 8002d1e:	60aa      	strmi	r2, [r5, #8]
 8002d20:	6d62      	ldrmi	r2, [r4, #84]	@ 0x54
 8002d22:	f042 0204 	orrmi.w	r2, r2, #4
 8002d26:	6562      	strmi	r2, [r4, #84]	@ 0x54
 8002d28:	2210      	movs	r2, #16
 8002d2a:	409a      	lsls	r2, r3
 8002d2c:	4232      	tst	r2, r6
 8002d2e:	d010      	beq.n	8002d52 <HAL_DMA_IRQHandler+0x92>
 8002d30:	6823      	ldr	r3, [r4, #0]
 8002d32:	6819      	ldr	r1, [r3, #0]
 8002d34:	0709      	lsls	r1, r1, #28
 8002d36:	d50c      	bpl.n	8002d52 <HAL_DMA_IRQHandler+0x92>
 8002d38:	60aa      	str	r2, [r5, #8]
 8002d3a:	681a      	ldr	r2, [r3, #0]
 8002d3c:	0350      	lsls	r0, r2, #13
 8002d3e:	d537      	bpl.n	8002db0 <HAL_DMA_IRQHandler+0xf0>
 8002d40:	681b      	ldr	r3, [r3, #0]
 8002d42:	0319      	lsls	r1, r3, #12
 8002d44:	d401      	bmi.n	8002d4a <HAL_DMA_IRQHandler+0x8a>
 8002d46:	6c23      	ldr	r3, [r4, #64]	@ 0x40
 8002d48:	e000      	b.n	8002d4c <HAL_DMA_IRQHandler+0x8c>
 8002d4a:	6ca3      	ldr	r3, [r4, #72]	@ 0x48
 8002d4c:	b10b      	cbz	r3, 8002d52 <HAL_DMA_IRQHandler+0x92>
 8002d4e:	4620      	mov	r0, r4
 8002d50:	4798      	blx	r3
 8002d52:	6de1      	ldr	r1, [r4, #92]	@ 0x5c
 8002d54:	2220      	movs	r2, #32
 8002d56:	408a      	lsls	r2, r1
 8002d58:	4232      	tst	r2, r6
 8002d5a:	d03a      	beq.n	8002dd2 <HAL_DMA_IRQHandler+0x112>
 8002d5c:	6823      	ldr	r3, [r4, #0]
 8002d5e:	6818      	ldr	r0, [r3, #0]
 8002d60:	06c6      	lsls	r6, r0, #27
 8002d62:	d536      	bpl.n	8002dd2 <HAL_DMA_IRQHandler+0x112>
 8002d64:	60aa      	str	r2, [r5, #8]
 8002d66:	f894 2035 	ldrb.w	r2, [r4, #53]	@ 0x35
 8002d6a:	2a05      	cmp	r2, #5
 8002d6c:	681a      	ldr	r2, [r3, #0]
 8002d6e:	d127      	bne.n	8002dc0 <HAL_DMA_IRQHandler+0x100>
 8002d70:	f022 0216 	bic.w	r2, r2, #22
 8002d74:	601a      	str	r2, [r3, #0]
 8002d76:	695a      	ldr	r2, [r3, #20]
 8002d78:	f022 0280 	bic.w	r2, r2, #128	@ 0x80
 8002d7c:	615a      	str	r2, [r3, #20]
 8002d7e:	6c22      	ldr	r2, [r4, #64]	@ 0x40
 8002d80:	b90a      	cbnz	r2, 8002d86 <HAL_DMA_IRQHandler+0xc6>
 8002d82:	6ca2      	ldr	r2, [r4, #72]	@ 0x48
 8002d84:	b11a      	cbz	r2, 8002d8e <HAL_DMA_IRQHandler+0xce>
 8002d86:	681a      	ldr	r2, [r3, #0]
 8002d88:	f022 0208 	bic.w	r2, r2, #8
 8002d8c:	601a      	str	r2, [r3, #0]
 8002d8e:	233f      	movs	r3, #63	@ 0x3f
 8002d90:	408b      	lsls	r3, r1
 8002d92:	60ab      	str	r3, [r5, #8]
 8002d94:	2301      	movs	r3, #1
 8002d96:	f884 3035 	strb.w	r3, [r4, #53]	@ 0x35
 8002d9a:	2300      	movs	r3, #0
 8002d9c:	f884 3034 	strb.w	r3, [r4, #52]	@ 0x34
 8002da0:	6d23      	ldr	r3, [r4, #80]	@ 0x50
 8002da2:	2b00      	cmp	r3, #0
 8002da4:	d045      	beq.n	8002e32 <HAL_DMA_IRQHandler+0x172>
 8002da6:	4620      	mov	r0, r4
 8002da8:	b003      	add	sp, #12
 8002daa:	e8bd 40f0 	ldmia.w	sp!, {r4, r5, r6, r7, lr}
 8002dae:	4718      	bx	r3
 8002db0:	681a      	ldr	r2, [r3, #0]
 8002db2:	05d2      	lsls	r2, r2, #23
 8002db4:	bf5e      	ittt	pl
 8002db6:	681a      	ldrpl	r2, [r3, #0]
 8002db8:	f022 0208 	bicpl.w	r2, r2, #8
 8002dbc:	601a      	strpl	r2, [r3, #0]
 8002dbe:	e7c2      	b.n	8002d46 <HAL_DMA_IRQHandler+0x86>
 8002dc0:	0350      	lsls	r0, r2, #13
 8002dc2:	d527      	bpl.n	8002e14 <HAL_DMA_IRQHandler+0x154>
 8002dc4:	681b      	ldr	r3, [r3, #0]
 8002dc6:	0319      	lsls	r1, r3, #12
 8002dc8:	d431      	bmi.n	8002e2e <HAL_DMA_IRQHandler+0x16e>
 8002dca:	6c63      	ldr	r3, [r4, #68]	@ 0x44
 8002dcc:	b10b      	cbz	r3, 8002dd2 <HAL_DMA_IRQHandler+0x112>
 8002dce:	4620      	mov	r0, r4
 8002dd0:	4798      	blx	r3
 8002dd2:	6d63      	ldr	r3, [r4, #84]	@ 0x54
 8002dd4:	b36b      	cbz	r3, 8002e32 <HAL_DMA_IRQHandler+0x172>
 8002dd6:	6d63      	ldr	r3, [r4, #84]	@ 0x54
 8002dd8:	07da      	lsls	r2, r3, #31
 8002dda:	d519      	bpl.n	8002e10 <HAL_DMA_IRQHandler+0x150>
 8002ddc:	6822      	ldr	r2, [r4, #0]
 8002dde:	f44f 5316 	mov.w	r3, #9600	@ 0x2580
 8002de2:	fbb7 f7f3 	udiv	r7, r7, r3
 8002de6:	2305      	movs	r3, #5
 8002de8:	f884 3035 	strb.w	r3, [r4, #53]	@ 0x35
 8002dec:	6813      	ldr	r3, [r2, #0]
 8002dee:	f023 0301 	bic.w	r3, r3, #1
 8002df2:	6013      	str	r3, [r2, #0]
 8002df4:	9b01      	ldr	r3, [sp, #4]
 8002df6:	3301      	adds	r3, #1
 8002df8:	42bb      	cmp	r3, r7
 8002dfa:	9301      	str	r3, [sp, #4]
 8002dfc:	d802      	bhi.n	8002e04 <HAL_DMA_IRQHandler+0x144>
 8002dfe:	6813      	ldr	r3, [r2, #0]
 8002e00:	07db      	lsls	r3, r3, #31
 8002e02:	d4f7      	bmi.n	8002df4 <HAL_DMA_IRQHandler+0x134>
 8002e04:	2301      	movs	r3, #1
 8002e06:	f884 3035 	strb.w	r3, [r4, #53]	@ 0x35
 8002e0a:	2300      	movs	r3, #0
 8002e0c:	f884 3034 	strb.w	r3, [r4, #52]	@ 0x34
 8002e10:	6ce3      	ldr	r3, [r4, #76]	@ 0x4c
 8002e12:	e7c6      	b.n	8002da2 <HAL_DMA_IRQHandler+0xe2>
 8002e14:	681a      	ldr	r2, [r3, #0]
 8002e16:	f412 7280 	ands.w	r2, r2, #256	@ 0x100
 8002e1a:	d108      	bne.n	8002e2e <HAL_DMA_IRQHandler+0x16e>
 8002e1c:	6819      	ldr	r1, [r3, #0]
 8002e1e:	f021 0110 	bic.w	r1, r1, #16
 8002e22:	6019      	str	r1, [r3, #0]
 8002e24:	2301      	movs	r3, #1
 8002e26:	f884 3035 	strb.w	r3, [r4, #53]	@ 0x35
 8002e2a:	f884 2034 	strb.w	r2, [r4, #52]	@ 0x34
 8002e2e:	6be3      	ldr	r3, [r4, #60]	@ 0x3c
 8002e30:	e7cc      	b.n	8002dcc <HAL_DMA_IRQHandler+0x10c>
 8002e32:	b003      	add	sp, #12
 8002e34:	bdf0      	pop	{r4, r5, r6, r7, pc}
 8002e36:	bf00      	nop
 8002e38:	2000001c 	.word	0x2000001c

08002e3c <HAL_GPIO_Init>:
 8002e3c:	e92d 4ff7 	stmdb	sp!, {r0, r1, r2, r4, r5, r6, r7, r8, r9, sl, fp, lr}
 8002e40:	f8df 91bc 	ldr.w	r9, [pc, #444]	@ 8003000 <HAL_GPIO_Init+0x1c4>
 8002e44:	4a6c      	ldr	r2, [pc, #432]	@ (8002ff8 <HAL_GPIO_Init+0x1bc>)
 8002e46:	2300      	movs	r3, #0
 8002e48:	680d      	ldr	r5, [r1, #0]
 8002e4a:	2401      	movs	r4, #1
 8002e4c:	409c      	lsls	r4, r3
 8002e4e:	ea04 0605 	and.w	r6, r4, r5
 8002e52:	43ac      	bics	r4, r5
 8002e54:	f040 80b7 	bne.w	8002fc6 <HAL_GPIO_Init+0x18a>
 8002e58:	684d      	ldr	r5, [r1, #4]
 8002e5a:	2703      	movs	r7, #3
 8002e5c:	f005 0403 	and.w	r4, r5, #3
 8002e60:	ea4f 0843 	mov.w	r8, r3, lsl #1
 8002e64:	fa07 fc08 	lsl.w	ip, r7, r8
 8002e68:	1e67      	subs	r7, r4, #1
 8002e6a:	2f01      	cmp	r7, #1
 8002e6c:	ea6f 0c0c 	mvn.w	ip, ip
 8002e70:	d834      	bhi.n	8002edc <HAL_GPIO_Init+0xa0>
 8002e72:	6887      	ldr	r7, [r0, #8]
 8002e74:	ea07 0e0c 	and.w	lr, r7, ip
 8002e78:	68cf      	ldr	r7, [r1, #12]
 8002e7a:	fa07 f708 	lsl.w	r7, r7, r8
 8002e7e:	ea47 070e 	orr.w	r7, r7, lr
 8002e82:	6087      	str	r7, [r0, #8]
 8002e84:	6847      	ldr	r7, [r0, #4]
 8002e86:	ea27 0e06 	bic.w	lr, r7, r6
 8002e8a:	f3c5 1700 	ubfx	r7, r5, #4, #1
 8002e8e:	409f      	lsls	r7, r3
 8002e90:	ea47 070e 	orr.w	r7, r7, lr
 8002e94:	6047      	str	r7, [r0, #4]
 8002e96:	68c7      	ldr	r7, [r0, #12]
 8002e98:	ea07 0e0c 	and.w	lr, r7, ip
 8002e9c:	688f      	ldr	r7, [r1, #8]
 8002e9e:	fa07 f708 	lsl.w	r7, r7, r8
 8002ea2:	ea47 070e 	orr.w	r7, r7, lr
 8002ea6:	2c02      	cmp	r4, #2
 8002ea8:	60c7      	str	r7, [r0, #12]
 8002eaa:	d119      	bne.n	8002ee0 <HAL_GPIO_Init+0xa4>
 8002eac:	ea4f 0ad3 	mov.w	sl, r3, lsr #3
 8002eb0:	eb00 0a8a 	add.w	sl, r0, sl, lsl #2
 8002eb4:	f003 0b07 	and.w	fp, r3, #7
 8002eb8:	f8da 7020 	ldr.w	r7, [sl, #32]
 8002ebc:	ea4f 0b8b 	mov.w	fp, fp, lsl #2
 8002ec0:	f04f 0e0f 	mov.w	lr, #15
 8002ec4:	fa0e fe0b 	lsl.w	lr, lr, fp
 8002ec8:	ea27 0e0e 	bic.w	lr, r7, lr
 8002ecc:	690f      	ldr	r7, [r1, #16]
 8002ece:	fa07 f70b 	lsl.w	r7, r7, fp
 8002ed2:	ea47 070e 	orr.w	r7, r7, lr
 8002ed6:	f8ca 7020 	str.w	r7, [sl, #32]
 8002eda:	e001      	b.n	8002ee0 <HAL_GPIO_Init+0xa4>
 8002edc:	2c03      	cmp	r4, #3
 8002ede:	d1da      	bne.n	8002e96 <HAL_GPIO_Init+0x5a>
 8002ee0:	6807      	ldr	r7, [r0, #0]
 8002ee2:	fa04 f408 	lsl.w	r4, r4, r8
 8002ee6:	ea07 070c 	and.w	r7, r7, ip
 8002eea:	433c      	orrs	r4, r7
 8002eec:	f415 3f40 	tst.w	r5, #196608	@ 0x30000
 8002ef0:	6004      	str	r4, [r0, #0]
 8002ef2:	d068      	beq.n	8002fc6 <HAL_GPIO_Init+0x18a>
 8002ef4:	2400      	movs	r4, #0
 8002ef6:	9401      	str	r4, [sp, #4]
 8002ef8:	f8d9 4044 	ldr.w	r4, [r9, #68]	@ 0x44
 8002efc:	f444 4480 	orr.w	r4, r4, #16384	@ 0x4000
 8002f00:	f8c9 4044 	str.w	r4, [r9, #68]	@ 0x44
 8002f04:	f8d9 4044 	ldr.w	r4, [r9, #68]	@ 0x44
 8002f08:	f023 0703 	bic.w	r7, r3, #3
 8002f0c:	f107 4780 	add.w	r7, r7, #1073741824	@ 0x40000000
 8002f10:	f404 4480 	and.w	r4, r4, #16384	@ 0x4000
 8002f14:	f507 379c 	add.w	r7, r7, #79872	@ 0x13800
 8002f18:	9401      	str	r4, [sp, #4]
 8002f1a:	f003 0c03 	and.w	ip, r3, #3
 8002f1e:	9c01      	ldr	r4, [sp, #4]
 8002f20:	f8d7 e008 	ldr.w	lr, [r7, #8]
 8002f24:	ea4f 0c8c 	mov.w	ip, ip, lsl #2
 8002f28:	240f      	movs	r4, #15
 8002f2a:	fa04 f40c 	lsl.w	r4, r4, ip
 8002f2e:	ea2e 0e04 	bic.w	lr, lr, r4
 8002f32:	4c32      	ldr	r4, [pc, #200]	@ (8002ffc <HAL_GPIO_Init+0x1c0>)
 8002f34:	42a0      	cmp	r0, r4
 8002f36:	d04d      	beq.n	8002fd4 <HAL_GPIO_Init+0x198>
 8002f38:	f504 6480 	add.w	r4, r4, #1024	@ 0x400
 8002f3c:	42a0      	cmp	r0, r4
 8002f3e:	d04b      	beq.n	8002fd8 <HAL_GPIO_Init+0x19c>
 8002f40:	f504 6480 	add.w	r4, r4, #1024	@ 0x400
 8002f44:	42a0      	cmp	r0, r4
 8002f46:	d049      	beq.n	8002fdc <HAL_GPIO_Init+0x1a0>
 8002f48:	f504 6480 	add.w	r4, r4, #1024	@ 0x400
 8002f4c:	42a0      	cmp	r0, r4
 8002f4e:	d047      	beq.n	8002fe0 <HAL_GPIO_Init+0x1a4>
 8002f50:	f504 6480 	add.w	r4, r4, #1024	@ 0x400
 8002f54:	42a0      	cmp	r0, r4
 8002f56:	d045      	beq.n	8002fe4 <HAL_GPIO_Init+0x1a8>
 8002f58:	f504 6480 	add.w	r4, r4, #1024	@ 0x400
 8002f5c:	42a0      	cmp	r0, r4
 8002f5e:	d043      	beq.n	8002fe8 <HAL_GPIO_Init+0x1ac>
 8002f60:	f504 6480 	add.w	r4, r4, #1024	@ 0x400
 8002f64:	42a0      	cmp	r0, r4
 8002f66:	d041      	beq.n	8002fec <HAL_GPIO_Init+0x1b0>
 8002f68:	f504 6480 	add.w	r4, r4, #1024	@ 0x400
 8002f6c:	42a0      	cmp	r0, r4
 8002f6e:	d03f      	beq.n	8002ff0 <HAL_GPIO_Init+0x1b4>
 8002f70:	f504 6480 	add.w	r4, r4, #1024	@ 0x400
 8002f74:	42a0      	cmp	r0, r4
 8002f76:	d03d      	beq.n	8002ff4 <HAL_GPIO_Init+0x1b8>
 8002f78:	f504 6480 	add.w	r4, r4, #1024	@ 0x400
 8002f7c:	42a0      	cmp	r0, r4
 8002f7e:	bf14      	ite	ne
 8002f80:	240a      	movne	r4, #10
 8002f82:	2409      	moveq	r4, #9
 8002f84:	fa04 f40c 	lsl.w	r4, r4, ip
 8002f88:	ea44 040e 	orr.w	r4, r4, lr
 8002f8c:	60bc      	str	r4, [r7, #8]
 8002f8e:	6894      	ldr	r4, [r2, #8]
 8002f90:	43f7      	mvns	r7, r6
 8002f92:	f415 1f80 	tst.w	r5, #1048576	@ 0x100000
 8002f96:	bf0c      	ite	eq
 8002f98:	403c      	andeq	r4, r7
 8002f9a:	4334      	orrne	r4, r6
 8002f9c:	6094      	str	r4, [r2, #8]
 8002f9e:	68d4      	ldr	r4, [r2, #12]
 8002fa0:	f415 1f00 	tst.w	r5, #2097152	@ 0x200000
 8002fa4:	bf0c      	ite	eq
 8002fa6:	403c      	andeq	r4, r7
 8002fa8:	4334      	orrne	r4, r6
 8002faa:	60d4      	str	r4, [r2, #12]
 8002fac:	6854      	ldr	r4, [r2, #4]
 8002fae:	f415 3f00 	tst.w	r5, #131072	@ 0x20000
 8002fb2:	bf0c      	ite	eq
 8002fb4:	403c      	andeq	r4, r7
 8002fb6:	4334      	orrne	r4, r6
 8002fb8:	6054      	str	r4, [r2, #4]
 8002fba:	6814      	ldr	r4, [r2, #0]
 8002fbc:	03ed      	lsls	r5, r5, #15
 8002fbe:	bf54      	ite	pl
 8002fc0:	403c      	andpl	r4, r7
 8002fc2:	4334      	orrmi	r4, r6
 8002fc4:	6014      	str	r4, [r2, #0]
 8002fc6:	3301      	adds	r3, #1
 8002fc8:	2b10      	cmp	r3, #16
 8002fca:	f47f af3d 	bne.w	8002e48 <HAL_GPIO_Init+0xc>
 8002fce:	b003      	add	sp, #12
 8002fd0:	e8bd 8ff0 	ldmia.w	sp!, {r4, r5, r6, r7, r8, r9, sl, fp, pc}
 8002fd4:	2400      	movs	r4, #0
 8002fd6:	e7d5      	b.n	8002f84 <HAL_GPIO_Init+0x148>
 8002fd8:	2401      	movs	r4, #1
 8002fda:	e7d3      	b.n	8002f84 <HAL_GPIO_Init+0x148>
 8002fdc:	2402      	movs	r4, #2
 8002fde:	e7d1      	b.n	8002f84 <HAL_GPIO_Init+0x148>
 8002fe0:	2403      	movs	r4, #3
 8002fe2:	e7cf      	b.n	8002f84 <HAL_GPIO_Init+0x148>
 8002fe4:	2404      	movs	r4, #4
 8002fe6:	e7cd      	b.n	8002f84 <HAL_GPIO_Init+0x148>
 8002fe8:	2405      	movs	r4, #5
 8002fea:	e7cb      	b.n	8002f84 <HAL_GPIO_Init+0x148>
 8002fec:	2406      	movs	r4, #6
 8002fee:	e7c9      	b.n	8002f84 <HAL_GPIO_Init+0x148>
 8002ff0:	2407      	movs	r4, #7
 8002ff2:	e7c7      	b.n	8002f84 <HAL_GPIO_Init+0x148>
 8002ff4:	2408      	movs	r4, #8
 8002ff6:	e7c5      	b.n	8002f84 <HAL_GPIO_Init+0x148>
 8002ff8:	40013c00 	.word	0x40013c00
 8002ffc:	40020000 	.word	0x40020000
 8003000:	40023800 	.word	0x40023800

08003004 <HAL_GPIO_DeInit>:
 8003004:	e92d 4ff0 	stmdb	sp!, {r4, r5, r6, r7, r8, r9, sl, fp, lr}
 8003008:	4c49      	ldr	r4, [pc, #292]	@ (8003130 <HAL_GPIO_DeInit+0x12c>)
 800300a:	2200      	movs	r2, #0
 800300c:	f04f 0a01 	mov.w	sl, #1
 8003010:	f04f 080f 	mov.w	r8, #15
 8003014:	f04f 0b03 	mov.w	fp, #3
 8003018:	fa0a fc02 	lsl.w	ip, sl, r2
 800301c:	ea3c 0301 	bics.w	r3, ip, r1
 8003020:	ea0c 0601 	and.w	r6, ip, r1
 8003024:	d16c      	bne.n	8003100 <HAL_GPIO_DeInit+0xfc>
 8003026:	f022 0503 	bic.w	r5, r2, #3
 800302a:	f105 4580 	add.w	r5, r5, #1073741824	@ 0x40000000
 800302e:	f505 359c 	add.w	r5, r5, #79872	@ 0x13800
 8003032:	f002 0703 	and.w	r7, r2, #3
 8003036:	68ab      	ldr	r3, [r5, #8]
 8003038:	00bf      	lsls	r7, r7, #2
 800303a:	fa08 f907 	lsl.w	r9, r8, r7
 800303e:	ea09 0e03 	and.w	lr, r9, r3
 8003042:	4b3c      	ldr	r3, [pc, #240]	@ (8003134 <HAL_GPIO_DeInit+0x130>)
 8003044:	4298      	cmp	r0, r3
 8003046:	d060      	beq.n	800310a <HAL_GPIO_DeInit+0x106>
 8003048:	f503 6380 	add.w	r3, r3, #1024	@ 0x400
 800304c:	4298      	cmp	r0, r3
 800304e:	d05e      	beq.n	800310e <HAL_GPIO_DeInit+0x10a>
 8003050:	f503 6380 	add.w	r3, r3, #1024	@ 0x400
 8003054:	4298      	cmp	r0, r3
 8003056:	d05c      	beq.n	8003112 <HAL_GPIO_DeInit+0x10e>
 8003058:	f503 6380 	add.w	r3, r3, #1024	@ 0x400
 800305c:	4298      	cmp	r0, r3
 800305e:	d05a      	beq.n	8003116 <HAL_GPIO_DeInit+0x112>
 8003060:	f503 6380 	add.w	r3, r3, #1024	@ 0x400
 8003064:	4298      	cmp	r0, r3
 8003066:	d058      	beq.n	800311a <HAL_GPIO_DeInit+0x116>
 8003068:	f503 6380 	add.w	r3, r3, #1024	@ 0x400
 800306c:	4298      	cmp	r0, r3
 800306e:	d056      	beq.n	800311e <HAL_GPIO_DeInit+0x11a>
 8003070:	f503 6380 	add.w	r3, r3, #1024	@ 0x400
 8003074:	4298      	cmp	r0, r3
 8003076:	d054      	beq.n	8003122 <HAL_GPIO_DeInit+0x11e>
 8003078:	f503 6380 	add.w	r3, r3, #1024	@ 0x400
 800307c:	4298      	cmp	r0, r3
 800307e:	d052      	beq.n	8003126 <HAL_GPIO_DeInit+0x122>
 8003080:	f503 6380 	add.w	r3, r3, #1024	@ 0x400
 8003084:	4298      	cmp	r0, r3
 8003086:	d050      	beq.n	800312a <HAL_GPIO_DeInit+0x126>
 8003088:	f503 6380 	add.w	r3, r3, #1024	@ 0x400
 800308c:	4298      	cmp	r0, r3
 800308e:	bf0c      	ite	eq
 8003090:	2309      	moveq	r3, #9
 8003092:	230a      	movne	r3, #10
 8003094:	40bb      	lsls	r3, r7
 8003096:	4573      	cmp	r3, lr
 8003098:	d113      	bne.n	80030c2 <HAL_GPIO_DeInit+0xbe>
 800309a:	6823      	ldr	r3, [r4, #0]
 800309c:	ea23 0306 	bic.w	r3, r3, r6
 80030a0:	6023      	str	r3, [r4, #0]
 80030a2:	6863      	ldr	r3, [r4, #4]
 80030a4:	ea23 0306 	bic.w	r3, r3, r6
 80030a8:	6063      	str	r3, [r4, #4]
 80030aa:	68e3      	ldr	r3, [r4, #12]
 80030ac:	ea23 0306 	bic.w	r3, r3, r6
 80030b0:	60e3      	str	r3, [r4, #12]
 80030b2:	68a3      	ldr	r3, [r4, #8]
 80030b4:	ea23 0306 	bic.w	r3, r3, r6
 80030b8:	60a3      	str	r3, [r4, #8]
 80030ba:	68ab      	ldr	r3, [r5, #8]
 80030bc:	ea23 0309 	bic.w	r3, r3, r9
 80030c0:	60ab      	str	r3, [r5, #8]
 80030c2:	6805      	ldr	r5, [r0, #0]
 80030c4:	0053      	lsls	r3, r2, #1
 80030c6:	fa0b f303 	lsl.w	r3, fp, r3
 80030ca:	08d6      	lsrs	r6, r2, #3
 80030cc:	ea25 0503 	bic.w	r5, r5, r3
 80030d0:	eb00 0686 	add.w	r6, r0, r6, lsl #2
 80030d4:	6005      	str	r5, [r0, #0]
 80030d6:	f002 0507 	and.w	r5, r2, #7
 80030da:	6a37      	ldr	r7, [r6, #32]
 80030dc:	00ad      	lsls	r5, r5, #2
 80030de:	fa08 f505 	lsl.w	r5, r8, r5
 80030e2:	ea27 0705 	bic.w	r7, r7, r5
 80030e6:	6237      	str	r7, [r6, #32]
 80030e8:	68c5      	ldr	r5, [r0, #12]
 80030ea:	ea25 0503 	bic.w	r5, r5, r3
 80030ee:	60c5      	str	r5, [r0, #12]
 80030f0:	6845      	ldr	r5, [r0, #4]
 80030f2:	ea25 050c 	bic.w	r5, r5, ip
 80030f6:	6045      	str	r5, [r0, #4]
 80030f8:	6885      	ldr	r5, [r0, #8]
 80030fa:	ea25 0303 	bic.w	r3, r5, r3
 80030fe:	6083      	str	r3, [r0, #8]
 8003100:	3201      	adds	r2, #1
 8003102:	2a10      	cmp	r2, #16
 8003104:	d188      	bne.n	8003018 <HAL_GPIO_DeInit+0x14>
 8003106:	e8bd 8ff0 	ldmia.w	sp!, {r4, r5, r6, r7, r8, r9, sl, fp, pc}
 800310a:	2300      	movs	r3, #0
 800310c:	e7c2      	b.n	8003094 <HAL_GPIO_DeInit+0x90>
 800310e:	2301      	movs	r3, #1
 8003110:	e7c0      	b.n	8003094 <HAL_GPIO_DeInit+0x90>
 8003112:	2302      	movs	r3, #2
 8003114:	e7be      	b.n	8003094 <HAL_GPIO_DeInit+0x90>
 8003116:	2303      	movs	r3, #3
 8003118:	e7bc      	b.n	8003094 <HAL_GPIO_DeInit+0x90>
 800311a:	2304      	movs	r3, #4
 800311c:	e7ba      	b.n	8003094 <HAL_GPIO_DeInit+0x90>
 800311e:	2305      	movs	r3, #5
 8003120:	e7b8      	b.n	8003094 <HAL_GPIO_DeInit+0x90>
 8003122:	2306      	movs	r3, #6
 8003124:	e7b6      	b.n	8003094 <HAL_GPIO_DeInit+0x90>
 8003126:	2307      	movs	r3, #7
 8003128:	e7b4      	b.n	8003094 <HAL_GPIO_DeInit+0x90>
 800312a:	2308      	movs	r3, #8
 800312c:	e7b2      	b.n	8003094 <HAL_GPIO_DeInit+0x90>
 800312e:	bf00      	nop
 8003130:	40013c00 	.word	0x40013c00
 8003134:	40020000 	.word	0x40020000

08003138 <HAL_GPIO_ReadPin>:
 8003138:	6903      	ldr	r3, [r0, #16]
 800313a:	4219      	tst	r1, r3
 800313c:	bf14      	ite	ne
 800313e:	2001      	movne	r0, #1
 8003140:	2000      	moveq	r0, #0
 8003142:	4770      	bx	lr

08003144 <HAL_GPIO_WritePin>:
 8003144:	b10a      	cbz	r2, 800314a <HAL_GPIO_WritePin+0x6>
 8003146:	6181      	str	r1, [r0, #24]
 8003148:	4770      	bx	lr
 800314a:	0409      	lsls	r1, r1, #16
 800314c:	e7fb      	b.n	8003146 <HAL_GPIO_WritePin+0x2>

0800314e <HAL_GPIO_TogglePin>:
 800314e:	6943      	ldr	r3, [r0, #20]
 8003150:	ea01 0203 	and.w	r2, r1, r3
 8003154:	ea21 0103 	bic.w	r1, r1, r3
 8003158:	ea41 4102 	orr.w	r1, r1, r2, lsl #16
 800315c:	6181      	str	r1, [r0, #24]
 800315e:	4770      	bx	lr

08003160 <HAL_GPIO_EXTI_IRQHandler>:
 8003160:	4a04      	ldr	r2, [pc, #16]	@ (8003174 <HAL_GPIO_EXTI_IRQHandler+0x14>)
 8003162:	6951      	ldr	r1, [r2, #20]
 8003164:	4201      	tst	r1, r0
 8003166:	b508      	push	{r3, lr}
 8003168:	d002      	beq.n	8003170 <HAL_GPIO_EXTI_IRQHandler+0x10>
 800316a:	6150      	str	r0, [r2, #20]
 800316c:	f7ff f808 	bl	8002180 <HAL_GPIO_EXTI_Callback>
 8003170:	bd08      	pop	{r3, pc}
 8003172:	bf00      	nop
 8003174:	40013c00 	.word	0x40013c00

08003178 <I2C_IsAcknowledgeFailed>:
 8003178:	6801      	ldr	r1, [r0, #0]
 800317a:	694b      	ldr	r3, [r1, #20]
 800317c:	f413 6380 	ands.w	r3, r3, #1024	@ 0x400
 8003180:	f04f 0200 	mov.w	r2, #0
 8003184:	d010      	beq.n	80031a8 <I2C_IsAcknowledgeFailed+0x30>
 8003186:	f46f 6380 	mvn.w	r3, #1024	@ 0x400
 800318a:	614b      	str	r3, [r1, #20]
 800318c:	2320      	movs	r3, #32
 800318e:	6302      	str	r2, [r0, #48]	@ 0x30
 8003190:	f880 303d 	strb.w	r3, [r0, #61]	@ 0x3d
 8003194:	f880 203e 	strb.w	r2, [r0, #62]	@ 0x3e
 8003198:	6c03      	ldr	r3, [r0, #64]	@ 0x40
 800319a:	f880 203c 	strb.w	r2, [r0, #60]	@ 0x3c
 800319e:	f043 0304 	orr.w	r3, r3, #4
 80031a2:	6403      	str	r3, [r0, #64]	@ 0x40
 80031a4:	2001      	movs	r0, #1
 80031a6:	4770      	bx	lr
 80031a8:	4618      	mov	r0, r3
 80031aa:	4770      	bx	lr

080031ac <I2C_WaitOnFlagUntilTimeout>:
 80031ac:	e92d 46f8 	stmdb	sp!, {r3, r4, r5, r6, r7, r9, sl, lr}
 80031b0:	4606      	mov	r6, r0
 80031b2:	460f      	mov	r7, r1
 80031b4:	4691      	mov	r9, r2
 80031b6:	461d      	mov	r5, r3
 80031b8:	ea4f 4a11 	mov.w	sl, r1, lsr #16
 80031bc:	6833      	ldr	r3, [r6, #0]
 80031be:	f1ba 0f01 	cmp.w	sl, #1
 80031c2:	bf0c      	ite	eq
 80031c4:	695c      	ldreq	r4, [r3, #20]
 80031c6:	699c      	ldrne	r4, [r3, #24]
 80031c8:	ea27 0404 	bic.w	r4, r7, r4
 80031cc:	b2a4      	uxth	r4, r4
 80031ce:	fab4 f484 	clz	r4, r4
 80031d2:	0964      	lsrs	r4, r4, #5
 80031d4:	45a1      	cmp	r9, r4
 80031d6:	d001      	beq.n	80031dc <I2C_WaitOnFlagUntilTimeout+0x30>
 80031d8:	2000      	movs	r0, #0
 80031da:	e025      	b.n	8003228 <I2C_WaitOnFlagUntilTimeout+0x7c>
 80031dc:	1c6a      	adds	r2, r5, #1
 80031de:	d0ee      	beq.n	80031be <I2C_WaitOnFlagUntilTimeout+0x12>
 80031e0:	f7ff f8ba 	bl	8002358 <HAL_GetTick>
 80031e4:	9b08      	ldr	r3, [sp, #32]
 80031e6:	1ac0      	subs	r0, r0, r3
 80031e8:	42a8      	cmp	r0, r5
 80031ea:	d801      	bhi.n	80031f0 <I2C_WaitOnFlagUntilTimeout+0x44>
 80031ec:	2d00      	cmp	r5, #0
 80031ee:	d1e5      	bne.n	80031bc <I2C_WaitOnFlagUntilTimeout+0x10>
 80031f0:	6833      	ldr	r3, [r6, #0]
 80031f2:	f1ba 0f01 	cmp.w	sl, #1
 80031f6:	bf0c      	ite	eq
 80031f8:	695b      	ldreq	r3, [r3, #20]
 80031fa:	699b      	ldrne	r3, [r3, #24]
 80031fc:	ea27 0303 	bic.w	r3, r7, r3
 8003200:	b29b      	uxth	r3, r3
 8003202:	fab3 f383 	clz	r3, r3
 8003206:	095b      	lsrs	r3, r3, #5
 8003208:	4599      	cmp	r9, r3
 800320a:	d1d7      	bne.n	80031bc <I2C_WaitOnFlagUntilTimeout+0x10>
 800320c:	2300      	movs	r3, #0
 800320e:	2220      	movs	r2, #32
 8003210:	6333      	str	r3, [r6, #48]	@ 0x30
 8003212:	f886 203d 	strb.w	r2, [r6, #61]	@ 0x3d
 8003216:	f886 303e 	strb.w	r3, [r6, #62]	@ 0x3e
 800321a:	6c32      	ldr	r2, [r6, #64]	@ 0x40
 800321c:	f886 303c 	strb.w	r3, [r6, #60]	@ 0x3c
 8003220:	f042 0220 	orr.w	r2, r2, #32
 8003224:	6432      	str	r2, [r6, #64]	@ 0x40
 8003226:	2001      	movs	r0, #1
 8003228:	e8bd 86f8 	ldmia.w	sp!, {r3, r4, r5, r6, r7, r9, sl, pc}

0800322c <I2C_WaitOnMasterAddressFlagUntilTimeout>:
 800322c:	e92d 41f0 	stmdb	sp!, {r4, r5, r6, r7, r8, lr}
 8003230:	4604      	mov	r4, r0
 8003232:	460f      	mov	r7, r1
 8003234:	4616      	mov	r6, r2
 8003236:	4698      	mov	r8, r3
 8003238:	6825      	ldr	r5, [r4, #0]
 800323a:	6968      	ldr	r0, [r5, #20]
 800323c:	ea27 0000 	bic.w	r0, r7, r0
 8003240:	b280      	uxth	r0, r0
 8003242:	b1c0      	cbz	r0, 8003276 <I2C_WaitOnMasterAddressFlagUntilTimeout+0x4a>
 8003244:	696b      	ldr	r3, [r5, #20]
 8003246:	055a      	lsls	r2, r3, #21
 8003248:	d517      	bpl.n	800327a <I2C_WaitOnMasterAddressFlagUntilTimeout+0x4e>
 800324a:	682b      	ldr	r3, [r5, #0]
 800324c:	f443 7300 	orr.w	r3, r3, #512	@ 0x200
 8003250:	602b      	str	r3, [r5, #0]
 8003252:	f46f 6380 	mvn.w	r3, #1024	@ 0x400
 8003256:	616b      	str	r3, [r5, #20]
 8003258:	2220      	movs	r2, #32
 800325a:	2300      	movs	r3, #0
 800325c:	6323      	str	r3, [r4, #48]	@ 0x30
 800325e:	f884 203d 	strb.w	r2, [r4, #61]	@ 0x3d
 8003262:	f884 303e 	strb.w	r3, [r4, #62]	@ 0x3e
 8003266:	6c23      	ldr	r3, [r4, #64]	@ 0x40
 8003268:	f043 0304 	orr.w	r3, r3, #4
 800326c:	6423      	str	r3, [r4, #64]	@ 0x40
 800326e:	2300      	movs	r3, #0
 8003270:	f884 303c 	strb.w	r3, [r4, #60]	@ 0x3c
 8003274:	2001      	movs	r0, #1
 8003276:	e8bd 81f0 	ldmia.w	sp!, {r4, r5, r6, r7, r8, pc}
 800327a:	1c73      	adds	r3, r6, #1
 800327c:	d0dd      	beq.n	800323a <I2C_WaitOnMasterAddressFlagUntilTimeout+0xe>
 800327e:	f7ff f86b 	bl	8002358 <HAL_GetTick>
 8003282:	eba0 0008 	sub.w	r0, r0, r8
 8003286:	42b0      	cmp	r0, r6
 8003288:	d801      	bhi.n	800328e <I2C_WaitOnMasterAddressFlagUntilTimeout+0x62>
 800328a:	2e00      	cmp	r6, #0
 800328c:	d1d4      	bne.n	8003238 <I2C_WaitOnMasterAddressFlagUntilTimeout+0xc>
 800328e:	6823      	ldr	r3, [r4, #0]
 8003290:	695a      	ldr	r2, [r3, #20]
 8003292:	ea27 0202 	bic.w	r2, r7, r2
 8003296:	b292      	uxth	r2, r2
 8003298:	2a00      	cmp	r2, #0
 800329a:	d0cd      	beq.n	8003238 <I2C_WaitOnMasterAddressFlagUntilTimeout+0xc>
 800329c:	2300      	movs	r3, #0
 800329e:	2220      	movs	r2, #32
 80032a0:	6323      	str	r3, [r4, #48]	@ 0x30
 80032a2:	f884 203d 	strb.w	r2, [r4, #61]	@ 0x3d
 80032a6:	f884 303e 	strb.w	r3, [r4, #62]	@ 0x3e
 80032aa:	6c23      	ldr	r3, [r4, #64]	@ 0x40
 80032ac:	4313      	orrs	r3, r2
 80032ae:	e7dd      	b.n	800326c <I2C_WaitOnMasterAddressFlagUntilTimeout+0x40>

080032b0 <I2C_WaitOnTXEFlagUntilTimeout>:
 80032b0:	b570      	push	{r4, r5, r6, lr}
 80032b2:	4604      	mov	r4, r0
 80032b4:	460d      	mov	r5, r1
 80032b6:	4616      	mov	r6, r2
 80032b8:	6823      	ldr	r3, [r4, #0]
 80032ba:	695b      	ldr	r3, [r3, #20]
 80032bc:	061b      	lsls	r3, r3, #24
 80032be:	d501      	bpl.n	80032c4 <I2C_WaitOnTXEFlagUntilTimeout+0x14>
 80032c0:	2000      	movs	r0, #0
 80032c2:	e01e      	b.n	8003302 <I2C_WaitOnTXEFlagUntilTimeout+0x52>
 80032c4:	4620      	mov	r0, r4
 80032c6:	f7ff ff57 	bl	8003178 <I2C_IsAcknowledgeFailed>
 80032ca:	b9c8      	cbnz	r0, 8003300 <I2C_WaitOnTXEFlagUntilTimeout+0x50>
 80032cc:	1c6a      	adds	r2, r5, #1
 80032ce:	d0f3      	beq.n	80032b8 <I2C_WaitOnTXEFlagUntilTimeout+0x8>
 80032d0:	f7ff f842 	bl	8002358 <HAL_GetTick>
 80032d4:	1b80      	subs	r0, r0, r6
 80032d6:	42a8      	cmp	r0, r5
 80032d8:	d801      	bhi.n	80032de <I2C_WaitOnTXEFlagUntilTimeout+0x2e>
 80032da:	2d00      	cmp	r5, #0
 80032dc:	d1ec      	bne.n	80032b8 <I2C_WaitOnTXEFlagUntilTimeout+0x8>
 80032de:	6823      	ldr	r3, [r4, #0]
 80032e0:	695b      	ldr	r3, [r3, #20]
 80032e2:	f013 0380 	ands.w	r3, r3, #128	@ 0x80
 80032e6:	d1e7      	bne.n	80032b8 <I2C_WaitOnTXEFlagUntilTimeout+0x8>
 80032e8:	2220      	movs	r2, #32
 80032ea:	6323      	str	r3, [r4, #48]	@ 0x30
 80032ec:	f884 203d 	strb.w	r2, [r4, #61]	@ 0x3d
 80032f0:	f884 303e 	strb.w	r3, [r4, #62]	@ 0x3e
 80032f4:	6c22      	ldr	r2, [r4, #64]	@ 0x40
 80032f6:	f884 303c 	strb.w	r3, [r4, #60]	@ 0x3c
 80032fa:	f042 0220 	orr.w	r2, r2, #32
 80032fe:	6422      	str	r2, [r4, #64]	@ 0x40
 8003300:	2001      	movs	r0, #1
 8003302:	bd70      	pop	{r4, r5, r6, pc}

08003304 <I2C_WaitOnBTFFlagUntilTimeout>:
 8003304:	b570      	push	{r4, r5, r6, lr}
 8003306:	4604      	mov	r4, r0
 8003308:	460d      	mov	r5, r1
 800330a:	4616      	mov	r6, r2
 800330c:	6823      	ldr	r3, [r4, #0]
 800330e:	695b      	ldr	r3, [r3, #20]
 8003310:	075b      	lsls	r3, r3, #29
 8003312:	d501      	bpl.n	8003318 <I2C_WaitOnBTFFlagUntilTimeout+0x14>
 8003314:	2000      	movs	r0, #0
 8003316:	e01e      	b.n	8003356 <I2C_WaitOnBTFFlagUntilTimeout+0x52>
 8003318:	4620      	mov	r0, r4
 800331a:	f7ff ff2d 	bl	8003178 <I2C_IsAcknowledgeFailed>
 800331e:	b9c8      	cbnz	r0, 8003354 <I2C_WaitOnBTFFlagUntilTimeout+0x50>
 8003320:	1c6a      	adds	r2, r5, #1
 8003322:	d0f3      	beq.n	800330c <I2C_WaitOnBTFFlagUntilTimeout+0x8>
 8003324:	f7ff f818 	bl	8002358 <HAL_GetTick>
 8003328:	1b80      	subs	r0, r0, r6
 800332a:	42a8      	cmp	r0, r5
 800332c:	d801      	bhi.n	8003332 <I2C_WaitOnBTFFlagUntilTimeout+0x2e>
 800332e:	2d00      	cmp	r5, #0
 8003330:	d1ec      	bne.n	800330c <I2C_WaitOnBTFFlagUntilTimeout+0x8>
 8003332:	6823      	ldr	r3, [r4, #0]
 8003334:	695b      	ldr	r3, [r3, #20]
 8003336:	f013 0304 	ands.w	r3, r3, #4
 800333a:	d1e7      	bne.n	800330c <I2C_WaitOnBTFFlagUntilTimeout+0x8>
 800333c:	2220      	movs	r2, #32
 800333e:	6323      	str	r3, [r4, #48]	@ 0x30
 8003340:	f884 203d 	strb.w	r2, [r4, #61]	@ 0x3d
 8003344:	f884 303e 	strb.w	r3, [r4, #62]	@ 0x3e
 8003348:	6c22      	ldr	r2, [r4, #64]	@ 0x40
 800334a:	f884 303c 	strb.w	r3, [r4, #60]	@ 0x3c
 800334e:	f042 0220 	orr.w	r2, r2, #32
 8003352:	6422      	str	r2, [r4, #64]	@ 0x40
 8003354:	2001      	movs	r0, #1
 8003356:	bd70      	pop	{r4, r5, r6, pc}

08003358 <I2C_WaitOnRXNEFlagUntilTimeout>:
 8003358:	b570      	push	{r4, r5, r6, lr}
 800335a:	4604      	mov	r4, r0
 800335c:	460d      	mov	r5, r1
 800335e:	4616      	mov	r6, r2
 8003360:	6821      	ldr	r1, [r4, #0]
 8003362:	694b      	ldr	r3, [r1, #20]
 8003364:	f013 0340 	ands.w	r3, r3, #64	@ 0x40
 8003368:	d001      	beq.n	800336e <I2C_WaitOnRXNEFlagUntilTimeout+0x16>
 800336a:	2000      	movs	r0, #0
 800336c:	e011      	b.n	8003392 <I2C_WaitOnRXNEFlagUntilTimeout+0x3a>
 800336e:	694a      	ldr	r2, [r1, #20]
 8003370:	06d2      	lsls	r2, r2, #27
 8003372:	d50f      	bpl.n	8003394 <I2C_WaitOnRXNEFlagUntilTimeout+0x3c>
 8003374:	f06f 0210 	mvn.w	r2, #16
 8003378:	614a      	str	r2, [r1, #20]
 800337a:	2220      	movs	r2, #32
 800337c:	6323      	str	r3, [r4, #48]	@ 0x30
 800337e:	f884 203d 	strb.w	r2, [r4, #61]	@ 0x3d
 8003382:	f884 303e 	strb.w	r3, [r4, #62]	@ 0x3e
 8003386:	6c23      	ldr	r3, [r4, #64]	@ 0x40
 8003388:	6423      	str	r3, [r4, #64]	@ 0x40
 800338a:	2300      	movs	r3, #0
 800338c:	f884 303c 	strb.w	r3, [r4, #60]	@ 0x3c
 8003390:	2001      	movs	r0, #1
 8003392:	bd70      	pop	{r4, r5, r6, pc}
 8003394:	f7fe ffe0 	bl	8002358 <HAL_GetTick>
 8003398:	1b80      	subs	r0, r0, r6
 800339a:	42a8      	cmp	r0, r5
 800339c:	d801      	bhi.n	80033a2 <I2C_WaitOnRXNEFlagUntilTimeout+0x4a>
 800339e:	2d00      	cmp	r5, #0
 80033a0:	d1de      	bne.n	8003360 <I2C_WaitOnRXNEFlagUntilTimeout+0x8>
 80033a2:	6823      	ldr	r3, [r4, #0]
 80033a4:	695b      	ldr	r3, [r3, #20]
 80033a6:	f013 0340 	ands.w	r3, r3, #64	@ 0x40
 80033aa:	d1d9      	bne.n	8003360 <I2C_WaitOnRXNEFlagUntilTimeout+0x8>
 80033ac:	2220      	movs	r2, #32
 80033ae:	6323      	str	r3, [r4, #48]	@ 0x30
 80033b0:	f884 203d 	strb.w	r2, [r4, #61]	@ 0x3d
 80033b4:	f884 303e 	strb.w	r3, [r4, #62]	@ 0x3e
 80033b8:	6c23      	ldr	r3, [r4, #64]	@ 0x40
 80033ba:	4313      	orrs	r3, r2
 80033bc:	e7e4      	b.n	8003388 <I2C_WaitOnRXNEFlagUntilTimeout+0x30>
	...

080033c0 <HAL_I2C_Init>:
 80033c0:	b570      	push	{r4, r5, r6, lr}
 80033c2:	4604      	mov	r4, r0
 80033c4:	b908      	cbnz	r0, 80033ca <HAL_I2C_Init+0xa>
 80033c6:	2001      	movs	r0, #1
 80033c8:	bd70      	pop	{r4, r5, r6, pc}
 80033ca:	f890 303d 	ldrb.w	r3, [r0, #61]	@ 0x3d
 80033ce:	f003 02ff 	and.w	r2, r3, #255	@ 0xff
 80033d2:	b91b      	cbnz	r3, 80033dc <HAL_I2C_Init+0x1c>
 80033d4:	f880 203c 	strb.w	r2, [r0, #60]	@ 0x3c
 80033d8:	f7fe fc90 	bl	8001cfc <HAL_I2C_MspInit>
 80033dc:	2324      	movs	r3, #36	@ 0x24
 80033de:	f884 303d 	strb.w	r3, [r4, #61]	@ 0x3d
 80033e2:	6823      	ldr	r3, [r4, #0]
 80033e4:	681a      	ldr	r2, [r3, #0]
 80033e6:	f022 0201 	bic.w	r2, r2, #1
 80033ea:	601a      	str	r2, [r3, #0]
 80033ec:	681a      	ldr	r2, [r3, #0]
 80033ee:	f442 4200 	orr.w	r2, r2, #32768	@ 0x8000
 80033f2:	601a      	str	r2, [r3, #0]
 80033f4:	681a      	ldr	r2, [r3, #0]
 80033f6:	f422 4200 	bic.w	r2, r2, #32768	@ 0x8000
 80033fa:	601a      	str	r2, [r3, #0]
 80033fc:	f000 fdc6 	bl	8003f8c <HAL_RCC_GetPCLK1Freq>
 8003400:	4b3f      	ldr	r3, [pc, #252]	@ (8003500 <HAL_I2C_Init+0x140>)
 8003402:	6865      	ldr	r5, [r4, #4]
 8003404:	429d      	cmp	r5, r3
 8003406:	bf94      	ite	ls
 8003408:	4b3e      	ldrls	r3, [pc, #248]	@ (8003504 <HAL_I2C_Init+0x144>)
 800340a:	4b3f      	ldrhi	r3, [pc, #252]	@ (8003508 <HAL_I2C_Init+0x148>)
 800340c:	4298      	cmp	r0, r3
 800340e:	bf8c      	ite	hi
 8003410:	2300      	movhi	r3, #0
 8003412:	2301      	movls	r3, #1
 8003414:	2b00      	cmp	r3, #0
 8003416:	d1d6      	bne.n	80033c6 <HAL_I2C_Init+0x6>
 8003418:	6822      	ldr	r2, [r4, #0]
 800341a:	4e39      	ldr	r6, [pc, #228]	@ (8003500 <HAL_I2C_Init+0x140>)
 800341c:	6851      	ldr	r1, [r2, #4]
 800341e:	4b3b      	ldr	r3, [pc, #236]	@ (800350c <HAL_I2C_Init+0x14c>)
 8003420:	fbb0 f3f3 	udiv	r3, r0, r3
 8003424:	f021 013f 	bic.w	r1, r1, #63	@ 0x3f
 8003428:	4319      	orrs	r1, r3
 800342a:	42b5      	cmp	r5, r6
 800342c:	6051      	str	r1, [r2, #4]
 800342e:	bf88      	it	hi
 8003430:	f44f 7696 	movhi.w	r6, #300	@ 0x12c
 8003434:	6a11      	ldr	r1, [r2, #32]
 8003436:	bf88      	it	hi
 8003438:	4373      	mulhi	r3, r6
 800343a:	f021 013f 	bic.w	r1, r1, #63	@ 0x3f
 800343e:	bf84      	itt	hi
 8003440:	f44f 767a 	movhi.w	r6, #1000	@ 0x3e8
 8003444:	fbb3 f3f6 	udivhi	r3, r3, r6
 8003448:	3301      	adds	r3, #1
 800344a:	430b      	orrs	r3, r1
 800344c:	6213      	str	r3, [r2, #32]
 800344e:	69d1      	ldr	r1, [r2, #28]
 8003450:	1e43      	subs	r3, r0, #1
 8003452:	482b      	ldr	r0, [pc, #172]	@ (8003500 <HAL_I2C_Init+0x140>)
 8003454:	f421 414f 	bic.w	r1, r1, #52992	@ 0xcf00
 8003458:	4285      	cmp	r5, r0
 800345a:	f021 01ff 	bic.w	r1, r1, #255	@ 0xff
 800345e:	d832      	bhi.n	80034c6 <HAL_I2C_Init+0x106>
 8003460:	006d      	lsls	r5, r5, #1
 8003462:	f640 70fc 	movw	r0, #4092	@ 0xffc
 8003466:	fbb3 f3f5 	udiv	r3, r3, r5
 800346a:	3301      	adds	r3, #1
 800346c:	4203      	tst	r3, r0
 800346e:	d042      	beq.n	80034f6 <HAL_I2C_Init+0x136>
 8003470:	f3c3 030b 	ubfx	r3, r3, #0, #12
 8003474:	4319      	orrs	r1, r3
 8003476:	61d1      	str	r1, [r2, #28]
 8003478:	e9d4 3007 	ldrd	r3, r0, [r4, #28]
 800347c:	6811      	ldr	r1, [r2, #0]
 800347e:	4303      	orrs	r3, r0
 8003480:	f021 01c0 	bic.w	r1, r1, #192	@ 0xc0
 8003484:	430b      	orrs	r3, r1
 8003486:	6013      	str	r3, [r2, #0]
 8003488:	6891      	ldr	r1, [r2, #8]
 800348a:	e9d4 0303 	ldrd	r0, r3, [r4, #12]
 800348e:	f421 4103 	bic.w	r1, r1, #33536	@ 0x8300
 8003492:	4303      	orrs	r3, r0
 8003494:	f021 01ff 	bic.w	r1, r1, #255	@ 0xff
 8003498:	430b      	orrs	r3, r1
 800349a:	6093      	str	r3, [r2, #8]
 800349c:	e9d4 3005 	ldrd	r3, r0, [r4, #20]
 80034a0:	68d1      	ldr	r1, [r2, #12]
 80034a2:	4303      	orrs	r3, r0
 80034a4:	f021 01ff 	bic.w	r1, r1, #255	@ 0xff
 80034a8:	430b      	orrs	r3, r1
 80034aa:	60d3      	str	r3, [r2, #12]
 80034ac:	6813      	ldr	r3, [r2, #0]
 80034ae:	f043 0301 	orr.w	r3, r3, #1
 80034b2:	6013      	str	r3, [r2, #0]
 80034b4:	2000      	movs	r0, #0
 80034b6:	2320      	movs	r3, #32
 80034b8:	6420      	str	r0, [r4, #64]	@ 0x40
 80034ba:	f884 303d 	strb.w	r3, [r4, #61]	@ 0x3d
 80034be:	6320      	str	r0, [r4, #48]	@ 0x30
 80034c0:	f884 003e 	strb.w	r0, [r4, #62]	@ 0x3e
 80034c4:	e780      	b.n	80033c8 <HAL_I2C_Init+0x8>
 80034c6:	68a0      	ldr	r0, [r4, #8]
 80034c8:	b950      	cbnz	r0, 80034e0 <HAL_I2C_Init+0x120>
 80034ca:	eb05 0545 	add.w	r5, r5, r5, lsl #1
 80034ce:	fbb3 f3f5 	udiv	r3, r3, r5
 80034d2:	3301      	adds	r3, #1
 80034d4:	f3c3 030b 	ubfx	r3, r3, #0, #12
 80034d8:	b17b      	cbz	r3, 80034fa <HAL_I2C_Init+0x13a>
 80034da:	f443 4300 	orr.w	r3, r3, #32768	@ 0x8000
 80034de:	e7c9      	b.n	8003474 <HAL_I2C_Init+0xb4>
 80034e0:	2019      	movs	r0, #25
 80034e2:	4368      	muls	r0, r5
 80034e4:	fbb3 f3f0 	udiv	r3, r3, r0
 80034e8:	3301      	adds	r3, #1
 80034ea:	f3c3 030b 	ubfx	r3, r3, #0, #12
 80034ee:	b123      	cbz	r3, 80034fa <HAL_I2C_Init+0x13a>
 80034f0:	f443 4340 	orr.w	r3, r3, #49152	@ 0xc000
 80034f4:	e7be      	b.n	8003474 <HAL_I2C_Init+0xb4>
 80034f6:	2304      	movs	r3, #4
 80034f8:	e7bc      	b.n	8003474 <HAL_I2C_Init+0xb4>
 80034fa:	2301      	movs	r3, #1
 80034fc:	e7ba      	b.n	8003474 <HAL_I2C_Init+0xb4>
 80034fe:	bf00      	nop
 8003500:	000186a0 	.word	0x000186a0
 8003504:	001e847f 	.word	0x001e847f
 8003508:	003d08ff 	.word	0x003d08ff
 800350c:	000f4240 	.word	0x000f4240

08003510 <HAL_I2C_DeInit>:
 8003510:	b510      	push	{r4, lr}
 8003512:	4604      	mov	r4, r0
 8003514:	b198      	cbz	r0, 800353e <HAL_I2C_DeInit+0x2e>
 8003516:	6802      	ldr	r2, [r0, #0]
 8003518:	2324      	movs	r3, #36	@ 0x24
 800351a:	f880 303d 	strb.w	r3, [r0, #61]	@ 0x3d
 800351e:	6813      	ldr	r3, [r2, #0]
 8003520:	f023 0301 	bic.w	r3, r3, #1
 8003524:	6013      	str	r3, [r2, #0]
 8003526:	f7fe fc67 	bl	8001df8 <HAL_I2C_MspDeInit>
 800352a:	2000      	movs	r0, #0
 800352c:	6420      	str	r0, [r4, #64]	@ 0x40
 800352e:	f884 003c 	strb.w	r0, [r4, #60]	@ 0x3c
 8003532:	f884 003d 	strb.w	r0, [r4, #61]	@ 0x3d
 8003536:	6320      	str	r0, [r4, #48]	@ 0x30
 8003538:	f884 003e 	strb.w	r0, [r4, #62]	@ 0x3e
 800353c:	bd10      	pop	{r4, pc}
 800353e:	2001      	movs	r0, #1
 8003540:	e7fc      	b.n	800353c <HAL_I2C_DeInit+0x2c>
	...

08003544 <HAL_I2C_Master_Transmit>:
 8003544:	e92d 43f0 	stmdb	sp!, {r4, r5, r6, r7, r8, r9, lr}
 8003548:	4604      	mov	r4, r0
 800354a:	b085      	sub	sp, #20
 800354c:	4698      	mov	r8, r3
 800354e:	9f0c      	ldr	r7, [sp, #48]	@ 0x30
 8003550:	460d      	mov	r5, r1
 8003552:	4691      	mov	r9, r2
 8003554:	f7fe ff00 	bl	8002358 <HAL_GetTick>
 8003558:	f894 303d 	ldrb.w	r3, [r4, #61]	@ 0x3d
 800355c:	2b20      	cmp	r3, #32
 800355e:	4606      	mov	r6, r0
 8003560:	d004      	beq.n	800356c <HAL_I2C_Master_Transmit+0x28>
 8003562:	2502      	movs	r5, #2
 8003564:	4628      	mov	r0, r5
 8003566:	b005      	add	sp, #20
 8003568:	e8bd 83f0 	ldmia.w	sp!, {r4, r5, r6, r7, r8, r9, pc}
 800356c:	9000      	str	r0, [sp, #0]
 800356e:	495e      	ldr	r1, [pc, #376]	@ (80036e8 <HAL_I2C_Master_Transmit+0x1a4>)
 8003570:	2319      	movs	r3, #25
 8003572:	2201      	movs	r2, #1
 8003574:	4620      	mov	r0, r4
 8003576:	f7ff fe19 	bl	80031ac <I2C_WaitOnFlagUntilTimeout>
 800357a:	2800      	cmp	r0, #0
 800357c:	d1f1      	bne.n	8003562 <HAL_I2C_Master_Transmit+0x1e>
 800357e:	f894 303c 	ldrb.w	r3, [r4, #60]	@ 0x3c
 8003582:	2b01      	cmp	r3, #1
 8003584:	d0ed      	beq.n	8003562 <HAL_I2C_Master_Transmit+0x1e>
 8003586:	6821      	ldr	r1, [r4, #0]
 8003588:	2301      	movs	r3, #1
 800358a:	f884 303c 	strb.w	r3, [r4, #60]	@ 0x3c
 800358e:	680b      	ldr	r3, [r1, #0]
 8003590:	07da      	lsls	r2, r3, #31
 8003592:	bf5e      	ittt	pl
 8003594:	680b      	ldrpl	r3, [r1, #0]
 8003596:	f043 0301 	orrpl.w	r3, r3, #1
 800359a:	600b      	strpl	r3, [r1, #0]
 800359c:	680b      	ldr	r3, [r1, #0]
 800359e:	f423 6300 	bic.w	r3, r3, #2048	@ 0x800
 80035a2:	600b      	str	r3, [r1, #0]
 80035a4:	2321      	movs	r3, #33	@ 0x21
 80035a6:	f884 303d 	strb.w	r3, [r4, #61]	@ 0x3d
 80035aa:	2310      	movs	r3, #16
 80035ac:	f884 303e 	strb.w	r3, [r4, #62]	@ 0x3e
 80035b0:	2300      	movs	r3, #0
 80035b2:	6423      	str	r3, [r4, #64]	@ 0x40
 80035b4:	f8a4 802a 	strh.w	r8, [r4, #42]	@ 0x2a
 80035b8:	8d63      	ldrh	r3, [r4, #42]	@ 0x2a
 80035ba:	8523      	strh	r3, [r4, #40]	@ 0x28
 80035bc:	4b4b      	ldr	r3, [pc, #300]	@ (80036ec <HAL_I2C_Master_Transmit+0x1a8>)
 80035be:	62e3      	str	r3, [r4, #44]	@ 0x2c
 80035c0:	6ae3      	ldr	r3, [r4, #44]	@ 0x2c
 80035c2:	f8c4 9024 	str.w	r9, [r4, #36]	@ 0x24
 80035c6:	2b08      	cmp	r3, #8
 80035c8:	d004      	beq.n	80035d4 <HAL_I2C_Master_Transmit+0x90>
 80035ca:	2b01      	cmp	r3, #1
 80035cc:	d002      	beq.n	80035d4 <HAL_I2C_Master_Transmit+0x90>
 80035ce:	f513 3f80 	cmn.w	r3, #65536	@ 0x10000
 80035d2:	d104      	bne.n	80035de <HAL_I2C_Master_Transmit+0x9a>
 80035d4:	680b      	ldr	r3, [r1, #0]
 80035d6:	f443 7380 	orr.w	r3, r3, #256	@ 0x100
 80035da:	600b      	str	r3, [r1, #0]
 80035dc:	e002      	b.n	80035e4 <HAL_I2C_Master_Transmit+0xa0>
 80035de:	6b23      	ldr	r3, [r4, #48]	@ 0x30
 80035e0:	2b12      	cmp	r3, #18
 80035e2:	d0f7      	beq.n	80035d4 <HAL_I2C_Master_Transmit+0x90>
 80035e4:	2200      	movs	r2, #0
 80035e6:	9600      	str	r6, [sp, #0]
 80035e8:	463b      	mov	r3, r7
 80035ea:	f04f 1101 	mov.w	r1, #65537	@ 0x10001
 80035ee:	4620      	mov	r0, r4
 80035f0:	f7ff fddc 	bl	80031ac <I2C_WaitOnFlagUntilTimeout>
 80035f4:	6822      	ldr	r2, [r4, #0]
 80035f6:	b140      	cbz	r0, 800360a <HAL_I2C_Master_Transmit+0xc6>
 80035f8:	6813      	ldr	r3, [r2, #0]
 80035fa:	05db      	lsls	r3, r3, #23
 80035fc:	d401      	bmi.n	8003602 <HAL_I2C_Master_Transmit+0xbe>
 80035fe:	2501      	movs	r5, #1
 8003600:	e7b0      	b.n	8003564 <HAL_I2C_Master_Transmit+0x20>
 8003602:	f44f 7300 	mov.w	r3, #512	@ 0x200
 8003606:	6423      	str	r3, [r4, #64]	@ 0x40
 8003608:	e7f9      	b.n	80035fe <HAL_I2C_Master_Transmit+0xba>
 800360a:	6923      	ldr	r3, [r4, #16]
 800360c:	f5b3 4f80 	cmp.w	r3, #16384	@ 0x4000
 8003610:	d121      	bne.n	8003656 <HAL_I2C_Master_Transmit+0x112>
 8003612:	f005 05fe 	and.w	r5, r5, #254	@ 0xfe
 8003616:	6115      	str	r5, [r2, #16]
 8003618:	4935      	ldr	r1, [pc, #212]	@ (80036f0 <HAL_I2C_Master_Transmit+0x1ac>)
 800361a:	4633      	mov	r3, r6
 800361c:	463a      	mov	r2, r7
 800361e:	4620      	mov	r0, r4
 8003620:	f7ff fe04 	bl	800322c <I2C_WaitOnMasterAddressFlagUntilTimeout>
 8003624:	4605      	mov	r5, r0
 8003626:	2800      	cmp	r0, #0
 8003628:	d1e9      	bne.n	80035fe <HAL_I2C_Master_Transmit+0xba>
 800362a:	6823      	ldr	r3, [r4, #0]
 800362c:	9003      	str	r0, [sp, #12]
 800362e:	695a      	ldr	r2, [r3, #20]
 8003630:	9203      	str	r2, [sp, #12]
 8003632:	699b      	ldr	r3, [r3, #24]
 8003634:	9303      	str	r3, [sp, #12]
 8003636:	9b03      	ldr	r3, [sp, #12]
 8003638:	8d23      	ldrh	r3, [r4, #40]	@ 0x28
 800363a:	b9f3      	cbnz	r3, 800367a <HAL_I2C_Master_Transmit+0x136>
 800363c:	6821      	ldr	r1, [r4, #0]
 800363e:	680a      	ldr	r2, [r1, #0]
 8003640:	f442 7200 	orr.w	r2, r2, #512	@ 0x200
 8003644:	600a      	str	r2, [r1, #0]
 8003646:	2220      	movs	r2, #32
 8003648:	f884 203d 	strb.w	r2, [r4, #61]	@ 0x3d
 800364c:	f884 303c 	strb.w	r3, [r4, #60]	@ 0x3c
 8003650:	f884 303e 	strb.w	r3, [r4, #62]	@ 0x3e
 8003654:	e786      	b.n	8003564 <HAL_I2C_Master_Transmit+0x20>
 8003656:	11eb      	asrs	r3, r5, #7
 8003658:	f003 0306 	and.w	r3, r3, #6
 800365c:	f043 03f0 	orr.w	r3, r3, #240	@ 0xf0
 8003660:	6113      	str	r3, [r2, #16]
 8003662:	4924      	ldr	r1, [pc, #144]	@ (80036f4 <HAL_I2C_Master_Transmit+0x1b0>)
 8003664:	4633      	mov	r3, r6
 8003666:	463a      	mov	r2, r7
 8003668:	4620      	mov	r0, r4
 800366a:	f7ff fddf 	bl	800322c <I2C_WaitOnMasterAddressFlagUntilTimeout>
 800366e:	2800      	cmp	r0, #0
 8003670:	d1c5      	bne.n	80035fe <HAL_I2C_Master_Transmit+0xba>
 8003672:	6823      	ldr	r3, [r4, #0]
 8003674:	b2ed      	uxtb	r5, r5
 8003676:	611d      	str	r5, [r3, #16]
 8003678:	e7ce      	b.n	8003618 <HAL_I2C_Master_Transmit+0xd4>
 800367a:	4632      	mov	r2, r6
 800367c:	4639      	mov	r1, r7
 800367e:	4620      	mov	r0, r4
 8003680:	f7ff fe16 	bl	80032b0 <I2C_WaitOnTXEFlagUntilTimeout>
 8003684:	b140      	cbz	r0, 8003698 <HAL_I2C_Master_Transmit+0x154>
 8003686:	6c23      	ldr	r3, [r4, #64]	@ 0x40
 8003688:	2b04      	cmp	r3, #4
 800368a:	d1b8      	bne.n	80035fe <HAL_I2C_Master_Transmit+0xba>
 800368c:	6822      	ldr	r2, [r4, #0]
 800368e:	6813      	ldr	r3, [r2, #0]
 8003690:	f443 7300 	orr.w	r3, r3, #512	@ 0x200
 8003694:	6013      	str	r3, [r2, #0]
 8003696:	e7b2      	b.n	80035fe <HAL_I2C_Master_Transmit+0xba>
 8003698:	6a63      	ldr	r3, [r4, #36]	@ 0x24
 800369a:	6820      	ldr	r0, [r4, #0]
 800369c:	461a      	mov	r2, r3
 800369e:	f812 1b01 	ldrb.w	r1, [r2], #1
 80036a2:	6101      	str	r1, [r0, #16]
 80036a4:	6262      	str	r2, [r4, #36]	@ 0x24
 80036a6:	8d62      	ldrh	r2, [r4, #42]	@ 0x2a
 80036a8:	3a01      	subs	r2, #1
 80036aa:	b292      	uxth	r2, r2
 80036ac:	8562      	strh	r2, [r4, #42]	@ 0x2a
 80036ae:	8d22      	ldrh	r2, [r4, #40]	@ 0x28
 80036b0:	f8d0 c014 	ldr.w	ip, [r0, #20]
 80036b4:	1e51      	subs	r1, r2, #1
 80036b6:	b289      	uxth	r1, r1
 80036b8:	f01c 0f04 	tst.w	ip, #4
 80036bc:	8521      	strh	r1, [r4, #40]	@ 0x28
 80036be:	d00a      	beq.n	80036d6 <HAL_I2C_Master_Transmit+0x192>
 80036c0:	b149      	cbz	r1, 80036d6 <HAL_I2C_Master_Transmit+0x192>
 80036c2:	7859      	ldrb	r1, [r3, #1]
 80036c4:	6101      	str	r1, [r0, #16]
 80036c6:	3302      	adds	r3, #2
 80036c8:	6263      	str	r3, [r4, #36]	@ 0x24
 80036ca:	8d63      	ldrh	r3, [r4, #42]	@ 0x2a
 80036cc:	3b01      	subs	r3, #1
 80036ce:	b29b      	uxth	r3, r3
 80036d0:	3a02      	subs	r2, #2
 80036d2:	8563      	strh	r3, [r4, #42]	@ 0x2a
 80036d4:	8522      	strh	r2, [r4, #40]	@ 0x28
 80036d6:	4632      	mov	r2, r6
 80036d8:	4639      	mov	r1, r7
 80036da:	4620      	mov	r0, r4
 80036dc:	f7ff fe12 	bl	8003304 <I2C_WaitOnBTFFlagUntilTimeout>
 80036e0:	2800      	cmp	r0, #0
 80036e2:	d0a9      	beq.n	8003638 <HAL_I2C_Master_Transmit+0xf4>
 80036e4:	e7cf      	b.n	8003686 <HAL_I2C_Master_Transmit+0x142>
 80036e6:	bf00      	nop
 80036e8:	00100002 	.word	0x00100002
 80036ec:	ffff0000 	.word	0xffff0000
 80036f0:	00010002 	.word	0x00010002
 80036f4:	00010008 	.word	0x00010008

080036f8 <HAL_I2C_Master_Receive>:
 80036f8:	e92d 43f0 	stmdb	sp!, {r4, r5, r6, r7, r8, r9, lr}
 80036fc:	4604      	mov	r4, r0
 80036fe:	b089      	sub	sp, #36	@ 0x24
 8003700:	4698      	mov	r8, r3
 8003702:	9f10      	ldr	r7, [sp, #64]	@ 0x40
 8003704:	460e      	mov	r6, r1
 8003706:	4691      	mov	r9, r2
 8003708:	f7fe fe26 	bl	8002358 <HAL_GetTick>
 800370c:	f894 303d 	ldrb.w	r3, [r4, #61]	@ 0x3d
 8003710:	2b20      	cmp	r3, #32
 8003712:	4605      	mov	r5, r0
 8003714:	d004      	beq.n	8003720 <HAL_I2C_Master_Receive+0x28>
 8003716:	2602      	movs	r6, #2
 8003718:	4630      	mov	r0, r6
 800371a:	b009      	add	sp, #36	@ 0x24
 800371c:	e8bd 83f0 	ldmia.w	sp!, {r4, r5, r6, r7, r8, r9, pc}
 8003720:	9000      	str	r0, [sp, #0]
 8003722:	499a      	ldr	r1, [pc, #616]	@ (800398c <HAL_I2C_Master_Receive+0x294>)
 8003724:	2319      	movs	r3, #25
 8003726:	2201      	movs	r2, #1
 8003728:	4620      	mov	r0, r4
 800372a:	f7ff fd3f 	bl	80031ac <I2C_WaitOnFlagUntilTimeout>
 800372e:	2800      	cmp	r0, #0
 8003730:	d1f1      	bne.n	8003716 <HAL_I2C_Master_Receive+0x1e>
 8003732:	f894 303c 	ldrb.w	r3, [r4, #60]	@ 0x3c
 8003736:	2b01      	cmp	r3, #1
 8003738:	d0ed      	beq.n	8003716 <HAL_I2C_Master_Receive+0x1e>
 800373a:	6821      	ldr	r1, [r4, #0]
 800373c:	2301      	movs	r3, #1
 800373e:	f884 303c 	strb.w	r3, [r4, #60]	@ 0x3c
 8003742:	680b      	ldr	r3, [r1, #0]
 8003744:	07db      	lsls	r3, r3, #31
 8003746:	bf5e      	ittt	pl
 8003748:	680b      	ldrpl	r3, [r1, #0]
 800374a:	f043 0301 	orrpl.w	r3, r3, #1
 800374e:	600b      	strpl	r3, [r1, #0]
 8003750:	680b      	ldr	r3, [r1, #0]
 8003752:	f423 6300 	bic.w	r3, r3, #2048	@ 0x800
 8003756:	600b      	str	r3, [r1, #0]
 8003758:	2322      	movs	r3, #34	@ 0x22
 800375a:	f884 303d 	strb.w	r3, [r4, #61]	@ 0x3d
 800375e:	2310      	movs	r3, #16
 8003760:	f884 303e 	strb.w	r3, [r4, #62]	@ 0x3e
 8003764:	2300      	movs	r3, #0
 8003766:	6423      	str	r3, [r4, #64]	@ 0x40
 8003768:	f8a4 802a 	strh.w	r8, [r4, #42]	@ 0x2a
 800376c:	8d63      	ldrh	r3, [r4, #42]	@ 0x2a
 800376e:	8523      	strh	r3, [r4, #40]	@ 0x28
 8003770:	4b87      	ldr	r3, [pc, #540]	@ (8003990 <HAL_I2C_Master_Receive+0x298>)
 8003772:	62e3      	str	r3, [r4, #44]	@ 0x2c
 8003774:	6ae3      	ldr	r3, [r4, #44]	@ 0x2c
 8003776:	680a      	ldr	r2, [r1, #0]
 8003778:	f8c4 9024 	str.w	r9, [r4, #36]	@ 0x24
 800377c:	f442 6280 	orr.w	r2, r2, #1024	@ 0x400
 8003780:	2b08      	cmp	r3, #8
 8003782:	600a      	str	r2, [r1, #0]
 8003784:	d004      	beq.n	8003790 <HAL_I2C_Master_Receive+0x98>
 8003786:	2b01      	cmp	r3, #1
 8003788:	d002      	beq.n	8003790 <HAL_I2C_Master_Receive+0x98>
 800378a:	f513 3f80 	cmn.w	r3, #65536	@ 0x10000
 800378e:	d104      	bne.n	800379a <HAL_I2C_Master_Receive+0xa2>
 8003790:	680b      	ldr	r3, [r1, #0]
 8003792:	f443 7380 	orr.w	r3, r3, #256	@ 0x100
 8003796:	600b      	str	r3, [r1, #0]
 8003798:	e002      	b.n	80037a0 <HAL_I2C_Master_Receive+0xa8>
 800379a:	6b23      	ldr	r3, [r4, #48]	@ 0x30
 800379c:	2b11      	cmp	r3, #17
 800379e:	d0f7      	beq.n	8003790 <HAL_I2C_Master_Receive+0x98>
 80037a0:	463b      	mov	r3, r7
 80037a2:	9500      	str	r5, [sp, #0]
 80037a4:	2200      	movs	r2, #0
 80037a6:	f04f 1101 	mov.w	r1, #65537	@ 0x10001
 80037aa:	4620      	mov	r0, r4
 80037ac:	f7ff fcfe 	bl	80031ac <I2C_WaitOnFlagUntilTimeout>
 80037b0:	6823      	ldr	r3, [r4, #0]
 80037b2:	b138      	cbz	r0, 80037c4 <HAL_I2C_Master_Receive+0xcc>
 80037b4:	681b      	ldr	r3, [r3, #0]
 80037b6:	05dd      	lsls	r5, r3, #23
 80037b8:	bf44      	itt	mi
 80037ba:	f44f 7300 	movmi.w	r3, #512	@ 0x200
 80037be:	6423      	strmi	r3, [r4, #64]	@ 0x40
 80037c0:	2601      	movs	r6, #1
 80037c2:	e7a9      	b.n	8003718 <HAL_I2C_Master_Receive+0x20>
 80037c4:	6922      	ldr	r2, [r4, #16]
 80037c6:	f5b2 4f80 	cmp.w	r2, #16384	@ 0x4000
 80037ca:	d127      	bne.n	800381c <HAL_I2C_Master_Receive+0x124>
 80037cc:	f046 0601 	orr.w	r6, r6, #1
 80037d0:	b2f6      	uxtb	r6, r6
 80037d2:	611e      	str	r6, [r3, #16]
 80037d4:	496f      	ldr	r1, [pc, #444]	@ (8003994 <HAL_I2C_Master_Receive+0x29c>)
 80037d6:	462b      	mov	r3, r5
 80037d8:	463a      	mov	r2, r7
 80037da:	4620      	mov	r0, r4
 80037dc:	f7ff fd26 	bl	800322c <I2C_WaitOnMasterAddressFlagUntilTimeout>
 80037e0:	4606      	mov	r6, r0
 80037e2:	2800      	cmp	r0, #0
 80037e4:	d1ec      	bne.n	80037c0 <HAL_I2C_Master_Receive+0xc8>
 80037e6:	8d23      	ldrh	r3, [r4, #40]	@ 0x28
 80037e8:	6821      	ldr	r1, [r4, #0]
 80037ea:	2b00      	cmp	r3, #0
 80037ec:	d14b      	bne.n	8003886 <HAL_I2C_Master_Receive+0x18e>
 80037ee:	9003      	str	r0, [sp, #12]
 80037f0:	694b      	ldr	r3, [r1, #20]
 80037f2:	9303      	str	r3, [sp, #12]
 80037f4:	698b      	ldr	r3, [r1, #24]
 80037f6:	9303      	str	r3, [sp, #12]
 80037f8:	9b03      	ldr	r3, [sp, #12]
 80037fa:	680b      	ldr	r3, [r1, #0]
 80037fc:	f443 7300 	orr.w	r3, r3, #512	@ 0x200
 8003800:	600b      	str	r3, [r1, #0]
 8003802:	f8df 8198 	ldr.w	r8, [pc, #408]	@ 800399c <HAL_I2C_Master_Receive+0x2a4>
 8003806:	8d23      	ldrh	r3, [r4, #40]	@ 0x28
 8003808:	2b00      	cmp	r3, #0
 800380a:	d164      	bne.n	80038d6 <HAL_I2C_Master_Receive+0x1de>
 800380c:	2220      	movs	r2, #32
 800380e:	f884 203d 	strb.w	r2, [r4, #61]	@ 0x3d
 8003812:	f884 303c 	strb.w	r3, [r4, #60]	@ 0x3c
 8003816:	f884 303e 	strb.w	r3, [r4, #62]	@ 0x3e
 800381a:	e77d      	b.n	8003718 <HAL_I2C_Master_Receive+0x20>
 800381c:	ea4f 18e6 	mov.w	r8, r6, asr #7
 8003820:	f008 0806 	and.w	r8, r8, #6
 8003824:	f048 02f0 	orr.w	r2, r8, #240	@ 0xf0
 8003828:	611a      	str	r2, [r3, #16]
 800382a:	495b      	ldr	r1, [pc, #364]	@ (8003998 <HAL_I2C_Master_Receive+0x2a0>)
 800382c:	462b      	mov	r3, r5
 800382e:	463a      	mov	r2, r7
 8003830:	4620      	mov	r0, r4
 8003832:	f7ff fcfb 	bl	800322c <I2C_WaitOnMasterAddressFlagUntilTimeout>
 8003836:	2800      	cmp	r0, #0
 8003838:	d1c2      	bne.n	80037c0 <HAL_I2C_Master_Receive+0xc8>
 800383a:	6823      	ldr	r3, [r4, #0]
 800383c:	4955      	ldr	r1, [pc, #340]	@ (8003994 <HAL_I2C_Master_Receive+0x29c>)
 800383e:	b2f6      	uxtb	r6, r6
 8003840:	611e      	str	r6, [r3, #16]
 8003842:	463a      	mov	r2, r7
 8003844:	462b      	mov	r3, r5
 8003846:	4620      	mov	r0, r4
 8003848:	f7ff fcf0 	bl	800322c <I2C_WaitOnMasterAddressFlagUntilTimeout>
 800384c:	4602      	mov	r2, r0
 800384e:	2800      	cmp	r0, #0
 8003850:	d1b6      	bne.n	80037c0 <HAL_I2C_Master_Receive+0xc8>
 8003852:	6823      	ldr	r3, [r4, #0]
 8003854:	9007      	str	r0, [sp, #28]
 8003856:	6959      	ldr	r1, [r3, #20]
 8003858:	9107      	str	r1, [sp, #28]
 800385a:	6999      	ldr	r1, [r3, #24]
 800385c:	9107      	str	r1, [sp, #28]
 800385e:	9907      	ldr	r1, [sp, #28]
 8003860:	6819      	ldr	r1, [r3, #0]
 8003862:	f441 7180 	orr.w	r1, r1, #256	@ 0x100
 8003866:	6019      	str	r1, [r3, #0]
 8003868:	4620      	mov	r0, r4
 800386a:	9500      	str	r5, [sp, #0]
 800386c:	463b      	mov	r3, r7
 800386e:	f04f 1101 	mov.w	r1, #65537	@ 0x10001
 8003872:	f7ff fc9b 	bl	80031ac <I2C_WaitOnFlagUntilTimeout>
 8003876:	6822      	ldr	r2, [r4, #0]
 8003878:	b108      	cbz	r0, 800387e <HAL_I2C_Master_Receive+0x186>
 800387a:	6813      	ldr	r3, [r2, #0]
 800387c:	e79b      	b.n	80037b6 <HAL_I2C_Master_Receive+0xbe>
 800387e:	f048 03f1 	orr.w	r3, r8, #241	@ 0xf1
 8003882:	6113      	str	r3, [r2, #16]
 8003884:	e7a6      	b.n	80037d4 <HAL_I2C_Master_Receive+0xdc>
 8003886:	2b01      	cmp	r3, #1
 8003888:	d10a      	bne.n	80038a0 <HAL_I2C_Master_Receive+0x1a8>
 800388a:	680b      	ldr	r3, [r1, #0]
 800388c:	f423 6380 	bic.w	r3, r3, #1024	@ 0x400
 8003890:	600b      	str	r3, [r1, #0]
 8003892:	9004      	str	r0, [sp, #16]
 8003894:	694b      	ldr	r3, [r1, #20]
 8003896:	9304      	str	r3, [sp, #16]
 8003898:	698b      	ldr	r3, [r1, #24]
 800389a:	9304      	str	r3, [sp, #16]
 800389c:	9b04      	ldr	r3, [sp, #16]
 800389e:	e7ac      	b.n	80037fa <HAL_I2C_Master_Receive+0x102>
 80038a0:	2b02      	cmp	r3, #2
 80038a2:	680b      	ldr	r3, [r1, #0]
 80038a4:	d10d      	bne.n	80038c2 <HAL_I2C_Master_Receive+0x1ca>
 80038a6:	f423 6380 	bic.w	r3, r3, #1024	@ 0x400
 80038aa:	600b      	str	r3, [r1, #0]
 80038ac:	680b      	ldr	r3, [r1, #0]
 80038ae:	f443 6300 	orr.w	r3, r3, #2048	@ 0x800
 80038b2:	600b      	str	r3, [r1, #0]
 80038b4:	9005      	str	r0, [sp, #20]
 80038b6:	694b      	ldr	r3, [r1, #20]
 80038b8:	9305      	str	r3, [sp, #20]
 80038ba:	698b      	ldr	r3, [r1, #24]
 80038bc:	9305      	str	r3, [sp, #20]
 80038be:	9b05      	ldr	r3, [sp, #20]
 80038c0:	e79f      	b.n	8003802 <HAL_I2C_Master_Receive+0x10a>
 80038c2:	f443 6380 	orr.w	r3, r3, #1024	@ 0x400
 80038c6:	600b      	str	r3, [r1, #0]
 80038c8:	9006      	str	r0, [sp, #24]
 80038ca:	694b      	ldr	r3, [r1, #20]
 80038cc:	9306      	str	r3, [sp, #24]
 80038ce:	698b      	ldr	r3, [r1, #24]
 80038d0:	9306      	str	r3, [sp, #24]
 80038d2:	9b06      	ldr	r3, [sp, #24]
 80038d4:	e795      	b.n	8003802 <HAL_I2C_Master_Receive+0x10a>
 80038d6:	2b03      	cmp	r3, #3
 80038d8:	d862      	bhi.n	80039a0 <HAL_I2C_Master_Receive+0x2a8>
 80038da:	2b01      	cmp	r3, #1
 80038dc:	d116      	bne.n	800390c <HAL_I2C_Master_Receive+0x214>
 80038de:	462a      	mov	r2, r5
 80038e0:	4639      	mov	r1, r7
 80038e2:	4620      	mov	r0, r4
 80038e4:	f7ff fd38 	bl	8003358 <I2C_WaitOnRXNEFlagUntilTimeout>
 80038e8:	2800      	cmp	r0, #0
 80038ea:	f47f af69 	bne.w	80037c0 <HAL_I2C_Master_Receive+0xc8>
 80038ee:	6823      	ldr	r3, [r4, #0]
 80038f0:	691a      	ldr	r2, [r3, #16]
 80038f2:	6a63      	ldr	r3, [r4, #36]	@ 0x24
 80038f4:	701a      	strb	r2, [r3, #0]
 80038f6:	6a63      	ldr	r3, [r4, #36]	@ 0x24
 80038f8:	3301      	adds	r3, #1
 80038fa:	6263      	str	r3, [r4, #36]	@ 0x24
 80038fc:	8d23      	ldrh	r3, [r4, #40]	@ 0x28
 80038fe:	3b01      	subs	r3, #1
 8003900:	8523      	strh	r3, [r4, #40]	@ 0x28
 8003902:	8d63      	ldrh	r3, [r4, #42]	@ 0x2a
 8003904:	3b01      	subs	r3, #1
 8003906:	b29b      	uxth	r3, r3
 8003908:	8563      	strh	r3, [r4, #42]	@ 0x2a
 800390a:	e77c      	b.n	8003806 <HAL_I2C_Master_Receive+0x10e>
 800390c:	2b02      	cmp	r3, #2
 800390e:	9500      	str	r5, [sp, #0]
 8003910:	463b      	mov	r3, r7
 8003912:	f04f 0200 	mov.w	r2, #0
 8003916:	4641      	mov	r1, r8
 8003918:	4620      	mov	r0, r4
 800391a:	d11a      	bne.n	8003952 <HAL_I2C_Master_Receive+0x25a>
 800391c:	f7ff fc46 	bl	80031ac <I2C_WaitOnFlagUntilTimeout>
 8003920:	2800      	cmp	r0, #0
 8003922:	f47f af4d 	bne.w	80037c0 <HAL_I2C_Master_Receive+0xc8>
 8003926:	6823      	ldr	r3, [r4, #0]
 8003928:	681a      	ldr	r2, [r3, #0]
 800392a:	f442 7200 	orr.w	r2, r2, #512	@ 0x200
 800392e:	601a      	str	r2, [r3, #0]
 8003930:	691a      	ldr	r2, [r3, #16]
 8003932:	6a63      	ldr	r3, [r4, #36]	@ 0x24
 8003934:	701a      	strb	r2, [r3, #0]
 8003936:	6a62      	ldr	r2, [r4, #36]	@ 0x24
 8003938:	1c53      	adds	r3, r2, #1
 800393a:	6263      	str	r3, [r4, #36]	@ 0x24
 800393c:	8d23      	ldrh	r3, [r4, #40]	@ 0x28
 800393e:	3b01      	subs	r3, #1
 8003940:	8523      	strh	r3, [r4, #40]	@ 0x28
 8003942:	8d63      	ldrh	r3, [r4, #42]	@ 0x2a
 8003944:	3b01      	subs	r3, #1
 8003946:	b29b      	uxth	r3, r3
 8003948:	8563      	strh	r3, [r4, #42]	@ 0x2a
 800394a:	6823      	ldr	r3, [r4, #0]
 800394c:	691b      	ldr	r3, [r3, #16]
 800394e:	7053      	strb	r3, [r2, #1]
 8003950:	e7d1      	b.n	80038f6 <HAL_I2C_Master_Receive+0x1fe>
 8003952:	f7ff fc2b 	bl	80031ac <I2C_WaitOnFlagUntilTimeout>
 8003956:	4602      	mov	r2, r0
 8003958:	2800      	cmp	r0, #0
 800395a:	f47f af31 	bne.w	80037c0 <HAL_I2C_Master_Receive+0xc8>
 800395e:	6823      	ldr	r3, [r4, #0]
 8003960:	6819      	ldr	r1, [r3, #0]
 8003962:	f421 6180 	bic.w	r1, r1, #1024	@ 0x400
 8003966:	6019      	str	r1, [r3, #0]
 8003968:	6919      	ldr	r1, [r3, #16]
 800396a:	6a63      	ldr	r3, [r4, #36]	@ 0x24
 800396c:	7019      	strb	r1, [r3, #0]
 800396e:	6a63      	ldr	r3, [r4, #36]	@ 0x24
 8003970:	3301      	adds	r3, #1
 8003972:	6263      	str	r3, [r4, #36]	@ 0x24
 8003974:	8d23      	ldrh	r3, [r4, #40]	@ 0x28
 8003976:	3b01      	subs	r3, #1
 8003978:	8523      	strh	r3, [r4, #40]	@ 0x28
 800397a:	8d63      	ldrh	r3, [r4, #42]	@ 0x2a
 800397c:	3b01      	subs	r3, #1
 800397e:	b29b      	uxth	r3, r3
 8003980:	8563      	strh	r3, [r4, #42]	@ 0x2a
 8003982:	4641      	mov	r1, r8
 8003984:	9500      	str	r5, [sp, #0]
 8003986:	463b      	mov	r3, r7
 8003988:	4620      	mov	r0, r4
 800398a:	e7c7      	b.n	800391c <HAL_I2C_Master_Receive+0x224>
 800398c:	00100002 	.word	0x00100002
 8003990:	ffff0000 	.word	0xffff0000
 8003994:	00010002 	.word	0x00010002
 8003998:	00010008 	.word	0x00010008
 800399c:	00010004 	.word	0x00010004
 80039a0:	462a      	mov	r2, r5
 80039a2:	4639      	mov	r1, r7
 80039a4:	4620      	mov	r0, r4
 80039a6:	f7ff fcd7 	bl	8003358 <I2C_WaitOnRXNEFlagUntilTimeout>
 80039aa:	2800      	cmp	r0, #0
 80039ac:	f47f af08 	bne.w	80037c0 <HAL_I2C_Master_Receive+0xc8>
 80039b0:	6823      	ldr	r3, [r4, #0]
 80039b2:	691a      	ldr	r2, [r3, #16]
 80039b4:	6a63      	ldr	r3, [r4, #36]	@ 0x24
 80039b6:	701a      	strb	r2, [r3, #0]
 80039b8:	8d62      	ldrh	r2, [r4, #42]	@ 0x2a
 80039ba:	6a61      	ldr	r1, [r4, #36]	@ 0x24
 80039bc:	3a01      	subs	r2, #1
 80039be:	b292      	uxth	r2, r2
 80039c0:	1c4b      	adds	r3, r1, #1
 80039c2:	8562      	strh	r2, [r4, #42]	@ 0x2a
 80039c4:	6822      	ldr	r2, [r4, #0]
 80039c6:	6263      	str	r3, [r4, #36]	@ 0x24
 80039c8:	8d23      	ldrh	r3, [r4, #40]	@ 0x28
 80039ca:	6950      	ldr	r0, [r2, #20]
 80039cc:	3b01      	subs	r3, #1
 80039ce:	b29b      	uxth	r3, r3
 80039d0:	0740      	lsls	r0, r0, #29
 80039d2:	8523      	strh	r3, [r4, #40]	@ 0x28
 80039d4:	f57f af17 	bpl.w	8003806 <HAL_I2C_Master_Receive+0x10e>
 80039d8:	2b03      	cmp	r3, #3
 80039da:	bf02      	ittt	eq
 80039dc:	6813      	ldreq	r3, [r2, #0]
 80039de:	f423 6380 	biceq.w	r3, r3, #1024	@ 0x400
 80039e2:	6013      	streq	r3, [r2, #0]
 80039e4:	6913      	ldr	r3, [r2, #16]
 80039e6:	704b      	strb	r3, [r1, #1]
 80039e8:	e785      	b.n	80038f6 <HAL_I2C_Master_Receive+0x1fe>
 80039ea:	bf00      	nop

080039ec <HAL_I2CEx_ConfigAnalogFilter>:
 80039ec:	b510      	push	{r4, lr}
 80039ee:	f890 303d 	ldrb.w	r3, [r0, #61]	@ 0x3d
 80039f2:	2b20      	cmp	r3, #32
 80039f4:	b2dc      	uxtb	r4, r3
 80039f6:	d116      	bne.n	8003a26 <HAL_I2CEx_ConfigAnalogFilter+0x3a>
 80039f8:	2324      	movs	r3, #36	@ 0x24
 80039fa:	f880 303d 	strb.w	r3, [r0, #61]	@ 0x3d
 80039fe:	6803      	ldr	r3, [r0, #0]
 8003a00:	681a      	ldr	r2, [r3, #0]
 8003a02:	f022 0201 	bic.w	r2, r2, #1
 8003a06:	601a      	str	r2, [r3, #0]
 8003a08:	6a5a      	ldr	r2, [r3, #36]	@ 0x24
 8003a0a:	f022 0210 	bic.w	r2, r2, #16
 8003a0e:	625a      	str	r2, [r3, #36]	@ 0x24
 8003a10:	6a5a      	ldr	r2, [r3, #36]	@ 0x24
 8003a12:	4311      	orrs	r1, r2
 8003a14:	6259      	str	r1, [r3, #36]	@ 0x24
 8003a16:	681a      	ldr	r2, [r3, #0]
 8003a18:	f042 0201 	orr.w	r2, r2, #1
 8003a1c:	601a      	str	r2, [r3, #0]
 8003a1e:	f880 403d 	strb.w	r4, [r0, #61]	@ 0x3d
 8003a22:	2000      	movs	r0, #0
 8003a24:	bd10      	pop	{r4, pc}
 8003a26:	2002      	movs	r0, #2
 8003a28:	e7fc      	b.n	8003a24 <HAL_I2CEx_ConfigAnalogFilter+0x38>

08003a2a <HAL_I2CEx_ConfigDigitalFilter>:
 8003a2a:	b530      	push	{r4, r5, lr}
 8003a2c:	f890 303d 	ldrb.w	r3, [r0, #61]	@ 0x3d
 8003a30:	2b20      	cmp	r3, #32
 8003a32:	b2dc      	uxtb	r4, r3
 8003a34:	d116      	bne.n	8003a64 <HAL_I2CEx_ConfigDigitalFilter+0x3a>
 8003a36:	6802      	ldr	r2, [r0, #0]
 8003a38:	2324      	movs	r3, #36	@ 0x24
 8003a3a:	f880 303d 	strb.w	r3, [r0, #61]	@ 0x3d
 8003a3e:	6813      	ldr	r3, [r2, #0]
 8003a40:	f023 0301 	bic.w	r3, r3, #1
 8003a44:	6013      	str	r3, [r2, #0]
 8003a46:	6a55      	ldr	r5, [r2, #36]	@ 0x24
 8003a48:	f64f 73f0 	movw	r3, #65520	@ 0xfff0
 8003a4c:	402b      	ands	r3, r5
 8003a4e:	430b      	orrs	r3, r1
 8003a50:	b29b      	uxth	r3, r3
 8003a52:	6253      	str	r3, [r2, #36]	@ 0x24
 8003a54:	6813      	ldr	r3, [r2, #0]
 8003a56:	f043 0301 	orr.w	r3, r3, #1
 8003a5a:	6013      	str	r3, [r2, #0]
 8003a5c:	f880 403d 	strb.w	r4, [r0, #61]	@ 0x3d
 8003a60:	2000      	movs	r0, #0
 8003a62:	bd30      	pop	{r4, r5, pc}
 8003a64:	2002      	movs	r0, #2
 8003a66:	e7fc      	b.n	8003a62 <HAL_I2CEx_ConfigDigitalFilter+0x38>

08003a68 <HAL_PWR_EnableBkUpAccess>:
 8003a68:	4b04      	ldr	r3, [pc, #16]	@ (8003a7c <HAL_PWR_EnableBkUpAccess+0x14>)
 8003a6a:	2201      	movs	r2, #1
 8003a6c:	621a      	str	r2, [r3, #32]
 8003a6e:	4b04      	ldr	r3, [pc, #16]	@ (8003a80 <HAL_PWR_EnableBkUpAccess+0x18>)
 8003a70:	b082      	sub	sp, #8
 8003a72:	681b      	ldr	r3, [r3, #0]
 8003a74:	9301      	str	r3, [sp, #4]
 8003a76:	9b01      	ldr	r3, [sp, #4]
 8003a78:	b002      	add	sp, #8
 8003a7a:	4770      	bx	lr
 8003a7c:	420e0000 	.word	0x420e0000
 8003a80:	40007000 	.word	0x40007000

08003a84 <HAL_PWR_DisableBkUpAccess>:
 8003a84:	4b04      	ldr	r3, [pc, #16]	@ (8003a98 <HAL_PWR_DisableBkUpAccess+0x14>)
 8003a86:	2200      	movs	r2, #0
 8003a88:	621a      	str	r2, [r3, #32]
 8003a8a:	4b04      	ldr	r3, [pc, #16]	@ (8003a9c <HAL_PWR_DisableBkUpAccess+0x18>)
 8003a8c:	b082      	sub	sp, #8
 8003a8e:	681b      	ldr	r3, [r3, #0]
 8003a90:	9301      	str	r3, [sp, #4]
 8003a92:	9b01      	ldr	r3, [sp, #4]
 8003a94:	b002      	add	sp, #8
 8003a96:	4770      	bx	lr
 8003a98:	420e0000 	.word	0x420e0000
 8003a9c:	40007000 	.word	0x40007000

08003aa0 <HAL_RCC_OscConfig>:
 8003aa0:	e92d 41f3 	stmdb	sp!, {r0, r1, r4, r5, r6, r7, r8, lr}
 8003aa4:	4604      	mov	r4, r0
 8003aa6:	b340      	cbz	r0, 8003afa <HAL_RCC_OscConfig+0x5a>
 8003aa8:	6803      	ldr	r3, [r0, #0]
 8003aaa:	07de      	lsls	r6, r3, #31
 8003aac:	d410      	bmi.n	8003ad0 <HAL_RCC_OscConfig+0x30>
 8003aae:	6823      	ldr	r3, [r4, #0]
 8003ab0:	079d      	lsls	r5, r3, #30
 8003ab2:	d45b      	bmi.n	8003b6c <HAL_RCC_OscConfig+0xcc>
 8003ab4:	6823      	ldr	r3, [r4, #0]
 8003ab6:	0719      	lsls	r1, r3, #28
 8003ab8:	f100 809d 	bmi.w	8003bf6 <HAL_RCC_OscConfig+0x156>
 8003abc:	6823      	ldr	r3, [r4, #0]
 8003abe:	075a      	lsls	r2, r3, #29
 8003ac0:	f100 80bd 	bmi.w	8003c3e <HAL_RCC_OscConfig+0x19e>
 8003ac4:	69a3      	ldr	r3, [r4, #24]
 8003ac6:	2b00      	cmp	r3, #0
 8003ac8:	f040 8124 	bne.w	8003d14 <HAL_RCC_OscConfig+0x274>
 8003acc:	2000      	movs	r0, #0
 8003ace:	e02c      	b.n	8003b2a <HAL_RCC_OscConfig+0x8a>
 8003ad0:	4b8d      	ldr	r3, [pc, #564]	@ (8003d08 <HAL_RCC_OscConfig+0x268>)
 8003ad2:	689a      	ldr	r2, [r3, #8]
 8003ad4:	f002 020c 	and.w	r2, r2, #12
 8003ad8:	2a04      	cmp	r2, #4
 8003ada:	d007      	beq.n	8003aec <HAL_RCC_OscConfig+0x4c>
 8003adc:	689a      	ldr	r2, [r3, #8]
 8003ade:	f002 020c 	and.w	r2, r2, #12
 8003ae2:	2a08      	cmp	r2, #8
 8003ae4:	d10b      	bne.n	8003afe <HAL_RCC_OscConfig+0x5e>
 8003ae6:	685b      	ldr	r3, [r3, #4]
 8003ae8:	0259      	lsls	r1, r3, #9
 8003aea:	d508      	bpl.n	8003afe <HAL_RCC_OscConfig+0x5e>
 8003aec:	4b86      	ldr	r3, [pc, #536]	@ (8003d08 <HAL_RCC_OscConfig+0x268>)
 8003aee:	681b      	ldr	r3, [r3, #0]
 8003af0:	039a      	lsls	r2, r3, #14
 8003af2:	d5dc      	bpl.n	8003aae <HAL_RCC_OscConfig+0xe>
 8003af4:	6863      	ldr	r3, [r4, #4]
 8003af6:	2b00      	cmp	r3, #0
 8003af8:	d1d9      	bne.n	8003aae <HAL_RCC_OscConfig+0xe>
 8003afa:	2001      	movs	r0, #1
 8003afc:	e015      	b.n	8003b2a <HAL_RCC_OscConfig+0x8a>
 8003afe:	6863      	ldr	r3, [r4, #4]
 8003b00:	4d81      	ldr	r5, [pc, #516]	@ (8003d08 <HAL_RCC_OscConfig+0x268>)
 8003b02:	f5b3 3f80 	cmp.w	r3, #65536	@ 0x10000
 8003b06:	d113      	bne.n	8003b30 <HAL_RCC_OscConfig+0x90>
 8003b08:	682b      	ldr	r3, [r5, #0]
 8003b0a:	f443 3380 	orr.w	r3, r3, #65536	@ 0x10000
 8003b0e:	602b      	str	r3, [r5, #0]
 8003b10:	f7fe fc22 	bl	8002358 <HAL_GetTick>
 8003b14:	4e7c      	ldr	r6, [pc, #496]	@ (8003d08 <HAL_RCC_OscConfig+0x268>)
 8003b16:	4605      	mov	r5, r0
 8003b18:	6833      	ldr	r3, [r6, #0]
 8003b1a:	039b      	lsls	r3, r3, #14
 8003b1c:	d4c7      	bmi.n	8003aae <HAL_RCC_OscConfig+0xe>
 8003b1e:	f7fe fc1b 	bl	8002358 <HAL_GetTick>
 8003b22:	1b40      	subs	r0, r0, r5
 8003b24:	2864      	cmp	r0, #100	@ 0x64
 8003b26:	d9f7      	bls.n	8003b18 <HAL_RCC_OscConfig+0x78>
 8003b28:	2003      	movs	r0, #3
 8003b2a:	b002      	add	sp, #8
 8003b2c:	e8bd 81f0 	ldmia.w	sp!, {r4, r5, r6, r7, r8, pc}
 8003b30:	f5b3 2fa0 	cmp.w	r3, #327680	@ 0x50000
 8003b34:	d104      	bne.n	8003b40 <HAL_RCC_OscConfig+0xa0>
 8003b36:	682b      	ldr	r3, [r5, #0]
 8003b38:	f443 2380 	orr.w	r3, r3, #262144	@ 0x40000
 8003b3c:	602b      	str	r3, [r5, #0]
 8003b3e:	e7e3      	b.n	8003b08 <HAL_RCC_OscConfig+0x68>
 8003b40:	682a      	ldr	r2, [r5, #0]
 8003b42:	f422 3280 	bic.w	r2, r2, #65536	@ 0x10000
 8003b46:	602a      	str	r2, [r5, #0]
 8003b48:	682a      	ldr	r2, [r5, #0]
 8003b4a:	f422 2280 	bic.w	r2, r2, #262144	@ 0x40000
 8003b4e:	602a      	str	r2, [r5, #0]
 8003b50:	2b00      	cmp	r3, #0
 8003b52:	d1dd      	bne.n	8003b10 <HAL_RCC_OscConfig+0x70>
 8003b54:	f7fe fc00 	bl	8002358 <HAL_GetTick>
 8003b58:	4606      	mov	r6, r0
 8003b5a:	682b      	ldr	r3, [r5, #0]
 8003b5c:	039f      	lsls	r7, r3, #14
 8003b5e:	d5a6      	bpl.n	8003aae <HAL_RCC_OscConfig+0xe>
 8003b60:	f7fe fbfa 	bl	8002358 <HAL_GetTick>
 8003b64:	1b80      	subs	r0, r0, r6
 8003b66:	2864      	cmp	r0, #100	@ 0x64
 8003b68:	d9f7      	bls.n	8003b5a <HAL_RCC_OscConfig+0xba>
 8003b6a:	e7dd      	b.n	8003b28 <HAL_RCC_OscConfig+0x88>
 8003b6c:	4b66      	ldr	r3, [pc, #408]	@ (8003d08 <HAL_RCC_OscConfig+0x268>)
 8003b6e:	689a      	ldr	r2, [r3, #8]
 8003b70:	f012 0f0c 	tst.w	r2, #12
 8003b74:	d007      	beq.n	8003b86 <HAL_RCC_OscConfig+0xe6>
 8003b76:	689a      	ldr	r2, [r3, #8]
 8003b78:	f002 020c 	and.w	r2, r2, #12
 8003b7c:	2a08      	cmp	r2, #8
 8003b7e:	d111      	bne.n	8003ba4 <HAL_RCC_OscConfig+0x104>
 8003b80:	685b      	ldr	r3, [r3, #4]
 8003b82:	025d      	lsls	r5, r3, #9
 8003b84:	d40e      	bmi.n	8003ba4 <HAL_RCC_OscConfig+0x104>
 8003b86:	4a60      	ldr	r2, [pc, #384]	@ (8003d08 <HAL_RCC_OscConfig+0x268>)
 8003b88:	6813      	ldr	r3, [r2, #0]
 8003b8a:	0799      	lsls	r1, r3, #30
 8003b8c:	d502      	bpl.n	8003b94 <HAL_RCC_OscConfig+0xf4>
 8003b8e:	68e3      	ldr	r3, [r4, #12]
 8003b90:	2b01      	cmp	r3, #1
 8003b92:	d1b2      	bne.n	8003afa <HAL_RCC_OscConfig+0x5a>
 8003b94:	6813      	ldr	r3, [r2, #0]
 8003b96:	6921      	ldr	r1, [r4, #16]
 8003b98:	f023 03f8 	bic.w	r3, r3, #248	@ 0xf8
 8003b9c:	ea43 03c1 	orr.w	r3, r3, r1, lsl #3
 8003ba0:	6013      	str	r3, [r2, #0]
 8003ba2:	e787      	b.n	8003ab4 <HAL_RCC_OscConfig+0x14>
 8003ba4:	68e2      	ldr	r2, [r4, #12]
 8003ba6:	4b59      	ldr	r3, [pc, #356]	@ (8003d0c <HAL_RCC_OscConfig+0x26c>)
 8003ba8:	b1b2      	cbz	r2, 8003bd8 <HAL_RCC_OscConfig+0x138>
 8003baa:	2201      	movs	r2, #1
 8003bac:	601a      	str	r2, [r3, #0]
 8003bae:	f7fe fbd3 	bl	8002358 <HAL_GetTick>
 8003bb2:	4d55      	ldr	r5, [pc, #340]	@ (8003d08 <HAL_RCC_OscConfig+0x268>)
 8003bb4:	4606      	mov	r6, r0
 8003bb6:	682b      	ldr	r3, [r5, #0]
 8003bb8:	079b      	lsls	r3, r3, #30
 8003bba:	d507      	bpl.n	8003bcc <HAL_RCC_OscConfig+0x12c>
 8003bbc:	682b      	ldr	r3, [r5, #0]
 8003bbe:	6922      	ldr	r2, [r4, #16]
 8003bc0:	f023 03f8 	bic.w	r3, r3, #248	@ 0xf8
 8003bc4:	ea43 03c2 	orr.w	r3, r3, r2, lsl #3
 8003bc8:	602b      	str	r3, [r5, #0]
 8003bca:	e773      	b.n	8003ab4 <HAL_RCC_OscConfig+0x14>
 8003bcc:	f7fe fbc4 	bl	8002358 <HAL_GetTick>
 8003bd0:	1b80      	subs	r0, r0, r6
 8003bd2:	2802      	cmp	r0, #2
 8003bd4:	d9ef      	bls.n	8003bb6 <HAL_RCC_OscConfig+0x116>
 8003bd6:	e7a7      	b.n	8003b28 <HAL_RCC_OscConfig+0x88>
 8003bd8:	601a      	str	r2, [r3, #0]
 8003bda:	f7fe fbbd 	bl	8002358 <HAL_GetTick>
 8003bde:	4e4a      	ldr	r6, [pc, #296]	@ (8003d08 <HAL_RCC_OscConfig+0x268>)
 8003be0:	4605      	mov	r5, r0
 8003be2:	6833      	ldr	r3, [r6, #0]
 8003be4:	079f      	lsls	r7, r3, #30
 8003be6:	f57f af65 	bpl.w	8003ab4 <HAL_RCC_OscConfig+0x14>
 8003bea:	f7fe fbb5 	bl	8002358 <HAL_GetTick>
 8003bee:	1b40      	subs	r0, r0, r5
 8003bf0:	2802      	cmp	r0, #2
 8003bf2:	d9f6      	bls.n	8003be2 <HAL_RCC_OscConfig+0x142>
 8003bf4:	e798      	b.n	8003b28 <HAL_RCC_OscConfig+0x88>
 8003bf6:	6962      	ldr	r2, [r4, #20]
 8003bf8:	4b44      	ldr	r3, [pc, #272]	@ (8003d0c <HAL_RCC_OscConfig+0x26c>)
 8003bfa:	b182      	cbz	r2, 8003c1e <HAL_RCC_OscConfig+0x17e>
 8003bfc:	2201      	movs	r2, #1
 8003bfe:	f8c3 2e80 	str.w	r2, [r3, #3712]	@ 0xe80
 8003c02:	f7fe fba9 	bl	8002358 <HAL_GetTick>
 8003c06:	4e40      	ldr	r6, [pc, #256]	@ (8003d08 <HAL_RCC_OscConfig+0x268>)
 8003c08:	4605      	mov	r5, r0
 8003c0a:	6f73      	ldr	r3, [r6, #116]	@ 0x74
 8003c0c:	079b      	lsls	r3, r3, #30
 8003c0e:	f53f af55 	bmi.w	8003abc <HAL_RCC_OscConfig+0x1c>
 8003c12:	f7fe fba1 	bl	8002358 <HAL_GetTick>
 8003c16:	1b40      	subs	r0, r0, r5
 8003c18:	2802      	cmp	r0, #2
 8003c1a:	d9f6      	bls.n	8003c0a <HAL_RCC_OscConfig+0x16a>
 8003c1c:	e784      	b.n	8003b28 <HAL_RCC_OscConfig+0x88>
 8003c1e:	f8c3 2e80 	str.w	r2, [r3, #3712]	@ 0xe80
 8003c22:	f7fe fb99 	bl	8002358 <HAL_GetTick>
 8003c26:	4e38      	ldr	r6, [pc, #224]	@ (8003d08 <HAL_RCC_OscConfig+0x268>)
 8003c28:	4605      	mov	r5, r0
 8003c2a:	6f73      	ldr	r3, [r6, #116]	@ 0x74
 8003c2c:	079f      	lsls	r7, r3, #30
 8003c2e:	f57f af45 	bpl.w	8003abc <HAL_RCC_OscConfig+0x1c>
 8003c32:	f7fe fb91 	bl	8002358 <HAL_GetTick>
 8003c36:	1b40      	subs	r0, r0, r5
 8003c38:	2802      	cmp	r0, #2
 8003c3a:	d9f6      	bls.n	8003c2a <HAL_RCC_OscConfig+0x18a>
 8003c3c:	e774      	b.n	8003b28 <HAL_RCC_OscConfig+0x88>
 8003c3e:	4b32      	ldr	r3, [pc, #200]	@ (8003d08 <HAL_RCC_OscConfig+0x268>)
 8003c40:	6c1a      	ldr	r2, [r3, #64]	@ 0x40
 8003c42:	f012 5280 	ands.w	r2, r2, #268435456	@ 0x10000000
 8003c46:	d128      	bne.n	8003c9a <HAL_RCC_OscConfig+0x1fa>
 8003c48:	9201      	str	r2, [sp, #4]
 8003c4a:	6c1a      	ldr	r2, [r3, #64]	@ 0x40
 8003c4c:	f042 5280 	orr.w	r2, r2, #268435456	@ 0x10000000
 8003c50:	641a      	str	r2, [r3, #64]	@ 0x40
 8003c52:	6c1b      	ldr	r3, [r3, #64]	@ 0x40
 8003c54:	f003 5380 	and.w	r3, r3, #268435456	@ 0x10000000
 8003c58:	9301      	str	r3, [sp, #4]
 8003c5a:	9b01      	ldr	r3, [sp, #4]
 8003c5c:	2701      	movs	r7, #1
 8003c5e:	4d2c      	ldr	r5, [pc, #176]	@ (8003d10 <HAL_RCC_OscConfig+0x270>)
 8003c60:	682b      	ldr	r3, [r5, #0]
 8003c62:	05d8      	lsls	r0, r3, #23
 8003c64:	d51b      	bpl.n	8003c9e <HAL_RCC_OscConfig+0x1fe>
 8003c66:	68a3      	ldr	r3, [r4, #8]
 8003c68:	4d27      	ldr	r5, [pc, #156]	@ (8003d08 <HAL_RCC_OscConfig+0x268>)
 8003c6a:	2b01      	cmp	r3, #1
 8003c6c:	d127      	bne.n	8003cbe <HAL_RCC_OscConfig+0x21e>
 8003c6e:	6f2b      	ldr	r3, [r5, #112]	@ 0x70
 8003c70:	f043 0301 	orr.w	r3, r3, #1
 8003c74:	672b      	str	r3, [r5, #112]	@ 0x70
 8003c76:	f7fe fb6f 	bl	8002358 <HAL_GetTick>
 8003c7a:	4e23      	ldr	r6, [pc, #140]	@ (8003d08 <HAL_RCC_OscConfig+0x268>)
 8003c7c:	4605      	mov	r5, r0
 8003c7e:	f241 3888 	movw	r8, #5000	@ 0x1388
 8003c82:	6f33      	ldr	r3, [r6, #112]	@ 0x70
 8003c84:	079a      	lsls	r2, r3, #30
 8003c86:	d539      	bpl.n	8003cfc <HAL_RCC_OscConfig+0x25c>
 8003c88:	2f00      	cmp	r7, #0
 8003c8a:	f43f af1b 	beq.w	8003ac4 <HAL_RCC_OscConfig+0x24>
 8003c8e:	4a1e      	ldr	r2, [pc, #120]	@ (8003d08 <HAL_RCC_OscConfig+0x268>)
 8003c90:	6c13      	ldr	r3, [r2, #64]	@ 0x40
 8003c92:	f023 5380 	bic.w	r3, r3, #268435456	@ 0x10000000
 8003c96:	6413      	str	r3, [r2, #64]	@ 0x40
 8003c98:	e714      	b.n	8003ac4 <HAL_RCC_OscConfig+0x24>
 8003c9a:	2700      	movs	r7, #0
 8003c9c:	e7df      	b.n	8003c5e <HAL_RCC_OscConfig+0x1be>
 8003c9e:	682b      	ldr	r3, [r5, #0]
 8003ca0:	f443 7380 	orr.w	r3, r3, #256	@ 0x100
 8003ca4:	602b      	str	r3, [r5, #0]
 8003ca6:	f7fe fb57 	bl	8002358 <HAL_GetTick>
 8003caa:	4606      	mov	r6, r0
 8003cac:	682b      	ldr	r3, [r5, #0]
 8003cae:	05d9      	lsls	r1, r3, #23
 8003cb0:	d4d9      	bmi.n	8003c66 <HAL_RCC_OscConfig+0x1c6>
 8003cb2:	f7fe fb51 	bl	8002358 <HAL_GetTick>
 8003cb6:	1b80      	subs	r0, r0, r6
 8003cb8:	2802      	cmp	r0, #2
 8003cba:	d9f7      	bls.n	8003cac <HAL_RCC_OscConfig+0x20c>
 8003cbc:	e734      	b.n	8003b28 <HAL_RCC_OscConfig+0x88>
 8003cbe:	2b05      	cmp	r3, #5
 8003cc0:	d104      	bne.n	8003ccc <HAL_RCC_OscConfig+0x22c>
 8003cc2:	6f2b      	ldr	r3, [r5, #112]	@ 0x70
 8003cc4:	f043 0304 	orr.w	r3, r3, #4
 8003cc8:	672b      	str	r3, [r5, #112]	@ 0x70
 8003cca:	e7d0      	b.n	8003c6e <HAL_RCC_OscConfig+0x1ce>
 8003ccc:	6f2a      	ldr	r2, [r5, #112]	@ 0x70
 8003cce:	f022 0201 	bic.w	r2, r2, #1
 8003cd2:	672a      	str	r2, [r5, #112]	@ 0x70
 8003cd4:	6f2a      	ldr	r2, [r5, #112]	@ 0x70
 8003cd6:	f022 0204 	bic.w	r2, r2, #4
 8003cda:	672a      	str	r2, [r5, #112]	@ 0x70
 8003cdc:	2b00      	cmp	r3, #0
 8003cde:	d1ca      	bne.n	8003c76 <HAL_RCC_OscConfig+0x1d6>
 8003ce0:	f7fe fb3a 	bl	8002358 <HAL_GetTick>
 8003ce4:	f241 3888 	movw	r8, #5000	@ 0x1388
 8003ce8:	4606      	mov	r6, r0
 8003cea:	6f2b      	ldr	r3, [r5, #112]	@ 0x70
 8003cec:	079b      	lsls	r3, r3, #30
 8003cee:	d5cb      	bpl.n	8003c88 <HAL_RCC_OscConfig+0x1e8>
 8003cf0:	f7fe fb32 	bl	8002358 <HAL_GetTick>
 8003cf4:	1b80      	subs	r0, r0, r6
 8003cf6:	4540      	cmp	r0, r8
 8003cf8:	d9f7      	bls.n	8003cea <HAL_RCC_OscConfig+0x24a>
 8003cfa:	e715      	b.n	8003b28 <HAL_RCC_OscConfig+0x88>
 8003cfc:	f7fe fb2c 	bl	8002358 <HAL_GetTick>
 8003d00:	1b40      	subs	r0, r0, r5
 8003d02:	4540      	cmp	r0, r8
 8003d04:	d9bd      	bls.n	8003c82 <HAL_RCC_OscConfig+0x1e2>
 8003d06:	e70f      	b.n	8003b28 <HAL_RCC_OscConfig+0x88>
 8003d08:	40023800 	.word	0x40023800
 8003d0c:	42470000 	.word	0x42470000
 8003d10:	40007000 	.word	0x40007000
 8003d14:	4d37      	ldr	r5, [pc, #220]	@ (8003df4 <HAL_RCC_OscConfig+0x354>)
 8003d16:	68aa      	ldr	r2, [r5, #8]
 8003d18:	f002 020c 	and.w	r2, r2, #12
 8003d1c:	2a08      	cmp	r2, #8
 8003d1e:	d03e      	beq.n	8003d9e <HAL_RCC_OscConfig+0x2fe>
 8003d20:	2b02      	cmp	r3, #2
 8003d22:	4b35      	ldr	r3, [pc, #212]	@ (8003df8 <HAL_RCC_OscConfig+0x358>)
 8003d24:	f04f 0200 	mov.w	r2, #0
 8003d28:	661a      	str	r2, [r3, #96]	@ 0x60
 8003d2a:	d12b      	bne.n	8003d84 <HAL_RCC_OscConfig+0x2e4>
 8003d2c:	f7fe fb14 	bl	8002358 <HAL_GetTick>
 8003d30:	4606      	mov	r6, r0
 8003d32:	682b      	ldr	r3, [r5, #0]
 8003d34:	0199      	lsls	r1, r3, #6
 8003d36:	d41f      	bmi.n	8003d78 <HAL_RCC_OscConfig+0x2d8>
 8003d38:	e9d4 3207 	ldrd	r3, r2, [r4, #28]
 8003d3c:	4313      	orrs	r3, r2
 8003d3e:	6a62      	ldr	r2, [r4, #36]	@ 0x24
 8003d40:	ea43 1382 	orr.w	r3, r3, r2, lsl #6
 8003d44:	6ae2      	ldr	r2, [r4, #44]	@ 0x2c
 8003d46:	ea43 6302 	orr.w	r3, r3, r2, lsl #24
 8003d4a:	6aa2      	ldr	r2, [r4, #40]	@ 0x28
 8003d4c:	0852      	lsrs	r2, r2, #1
 8003d4e:	3a01      	subs	r2, #1
 8003d50:	ea43 4302 	orr.w	r3, r3, r2, lsl #16
 8003d54:	606b      	str	r3, [r5, #4]
 8003d56:	4b28      	ldr	r3, [pc, #160]	@ (8003df8 <HAL_RCC_OscConfig+0x358>)
 8003d58:	4d26      	ldr	r5, [pc, #152]	@ (8003df4 <HAL_RCC_OscConfig+0x354>)
 8003d5a:	2201      	movs	r2, #1
 8003d5c:	661a      	str	r2, [r3, #96]	@ 0x60
 8003d5e:	f7fe fafb 	bl	8002358 <HAL_GetTick>
 8003d62:	4604      	mov	r4, r0
 8003d64:	682b      	ldr	r3, [r5, #0]
 8003d66:	019a      	lsls	r2, r3, #6
 8003d68:	f53f aeb0 	bmi.w	8003acc <HAL_RCC_OscConfig+0x2c>
 8003d6c:	f7fe faf4 	bl	8002358 <HAL_GetTick>
 8003d70:	1b00      	subs	r0, r0, r4
 8003d72:	2802      	cmp	r0, #2
 8003d74:	d9f6      	bls.n	8003d64 <HAL_RCC_OscConfig+0x2c4>
 8003d76:	e6d7      	b.n	8003b28 <HAL_RCC_OscConfig+0x88>
 8003d78:	f7fe faee 	bl	8002358 <HAL_GetTick>
 8003d7c:	1b80      	subs	r0, r0, r6
 8003d7e:	2802      	cmp	r0, #2
 8003d80:	d9d7      	bls.n	8003d32 <HAL_RCC_OscConfig+0x292>
 8003d82:	e6d1      	b.n	8003b28 <HAL_RCC_OscConfig+0x88>
 8003d84:	f7fe fae8 	bl	8002358 <HAL_GetTick>
 8003d88:	4604      	mov	r4, r0
 8003d8a:	682b      	ldr	r3, [r5, #0]
 8003d8c:	019b      	lsls	r3, r3, #6
 8003d8e:	f57f ae9d 	bpl.w	8003acc <HAL_RCC_OscConfig+0x2c>
 8003d92:	f7fe fae1 	bl	8002358 <HAL_GetTick>
 8003d96:	1b00      	subs	r0, r0, r4
 8003d98:	2802      	cmp	r0, #2
 8003d9a:	d9f6      	bls.n	8003d8a <HAL_RCC_OscConfig+0x2ea>
 8003d9c:	e6c4      	b.n	8003b28 <HAL_RCC_OscConfig+0x88>
 8003d9e:	2b01      	cmp	r3, #1
 8003da0:	f43f aeab 	beq.w	8003afa <HAL_RCC_OscConfig+0x5a>
 8003da4:	686b      	ldr	r3, [r5, #4]
 8003da6:	69e2      	ldr	r2, [r4, #28]
 8003da8:	f403 0180 	and.w	r1, r3, #4194304	@ 0x400000
 8003dac:	4291      	cmp	r1, r2
 8003dae:	f47f aea4 	bne.w	8003afa <HAL_RCC_OscConfig+0x5a>
 8003db2:	6a21      	ldr	r1, [r4, #32]
 8003db4:	f003 023f 	and.w	r2, r3, #63	@ 0x3f
 8003db8:	428a      	cmp	r2, r1
 8003dba:	f47f ae9e 	bne.w	8003afa <HAL_RCC_OscConfig+0x5a>
 8003dbe:	6a61      	ldr	r1, [r4, #36]	@ 0x24
 8003dc0:	f647 72c0 	movw	r2, #32704	@ 0x7fc0
 8003dc4:	401a      	ands	r2, r3
 8003dc6:	ebb2 1f81 	cmp.w	r2, r1, lsl #6
 8003dca:	f47f ae96 	bne.w	8003afa <HAL_RCC_OscConfig+0x5a>
 8003dce:	6aa2      	ldr	r2, [r4, #40]	@ 0x28
 8003dd0:	0852      	lsrs	r2, r2, #1
 8003dd2:	f403 3140 	and.w	r1, r3, #196608	@ 0x30000
 8003dd6:	3a01      	subs	r2, #1
 8003dd8:	ebb1 4f02 	cmp.w	r1, r2, lsl #16
 8003ddc:	f47f ae8d 	bne.w	8003afa <HAL_RCC_OscConfig+0x5a>
 8003de0:	6ae2      	ldr	r2, [r4, #44]	@ 0x2c
 8003de2:	f003 6370 	and.w	r3, r3, #251658240	@ 0xf000000
 8003de6:	ebb3 6f02 	cmp.w	r3, r2, lsl #24
 8003dea:	bf14      	ite	ne
 8003dec:	2001      	movne	r0, #1
 8003dee:	2000      	moveq	r0, #0
 8003df0:	e69b      	b.n	8003b2a <HAL_RCC_OscConfig+0x8a>
 8003df2:	bf00      	nop
 8003df4:	40023800 	.word	0x40023800
 8003df8:	42470000 	.word	0x42470000

08003dfc <HAL_RCC_GetSysClockFreq>:
 8003dfc:	4913      	ldr	r1, [pc, #76]	@ (8003e4c <HAL_RCC_GetSysClockFreq+0x50>)
 8003dfe:	b508      	push	{r3, lr}
 8003e00:	688b      	ldr	r3, [r1, #8]
 8003e02:	f003 030c 	and.w	r3, r3, #12
 8003e06:	2b04      	cmp	r3, #4
 8003e08:	d01c      	beq.n	8003e44 <HAL_RCC_GetSysClockFreq+0x48>
 8003e0a:	2b08      	cmp	r3, #8
 8003e0c:	d11c      	bne.n	8003e48 <HAL_RCC_GetSysClockFreq+0x4c>
 8003e0e:	684a      	ldr	r2, [r1, #4]
 8003e10:	684b      	ldr	r3, [r1, #4]
 8003e12:	6849      	ldr	r1, [r1, #4]
 8003e14:	f413 0380 	ands.w	r3, r3, #4194304	@ 0x400000
 8003e18:	bf14      	ite	ne
 8003e1a:	480d      	ldrne	r0, [pc, #52]	@ (8003e50 <HAL_RCC_GetSysClockFreq+0x54>)
 8003e1c:	480d      	ldreq	r0, [pc, #52]	@ (8003e54 <HAL_RCC_GetSysClockFreq+0x58>)
 8003e1e:	f3c1 1188 	ubfx	r1, r1, #6, #9
 8003e22:	bf18      	it	ne
 8003e24:	2300      	movne	r3, #0
 8003e26:	f002 023f 	and.w	r2, r2, #63	@ 0x3f
 8003e2a:	fba1 0100 	umull	r0, r1, r1, r0
 8003e2e:	f7fc f9e5 	bl	80001fc <__aeabi_uldivmod>
 8003e32:	4b06      	ldr	r3, [pc, #24]	@ (8003e4c <HAL_RCC_GetSysClockFreq+0x50>)
 8003e34:	685b      	ldr	r3, [r3, #4]
 8003e36:	f3c3 4301 	ubfx	r3, r3, #16, #2
 8003e3a:	3301      	adds	r3, #1
 8003e3c:	005b      	lsls	r3, r3, #1
 8003e3e:	fbb0 f0f3 	udiv	r0, r0, r3
 8003e42:	bd08      	pop	{r3, pc}
 8003e44:	4802      	ldr	r0, [pc, #8]	@ (8003e50 <HAL_RCC_GetSysClockFreq+0x54>)
 8003e46:	e7fc      	b.n	8003e42 <HAL_RCC_GetSysClockFreq+0x46>
 8003e48:	4802      	ldr	r0, [pc, #8]	@ (8003e54 <HAL_RCC_GetSysClockFreq+0x58>)
 8003e4a:	e7fa      	b.n	8003e42 <HAL_RCC_GetSysClockFreq+0x46>
 8003e4c:	40023800 	.word	0x40023800
 8003e50:	017d7840 	.word	0x017d7840
 8003e54:	00f42400 	.word	0x00f42400

08003e58 <HAL_RCC_ClockConfig>:
 8003e58:	e92d 41f0 	stmdb	sp!, {r4, r5, r6, r7, r8, lr}
 8003e5c:	460d      	mov	r5, r1
 8003e5e:	4604      	mov	r4, r0
 8003e60:	b910      	cbnz	r0, 8003e68 <HAL_RCC_ClockConfig+0x10>
 8003e62:	2001      	movs	r0, #1
 8003e64:	e8bd 81f0 	ldmia.w	sp!, {r4, r5, r6, r7, r8, pc}
 8003e68:	4b43      	ldr	r3, [pc, #268]	@ (8003f78 <HAL_RCC_ClockConfig+0x120>)
 8003e6a:	681a      	ldr	r2, [r3, #0]
 8003e6c:	f002 020f 	and.w	r2, r2, #15
 8003e70:	428a      	cmp	r2, r1
 8003e72:	d328      	bcc.n	8003ec6 <HAL_RCC_ClockConfig+0x6e>
 8003e74:	6821      	ldr	r1, [r4, #0]
 8003e76:	078f      	lsls	r7, r1, #30
 8003e78:	d42d      	bmi.n	8003ed6 <HAL_RCC_ClockConfig+0x7e>
 8003e7a:	07c8      	lsls	r0, r1, #31
 8003e7c:	d440      	bmi.n	8003f00 <HAL_RCC_ClockConfig+0xa8>
 8003e7e:	4b3e      	ldr	r3, [pc, #248]	@ (8003f78 <HAL_RCC_ClockConfig+0x120>)
 8003e80:	681a      	ldr	r2, [r3, #0]
 8003e82:	f002 020f 	and.w	r2, r2, #15
 8003e86:	42aa      	cmp	r2, r5
 8003e88:	d865      	bhi.n	8003f56 <HAL_RCC_ClockConfig+0xfe>
 8003e8a:	6822      	ldr	r2, [r4, #0]
 8003e8c:	0751      	lsls	r1, r2, #29
 8003e8e:	d46b      	bmi.n	8003f68 <HAL_RCC_ClockConfig+0x110>
 8003e90:	0713      	lsls	r3, r2, #28
 8003e92:	d507      	bpl.n	8003ea4 <HAL_RCC_ClockConfig+0x4c>
 8003e94:	4a39      	ldr	r2, [pc, #228]	@ (8003f7c <HAL_RCC_ClockConfig+0x124>)
 8003e96:	6921      	ldr	r1, [r4, #16]
 8003e98:	6893      	ldr	r3, [r2, #8]
 8003e9a:	f423 4360 	bic.w	r3, r3, #57344	@ 0xe000
 8003e9e:	ea43 03c1 	orr.w	r3, r3, r1, lsl #3
 8003ea2:	6093      	str	r3, [r2, #8]
 8003ea4:	f7ff ffaa 	bl	8003dfc <HAL_RCC_GetSysClockFreq>
 8003ea8:	4b34      	ldr	r3, [pc, #208]	@ (8003f7c <HAL_RCC_ClockConfig+0x124>)
 8003eaa:	4a35      	ldr	r2, [pc, #212]	@ (8003f80 <HAL_RCC_ClockConfig+0x128>)
 8003eac:	689b      	ldr	r3, [r3, #8]
 8003eae:	f3c3 1303 	ubfx	r3, r3, #4, #4
 8003eb2:	5cd3      	ldrb	r3, [r2, r3]
 8003eb4:	40d8      	lsrs	r0, r3
 8003eb6:	4b33      	ldr	r3, [pc, #204]	@ (8003f84 <HAL_RCC_ClockConfig+0x12c>)
 8003eb8:	6018      	str	r0, [r3, #0]
 8003eba:	4b33      	ldr	r3, [pc, #204]	@ (8003f88 <HAL_RCC_ClockConfig+0x130>)
 8003ebc:	6818      	ldr	r0, [r3, #0]
 8003ebe:	f7fe fa01 	bl	80022c4 <HAL_InitTick>
 8003ec2:	2000      	movs	r0, #0
 8003ec4:	e7ce      	b.n	8003e64 <HAL_RCC_ClockConfig+0xc>
 8003ec6:	b2ca      	uxtb	r2, r1
 8003ec8:	701a      	strb	r2, [r3, #0]
 8003eca:	681b      	ldr	r3, [r3, #0]
 8003ecc:	f003 030f 	and.w	r3, r3, #15
 8003ed0:	428b      	cmp	r3, r1
 8003ed2:	d1c6      	bne.n	8003e62 <HAL_RCC_ClockConfig+0xa>
 8003ed4:	e7ce      	b.n	8003e74 <HAL_RCC_ClockConfig+0x1c>
 8003ed6:	4b29      	ldr	r3, [pc, #164]	@ (8003f7c <HAL_RCC_ClockConfig+0x124>)
 8003ed8:	f011 0f04 	tst.w	r1, #4
 8003edc:	bf1e      	ittt	ne
 8003ede:	689a      	ldrne	r2, [r3, #8]
 8003ee0:	f442 52e0 	orrne.w	r2, r2, #7168	@ 0x1c00
 8003ee4:	609a      	strne	r2, [r3, #8]
 8003ee6:	070e      	lsls	r6, r1, #28
 8003ee8:	bf42      	ittt	mi
 8003eea:	689a      	ldrmi	r2, [r3, #8]
 8003eec:	f442 4260 	orrmi.w	r2, r2, #57344	@ 0xe000
 8003ef0:	609a      	strmi	r2, [r3, #8]
 8003ef2:	689a      	ldr	r2, [r3, #8]
 8003ef4:	68a0      	ldr	r0, [r4, #8]
 8003ef6:	f022 02f0 	bic.w	r2, r2, #240	@ 0xf0
 8003efa:	4302      	orrs	r2, r0
 8003efc:	609a      	str	r2, [r3, #8]
 8003efe:	e7bc      	b.n	8003e7a <HAL_RCC_ClockConfig+0x22>
 8003f00:	6862      	ldr	r2, [r4, #4]
 8003f02:	4b1e      	ldr	r3, [pc, #120]	@ (8003f7c <HAL_RCC_ClockConfig+0x124>)
 8003f04:	2a01      	cmp	r2, #1
 8003f06:	d11c      	bne.n	8003f42 <HAL_RCC_ClockConfig+0xea>
 8003f08:	681b      	ldr	r3, [r3, #0]
 8003f0a:	f413 3f00 	tst.w	r3, #131072	@ 0x20000
 8003f0e:	d0a8      	beq.n	8003e62 <HAL_RCC_ClockConfig+0xa>
 8003f10:	4e1a      	ldr	r6, [pc, #104]	@ (8003f7c <HAL_RCC_ClockConfig+0x124>)
 8003f12:	68b3      	ldr	r3, [r6, #8]
 8003f14:	f023 0303 	bic.w	r3, r3, #3
 8003f18:	4313      	orrs	r3, r2
 8003f1a:	60b3      	str	r3, [r6, #8]
 8003f1c:	f7fe fa1c 	bl	8002358 <HAL_GetTick>
 8003f20:	f241 3888 	movw	r8, #5000	@ 0x1388
 8003f24:	4607      	mov	r7, r0
 8003f26:	68b3      	ldr	r3, [r6, #8]
 8003f28:	6862      	ldr	r2, [r4, #4]
 8003f2a:	f003 030c 	and.w	r3, r3, #12
 8003f2e:	ebb3 0f82 	cmp.w	r3, r2, lsl #2
 8003f32:	d0a4      	beq.n	8003e7e <HAL_RCC_ClockConfig+0x26>
 8003f34:	f7fe fa10 	bl	8002358 <HAL_GetTick>
 8003f38:	1bc0      	subs	r0, r0, r7
 8003f3a:	4540      	cmp	r0, r8
 8003f3c:	d9f3      	bls.n	8003f26 <HAL_RCC_ClockConfig+0xce>
 8003f3e:	2003      	movs	r0, #3
 8003f40:	e790      	b.n	8003e64 <HAL_RCC_ClockConfig+0xc>
 8003f42:	1e91      	subs	r1, r2, #2
 8003f44:	2901      	cmp	r1, #1
 8003f46:	681b      	ldr	r3, [r3, #0]
 8003f48:	d802      	bhi.n	8003f50 <HAL_RCC_ClockConfig+0xf8>
 8003f4a:	f013 7f00 	tst.w	r3, #33554432	@ 0x2000000
 8003f4e:	e7de      	b.n	8003f0e <HAL_RCC_ClockConfig+0xb6>
 8003f50:	f013 0f02 	tst.w	r3, #2
 8003f54:	e7db      	b.n	8003f0e <HAL_RCC_ClockConfig+0xb6>
 8003f56:	b2ea      	uxtb	r2, r5
 8003f58:	701a      	strb	r2, [r3, #0]
 8003f5a:	681b      	ldr	r3, [r3, #0]
 8003f5c:	f003 030f 	and.w	r3, r3, #15
 8003f60:	42ab      	cmp	r3, r5
 8003f62:	f47f af7e 	bne.w	8003e62 <HAL_RCC_ClockConfig+0xa>
 8003f66:	e790      	b.n	8003e8a <HAL_RCC_ClockConfig+0x32>
 8003f68:	4904      	ldr	r1, [pc, #16]	@ (8003f7c <HAL_RCC_ClockConfig+0x124>)
 8003f6a:	68e0      	ldr	r0, [r4, #12]
 8003f6c:	688b      	ldr	r3, [r1, #8]
 8003f6e:	f423 53e0 	bic.w	r3, r3, #7168	@ 0x1c00
 8003f72:	4303      	orrs	r3, r0
 8003f74:	608b      	str	r3, [r1, #8]
 8003f76:	e78b      	b.n	8003e90 <HAL_RCC_ClockConfig+0x38>
 8003f78:	40023c00 	.word	0x40023c00
 8003f7c:	40023800 	.word	0x40023800
 8003f80:	08005807 	.word	0x08005807
 8003f84:	2000001c 	.word	0x2000001c
 8003f88:	20000024 	.word	0x20000024

08003f8c <HAL_RCC_GetPCLK1Freq>:
 8003f8c:	4b04      	ldr	r3, [pc, #16]	@ (8003fa0 <HAL_RCC_GetPCLK1Freq+0x14>)
 8003f8e:	4a05      	ldr	r2, [pc, #20]	@ (8003fa4 <HAL_RCC_GetPCLK1Freq+0x18>)
 8003f90:	689b      	ldr	r3, [r3, #8]
 8003f92:	f3c3 2382 	ubfx	r3, r3, #10, #3
 8003f96:	5cd3      	ldrb	r3, [r2, r3]
 8003f98:	4a03      	ldr	r2, [pc, #12]	@ (8003fa8 <HAL_RCC_GetPCLK1Freq+0x1c>)
 8003f9a:	6810      	ldr	r0, [r2, #0]
 8003f9c:	40d8      	lsrs	r0, r3
 8003f9e:	4770      	bx	lr
 8003fa0:	40023800 	.word	0x40023800
 8003fa4:	080057ff 	.word	0x080057ff
 8003fa8:	2000001c 	.word	0x2000001c

08003fac <HAL_RCC_GetPCLK2Freq>:
 8003fac:	4b04      	ldr	r3, [pc, #16]	@ (8003fc0 <HAL_RCC_GetPCLK2Freq+0x14>)
 8003fae:	4a05      	ldr	r2, [pc, #20]	@ (8003fc4 <HAL_RCC_GetPCLK2Freq+0x18>)
 8003fb0:	689b      	ldr	r3, [r3, #8]
 8003fb2:	f3c3 3342 	ubfx	r3, r3, #13, #3
 8003fb6:	5cd3      	ldrb	r3, [r2, r3]
 8003fb8:	4a03      	ldr	r2, [pc, #12]	@ (8003fc8 <HAL_RCC_GetPCLK2Freq+0x1c>)
 8003fba:	6810      	ldr	r0, [r2, #0]
 8003fbc:	40d8      	lsrs	r0, r3
 8003fbe:	4770      	bx	lr
 8003fc0:	40023800 	.word	0x40023800
 8003fc4:	080057ff 	.word	0x080057ff
 8003fc8:	2000001c 	.word	0x2000001c

08003fcc <HAL_RCCEx_PeriphCLKConfig>:
 8003fcc:	6803      	ldr	r3, [r0, #0]
 8003fce:	f013 0f43 	tst.w	r3, #67	@ 0x43
 8003fd2:	b5f7      	push	{r0, r1, r2, r4, r5, r6, r7, lr}
 8003fd4:	4604      	mov	r4, r0
 8003fd6:	f040 8088 	bne.w	80040ea <HAL_RCCEx_PeriphCLKConfig+0x11e>
 8003fda:	6823      	ldr	r3, [r4, #0]
 8003fdc:	f013 0f0c 	tst.w	r3, #12
 8003fe0:	d045      	beq.n	800406e <HAL_RCCEx_PeriphCLKConfig+0xa2>
 8003fe2:	4b8c      	ldr	r3, [pc, #560]	@ (8004214 <HAL_RCCEx_PeriphCLKConfig+0x248>)
 8003fe4:	4d8c      	ldr	r5, [pc, #560]	@ (8004218 <HAL_RCCEx_PeriphCLKConfig+0x24c>)
 8003fe6:	2200      	movs	r2, #0
 8003fe8:	671a      	str	r2, [r3, #112]	@ 0x70
 8003fea:	f7fe f9b5 	bl	8002358 <HAL_GetTick>
 8003fee:	4606      	mov	r6, r0
 8003ff0:	682b      	ldr	r3, [r5, #0]
 8003ff2:	0099      	lsls	r1, r3, #2
 8003ff4:	f100 80cb 	bmi.w	800418e <HAL_RCCEx_PeriphCLKConfig+0x1c2>
 8003ff8:	6821      	ldr	r1, [r4, #0]
 8003ffa:	074a      	lsls	r2, r1, #29
 8003ffc:	d515      	bpl.n	800402a <HAL_RCCEx_PeriphCLKConfig+0x5e>
 8003ffe:	e9d4 0304 	ldrd	r0, r3, [r4, #16]
 8004002:	f8d5 2088 	ldr.w	r2, [r5, #136]	@ 0x88
 8004006:	061b      	lsls	r3, r3, #24
 8004008:	f002 42e0 	and.w	r2, r2, #1879048192	@ 0x70000000
 800400c:	ea43 1380 	orr.w	r3, r3, r0, lsl #6
 8004010:	4313      	orrs	r3, r2
 8004012:	f8c5 3088 	str.w	r3, [r5, #136]	@ 0x88
 8004016:	f8d5 308c 	ldr.w	r3, [r5, #140]	@ 0x8c
 800401a:	6a22      	ldr	r2, [r4, #32]
 800401c:	f423 53f8 	bic.w	r3, r3, #7936	@ 0x1f00
 8004020:	3a01      	subs	r2, #1
 8004022:	ea43 2302 	orr.w	r3, r3, r2, lsl #8
 8004026:	f8c5 308c 	str.w	r3, [r5, #140]	@ 0x8c
 800402a:	070b      	lsls	r3, r1, #28
 800402c:	d514      	bpl.n	8004058 <HAL_RCCEx_PeriphCLKConfig+0x8c>
 800402e:	4a7a      	ldr	r2, [pc, #488]	@ (8004218 <HAL_RCCEx_PeriphCLKConfig+0x24c>)
 8004030:	69a3      	ldr	r3, [r4, #24]
 8004032:	f8d2 1088 	ldr.w	r1, [r2, #136]	@ 0x88
 8004036:	6920      	ldr	r0, [r4, #16]
 8004038:	071b      	lsls	r3, r3, #28
 800403a:	f001 6170 	and.w	r1, r1, #251658240	@ 0xf000000
 800403e:	ea43 1380 	orr.w	r3, r3, r0, lsl #6
 8004042:	430b      	orrs	r3, r1
 8004044:	f8c2 3088 	str.w	r3, [r2, #136]	@ 0x88
 8004048:	f8d2 308c 	ldr.w	r3, [r2, #140]	@ 0x8c
 800404c:	6a61      	ldr	r1, [r4, #36]	@ 0x24
 800404e:	f423 3340 	bic.w	r3, r3, #196608	@ 0x30000
 8004052:	430b      	orrs	r3, r1
 8004054:	f8c2 308c 	str.w	r3, [r2, #140]	@ 0x8c
 8004058:	4b6e      	ldr	r3, [pc, #440]	@ (8004214 <HAL_RCCEx_PeriphCLKConfig+0x248>)
 800405a:	4e6f      	ldr	r6, [pc, #444]	@ (8004218 <HAL_RCCEx_PeriphCLKConfig+0x24c>)
 800405c:	2201      	movs	r2, #1
 800405e:	671a      	str	r2, [r3, #112]	@ 0x70
 8004060:	f7fe f97a 	bl	8002358 <HAL_GetTick>
 8004064:	4605      	mov	r5, r0
 8004066:	6833      	ldr	r3, [r6, #0]
 8004068:	009f      	lsls	r7, r3, #2
 800406a:	f140 8097 	bpl.w	800419c <HAL_RCCEx_PeriphCLKConfig+0x1d0>
 800406e:	6823      	ldr	r3, [r4, #0]
 8004070:	0698      	lsls	r0, r3, #26
 8004072:	d534      	bpl.n	80040de <HAL_RCCEx_PeriphCLKConfig+0x112>
 8004074:	2300      	movs	r3, #0
 8004076:	9301      	str	r3, [sp, #4]
 8004078:	4b67      	ldr	r3, [pc, #412]	@ (8004218 <HAL_RCCEx_PeriphCLKConfig+0x24c>)
 800407a:	4d68      	ldr	r5, [pc, #416]	@ (800421c <HAL_RCCEx_PeriphCLKConfig+0x250>)
 800407c:	6c1a      	ldr	r2, [r3, #64]	@ 0x40
 800407e:	f042 5280 	orr.w	r2, r2, #268435456	@ 0x10000000
 8004082:	641a      	str	r2, [r3, #64]	@ 0x40
 8004084:	6c1b      	ldr	r3, [r3, #64]	@ 0x40
 8004086:	f003 5380 	and.w	r3, r3, #268435456	@ 0x10000000
 800408a:	9301      	str	r3, [sp, #4]
 800408c:	9b01      	ldr	r3, [sp, #4]
 800408e:	682b      	ldr	r3, [r5, #0]
 8004090:	f443 7380 	orr.w	r3, r3, #256	@ 0x100
 8004094:	602b      	str	r3, [r5, #0]
 8004096:	f7fe f95f 	bl	8002358 <HAL_GetTick>
 800409a:	4606      	mov	r6, r0
 800409c:	682b      	ldr	r3, [r5, #0]
 800409e:	05d8      	lsls	r0, r3, #23
 80040a0:	f140 8083 	bpl.w	80041aa <HAL_RCCEx_PeriphCLKConfig+0x1de>
 80040a4:	4d5c      	ldr	r5, [pc, #368]	@ (8004218 <HAL_RCCEx_PeriphCLKConfig+0x24c>)
 80040a6:	6aa2      	ldr	r2, [r4, #40]	@ 0x28
 80040a8:	6f2b      	ldr	r3, [r5, #112]	@ 0x70
 80040aa:	f413 7340 	ands.w	r3, r3, #768	@ 0x300
 80040ae:	f040 8083 	bne.w	80041b8 <HAL_RCCEx_PeriphCLKConfig+0x1ec>
 80040b2:	6aa3      	ldr	r3, [r4, #40]	@ 0x28
 80040b4:	f403 7240 	and.w	r2, r3, #768	@ 0x300
 80040b8:	f5b2 7f40 	cmp.w	r2, #768	@ 0x300
 80040bc:	4a56      	ldr	r2, [pc, #344]	@ (8004218 <HAL_RCCEx_PeriphCLKConfig+0x24c>)
 80040be:	f040 809e 	bne.w	80041fe <HAL_RCCEx_PeriphCLKConfig+0x232>
 80040c2:	6891      	ldr	r1, [r2, #8]
 80040c4:	f023 4070 	bic.w	r0, r3, #4026531840	@ 0xf0000000
 80040c8:	f421 11f8 	bic.w	r1, r1, #2031616	@ 0x1f0000
 80040cc:	f420 7040 	bic.w	r0, r0, #768	@ 0x300
 80040d0:	4301      	orrs	r1, r0
 80040d2:	6091      	str	r1, [r2, #8]
 80040d4:	6f11      	ldr	r1, [r2, #112]	@ 0x70
 80040d6:	f3c3 030b 	ubfx	r3, r3, #0, #12
 80040da:	430b      	orrs	r3, r1
 80040dc:	6713      	str	r3, [r2, #112]	@ 0x70
 80040de:	6823      	ldr	r3, [r4, #0]
 80040e0:	06db      	lsls	r3, r3, #27
 80040e2:	f100 8090 	bmi.w	8004206 <HAL_RCCEx_PeriphCLKConfig+0x23a>
 80040e6:	2000      	movs	r0, #0
 80040e8:	e04f      	b.n	800418a <HAL_RCCEx_PeriphCLKConfig+0x1be>
 80040ea:	4b4a      	ldr	r3, [pc, #296]	@ (8004214 <HAL_RCCEx_PeriphCLKConfig+0x248>)
 80040ec:	4e4a      	ldr	r6, [pc, #296]	@ (8004218 <HAL_RCCEx_PeriphCLKConfig+0x24c>)
 80040ee:	2200      	movs	r2, #0
 80040f0:	669a      	str	r2, [r3, #104]	@ 0x68
 80040f2:	f7fe f931 	bl	8002358 <HAL_GetTick>
 80040f6:	4605      	mov	r5, r0
 80040f8:	6833      	ldr	r3, [r6, #0]
 80040fa:	011f      	lsls	r7, r3, #4
 80040fc:	d43f      	bmi.n	800417e <HAL_RCCEx_PeriphCLKConfig+0x1b2>
 80040fe:	6821      	ldr	r1, [r4, #0]
 8004100:	07c8      	lsls	r0, r1, #31
 8004102:	bf41      	itttt	mi
 8004104:	e9d4 2301 	ldrdmi	r2, r3, [r4, #4]
 8004108:	071b      	lslmi	r3, r3, #28
 800410a:	ea43 1382 	orrmi.w	r3, r3, r2, lsl #6
 800410e:	f8c6 3084 	strmi.w	r3, [r6, #132]	@ 0x84
 8004112:	078a      	lsls	r2, r1, #30
 8004114:	d515      	bpl.n	8004142 <HAL_RCCEx_PeriphCLKConfig+0x176>
 8004116:	4a40      	ldr	r2, [pc, #256]	@ (8004218 <HAL_RCCEx_PeriphCLKConfig+0x24c>)
 8004118:	68e3      	ldr	r3, [r4, #12]
 800411a:	f8d2 0084 	ldr.w	r0, [r2, #132]	@ 0x84
 800411e:	6865      	ldr	r5, [r4, #4]
 8004120:	061b      	lsls	r3, r3, #24
 8004122:	f000 40e0 	and.w	r0, r0, #1879048192	@ 0x70000000
 8004126:	ea43 1385 	orr.w	r3, r3, r5, lsl #6
 800412a:	4303      	orrs	r3, r0
 800412c:	f8c2 3084 	str.w	r3, [r2, #132]	@ 0x84
 8004130:	f8d2 008c 	ldr.w	r0, [r2, #140]	@ 0x8c
 8004134:	69e3      	ldr	r3, [r4, #28]
 8004136:	f020 001f 	bic.w	r0, r0, #31
 800413a:	3b01      	subs	r3, #1
 800413c:	4303      	orrs	r3, r0
 800413e:	f8c2 308c 	str.w	r3, [r2, #140]	@ 0x8c
 8004142:	064b      	lsls	r3, r1, #25
 8004144:	d50a      	bpl.n	800415c <HAL_RCCEx_PeriphCLKConfig+0x190>
 8004146:	68e3      	ldr	r3, [r4, #12]
 8004148:	6862      	ldr	r2, [r4, #4]
 800414a:	061b      	lsls	r3, r3, #24
 800414c:	ea43 1382 	orr.w	r3, r3, r2, lsl #6
 8004150:	68a2      	ldr	r2, [r4, #8]
 8004152:	ea43 7302 	orr.w	r3, r3, r2, lsl #28
 8004156:	4a30      	ldr	r2, [pc, #192]	@ (8004218 <HAL_RCCEx_PeriphCLKConfig+0x24c>)
 8004158:	f8c2 3084 	str.w	r3, [r2, #132]	@ 0x84
 800415c:	4b2d      	ldr	r3, [pc, #180]	@ (8004214 <HAL_RCCEx_PeriphCLKConfig+0x248>)
 800415e:	4e2e      	ldr	r6, [pc, #184]	@ (8004218 <HAL_RCCEx_PeriphCLKConfig+0x24c>)
 8004160:	2201      	movs	r2, #1
 8004162:	669a      	str	r2, [r3, #104]	@ 0x68
 8004164:	f7fe f8f8 	bl	8002358 <HAL_GetTick>
 8004168:	4605      	mov	r5, r0
 800416a:	6833      	ldr	r3, [r6, #0]
 800416c:	011f      	lsls	r7, r3, #4
 800416e:	f53f af34 	bmi.w	8003fda <HAL_RCCEx_PeriphCLKConfig+0xe>
 8004172:	f7fe f8f1 	bl	8002358 <HAL_GetTick>
 8004176:	1b40      	subs	r0, r0, r5
 8004178:	2802      	cmp	r0, #2
 800417a:	d9f6      	bls.n	800416a <HAL_RCCEx_PeriphCLKConfig+0x19e>
 800417c:	e004      	b.n	8004188 <HAL_RCCEx_PeriphCLKConfig+0x1bc>
 800417e:	f7fe f8eb 	bl	8002358 <HAL_GetTick>
 8004182:	1b40      	subs	r0, r0, r5
 8004184:	2802      	cmp	r0, #2
 8004186:	d9b7      	bls.n	80040f8 <HAL_RCCEx_PeriphCLKConfig+0x12c>
 8004188:	2003      	movs	r0, #3
 800418a:	b003      	add	sp, #12
 800418c:	bdf0      	pop	{r4, r5, r6, r7, pc}
 800418e:	f7fe f8e3 	bl	8002358 <HAL_GetTick>
 8004192:	1b80      	subs	r0, r0, r6
 8004194:	2802      	cmp	r0, #2
 8004196:	f67f af2b 	bls.w	8003ff0 <HAL_RCCEx_PeriphCLKConfig+0x24>
 800419a:	e7f5      	b.n	8004188 <HAL_RCCEx_PeriphCLKConfig+0x1bc>
 800419c:	f7fe f8dc 	bl	8002358 <HAL_GetTick>
 80041a0:	1b40      	subs	r0, r0, r5
 80041a2:	2802      	cmp	r0, #2
 80041a4:	f67f af5f 	bls.w	8004066 <HAL_RCCEx_PeriphCLKConfig+0x9a>
 80041a8:	e7ee      	b.n	8004188 <HAL_RCCEx_PeriphCLKConfig+0x1bc>
 80041aa:	f7fe f8d5 	bl	8002358 <HAL_GetTick>
 80041ae:	1b80      	subs	r0, r0, r6
 80041b0:	2802      	cmp	r0, #2
 80041b2:	f67f af73 	bls.w	800409c <HAL_RCCEx_PeriphCLKConfig+0xd0>
 80041b6:	e7e7      	b.n	8004188 <HAL_RCCEx_PeriphCLKConfig+0x1bc>
 80041b8:	f402 7240 	and.w	r2, r2, #768	@ 0x300
 80041bc:	4293      	cmp	r3, r2
 80041be:	f43f af78 	beq.w	80040b2 <HAL_RCCEx_PeriphCLKConfig+0xe6>
 80041c2:	6f2b      	ldr	r3, [r5, #112]	@ 0x70
 80041c4:	4a13      	ldr	r2, [pc, #76]	@ (8004214 <HAL_RCCEx_PeriphCLKConfig+0x248>)
 80041c6:	2101      	movs	r1, #1
 80041c8:	f8c2 1e40 	str.w	r1, [r2, #3648]	@ 0xe40
 80041cc:	f423 7340 	bic.w	r3, r3, #768	@ 0x300
 80041d0:	2100      	movs	r1, #0
 80041d2:	f8c2 1e40 	str.w	r1, [r2, #3648]	@ 0xe40
 80041d6:	672b      	str	r3, [r5, #112]	@ 0x70
 80041d8:	6f2b      	ldr	r3, [r5, #112]	@ 0x70
 80041da:	07d9      	lsls	r1, r3, #31
 80041dc:	f57f af69 	bpl.w	80040b2 <HAL_RCCEx_PeriphCLKConfig+0xe6>
 80041e0:	f7fe f8ba 	bl	8002358 <HAL_GetTick>
 80041e4:	f241 3788 	movw	r7, #5000	@ 0x1388
 80041e8:	4606      	mov	r6, r0
 80041ea:	6f2b      	ldr	r3, [r5, #112]	@ 0x70
 80041ec:	079a      	lsls	r2, r3, #30
 80041ee:	f53f af60 	bmi.w	80040b2 <HAL_RCCEx_PeriphCLKConfig+0xe6>
 80041f2:	f7fe f8b1 	bl	8002358 <HAL_GetTick>
 80041f6:	1b80      	subs	r0, r0, r6
 80041f8:	42b8      	cmp	r0, r7
 80041fa:	d9f6      	bls.n	80041ea <HAL_RCCEx_PeriphCLKConfig+0x21e>
 80041fc:	e7c4      	b.n	8004188 <HAL_RCCEx_PeriphCLKConfig+0x1bc>
 80041fe:	6891      	ldr	r1, [r2, #8]
 8004200:	f421 11f8 	bic.w	r1, r1, #2031616	@ 0x1f0000
 8004204:	e765      	b.n	80040d2 <HAL_RCCEx_PeriphCLKConfig+0x106>
 8004206:	4b06      	ldr	r3, [pc, #24]	@ (8004220 <HAL_RCCEx_PeriphCLKConfig+0x254>)
 8004208:	f894 202c 	ldrb.w	r2, [r4, #44]	@ 0x2c
 800420c:	f8c3 21e0 	str.w	r2, [r3, #480]	@ 0x1e0
 8004210:	e769      	b.n	80040e6 <HAL_RCCEx_PeriphCLKConfig+0x11a>
 8004212:	bf00      	nop
 8004214:	42470000 	.word	0x42470000
 8004218:	40023800 	.word	0x40023800
 800421c:	40007000 	.word	0x40007000
 8004220:	42471000 	.word	0x42471000

08004224 <HAL_RTC_WaitForSynchro>:
 8004224:	b538      	push	{r3, r4, r5, lr}
 8004226:	6803      	ldr	r3, [r0, #0]
 8004228:	4a09      	ldr	r2, [pc, #36]	@ (8004250 <HAL_RTC_WaitForSynchro+0x2c>)
 800422a:	60da      	str	r2, [r3, #12]
 800422c:	4604      	mov	r4, r0
 800422e:	f7fe f893 	bl	8002358 <HAL_GetTick>
 8004232:	4605      	mov	r5, r0
 8004234:	6823      	ldr	r3, [r4, #0]
 8004236:	68db      	ldr	r3, [r3, #12]
 8004238:	069b      	lsls	r3, r3, #26
 800423a:	d501      	bpl.n	8004240 <HAL_RTC_WaitForSynchro+0x1c>
 800423c:	2000      	movs	r0, #0
 800423e:	bd38      	pop	{r3, r4, r5, pc}
 8004240:	f7fe f88a 	bl	8002358 <HAL_GetTick>
 8004244:	1b40      	subs	r0, r0, r5
 8004246:	f5b0 7f7a 	cmp.w	r0, #1000	@ 0x3e8
 800424a:	d9f3      	bls.n	8004234 <HAL_RTC_WaitForSynchro+0x10>
 800424c:	2003      	movs	r0, #3
 800424e:	e7f6      	b.n	800423e <HAL_RTC_WaitForSynchro+0x1a>
 8004250:	00017f5f 	.word	0x00017f5f

08004254 <RTC_EnterInitMode>:
 8004254:	6803      	ldr	r3, [r0, #0]
 8004256:	b570      	push	{r4, r5, r6, lr}
 8004258:	68dc      	ldr	r4, [r3, #12]
 800425a:	f014 0440 	ands.w	r4, r4, #64	@ 0x40
 800425e:	4605      	mov	r5, r0
 8004260:	d117      	bne.n	8004292 <RTC_EnterInitMode+0x3e>
 8004262:	68da      	ldr	r2, [r3, #12]
 8004264:	f042 0280 	orr.w	r2, r2, #128	@ 0x80
 8004268:	60da      	str	r2, [r3, #12]
 800426a:	f7fe f875 	bl	8002358 <HAL_GetTick>
 800426e:	4606      	mov	r6, r0
 8004270:	682b      	ldr	r3, [r5, #0]
 8004272:	68db      	ldr	r3, [r3, #12]
 8004274:	065b      	lsls	r3, r3, #25
 8004276:	d400      	bmi.n	800427a <RTC_EnterInitMode+0x26>
 8004278:	b10c      	cbz	r4, 800427e <RTC_EnterInitMode+0x2a>
 800427a:	4620      	mov	r0, r4
 800427c:	bd70      	pop	{r4, r5, r6, pc}
 800427e:	f7fe f86b 	bl	8002358 <HAL_GetTick>
 8004282:	1b80      	subs	r0, r0, r6
 8004284:	f5b0 7f7a 	cmp.w	r0, #1000	@ 0x3e8
 8004288:	bf82      	ittt	hi
 800428a:	2304      	movhi	r3, #4
 800428c:	776b      	strbhi	r3, [r5, #29]
 800428e:	2401      	movhi	r4, #1
 8004290:	e7ee      	b.n	8004270 <RTC_EnterInitMode+0x1c>
 8004292:	2400      	movs	r4, #0
 8004294:	e7f1      	b.n	800427a <RTC_EnterInitMode+0x26>

08004296 <RTC_ExitInitMode>:
 8004296:	6803      	ldr	r3, [r0, #0]
 8004298:	68da      	ldr	r2, [r3, #12]
 800429a:	f022 0280 	bic.w	r2, r2, #128	@ 0x80
 800429e:	b510      	push	{r4, lr}
 80042a0:	60da      	str	r2, [r3, #12]
 80042a2:	689b      	ldr	r3, [r3, #8]
 80042a4:	069b      	lsls	r3, r3, #26
 80042a6:	4604      	mov	r4, r0
 80042a8:	d501      	bpl.n	80042ae <RTC_ExitInitMode+0x18>
 80042aa:	2000      	movs	r0, #0
 80042ac:	bd10      	pop	{r4, pc}
 80042ae:	f7ff ffb9 	bl	8004224 <HAL_RTC_WaitForSynchro>
 80042b2:	2800      	cmp	r0, #0
 80042b4:	d0f9      	beq.n	80042aa <RTC_ExitInitMode+0x14>
 80042b6:	2304      	movs	r3, #4
 80042b8:	7763      	strb	r3, [r4, #29]
 80042ba:	2001      	movs	r0, #1
 80042bc:	e7f6      	b.n	80042ac <RTC_ExitInitMode+0x16>

080042be <HAL_RTC_Init>:
 80042be:	b510      	push	{r4, lr}
 80042c0:	4604      	mov	r4, r0
 80042c2:	2800      	cmp	r0, #0
 80042c4:	d041      	beq.n	800434a <HAL_RTC_Init+0x8c>
 80042c6:	7f43      	ldrb	r3, [r0, #29]
 80042c8:	f003 02ff 	and.w	r2, r3, #255	@ 0xff
 80042cc:	b913      	cbnz	r3, 80042d4 <HAL_RTC_Init+0x16>
 80042ce:	7702      	strb	r2, [r0, #28]
 80042d0:	f7fd fdc6 	bl	8001e60 <HAL_RTC_MspInit>
 80042d4:	2302      	movs	r3, #2
 80042d6:	7763      	strb	r3, [r4, #29]
 80042d8:	6823      	ldr	r3, [r4, #0]
 80042da:	68da      	ldr	r2, [r3, #12]
 80042dc:	06d2      	lsls	r2, r2, #27
 80042de:	d503      	bpl.n	80042e8 <HAL_RTC_Init+0x2a>
 80042e0:	2301      	movs	r3, #1
 80042e2:	7763      	strb	r3, [r4, #29]
 80042e4:	2000      	movs	r0, #0
 80042e6:	bd10      	pop	{r4, pc}
 80042e8:	22ca      	movs	r2, #202	@ 0xca
 80042ea:	625a      	str	r2, [r3, #36]	@ 0x24
 80042ec:	2253      	movs	r2, #83	@ 0x53
 80042ee:	625a      	str	r2, [r3, #36]	@ 0x24
 80042f0:	4620      	mov	r0, r4
 80042f2:	f7ff ffaf 	bl	8004254 <RTC_EnterInitMode>
 80042f6:	bb10      	cbnz	r0, 800433e <HAL_RTC_Init+0x80>
 80042f8:	6823      	ldr	r3, [r4, #0]
 80042fa:	6920      	ldr	r0, [r4, #16]
 80042fc:	689a      	ldr	r2, [r3, #8]
 80042fe:	f422 02e0 	bic.w	r2, r2, #7340032	@ 0x700000
 8004302:	f022 0240 	bic.w	r2, r2, #64	@ 0x40
 8004306:	609a      	str	r2, [r3, #8]
 8004308:	6862      	ldr	r2, [r4, #4]
 800430a:	6899      	ldr	r1, [r3, #8]
 800430c:	4302      	orrs	r2, r0
 800430e:	6960      	ldr	r0, [r4, #20]
 8004310:	4302      	orrs	r2, r0
 8004312:	430a      	orrs	r2, r1
 8004314:	609a      	str	r2, [r3, #8]
 8004316:	68e2      	ldr	r2, [r4, #12]
 8004318:	611a      	str	r2, [r3, #16]
 800431a:	691a      	ldr	r2, [r3, #16]
 800431c:	68a1      	ldr	r1, [r4, #8]
 800431e:	ea42 4201 	orr.w	r2, r2, r1, lsl #16
 8004322:	611a      	str	r2, [r3, #16]
 8004324:	4620      	mov	r0, r4
 8004326:	f7ff ffb6 	bl	8004296 <RTC_ExitInitMode>
 800432a:	b940      	cbnz	r0, 800433e <HAL_RTC_Init+0x80>
 800432c:	6823      	ldr	r3, [r4, #0]
 800432e:	69a1      	ldr	r1, [r4, #24]
 8004330:	6c1a      	ldr	r2, [r3, #64]	@ 0x40
 8004332:	f422 2280 	bic.w	r2, r2, #262144	@ 0x40000
 8004336:	641a      	str	r2, [r3, #64]	@ 0x40
 8004338:	6c1a      	ldr	r2, [r3, #64]	@ 0x40
 800433a:	430a      	orrs	r2, r1
 800433c:	641a      	str	r2, [r3, #64]	@ 0x40
 800433e:	6823      	ldr	r3, [r4, #0]
 8004340:	22ff      	movs	r2, #255	@ 0xff
 8004342:	625a      	str	r2, [r3, #36]	@ 0x24
 8004344:	2800      	cmp	r0, #0
 8004346:	d0cb      	beq.n	80042e0 <HAL_RTC_Init+0x22>
 8004348:	e7cd      	b.n	80042e6 <HAL_RTC_Init+0x28>
 800434a:	2001      	movs	r0, #1
 800434c:	e7cb      	b.n	80042e6 <HAL_RTC_Init+0x28>

0800434e <RTC_ByteToBcd2>:
 800434e:	2300      	movs	r3, #0
 8004350:	2809      	cmp	r0, #9
 8004352:	d803      	bhi.n	800435c <RTC_ByteToBcd2+0xe>
 8004354:	ea40 1003 	orr.w	r0, r0, r3, lsl #4
 8004358:	b2c0      	uxtb	r0, r0
 800435a:	4770      	bx	lr
 800435c:	380a      	subs	r0, #10
 800435e:	3301      	adds	r3, #1
 8004360:	b2c0      	uxtb	r0, r0
 8004362:	e7f5      	b.n	8004350 <RTC_ByteToBcd2+0x2>

08004364 <HAL_RTC_SetTime>:
 8004364:	e92d 41f0 	stmdb	sp!, {r4, r5, r6, r7, r8, lr}
 8004368:	7f03      	ldrb	r3, [r0, #28]
 800436a:	2b01      	cmp	r3, #1
 800436c:	4606      	mov	r6, r0
 800436e:	460f      	mov	r7, r1
 8004370:	f04f 0002 	mov.w	r0, #2
 8004374:	d041      	beq.n	80043fa <HAL_RTC_SetTime+0x96>
 8004376:	2301      	movs	r3, #1
 8004378:	6831      	ldr	r1, [r6, #0]
 800437a:	7733      	strb	r3, [r6, #28]
 800437c:	7770      	strb	r0, [r6, #29]
 800437e:	7838      	ldrb	r0, [r7, #0]
 8004380:	787d      	ldrb	r5, [r7, #1]
 8004382:	78bc      	ldrb	r4, [r7, #2]
 8004384:	688b      	ldr	r3, [r1, #8]
 8004386:	2a00      	cmp	r2, #0
 8004388:	d139      	bne.n	80043fe <HAL_RTC_SetTime+0x9a>
 800438a:	f013 0340 	ands.w	r3, r3, #64	@ 0x40
 800438e:	bf08      	it	eq
 8004390:	70fb      	strbeq	r3, [r7, #3]
 8004392:	f7ff ffdc 	bl	800434e <RTC_ByteToBcd2>
 8004396:	4680      	mov	r8, r0
 8004398:	4628      	mov	r0, r5
 800439a:	f7ff ffd8 	bl	800434e <RTC_ByteToBcd2>
 800439e:	4602      	mov	r2, r0
 80043a0:	4620      	mov	r0, r4
 80043a2:	f7ff ffd4 	bl	800434e <RTC_ByteToBcd2>
 80043a6:	78fb      	ldrb	r3, [r7, #3]
 80043a8:	ea40 5383 	orr.w	r3, r0, r3, lsl #22
 80043ac:	ea43 4308 	orr.w	r3, r3, r8, lsl #16
 80043b0:	ea43 2402 	orr.w	r4, r3, r2, lsl #8
 80043b4:	23ca      	movs	r3, #202	@ 0xca
 80043b6:	624b      	str	r3, [r1, #36]	@ 0x24
 80043b8:	2353      	movs	r3, #83	@ 0x53
 80043ba:	624b      	str	r3, [r1, #36]	@ 0x24
 80043bc:	4630      	mov	r0, r6
 80043be:	f7ff ff49 	bl	8004254 <RTC_EnterInitMode>
 80043c2:	b9a8      	cbnz	r0, 80043f0 <HAL_RTC_SetTime+0x8c>
 80043c4:	6832      	ldr	r2, [r6, #0]
 80043c6:	f004 347f 	and.w	r4, r4, #2139062143	@ 0x7f7f7f7f
 80043ca:	f024 44fe 	bic.w	r4, r4, #2130706432	@ 0x7f000000
 80043ce:	6014      	str	r4, [r2, #0]
 80043d0:	6893      	ldr	r3, [r2, #8]
 80043d2:	f423 2380 	bic.w	r3, r3, #262144	@ 0x40000
 80043d6:	6093      	str	r3, [r2, #8]
 80043d8:	e9d7 3003 	ldrd	r3, r0, [r7, #12]
 80043dc:	6891      	ldr	r1, [r2, #8]
 80043de:	4303      	orrs	r3, r0
 80043e0:	430b      	orrs	r3, r1
 80043e2:	6093      	str	r3, [r2, #8]
 80043e4:	4630      	mov	r0, r6
 80043e6:	f7ff ff56 	bl	8004296 <RTC_ExitInitMode>
 80043ea:	b908      	cbnz	r0, 80043f0 <HAL_RTC_SetTime+0x8c>
 80043ec:	2301      	movs	r3, #1
 80043ee:	7773      	strb	r3, [r6, #29]
 80043f0:	6833      	ldr	r3, [r6, #0]
 80043f2:	22ff      	movs	r2, #255	@ 0xff
 80043f4:	625a      	str	r2, [r3, #36]	@ 0x24
 80043f6:	2300      	movs	r3, #0
 80043f8:	7733      	strb	r3, [r6, #28]
 80043fa:	e8bd 81f0 	ldmia.w	sp!, {r4, r5, r6, r7, r8, pc}
 80043fe:	f013 0340 	ands.w	r3, r3, #64	@ 0x40
 8004402:	bf08      	it	eq
 8004404:	70fb      	strbeq	r3, [r7, #3]
 8004406:	022d      	lsls	r5, r5, #8
 8004408:	78fa      	ldrb	r2, [r7, #3]
 800440a:	ea45 4500 	orr.w	r5, r5, r0, lsl #16
 800440e:	ea45 0304 	orr.w	r3, r5, r4
 8004412:	ea43 5482 	orr.w	r4, r3, r2, lsl #22
 8004416:	e7cd      	b.n	80043b4 <HAL_RTC_SetTime+0x50>

08004418 <HAL_RTC_SetDate>:
 8004418:	b5f8      	push	{r3, r4, r5, r6, r7, lr}
 800441a:	7f03      	ldrb	r3, [r0, #28]
 800441c:	2b01      	cmp	r3, #1
 800441e:	4605      	mov	r5, r0
 8004420:	f04f 0002 	mov.w	r0, #2
 8004424:	d027      	beq.n	8004476 <HAL_RTC_SetDate+0x5e>
 8004426:	2301      	movs	r3, #1
 8004428:	772b      	strb	r3, [r5, #28]
 800442a:	7768      	strb	r0, [r5, #29]
 800442c:	780e      	ldrb	r6, [r1, #0]
 800442e:	78c8      	ldrb	r0, [r1, #3]
 8004430:	784c      	ldrb	r4, [r1, #1]
 8004432:	788f      	ldrb	r7, [r1, #2]
 8004434:	0376      	lsls	r6, r6, #13
 8004436:	b1fa      	cbz	r2, 8004478 <HAL_RTC_SetDate+0x60>
 8004438:	ea46 4300 	orr.w	r3, r6, r0, lsl #16
 800443c:	433b      	orrs	r3, r7
 800443e:	ea43 2404 	orr.w	r4, r3, r4, lsl #8
 8004442:	682b      	ldr	r3, [r5, #0]
 8004444:	22ca      	movs	r2, #202	@ 0xca
 8004446:	625a      	str	r2, [r3, #36]	@ 0x24
 8004448:	2253      	movs	r2, #83	@ 0x53
 800444a:	625a      	str	r2, [r3, #36]	@ 0x24
 800444c:	4628      	mov	r0, r5
 800444e:	f7ff ff01 	bl	8004254 <RTC_EnterInitMode>
 8004452:	b958      	cbnz	r0, 800446c <HAL_RTC_SetDate+0x54>
 8004454:	682a      	ldr	r2, [r5, #0]
 8004456:	f024 447f 	bic.w	r4, r4, #4278190080	@ 0xff000000
 800445a:	f024 04c0 	bic.w	r4, r4, #192	@ 0xc0
 800445e:	6054      	str	r4, [r2, #4]
 8004460:	4628      	mov	r0, r5
 8004462:	f7ff ff18 	bl	8004296 <RTC_ExitInitMode>
 8004466:	b908      	cbnz	r0, 800446c <HAL_RTC_SetDate+0x54>
 8004468:	2301      	movs	r3, #1
 800446a:	776b      	strb	r3, [r5, #29]
 800446c:	682b      	ldr	r3, [r5, #0]
 800446e:	22ff      	movs	r2, #255	@ 0xff
 8004470:	625a      	str	r2, [r3, #36]	@ 0x24
 8004472:	2300      	movs	r3, #0
 8004474:	772b      	strb	r3, [r5, #28]
 8004476:	bdf8      	pop	{r3, r4, r5, r6, r7, pc}
 8004478:	06e3      	lsls	r3, r4, #27
 800447a:	bf42      	ittt	mi
 800447c:	f024 0410 	bicmi.w	r4, r4, #16
 8004480:	340a      	addmi	r4, #10
 8004482:	704c      	strbmi	r4, [r1, #1]
 8004484:	f7ff ff63 	bl	800434e <RTC_ByteToBcd2>
 8004488:	4604      	mov	r4, r0
 800448a:	7848      	ldrb	r0, [r1, #1]
 800448c:	f7ff ff5f 	bl	800434e <RTC_ByteToBcd2>
 8004490:	4602      	mov	r2, r0
 8004492:	4638      	mov	r0, r7
 8004494:	f7ff ff5b 	bl	800434e <RTC_ByteToBcd2>
 8004498:	ea40 0306 	orr.w	r3, r0, r6
 800449c:	ea43 4304 	orr.w	r3, r3, r4, lsl #16
 80044a0:	ea43 2402 	orr.w	r4, r3, r2, lsl #8
 80044a4:	e7cd      	b.n	8004442 <HAL_RTC_SetDate+0x2a>

080044a6 <RTC_Bcd2ToByte>:
 80044a6:	0903      	lsrs	r3, r0, #4
 80044a8:	eb03 0383 	add.w	r3, r3, r3, lsl #2
 80044ac:	f000 000f 	and.w	r0, r0, #15
 80044b0:	eb00 0043 	add.w	r0, r0, r3, lsl #1
 80044b4:	b2c0      	uxtb	r0, r0
 80044b6:	4770      	bx	lr

080044b8 <HAL_RTC_GetTime>:
 80044b8:	b538      	push	{r3, r4, r5, lr}
 80044ba:	6803      	ldr	r3, [r0, #0]
 80044bc:	6a98      	ldr	r0, [r3, #40]	@ 0x28
 80044be:	6048      	str	r0, [r1, #4]
 80044c0:	6918      	ldr	r0, [r3, #16]
 80044c2:	681b      	ldr	r3, [r3, #0]
 80044c4:	f3c0 000e 	ubfx	r0, r0, #0, #15
 80044c8:	f3c3 2506 	ubfx	r5, r3, #8, #7
 80044cc:	f003 047f 	and.w	r4, r3, #127	@ 0x7f
 80044d0:	6088      	str	r0, [r1, #8]
 80044d2:	f3c3 4005 	ubfx	r0, r3, #16, #6
 80044d6:	f3c3 5380 	ubfx	r3, r3, #22, #1
 80044da:	7008      	strb	r0, [r1, #0]
 80044dc:	704d      	strb	r5, [r1, #1]
 80044de:	708c      	strb	r4, [r1, #2]
 80044e0:	70cb      	strb	r3, [r1, #3]
 80044e2:	b952      	cbnz	r2, 80044fa <HAL_RTC_GetTime+0x42>
 80044e4:	f7ff ffdf 	bl	80044a6 <RTC_Bcd2ToByte>
 80044e8:	7008      	strb	r0, [r1, #0]
 80044ea:	4628      	mov	r0, r5
 80044ec:	f7ff ffdb 	bl	80044a6 <RTC_Bcd2ToByte>
 80044f0:	7048      	strb	r0, [r1, #1]
 80044f2:	4620      	mov	r0, r4
 80044f4:	f7ff ffd7 	bl	80044a6 <RTC_Bcd2ToByte>
 80044f8:	7088      	strb	r0, [r1, #2]
 80044fa:	2000      	movs	r0, #0
 80044fc:	bd38      	pop	{r3, r4, r5, pc}

080044fe <HAL_RTC_GetDate>:
 80044fe:	b538      	push	{r3, r4, r5, lr}
 8004500:	6803      	ldr	r3, [r0, #0]
 8004502:	685b      	ldr	r3, [r3, #4]
 8004504:	f3c3 4007 	ubfx	r0, r3, #16, #8
 8004508:	f3c3 2504 	ubfx	r5, r3, #8, #5
 800450c:	f003 043f 	and.w	r4, r3, #63	@ 0x3f
 8004510:	f3c3 3342 	ubfx	r3, r3, #13, #3
 8004514:	70c8      	strb	r0, [r1, #3]
 8004516:	704d      	strb	r5, [r1, #1]
 8004518:	708c      	strb	r4, [r1, #2]
 800451a:	700b      	strb	r3, [r1, #0]
 800451c:	b952      	cbnz	r2, 8004534 <HAL_RTC_GetDate+0x36>
 800451e:	f7ff ffc2 	bl	80044a6 <RTC_Bcd2ToByte>
 8004522:	70c8      	strb	r0, [r1, #3]
 8004524:	4628      	mov	r0, r5
 8004526:	f7ff ffbe 	bl	80044a6 <RTC_Bcd2ToByte>
 800452a:	7048      	strb	r0, [r1, #1]
 800452c:	4620      	mov	r0, r4
 800452e:	f7ff ffba 	bl	80044a6 <RTC_Bcd2ToByte>
 8004532:	7088      	strb	r0, [r1, #2]
 8004534:	2000      	movs	r0, #0
 8004536:	bd38      	pop	{r3, r4, r5, pc}

08004538 <SPI_WaitFlagStateUntilTimeout>:
 8004538:	e92d 47f3 	stmdb	sp!, {r0, r1, r4, r5, r6, r7, r8, r9, sl, lr}
 800453c:	461f      	mov	r7, r3
 800453e:	4689      	mov	r9, r1
 8004540:	4690      	mov	r8, r2
 8004542:	4604      	mov	r4, r0
 8004544:	f7fd ff08 	bl	8002358 <HAL_GetTick>
 8004548:	9d0a      	ldr	r5, [sp, #40]	@ 0x28
 800454a:	443d      	add	r5, r7
 800454c:	1a2d      	subs	r5, r5, r0
 800454e:	f7fd ff03 	bl	8002358 <HAL_GetTick>
 8004552:	4b26      	ldr	r3, [pc, #152]	@ (80045ec <SPI_WaitFlagStateUntilTimeout+0xb4>)
 8004554:	681e      	ldr	r6, [r3, #0]
 8004556:	f3c6 36cb 	ubfx	r6, r6, #15, #12
 800455a:	436e      	muls	r6, r5
 800455c:	4682      	mov	sl, r0
 800455e:	9601      	str	r6, [sp, #4]
 8004560:	6822      	ldr	r2, [r4, #0]
 8004562:	6893      	ldr	r3, [r2, #8]
 8004564:	ea39 0303 	bics.w	r3, r9, r3
 8004568:	bf0c      	ite	eq
 800456a:	2301      	moveq	r3, #1
 800456c:	2300      	movne	r3, #0
 800456e:	4543      	cmp	r3, r8
 8004570:	d101      	bne.n	8004576 <SPI_WaitFlagStateUntilTimeout+0x3e>
 8004572:	2000      	movs	r0, #0
 8004574:	e02e      	b.n	80045d4 <SPI_WaitFlagStateUntilTimeout+0x9c>
 8004576:	1c7b      	adds	r3, r7, #1
 8004578:	d0f3      	beq.n	8004562 <SPI_WaitFlagStateUntilTimeout+0x2a>
 800457a:	f7fd feed 	bl	8002358 <HAL_GetTick>
 800457e:	eba0 000a 	sub.w	r0, r0, sl
 8004582:	42a8      	cmp	r0, r5
 8004584:	d329      	bcc.n	80045da <SPI_WaitFlagStateUntilTimeout+0xa2>
 8004586:	6823      	ldr	r3, [r4, #0]
 8004588:	685a      	ldr	r2, [r3, #4]
 800458a:	f022 02e0 	bic.w	r2, r2, #224	@ 0xe0
 800458e:	605a      	str	r2, [r3, #4]
 8004590:	6862      	ldr	r2, [r4, #4]
 8004592:	f5b2 7f82 	cmp.w	r2, #260	@ 0x104
 8004596:	d10a      	bne.n	80045ae <SPI_WaitFlagStateUntilTimeout+0x76>
 8004598:	68a2      	ldr	r2, [r4, #8]
 800459a:	f5b2 4f00 	cmp.w	r2, #32768	@ 0x8000
 800459e:	d002      	beq.n	80045a6 <SPI_WaitFlagStateUntilTimeout+0x6e>
 80045a0:	f5b2 6f80 	cmp.w	r2, #1024	@ 0x400
 80045a4:	d103      	bne.n	80045ae <SPI_WaitFlagStateUntilTimeout+0x76>
 80045a6:	681a      	ldr	r2, [r3, #0]
 80045a8:	f022 0240 	bic.w	r2, r2, #64	@ 0x40
 80045ac:	601a      	str	r2, [r3, #0]
 80045ae:	6aa2      	ldr	r2, [r4, #40]	@ 0x28
 80045b0:	f5b2 5f00 	cmp.w	r2, #8192	@ 0x2000
 80045b4:	d107      	bne.n	80045c6 <SPI_WaitFlagStateUntilTimeout+0x8e>
 80045b6:	681a      	ldr	r2, [r3, #0]
 80045b8:	f422 5200 	bic.w	r2, r2, #8192	@ 0x2000
 80045bc:	601a      	str	r2, [r3, #0]
 80045be:	681a      	ldr	r2, [r3, #0]
 80045c0:	f442 5200 	orr.w	r2, r2, #8192	@ 0x2000
 80045c4:	601a      	str	r2, [r3, #0]
 80045c6:	2301      	movs	r3, #1
 80045c8:	f884 3051 	strb.w	r3, [r4, #81]	@ 0x51
 80045cc:	2300      	movs	r3, #0
 80045ce:	f884 3050 	strb.w	r3, [r4, #80]	@ 0x50
 80045d2:	2003      	movs	r0, #3
 80045d4:	b002      	add	sp, #8
 80045d6:	e8bd 87f0 	ldmia.w	sp!, {r4, r5, r6, r7, r8, r9, sl, pc}
 80045da:	9a01      	ldr	r2, [sp, #4]
 80045dc:	9b01      	ldr	r3, [sp, #4]
 80045de:	2a00      	cmp	r2, #0
 80045e0:	f103 33ff 	add.w	r3, r3, #4294967295	@ 0xffffffff
 80045e4:	9301      	str	r3, [sp, #4]
 80045e6:	bf08      	it	eq
 80045e8:	4615      	moveq	r5, r2
 80045ea:	e7b9      	b.n	8004560 <SPI_WaitFlagStateUntilTimeout+0x28>
 80045ec:	2000001c 	.word	0x2000001c

080045f0 <SPI_EndRxTxTransaction>:
 80045f0:	b5f0      	push	{r4, r5, r6, r7, lr}
 80045f2:	b085      	sub	sp, #20
 80045f4:	460b      	mov	r3, r1
 80045f6:	9200      	str	r2, [sp, #0]
 80045f8:	460e      	mov	r6, r1
 80045fa:	4617      	mov	r7, r2
 80045fc:	2102      	movs	r1, #2
 80045fe:	2201      	movs	r2, #1
 8004600:	4604      	mov	r4, r0
 8004602:	f7ff ff99 	bl	8004538 <SPI_WaitFlagStateUntilTimeout>
 8004606:	4605      	mov	r5, r0
 8004608:	b128      	cbz	r0, 8004616 <SPI_EndRxTxTransaction+0x26>
 800460a:	6d63      	ldr	r3, [r4, #84]	@ 0x54
 800460c:	f043 0320 	orr.w	r3, r3, #32
 8004610:	6563      	str	r3, [r4, #84]	@ 0x54
 8004612:	2503      	movs	r5, #3
 8004614:	e015      	b.n	8004642 <SPI_EndRxTxTransaction+0x52>
 8004616:	4b12      	ldr	r3, [pc, #72]	@ (8004660 <SPI_EndRxTxTransaction+0x70>)
 8004618:	6818      	ldr	r0, [r3, #0]
 800461a:	4b12      	ldr	r3, [pc, #72]	@ (8004664 <SPI_EndRxTxTransaction+0x74>)
 800461c:	fbb0 f0f3 	udiv	r0, r0, r3
 8004620:	f44f 737a 	mov.w	r3, #1000	@ 0x3e8
 8004624:	4358      	muls	r0, r3
 8004626:	6863      	ldr	r3, [r4, #4]
 8004628:	9003      	str	r0, [sp, #12]
 800462a:	f5b3 7f82 	cmp.w	r3, #260	@ 0x104
 800462e:	d10b      	bne.n	8004648 <SPI_EndRxTxTransaction+0x58>
 8004630:	9700      	str	r7, [sp, #0]
 8004632:	4633      	mov	r3, r6
 8004634:	462a      	mov	r2, r5
 8004636:	2180      	movs	r1, #128	@ 0x80
 8004638:	4620      	mov	r0, r4
 800463a:	f7ff ff7d 	bl	8004538 <SPI_WaitFlagStateUntilTimeout>
 800463e:	2800      	cmp	r0, #0
 8004640:	d1e3      	bne.n	800460a <SPI_EndRxTxTransaction+0x1a>
 8004642:	4628      	mov	r0, r5
 8004644:	b005      	add	sp, #20
 8004646:	bdf0      	pop	{r4, r5, r6, r7, pc}
 8004648:	9b03      	ldr	r3, [sp, #12]
 800464a:	2b00      	cmp	r3, #0
 800464c:	d0f9      	beq.n	8004642 <SPI_EndRxTxTransaction+0x52>
 800464e:	9b03      	ldr	r3, [sp, #12]
 8004650:	3b01      	subs	r3, #1
 8004652:	9303      	str	r3, [sp, #12]
 8004654:	6823      	ldr	r3, [r4, #0]
 8004656:	689b      	ldr	r3, [r3, #8]
 8004658:	061b      	lsls	r3, r3, #24
 800465a:	d4f5      	bmi.n	8004648 <SPI_EndRxTxTransaction+0x58>
 800465c:	e7f1      	b.n	8004642 <SPI_EndRxTxTransaction+0x52>
 800465e:	bf00      	nop
 8004660:	2000001c 	.word	0x2000001c
 8004664:	016e3600 	.word	0x016e3600

08004668 <SPI_EndRxTransaction>:
 8004668:	b537      	push	{r0, r1, r2, r4, r5, lr}
 800466a:	460b      	mov	r3, r1
 800466c:	6841      	ldr	r1, [r0, #4]
 800466e:	f5b1 7f82 	cmp.w	r1, #260	@ 0x104
 8004672:	4604      	mov	r4, r0
 8004674:	d008      	beq.n	8004688 <SPI_EndRxTransaction+0x20>
 8004676:	9200      	str	r2, [sp, #0]
 8004678:	2101      	movs	r1, #1
 800467a:	2200      	movs	r2, #0
 800467c:	f7ff ff5c 	bl	8004538 <SPI_WaitFlagStateUntilTimeout>
 8004680:	b9d0      	cbnz	r0, 80046b8 <SPI_EndRxTransaction+0x50>
 8004682:	2000      	movs	r0, #0
 8004684:	b003      	add	sp, #12
 8004686:	bd30      	pop	{r4, r5, pc}
 8004688:	6881      	ldr	r1, [r0, #8]
 800468a:	f5b1 4f00 	cmp.w	r1, #32768	@ 0x8000
 800468e:	d002      	beq.n	8004696 <SPI_EndRxTransaction+0x2e>
 8004690:	f5b1 6f80 	cmp.w	r1, #1024	@ 0x400
 8004694:	d107      	bne.n	80046a6 <SPI_EndRxTransaction+0x3e>
 8004696:	6825      	ldr	r5, [r4, #0]
 8004698:	6828      	ldr	r0, [r5, #0]
 800469a:	f5b1 6f80 	cmp.w	r1, #1024	@ 0x400
 800469e:	f020 0040 	bic.w	r0, r0, #64	@ 0x40
 80046a2:	6028      	str	r0, [r5, #0]
 80046a4:	d004      	beq.n	80046b0 <SPI_EndRxTransaction+0x48>
 80046a6:	9200      	str	r2, [sp, #0]
 80046a8:	2180      	movs	r1, #128	@ 0x80
 80046aa:	2200      	movs	r2, #0
 80046ac:	4620      	mov	r0, r4
 80046ae:	e7e5      	b.n	800467c <SPI_EndRxTransaction+0x14>
 80046b0:	9200      	str	r2, [sp, #0]
 80046b2:	2101      	movs	r1, #1
 80046b4:	2200      	movs	r2, #0
 80046b6:	e7f9      	b.n	80046ac <SPI_EndRxTransaction+0x44>
 80046b8:	6d63      	ldr	r3, [r4, #84]	@ 0x54
 80046ba:	f043 0320 	orr.w	r3, r3, #32
 80046be:	6563      	str	r3, [r4, #84]	@ 0x54
 80046c0:	2003      	movs	r0, #3
 80046c2:	e7df      	b.n	8004684 <SPI_EndRxTransaction+0x1c>

080046c4 <HAL_SPI_Init>:
 80046c4:	b510      	push	{r4, lr}
 80046c6:	4604      	mov	r4, r0
 80046c8:	2800      	cmp	r0, #0
 80046ca:	d055      	beq.n	8004778 <HAL_SPI_Init+0xb4>
 80046cc:	6a43      	ldr	r3, [r0, #36]	@ 0x24
 80046ce:	2b00      	cmp	r3, #0
 80046d0:	d14e      	bne.n	8004770 <HAL_SPI_Init+0xac>
 80046d2:	6842      	ldr	r2, [r0, #4]
 80046d4:	f5b2 7f82 	cmp.w	r2, #260	@ 0x104
 80046d8:	d000      	beq.n	80046dc <HAL_SPI_Init+0x18>
 80046da:	61c3      	str	r3, [r0, #28]
 80046dc:	2300      	movs	r3, #0
 80046de:	62a3      	str	r3, [r4, #40]	@ 0x28
 80046e0:	f894 3051 	ldrb.w	r3, [r4, #81]	@ 0x51
 80046e4:	f003 02ff 	and.w	r2, r3, #255	@ 0xff
 80046e8:	b923      	cbnz	r3, 80046f4 <HAL_SPI_Init+0x30>
 80046ea:	f884 2050 	strb.w	r2, [r4, #80]	@ 0x50
 80046ee:	4620      	mov	r0, r4
 80046f0:	f7fd fbd8 	bl	8001ea4 <HAL_SPI_MspInit>
 80046f4:	6821      	ldr	r1, [r4, #0]
 80046f6:	68a0      	ldr	r0, [r4, #8]
 80046f8:	69a2      	ldr	r2, [r4, #24]
 80046fa:	2302      	movs	r3, #2
 80046fc:	f884 3051 	strb.w	r3, [r4, #81]	@ 0x51
 8004700:	680b      	ldr	r3, [r1, #0]
 8004702:	f023 0340 	bic.w	r3, r3, #64	@ 0x40
 8004706:	600b      	str	r3, [r1, #0]
 8004708:	6863      	ldr	r3, [r4, #4]
 800470a:	f400 4004 	and.w	r0, r0, #33792	@ 0x8400
 800470e:	f403 7382 	and.w	r3, r3, #260	@ 0x104
 8004712:	4303      	orrs	r3, r0
 8004714:	68e0      	ldr	r0, [r4, #12]
 8004716:	f400 6000 	and.w	r0, r0, #2048	@ 0x800
 800471a:	4303      	orrs	r3, r0
 800471c:	6920      	ldr	r0, [r4, #16]
 800471e:	f000 0002 	and.w	r0, r0, #2
 8004722:	4303      	orrs	r3, r0
 8004724:	6960      	ldr	r0, [r4, #20]
 8004726:	f000 0001 	and.w	r0, r0, #1
 800472a:	4303      	orrs	r3, r0
 800472c:	f402 7000 	and.w	r0, r2, #512	@ 0x200
 8004730:	4303      	orrs	r3, r0
 8004732:	69e0      	ldr	r0, [r4, #28]
 8004734:	f000 0038 	and.w	r0, r0, #56	@ 0x38
 8004738:	4303      	orrs	r3, r0
 800473a:	6a20      	ldr	r0, [r4, #32]
 800473c:	f000 0080 	and.w	r0, r0, #128	@ 0x80
 8004740:	4303      	orrs	r3, r0
 8004742:	6aa0      	ldr	r0, [r4, #40]	@ 0x28
 8004744:	f400 5000 	and.w	r0, r0, #8192	@ 0x2000
 8004748:	4303      	orrs	r3, r0
 800474a:	600b      	str	r3, [r1, #0]
 800474c:	6a63      	ldr	r3, [r4, #36]	@ 0x24
 800474e:	0c12      	lsrs	r2, r2, #16
 8004750:	f003 0310 	and.w	r3, r3, #16
 8004754:	f002 0204 	and.w	r2, r2, #4
 8004758:	431a      	orrs	r2, r3
 800475a:	604a      	str	r2, [r1, #4]
 800475c:	69cb      	ldr	r3, [r1, #28]
 800475e:	f423 6300 	bic.w	r3, r3, #2048	@ 0x800
 8004762:	61cb      	str	r3, [r1, #28]
 8004764:	2000      	movs	r0, #0
 8004766:	2301      	movs	r3, #1
 8004768:	6560      	str	r0, [r4, #84]	@ 0x54
 800476a:	f884 3051 	strb.w	r3, [r4, #81]	@ 0x51
 800476e:	bd10      	pop	{r4, pc}
 8004770:	2300      	movs	r3, #0
 8004772:	e9c0 3304 	strd	r3, r3, [r0, #16]
 8004776:	e7b1      	b.n	80046dc <HAL_SPI_Init+0x18>
 8004778:	2001      	movs	r0, #1
 800477a:	e7f8      	b.n	800476e <HAL_SPI_Init+0xaa>

0800477c <HAL_SPI_Transmit>:
 800477c:	e92d 47f3 	stmdb	sp!, {r0, r1, r4, r5, r6, r7, r8, r9, sl, lr}
 8004780:	461f      	mov	r7, r3
 8004782:	f890 3050 	ldrb.w	r3, [r0, #80]	@ 0x50
 8004786:	2b01      	cmp	r3, #1
 8004788:	4604      	mov	r4, r0
 800478a:	460d      	mov	r5, r1
 800478c:	4690      	mov	r8, r2
 800478e:	f000 80a6 	beq.w	80048de <HAL_SPI_Transmit+0x162>
 8004792:	2301      	movs	r3, #1
 8004794:	f880 3050 	strb.w	r3, [r0, #80]	@ 0x50
 8004798:	f7fd fdde 	bl	8002358 <HAL_GetTick>
 800479c:	f894 3051 	ldrb.w	r3, [r4, #81]	@ 0x51
 80047a0:	2b01      	cmp	r3, #1
 80047a2:	4682      	mov	sl, r0
 80047a4:	fa5f f983 	uxtb.w	r9, r3
 80047a8:	f040 8096 	bne.w	80048d8 <HAL_SPI_Transmit+0x15c>
 80047ac:	2d00      	cmp	r5, #0
 80047ae:	d067      	beq.n	8004880 <HAL_SPI_Transmit+0x104>
 80047b0:	f1b8 0f00 	cmp.w	r8, #0
 80047b4:	d064      	beq.n	8004880 <HAL_SPI_Transmit+0x104>
 80047b6:	2303      	movs	r3, #3
 80047b8:	f884 3051 	strb.w	r3, [r4, #81]	@ 0x51
 80047bc:	2300      	movs	r3, #0
 80047be:	6563      	str	r3, [r4, #84]	@ 0x54
 80047c0:	e9c4 3310 	strd	r3, r3, [r4, #64]	@ 0x40
 80047c4:	f8a4 8036 	strh.w	r8, [r4, #54]	@ 0x36
 80047c8:	63a3      	str	r3, [r4, #56]	@ 0x38
 80047ca:	87a3      	strh	r3, [r4, #60]	@ 0x3c
 80047cc:	87e3      	strh	r3, [r4, #62]	@ 0x3e
 80047ce:	68a3      	ldr	r3, [r4, #8]
 80047d0:	6826      	ldr	r6, [r4, #0]
 80047d2:	6325      	str	r5, [r4, #48]	@ 0x30
 80047d4:	f5b3 4f00 	cmp.w	r3, #32768	@ 0x8000
 80047d8:	f8a4 8034 	strh.w	r8, [r4, #52]	@ 0x34
 80047dc:	d107      	bne.n	80047ee <HAL_SPI_Transmit+0x72>
 80047de:	6833      	ldr	r3, [r6, #0]
 80047e0:	f023 0340 	bic.w	r3, r3, #64	@ 0x40
 80047e4:	6033      	str	r3, [r6, #0]
 80047e6:	6833      	ldr	r3, [r6, #0]
 80047e8:	f443 4380 	orr.w	r3, r3, #16384	@ 0x4000
 80047ec:	6033      	str	r3, [r6, #0]
 80047ee:	6833      	ldr	r3, [r6, #0]
 80047f0:	6862      	ldr	r2, [r4, #4]
 80047f2:	065b      	lsls	r3, r3, #25
 80047f4:	bf5e      	ittt	pl
 80047f6:	6833      	ldrpl	r3, [r6, #0]
 80047f8:	f043 0340 	orrpl.w	r3, r3, #64	@ 0x40
 80047fc:	6033      	strpl	r3, [r6, #0]
 80047fe:	68e3      	ldr	r3, [r4, #12]
 8004800:	f5b3 6f00 	cmp.w	r3, #2048	@ 0x800
 8004804:	d143      	bne.n	800488e <HAL_SPI_Transmit+0x112>
 8004806:	b112      	cbz	r2, 800480e <HAL_SPI_Transmit+0x92>
 8004808:	f1b8 0f01 	cmp.w	r8, #1
 800480c:	d107      	bne.n	800481e <HAL_SPI_Transmit+0xa2>
 800480e:	f835 3b02 	ldrh.w	r3, [r5], #2
 8004812:	60f3      	str	r3, [r6, #12]
 8004814:	6325      	str	r5, [r4, #48]	@ 0x30
 8004816:	8ee3      	ldrh	r3, [r4, #54]	@ 0x36
 8004818:	3b01      	subs	r3, #1
 800481a:	b29b      	uxth	r3, r3
 800481c:	86e3      	strh	r3, [r4, #54]	@ 0x36
 800481e:	8ee3      	ldrh	r3, [r4, #54]	@ 0x36
 8004820:	b29b      	uxth	r3, r3
 8004822:	b9b3      	cbnz	r3, 8004852 <HAL_SPI_Transmit+0xd6>
 8004824:	4652      	mov	r2, sl
 8004826:	4639      	mov	r1, r7
 8004828:	4620      	mov	r0, r4
 800482a:	f7ff fee1 	bl	80045f0 <SPI_EndRxTxTransaction>
 800482e:	2800      	cmp	r0, #0
 8004830:	d14f      	bne.n	80048d2 <HAL_SPI_Transmit+0x156>
 8004832:	68a3      	ldr	r3, [r4, #8]
 8004834:	b933      	cbnz	r3, 8004844 <HAL_SPI_Transmit+0xc8>
 8004836:	9301      	str	r3, [sp, #4]
 8004838:	6823      	ldr	r3, [r4, #0]
 800483a:	68da      	ldr	r2, [r3, #12]
 800483c:	9201      	str	r2, [sp, #4]
 800483e:	689b      	ldr	r3, [r3, #8]
 8004840:	9301      	str	r3, [sp, #4]
 8004842:	9b01      	ldr	r3, [sp, #4]
 8004844:	6d63      	ldr	r3, [r4, #84]	@ 0x54
 8004846:	b9db      	cbnz	r3, 8004880 <HAL_SPI_Transmit+0x104>
 8004848:	2201      	movs	r2, #1
 800484a:	f884 2051 	strb.w	r2, [r4, #81]	@ 0x51
 800484e:	4699      	mov	r9, r3
 8004850:	e016      	b.n	8004880 <HAL_SPI_Transmit+0x104>
 8004852:	6822      	ldr	r2, [r4, #0]
 8004854:	6893      	ldr	r3, [r2, #8]
 8004856:	0798      	lsls	r0, r3, #30
 8004858:	d505      	bpl.n	8004866 <HAL_SPI_Transmit+0xea>
 800485a:	6b23      	ldr	r3, [r4, #48]	@ 0x30
 800485c:	f833 1b02 	ldrh.w	r1, [r3], #2
 8004860:	60d1      	str	r1, [r2, #12]
 8004862:	6323      	str	r3, [r4, #48]	@ 0x30
 8004864:	e7d7      	b.n	8004816 <HAL_SPI_Transmit+0x9a>
 8004866:	f7fd fd77 	bl	8002358 <HAL_GetTick>
 800486a:	eba0 000a 	sub.w	r0, r0, sl
 800486e:	42b8      	cmp	r0, r7
 8004870:	d3d5      	bcc.n	800481e <HAL_SPI_Transmit+0xa2>
 8004872:	1c79      	adds	r1, r7, #1
 8004874:	d0d3      	beq.n	800481e <HAL_SPI_Transmit+0xa2>
 8004876:	2301      	movs	r3, #1
 8004878:	f884 3051 	strb.w	r3, [r4, #81]	@ 0x51
 800487c:	f04f 0903 	mov.w	r9, #3
 8004880:	2300      	movs	r3, #0
 8004882:	f884 3050 	strb.w	r3, [r4, #80]	@ 0x50
 8004886:	4648      	mov	r0, r9
 8004888:	b002      	add	sp, #8
 800488a:	e8bd 87f0 	ldmia.w	sp!, {r4, r5, r6, r7, r8, r9, sl, pc}
 800488e:	b112      	cbz	r2, 8004896 <HAL_SPI_Transmit+0x11a>
 8004890:	f1b8 0f01 	cmp.w	r8, #1
 8004894:	d108      	bne.n	80048a8 <HAL_SPI_Transmit+0x12c>
 8004896:	782b      	ldrb	r3, [r5, #0]
 8004898:	7333      	strb	r3, [r6, #12]
 800489a:	6b23      	ldr	r3, [r4, #48]	@ 0x30
 800489c:	3301      	adds	r3, #1
 800489e:	6323      	str	r3, [r4, #48]	@ 0x30
 80048a0:	8ee3      	ldrh	r3, [r4, #54]	@ 0x36
 80048a2:	3b01      	subs	r3, #1
 80048a4:	b29b      	uxth	r3, r3
 80048a6:	86e3      	strh	r3, [r4, #54]	@ 0x36
 80048a8:	8ee3      	ldrh	r3, [r4, #54]	@ 0x36
 80048aa:	b29b      	uxth	r3, r3
 80048ac:	2b00      	cmp	r3, #0
 80048ae:	d0b9      	beq.n	8004824 <HAL_SPI_Transmit+0xa8>
 80048b0:	6823      	ldr	r3, [r4, #0]
 80048b2:	689a      	ldr	r2, [r3, #8]
 80048b4:	0792      	lsls	r2, r2, #30
 80048b6:	d503      	bpl.n	80048c0 <HAL_SPI_Transmit+0x144>
 80048b8:	6b22      	ldr	r2, [r4, #48]	@ 0x30
 80048ba:	7812      	ldrb	r2, [r2, #0]
 80048bc:	731a      	strb	r2, [r3, #12]
 80048be:	e7ec      	b.n	800489a <HAL_SPI_Transmit+0x11e>
 80048c0:	f7fd fd4a 	bl	8002358 <HAL_GetTick>
 80048c4:	eba0 000a 	sub.w	r0, r0, sl
 80048c8:	42b8      	cmp	r0, r7
 80048ca:	d3ed      	bcc.n	80048a8 <HAL_SPI_Transmit+0x12c>
 80048cc:	1c7b      	adds	r3, r7, #1
 80048ce:	d0eb      	beq.n	80048a8 <HAL_SPI_Transmit+0x12c>
 80048d0:	e7d1      	b.n	8004876 <HAL_SPI_Transmit+0xfa>
 80048d2:	2320      	movs	r3, #32
 80048d4:	6563      	str	r3, [r4, #84]	@ 0x54
 80048d6:	e7ac      	b.n	8004832 <HAL_SPI_Transmit+0xb6>
 80048d8:	f04f 0902 	mov.w	r9, #2
 80048dc:	e7d0      	b.n	8004880 <HAL_SPI_Transmit+0x104>
 80048de:	f04f 0902 	mov.w	r9, #2
 80048e2:	e7d0      	b.n	8004886 <HAL_SPI_Transmit+0x10a>

080048e4 <HAL_SPI_TransmitReceive>:
 80048e4:	e92d 43f7 	stmdb	sp!, {r0, r1, r2, r4, r5, r6, r7, r8, r9, lr}
 80048e8:	461e      	mov	r6, r3
 80048ea:	f890 3050 	ldrb.w	r3, [r0, #80]	@ 0x50
 80048ee:	f8dd 8028 	ldr.w	r8, [sp, #40]	@ 0x28
 80048f2:	2b01      	cmp	r3, #1
 80048f4:	4604      	mov	r4, r0
 80048f6:	460d      	mov	r5, r1
 80048f8:	4691      	mov	r9, r2
 80048fa:	f000 80e8 	beq.w	8004ace <HAL_SPI_TransmitReceive+0x1ea>
 80048fe:	2301      	movs	r3, #1
 8004900:	f880 3050 	strb.w	r3, [r0, #80]	@ 0x50
 8004904:	f7fd fd28 	bl	8002358 <HAL_GetTick>
 8004908:	f894 3051 	ldrb.w	r3, [r4, #81]	@ 0x51
 800490c:	6862      	ldr	r2, [r4, #4]
 800490e:	2b01      	cmp	r3, #1
 8004910:	4607      	mov	r7, r0
 8004912:	b2d9      	uxtb	r1, r3
 8004914:	d00a      	beq.n	800492c <HAL_SPI_TransmitReceive+0x48>
 8004916:	f5b2 7f82 	cmp.w	r2, #260	@ 0x104
 800491a:	f040 80d6 	bne.w	8004aca <HAL_SPI_TransmitReceive+0x1e6>
 800491e:	68a3      	ldr	r3, [r4, #8]
 8004920:	2b00      	cmp	r3, #0
 8004922:	f040 80d2 	bne.w	8004aca <HAL_SPI_TransmitReceive+0x1e6>
 8004926:	2904      	cmp	r1, #4
 8004928:	f040 80cf 	bne.w	8004aca <HAL_SPI_TransmitReceive+0x1e6>
 800492c:	2d00      	cmp	r5, #0
 800492e:	d03f      	beq.n	80049b0 <HAL_SPI_TransmitReceive+0xcc>
 8004930:	f1b9 0f00 	cmp.w	r9, #0
 8004934:	d03c      	beq.n	80049b0 <HAL_SPI_TransmitReceive+0xcc>
 8004936:	2e00      	cmp	r6, #0
 8004938:	d03a      	beq.n	80049b0 <HAL_SPI_TransmitReceive+0xcc>
 800493a:	f894 3051 	ldrb.w	r3, [r4, #81]	@ 0x51
 800493e:	f8c4 9038 	str.w	r9, [r4, #56]	@ 0x38
 8004942:	2b04      	cmp	r3, #4
 8004944:	bf1c      	itt	ne
 8004946:	2305      	movne	r3, #5
 8004948:	f884 3051 	strbne.w	r3, [r4, #81]	@ 0x51
 800494c:	2300      	movs	r3, #0
 800494e:	6563      	str	r3, [r4, #84]	@ 0x54
 8004950:	e9c4 3310 	strd	r3, r3, [r4, #64]	@ 0x40
 8004954:	6823      	ldr	r3, [r4, #0]
 8004956:	87e6      	strh	r6, [r4, #62]	@ 0x3e
 8004958:	86e6      	strh	r6, [r4, #54]	@ 0x36
 800495a:	6819      	ldr	r1, [r3, #0]
 800495c:	87a6      	strh	r6, [r4, #60]	@ 0x3c
 800495e:	0649      	lsls	r1, r1, #25
 8004960:	bf58      	it	pl
 8004962:	6819      	ldrpl	r1, [r3, #0]
 8004964:	6325      	str	r5, [r4, #48]	@ 0x30
 8004966:	bf58      	it	pl
 8004968:	f041 0140 	orrpl.w	r1, r1, #64	@ 0x40
 800496c:	86a6      	strh	r6, [r4, #52]	@ 0x34
 800496e:	bf58      	it	pl
 8004970:	6019      	strpl	r1, [r3, #0]
 8004972:	68e1      	ldr	r1, [r4, #12]
 8004974:	f5b1 6f00 	cmp.w	r1, #2048	@ 0x800
 8004978:	d151      	bne.n	8004a1e <HAL_SPI_TransmitReceive+0x13a>
 800497a:	b10a      	cbz	r2, 8004980 <HAL_SPI_TransmitReceive+0x9c>
 800497c:	2e01      	cmp	r6, #1
 800497e:	d107      	bne.n	8004990 <HAL_SPI_TransmitReceive+0xac>
 8004980:	f835 2b02 	ldrh.w	r2, [r5], #2
 8004984:	60da      	str	r2, [r3, #12]
 8004986:	8ee3      	ldrh	r3, [r4, #54]	@ 0x36
 8004988:	6325      	str	r5, [r4, #48]	@ 0x30
 800498a:	3b01      	subs	r3, #1
 800498c:	b29b      	uxth	r3, r3
 800498e:	86e3      	strh	r3, [r4, #54]	@ 0x36
 8004990:	2501      	movs	r5, #1
 8004992:	8ee3      	ldrh	r3, [r4, #54]	@ 0x36
 8004994:	b29b      	uxth	r3, r3
 8004996:	b96b      	cbnz	r3, 80049b4 <HAL_SPI_TransmitReceive+0xd0>
 8004998:	8fe3      	ldrh	r3, [r4, #62]	@ 0x3e
 800499a:	b29b      	uxth	r3, r3
 800499c:	b953      	cbnz	r3, 80049b4 <HAL_SPI_TransmitReceive+0xd0>
 800499e:	463a      	mov	r2, r7
 80049a0:	4641      	mov	r1, r8
 80049a2:	4620      	mov	r0, r4
 80049a4:	f7ff fe24 	bl	80045f0 <SPI_EndRxTxTransaction>
 80049a8:	2800      	cmp	r0, #0
 80049aa:	d07d      	beq.n	8004aa8 <HAL_SPI_TransmitReceive+0x1c4>
 80049ac:	2320      	movs	r3, #32
 80049ae:	6563      	str	r3, [r4, #84]	@ 0x54
 80049b0:	2001      	movs	r0, #1
 80049b2:	e02e      	b.n	8004a12 <HAL_SPI_TransmitReceive+0x12e>
 80049b4:	6821      	ldr	r1, [r4, #0]
 80049b6:	688b      	ldr	r3, [r1, #8]
 80049b8:	079a      	lsls	r2, r3, #30
 80049ba:	d50d      	bpl.n	80049d8 <HAL_SPI_TransmitReceive+0xf4>
 80049bc:	8ee3      	ldrh	r3, [r4, #54]	@ 0x36
 80049be:	b29b      	uxth	r3, r3
 80049c0:	b153      	cbz	r3, 80049d8 <HAL_SPI_TransmitReceive+0xf4>
 80049c2:	b145      	cbz	r5, 80049d6 <HAL_SPI_TransmitReceive+0xf2>
 80049c4:	6b23      	ldr	r3, [r4, #48]	@ 0x30
 80049c6:	f833 2b02 	ldrh.w	r2, [r3], #2
 80049ca:	60ca      	str	r2, [r1, #12]
 80049cc:	6323      	str	r3, [r4, #48]	@ 0x30
 80049ce:	8ee3      	ldrh	r3, [r4, #54]	@ 0x36
 80049d0:	3b01      	subs	r3, #1
 80049d2:	b29b      	uxth	r3, r3
 80049d4:	86e3      	strh	r3, [r4, #54]	@ 0x36
 80049d6:	2500      	movs	r5, #0
 80049d8:	688a      	ldr	r2, [r1, #8]
 80049da:	f012 0201 	ands.w	r2, r2, #1
 80049de:	d00c      	beq.n	80049fa <HAL_SPI_TransmitReceive+0x116>
 80049e0:	8fe3      	ldrh	r3, [r4, #62]	@ 0x3e
 80049e2:	b29b      	uxth	r3, r3
 80049e4:	b14b      	cbz	r3, 80049fa <HAL_SPI_TransmitReceive+0x116>
 80049e6:	6ba3      	ldr	r3, [r4, #56]	@ 0x38
 80049e8:	68c9      	ldr	r1, [r1, #12]
 80049ea:	f823 1b02 	strh.w	r1, [r3], #2
 80049ee:	63a3      	str	r3, [r4, #56]	@ 0x38
 80049f0:	8fe3      	ldrh	r3, [r4, #62]	@ 0x3e
 80049f2:	3b01      	subs	r3, #1
 80049f4:	b29b      	uxth	r3, r3
 80049f6:	87e3      	strh	r3, [r4, #62]	@ 0x3e
 80049f8:	4615      	mov	r5, r2
 80049fa:	f7fd fcad 	bl	8002358 <HAL_GetTick>
 80049fe:	1bc0      	subs	r0, r0, r7
 8004a00:	4540      	cmp	r0, r8
 8004a02:	d3c6      	bcc.n	8004992 <HAL_SPI_TransmitReceive+0xae>
 8004a04:	f1b8 3fff 	cmp.w	r8, #4294967295	@ 0xffffffff
 8004a08:	d0c3      	beq.n	8004992 <HAL_SPI_TransmitReceive+0xae>
 8004a0a:	2301      	movs	r3, #1
 8004a0c:	f884 3051 	strb.w	r3, [r4, #81]	@ 0x51
 8004a10:	2003      	movs	r0, #3
 8004a12:	2300      	movs	r3, #0
 8004a14:	f884 3050 	strb.w	r3, [r4, #80]	@ 0x50
 8004a18:	b003      	add	sp, #12
 8004a1a:	e8bd 83f0 	ldmia.w	sp!, {r4, r5, r6, r7, r8, r9, pc}
 8004a1e:	b10a      	cbz	r2, 8004a24 <HAL_SPI_TransmitReceive+0x140>
 8004a20:	2e01      	cmp	r6, #1
 8004a22:	d108      	bne.n	8004a36 <HAL_SPI_TransmitReceive+0x152>
 8004a24:	782a      	ldrb	r2, [r5, #0]
 8004a26:	731a      	strb	r2, [r3, #12]
 8004a28:	6b23      	ldr	r3, [r4, #48]	@ 0x30
 8004a2a:	3301      	adds	r3, #1
 8004a2c:	6323      	str	r3, [r4, #48]	@ 0x30
 8004a2e:	8ee3      	ldrh	r3, [r4, #54]	@ 0x36
 8004a30:	3b01      	subs	r3, #1
 8004a32:	b29b      	uxth	r3, r3
 8004a34:	86e3      	strh	r3, [r4, #54]	@ 0x36
 8004a36:	2501      	movs	r5, #1
 8004a38:	e02d      	b.n	8004a96 <HAL_SPI_TransmitReceive+0x1b2>
 8004a3a:	6822      	ldr	r2, [r4, #0]
 8004a3c:	6893      	ldr	r3, [r2, #8]
 8004a3e:	079b      	lsls	r3, r3, #30
 8004a40:	d50e      	bpl.n	8004a60 <HAL_SPI_TransmitReceive+0x17c>
 8004a42:	8ee3      	ldrh	r3, [r4, #54]	@ 0x36
 8004a44:	b29b      	uxth	r3, r3
 8004a46:	b15b      	cbz	r3, 8004a60 <HAL_SPI_TransmitReceive+0x17c>
 8004a48:	b14d      	cbz	r5, 8004a5e <HAL_SPI_TransmitReceive+0x17a>
 8004a4a:	6b23      	ldr	r3, [r4, #48]	@ 0x30
 8004a4c:	781b      	ldrb	r3, [r3, #0]
 8004a4e:	7313      	strb	r3, [r2, #12]
 8004a50:	6b23      	ldr	r3, [r4, #48]	@ 0x30
 8004a52:	3301      	adds	r3, #1
 8004a54:	6323      	str	r3, [r4, #48]	@ 0x30
 8004a56:	8ee3      	ldrh	r3, [r4, #54]	@ 0x36
 8004a58:	3b01      	subs	r3, #1
 8004a5a:	b29b      	uxth	r3, r3
 8004a5c:	86e3      	strh	r3, [r4, #54]	@ 0x36
 8004a5e:	2500      	movs	r5, #0
 8004a60:	6822      	ldr	r2, [r4, #0]
 8004a62:	6891      	ldr	r1, [r2, #8]
 8004a64:	f011 0101 	ands.w	r1, r1, #1
 8004a68:	d00d      	beq.n	8004a86 <HAL_SPI_TransmitReceive+0x1a2>
 8004a6a:	8fe3      	ldrh	r3, [r4, #62]	@ 0x3e
 8004a6c:	b29b      	uxth	r3, r3
 8004a6e:	b153      	cbz	r3, 8004a86 <HAL_SPI_TransmitReceive+0x1a2>
 8004a70:	6ba3      	ldr	r3, [r4, #56]	@ 0x38
 8004a72:	68d2      	ldr	r2, [r2, #12]
 8004a74:	701a      	strb	r2, [r3, #0]
 8004a76:	6ba3      	ldr	r3, [r4, #56]	@ 0x38
 8004a78:	3301      	adds	r3, #1
 8004a7a:	63a3      	str	r3, [r4, #56]	@ 0x38
 8004a7c:	8fe3      	ldrh	r3, [r4, #62]	@ 0x3e
 8004a7e:	3b01      	subs	r3, #1
 8004a80:	b29b      	uxth	r3, r3
 8004a82:	87e3      	strh	r3, [r4, #62]	@ 0x3e
 8004a84:	460d      	mov	r5, r1
 8004a86:	f7fd fc67 	bl	8002358 <HAL_GetTick>
 8004a8a:	1bc0      	subs	r0, r0, r7
 8004a8c:	4540      	cmp	r0, r8
 8004a8e:	d302      	bcc.n	8004a96 <HAL_SPI_TransmitReceive+0x1b2>
 8004a90:	f1b8 3fff 	cmp.w	r8, #4294967295	@ 0xffffffff
 8004a94:	d1b9      	bne.n	8004a0a <HAL_SPI_TransmitReceive+0x126>
 8004a96:	8ee3      	ldrh	r3, [r4, #54]	@ 0x36
 8004a98:	b29b      	uxth	r3, r3
 8004a9a:	2b00      	cmp	r3, #0
 8004a9c:	d1cd      	bne.n	8004a3a <HAL_SPI_TransmitReceive+0x156>
 8004a9e:	8fe3      	ldrh	r3, [r4, #62]	@ 0x3e
 8004aa0:	b29b      	uxth	r3, r3
 8004aa2:	2b00      	cmp	r3, #0
 8004aa4:	d1c9      	bne.n	8004a3a <HAL_SPI_TransmitReceive+0x156>
 8004aa6:	e77a      	b.n	800499e <HAL_SPI_TransmitReceive+0xba>
 8004aa8:	68a3      	ldr	r3, [r4, #8]
 8004aaa:	b933      	cbnz	r3, 8004aba <HAL_SPI_TransmitReceive+0x1d6>
 8004aac:	6823      	ldr	r3, [r4, #0]
 8004aae:	9001      	str	r0, [sp, #4]
 8004ab0:	68da      	ldr	r2, [r3, #12]
 8004ab2:	9201      	str	r2, [sp, #4]
 8004ab4:	689b      	ldr	r3, [r3, #8]
 8004ab6:	9301      	str	r3, [sp, #4]
 8004ab8:	9b01      	ldr	r3, [sp, #4]
 8004aba:	6d63      	ldr	r3, [r4, #84]	@ 0x54
 8004abc:	2b00      	cmp	r3, #0
 8004abe:	f47f af77 	bne.w	80049b0 <HAL_SPI_TransmitReceive+0xcc>
 8004ac2:	2301      	movs	r3, #1
 8004ac4:	f884 3051 	strb.w	r3, [r4, #81]	@ 0x51
 8004ac8:	e7a3      	b.n	8004a12 <HAL_SPI_TransmitReceive+0x12e>
 8004aca:	2002      	movs	r0, #2
 8004acc:	e7a1      	b.n	8004a12 <HAL_SPI_TransmitReceive+0x12e>
 8004ace:	2002      	movs	r0, #2
 8004ad0:	e7a2      	b.n	8004a18 <HAL_SPI_TransmitReceive+0x134>

08004ad2 <HAL_SPI_Receive>:
 8004ad2:	e92d 47f3 	stmdb	sp!, {r0, r1, r4, r5, r6, r7, r8, r9, sl, lr}
 8004ad6:	461e      	mov	r6, r3
 8004ad8:	f890 3051 	ldrb.w	r3, [r0, #81]	@ 0x51
 8004adc:	2b01      	cmp	r3, #1
 8004ade:	4604      	mov	r4, r0
 8004ae0:	468a      	mov	sl, r1
 8004ae2:	4690      	mov	r8, r2
 8004ae4:	b2dd      	uxtb	r5, r3
 8004ae6:	f040 8095 	bne.w	8004c14 <HAL_SPI_Receive+0x142>
 8004aea:	6843      	ldr	r3, [r0, #4]
 8004aec:	f5b3 7f82 	cmp.w	r3, #260	@ 0x104
 8004af0:	d10e      	bne.n	8004b10 <HAL_SPI_Receive+0x3e>
 8004af2:	6883      	ldr	r3, [r0, #8]
 8004af4:	b963      	cbnz	r3, 8004b10 <HAL_SPI_Receive+0x3e>
 8004af6:	2304      	movs	r3, #4
 8004af8:	f880 3051 	strb.w	r3, [r0, #81]	@ 0x51
 8004afc:	4613      	mov	r3, r2
 8004afe:	9600      	str	r6, [sp, #0]
 8004b00:	460a      	mov	r2, r1
 8004b02:	f7ff feef 	bl	80048e4 <HAL_SPI_TransmitReceive>
 8004b06:	4605      	mov	r5, r0
 8004b08:	4628      	mov	r0, r5
 8004b0a:	b002      	add	sp, #8
 8004b0c:	e8bd 87f0 	ldmia.w	sp!, {r4, r5, r6, r7, r8, r9, sl, pc}
 8004b10:	f894 3050 	ldrb.w	r3, [r4, #80]	@ 0x50
 8004b14:	2b01      	cmp	r3, #1
 8004b16:	d07f      	beq.n	8004c18 <HAL_SPI_Receive+0x146>
 8004b18:	2301      	movs	r3, #1
 8004b1a:	f884 3050 	strb.w	r3, [r4, #80]	@ 0x50
 8004b1e:	f7fd fc1b 	bl	8002358 <HAL_GetTick>
 8004b22:	4681      	mov	r9, r0
 8004b24:	f1ba 0f00 	cmp.w	sl, #0
 8004b28:	d064      	beq.n	8004bf4 <HAL_SPI_Receive+0x122>
 8004b2a:	f1b8 0f00 	cmp.w	r8, #0
 8004b2e:	d061      	beq.n	8004bf4 <HAL_SPI_Receive+0x122>
 8004b30:	68a2      	ldr	r2, [r4, #8]
 8004b32:	f8c4 a038 	str.w	sl, [r4, #56]	@ 0x38
 8004b36:	2700      	movs	r7, #0
 8004b38:	2304      	movs	r3, #4
 8004b3a:	f5b2 4f00 	cmp.w	r2, #32768	@ 0x8000
 8004b3e:	f884 3051 	strb.w	r3, [r4, #81]	@ 0x51
 8004b42:	e9c4 7710 	strd	r7, r7, [r4, #64]	@ 0x40
 8004b46:	6567      	str	r7, [r4, #84]	@ 0x54
 8004b48:	6823      	ldr	r3, [r4, #0]
 8004b4a:	f8a4 803e 	strh.w	r8, [r4, #62]	@ 0x3e
 8004b4e:	f8a4 803c 	strh.w	r8, [r4, #60]	@ 0x3c
 8004b52:	6327      	str	r7, [r4, #48]	@ 0x30
 8004b54:	86a7      	strh	r7, [r4, #52]	@ 0x34
 8004b56:	86e7      	strh	r7, [r4, #54]	@ 0x36
 8004b58:	d107      	bne.n	8004b6a <HAL_SPI_Receive+0x98>
 8004b5a:	681a      	ldr	r2, [r3, #0]
 8004b5c:	f022 0240 	bic.w	r2, r2, #64	@ 0x40
 8004b60:	601a      	str	r2, [r3, #0]
 8004b62:	681a      	ldr	r2, [r3, #0]
 8004b64:	f422 4280 	bic.w	r2, r2, #16384	@ 0x4000
 8004b68:	601a      	str	r2, [r3, #0]
 8004b6a:	681a      	ldr	r2, [r3, #0]
 8004b6c:	0657      	lsls	r7, r2, #25
 8004b6e:	bf5e      	ittt	pl
 8004b70:	681a      	ldrpl	r2, [r3, #0]
 8004b72:	f042 0240 	orrpl.w	r2, r2, #64	@ 0x40
 8004b76:	601a      	strpl	r2, [r3, #0]
 8004b78:	68e3      	ldr	r3, [r4, #12]
 8004b7a:	b1f3      	cbz	r3, 8004bba <HAL_SPI_Receive+0xe8>
 8004b7c:	8fe3      	ldrh	r3, [r4, #62]	@ 0x3e
 8004b7e:	b29b      	uxth	r3, r3
 8004b80:	b1fb      	cbz	r3, 8004bc2 <HAL_SPI_Receive+0xf0>
 8004b82:	6823      	ldr	r3, [r4, #0]
 8004b84:	689a      	ldr	r2, [r3, #8]
 8004b86:	07d2      	lsls	r2, r2, #31
 8004b88:	d538      	bpl.n	8004bfc <HAL_SPI_Receive+0x12a>
 8004b8a:	68da      	ldr	r2, [r3, #12]
 8004b8c:	6ba3      	ldr	r3, [r4, #56]	@ 0x38
 8004b8e:	f823 2b02 	strh.w	r2, [r3], #2
 8004b92:	63a3      	str	r3, [r4, #56]	@ 0x38
 8004b94:	8fe3      	ldrh	r3, [r4, #62]	@ 0x3e
 8004b96:	3b01      	subs	r3, #1
 8004b98:	b29b      	uxth	r3, r3
 8004b9a:	87e3      	strh	r3, [r4, #62]	@ 0x3e
 8004b9c:	e7ee      	b.n	8004b7c <HAL_SPI_Receive+0xaa>
 8004b9e:	6823      	ldr	r3, [r4, #0]
 8004ba0:	689a      	ldr	r2, [r3, #8]
 8004ba2:	07d0      	lsls	r0, r2, #31
 8004ba4:	d51a      	bpl.n	8004bdc <HAL_SPI_Receive+0x10a>
 8004ba6:	6ba2      	ldr	r2, [r4, #56]	@ 0x38
 8004ba8:	7b1b      	ldrb	r3, [r3, #12]
 8004baa:	7013      	strb	r3, [r2, #0]
 8004bac:	6ba3      	ldr	r3, [r4, #56]	@ 0x38
 8004bae:	3301      	adds	r3, #1
 8004bb0:	63a3      	str	r3, [r4, #56]	@ 0x38
 8004bb2:	8fe3      	ldrh	r3, [r4, #62]	@ 0x3e
 8004bb4:	3b01      	subs	r3, #1
 8004bb6:	b29b      	uxth	r3, r3
 8004bb8:	87e3      	strh	r3, [r4, #62]	@ 0x3e
 8004bba:	8fe3      	ldrh	r3, [r4, #62]	@ 0x3e
 8004bbc:	b29b      	uxth	r3, r3
 8004bbe:	2b00      	cmp	r3, #0
 8004bc0:	d1ed      	bne.n	8004b9e <HAL_SPI_Receive+0xcc>
 8004bc2:	464a      	mov	r2, r9
 8004bc4:	4631      	mov	r1, r6
 8004bc6:	4620      	mov	r0, r4
 8004bc8:	f7ff fd4e 	bl	8004668 <SPI_EndRxTransaction>
 8004bcc:	b9f8      	cbnz	r0, 8004c0e <HAL_SPI_Receive+0x13c>
 8004bce:	6d63      	ldr	r3, [r4, #84]	@ 0x54
 8004bd0:	b983      	cbnz	r3, 8004bf4 <HAL_SPI_Receive+0x122>
 8004bd2:	2201      	movs	r2, #1
 8004bd4:	f884 2051 	strb.w	r2, [r4, #81]	@ 0x51
 8004bd8:	461d      	mov	r5, r3
 8004bda:	e00b      	b.n	8004bf4 <HAL_SPI_Receive+0x122>
 8004bdc:	f7fd fbbc 	bl	8002358 <HAL_GetTick>
 8004be0:	eba0 0009 	sub.w	r0, r0, r9
 8004be4:	42b0      	cmp	r0, r6
 8004be6:	d3e8      	bcc.n	8004bba <HAL_SPI_Receive+0xe8>
 8004be8:	1c71      	adds	r1, r6, #1
 8004bea:	d0e6      	beq.n	8004bba <HAL_SPI_Receive+0xe8>
 8004bec:	2301      	movs	r3, #1
 8004bee:	f884 3051 	strb.w	r3, [r4, #81]	@ 0x51
 8004bf2:	2503      	movs	r5, #3
 8004bf4:	2300      	movs	r3, #0
 8004bf6:	f884 3050 	strb.w	r3, [r4, #80]	@ 0x50
 8004bfa:	e785      	b.n	8004b08 <HAL_SPI_Receive+0x36>
 8004bfc:	f7fd fbac 	bl	8002358 <HAL_GetTick>
 8004c00:	eba0 0009 	sub.w	r0, r0, r9
 8004c04:	42b0      	cmp	r0, r6
 8004c06:	d3b9      	bcc.n	8004b7c <HAL_SPI_Receive+0xaa>
 8004c08:	1c73      	adds	r3, r6, #1
 8004c0a:	d0b7      	beq.n	8004b7c <HAL_SPI_Receive+0xaa>
 8004c0c:	e7ee      	b.n	8004bec <HAL_SPI_Receive+0x11a>
 8004c0e:	2320      	movs	r3, #32
 8004c10:	6563      	str	r3, [r4, #84]	@ 0x54
 8004c12:	e7dc      	b.n	8004bce <HAL_SPI_Receive+0xfc>
 8004c14:	2502      	movs	r5, #2
 8004c16:	e7ed      	b.n	8004bf4 <HAL_SPI_Receive+0x122>
 8004c18:	2502      	movs	r5, #2
 8004c1a:	e775      	b.n	8004b08 <HAL_SPI_Receive+0x36>

08004c1c <HAL_SPI_Transmit_DMA>:
 8004c1c:	b538      	push	{r3, r4, r5, lr}
 8004c1e:	f890 3050 	ldrb.w	r3, [r0, #80]	@ 0x50
 8004c22:	2b01      	cmp	r3, #1
 8004c24:	4604      	mov	r4, r0
 8004c26:	d051      	beq.n	8004ccc <HAL_SPI_Transmit_DMA+0xb0>
 8004c28:	2301      	movs	r3, #1
 8004c2a:	f880 3050 	strb.w	r3, [r0, #80]	@ 0x50
 8004c2e:	f890 3051 	ldrb.w	r3, [r0, #81]	@ 0x51
 8004c32:	2b01      	cmp	r3, #1
 8004c34:	b2dd      	uxtb	r5, r3
 8004c36:	d147      	bne.n	8004cc8 <HAL_SPI_Transmit_DMA+0xac>
 8004c38:	2900      	cmp	r1, #0
 8004c3a:	d02e      	beq.n	8004c9a <HAL_SPI_Transmit_DMA+0x7e>
 8004c3c:	2a00      	cmp	r2, #0
 8004c3e:	d02c      	beq.n	8004c9a <HAL_SPI_Transmit_DMA+0x7e>
 8004c40:	2303      	movs	r3, #3
 8004c42:	f880 3051 	strb.w	r3, [r0, #81]	@ 0x51
 8004c46:	2300      	movs	r3, #0
 8004c48:	6543      	str	r3, [r0, #84]	@ 0x54
 8004c4a:	e9c0 3310 	strd	r3, r3, [r0, #64]	@ 0x40
 8004c4e:	86c2      	strh	r2, [r0, #54]	@ 0x36
 8004c50:	6383      	str	r3, [r0, #56]	@ 0x38
 8004c52:	8783      	strh	r3, [r0, #60]	@ 0x3c
 8004c54:	87c3      	strh	r3, [r0, #62]	@ 0x3e
 8004c56:	6883      	ldr	r3, [r0, #8]
 8004c58:	8682      	strh	r2, [r0, #52]	@ 0x34
 8004c5a:	f5b3 4f00 	cmp.w	r3, #32768	@ 0x8000
 8004c5e:	6802      	ldr	r2, [r0, #0]
 8004c60:	6301      	str	r1, [r0, #48]	@ 0x30
 8004c62:	d107      	bne.n	8004c74 <HAL_SPI_Transmit_DMA+0x58>
 8004c64:	6813      	ldr	r3, [r2, #0]
 8004c66:	f023 0340 	bic.w	r3, r3, #64	@ 0x40
 8004c6a:	6013      	str	r3, [r2, #0]
 8004c6c:	6813      	ldr	r3, [r2, #0]
 8004c6e:	f443 4380 	orr.w	r3, r3, #16384	@ 0x4000
 8004c72:	6013      	str	r3, [r2, #0]
 8004c74:	6ca0      	ldr	r0, [r4, #72]	@ 0x48
 8004c76:	4b16      	ldr	r3, [pc, #88]	@ (8004cd0 <HAL_SPI_Transmit_DMA+0xb4>)
 8004c78:	6403      	str	r3, [r0, #64]	@ 0x40
 8004c7a:	4b16      	ldr	r3, [pc, #88]	@ (8004cd4 <HAL_SPI_Transmit_DMA+0xb8>)
 8004c7c:	63c3      	str	r3, [r0, #60]	@ 0x3c
 8004c7e:	4b16      	ldr	r3, [pc, #88]	@ (8004cd8 <HAL_SPI_Transmit_DMA+0xbc>)
 8004c80:	64c3      	str	r3, [r0, #76]	@ 0x4c
 8004c82:	2300      	movs	r3, #0
 8004c84:	6503      	str	r3, [r0, #80]	@ 0x50
 8004c86:	8ee3      	ldrh	r3, [r4, #54]	@ 0x36
 8004c88:	320c      	adds	r2, #12
 8004c8a:	b29b      	uxth	r3, r3
 8004c8c:	f7fd ff8e 	bl	8002bac <HAL_DMA_Start_IT>
 8004c90:	b140      	cbz	r0, 8004ca4 <HAL_SPI_Transmit_DMA+0x88>
 8004c92:	6d63      	ldr	r3, [r4, #84]	@ 0x54
 8004c94:	f043 0310 	orr.w	r3, r3, #16
 8004c98:	6563      	str	r3, [r4, #84]	@ 0x54
 8004c9a:	2300      	movs	r3, #0
 8004c9c:	f884 3050 	strb.w	r3, [r4, #80]	@ 0x50
 8004ca0:	4628      	mov	r0, r5
 8004ca2:	bd38      	pop	{r3, r4, r5, pc}
 8004ca4:	6823      	ldr	r3, [r4, #0]
 8004ca6:	681a      	ldr	r2, [r3, #0]
 8004ca8:	0652      	lsls	r2, r2, #25
 8004caa:	bf5e      	ittt	pl
 8004cac:	681a      	ldrpl	r2, [r3, #0]
 8004cae:	f042 0240 	orrpl.w	r2, r2, #64	@ 0x40
 8004cb2:	601a      	strpl	r2, [r3, #0]
 8004cb4:	685a      	ldr	r2, [r3, #4]
 8004cb6:	f042 0220 	orr.w	r2, r2, #32
 8004cba:	605a      	str	r2, [r3, #4]
 8004cbc:	685a      	ldr	r2, [r3, #4]
 8004cbe:	f042 0202 	orr.w	r2, r2, #2
 8004cc2:	605a      	str	r2, [r3, #4]
 8004cc4:	2500      	movs	r5, #0
 8004cc6:	e7e8      	b.n	8004c9a <HAL_SPI_Transmit_DMA+0x7e>
 8004cc8:	2502      	movs	r5, #2
 8004cca:	e7e6      	b.n	8004c9a <HAL_SPI_Transmit_DMA+0x7e>
 8004ccc:	2502      	movs	r5, #2
 8004cce:	e7e7      	b.n	8004ca0 <HAL_SPI_Transmit_DMA+0x84>
 8004cd0:	08004cdf 	.word	0x08004cdf
 8004cd4:	08004d0d 	.word	0x08004d0d
 8004cd8:	08004ceb 	.word	0x08004ceb

08004cdc <HAL_SPI_TxHalfCpltCallback>:
 8004cdc:	4770      	bx	lr

08004cde <SPI_DMAHalfTransmitCplt>:
 8004cde:	b508      	push	{r3, lr}
 8004ce0:	6b80      	ldr	r0, [r0, #56]	@ 0x38
 8004ce2:	f7ff fffb 	bl	8004cdc <HAL_SPI_TxHalfCpltCallback>
 8004ce6:	bd08      	pop	{r3, pc}

08004ce8 <HAL_SPI_ErrorCallback>:
 8004ce8:	4770      	bx	lr

08004cea <SPI_DMAError>:
 8004cea:	6b80      	ldr	r0, [r0, #56]	@ 0x38
 8004cec:	6802      	ldr	r2, [r0, #0]
 8004cee:	b508      	push	{r3, lr}
 8004cf0:	6853      	ldr	r3, [r2, #4]
 8004cf2:	f023 0303 	bic.w	r3, r3, #3
 8004cf6:	6053      	str	r3, [r2, #4]
 8004cf8:	6d43      	ldr	r3, [r0, #84]	@ 0x54
 8004cfa:	f043 0310 	orr.w	r3, r3, #16
 8004cfe:	6543      	str	r3, [r0, #84]	@ 0x54
 8004d00:	2301      	movs	r3, #1
 8004d02:	f880 3051 	strb.w	r3, [r0, #81]	@ 0x51
 8004d06:	f7ff ffef 	bl	8004ce8 <HAL_SPI_ErrorCallback>
 8004d0a:	bd08      	pop	{r3, pc}

08004d0c <SPI_DMATransmitCplt>:
 8004d0c:	b537      	push	{r0, r1, r2, r4, r5, lr}
 8004d0e:	4605      	mov	r5, r0
 8004d10:	6b84      	ldr	r4, [r0, #56]	@ 0x38
 8004d12:	f7fd fb21 	bl	8002358 <HAL_GetTick>
 8004d16:	682b      	ldr	r3, [r5, #0]
 8004d18:	681b      	ldr	r3, [r3, #0]
 8004d1a:	05db      	lsls	r3, r3, #23
 8004d1c:	4602      	mov	r2, r0
 8004d1e:	d426      	bmi.n	8004d6e <SPI_DMATransmitCplt+0x62>
 8004d20:	6823      	ldr	r3, [r4, #0]
 8004d22:	6859      	ldr	r1, [r3, #4]
 8004d24:	f021 0120 	bic.w	r1, r1, #32
 8004d28:	6059      	str	r1, [r3, #4]
 8004d2a:	6859      	ldr	r1, [r3, #4]
 8004d2c:	f021 0102 	bic.w	r1, r1, #2
 8004d30:	6059      	str	r1, [r3, #4]
 8004d32:	4620      	mov	r0, r4
 8004d34:	2164      	movs	r1, #100	@ 0x64
 8004d36:	f7ff fc5b 	bl	80045f0 <SPI_EndRxTxTransaction>
 8004d3a:	b118      	cbz	r0, 8004d44 <SPI_DMATransmitCplt+0x38>
 8004d3c:	6d63      	ldr	r3, [r4, #84]	@ 0x54
 8004d3e:	f043 0320 	orr.w	r3, r3, #32
 8004d42:	6563      	str	r3, [r4, #84]	@ 0x54
 8004d44:	68a3      	ldr	r3, [r4, #8]
 8004d46:	b933      	cbnz	r3, 8004d56 <SPI_DMATransmitCplt+0x4a>
 8004d48:	9301      	str	r3, [sp, #4]
 8004d4a:	6823      	ldr	r3, [r4, #0]
 8004d4c:	68da      	ldr	r2, [r3, #12]
 8004d4e:	9201      	str	r2, [sp, #4]
 8004d50:	689b      	ldr	r3, [r3, #8]
 8004d52:	9301      	str	r3, [sp, #4]
 8004d54:	9b01      	ldr	r3, [sp, #4]
 8004d56:	2300      	movs	r3, #0
 8004d58:	86e3      	strh	r3, [r4, #54]	@ 0x36
 8004d5a:	2301      	movs	r3, #1
 8004d5c:	f884 3051 	strb.w	r3, [r4, #81]	@ 0x51
 8004d60:	6d63      	ldr	r3, [r4, #84]	@ 0x54
 8004d62:	b123      	cbz	r3, 8004d6e <SPI_DMATransmitCplt+0x62>
 8004d64:	4620      	mov	r0, r4
 8004d66:	f7ff ffbf 	bl	8004ce8 <HAL_SPI_ErrorCallback>
 8004d6a:	b003      	add	sp, #12
 8004d6c:	bd30      	pop	{r4, r5, pc}
 8004d6e:	4620      	mov	r0, r4
 8004d70:	f7fd fa14 	bl	800219c <HAL_SPI_TxCpltCallback>
 8004d74:	e7f9      	b.n	8004d6a <SPI_DMATransmitCplt+0x5e>
	...

08004d78 <HAL_TIM_Base_Start_IT>:
 8004d78:	f890 303d 	ldrb.w	r3, [r0, #61]	@ 0x3d
 8004d7c:	2b01      	cmp	r3, #1
 8004d7e:	d130      	bne.n	8004de2 <HAL_TIM_Base_Start_IT+0x6a>
 8004d80:	2302      	movs	r3, #2
 8004d82:	f880 303d 	strb.w	r3, [r0, #61]	@ 0x3d
 8004d86:	6803      	ldr	r3, [r0, #0]
 8004d88:	68da      	ldr	r2, [r3, #12]
 8004d8a:	f042 0201 	orr.w	r2, r2, #1
 8004d8e:	60da      	str	r2, [r3, #12]
 8004d90:	4a15      	ldr	r2, [pc, #84]	@ (8004de8 <HAL_TIM_Base_Start_IT+0x70>)
 8004d92:	4293      	cmp	r3, r2
 8004d94:	d01a      	beq.n	8004dcc <HAL_TIM_Base_Start_IT+0x54>
 8004d96:	f1b3 4f80 	cmp.w	r3, #1073741824	@ 0x40000000
 8004d9a:	d017      	beq.n	8004dcc <HAL_TIM_Base_Start_IT+0x54>
 8004d9c:	f5a2 427c 	sub.w	r2, r2, #64512	@ 0xfc00
 8004da0:	4293      	cmp	r3, r2
 8004da2:	d013      	beq.n	8004dcc <HAL_TIM_Base_Start_IT+0x54>
 8004da4:	f502 6280 	add.w	r2, r2, #1024	@ 0x400
 8004da8:	4293      	cmp	r3, r2
 8004daa:	d00f      	beq.n	8004dcc <HAL_TIM_Base_Start_IT+0x54>
 8004dac:	f502 6280 	add.w	r2, r2, #1024	@ 0x400
 8004db0:	4293      	cmp	r3, r2
 8004db2:	d00b      	beq.n	8004dcc <HAL_TIM_Base_Start_IT+0x54>
 8004db4:	f502 4278 	add.w	r2, r2, #63488	@ 0xf800
 8004db8:	4293      	cmp	r3, r2
 8004dba:	d007      	beq.n	8004dcc <HAL_TIM_Base_Start_IT+0x54>
 8004dbc:	f502 5270 	add.w	r2, r2, #15360	@ 0x3c00
 8004dc0:	4293      	cmp	r3, r2
 8004dc2:	d003      	beq.n	8004dcc <HAL_TIM_Base_Start_IT+0x54>
 8004dc4:	f5a2 3294 	sub.w	r2, r2, #75776	@ 0x12800
 8004dc8:	4293      	cmp	r3, r2
 8004dca:	d104      	bne.n	8004dd6 <HAL_TIM_Base_Start_IT+0x5e>
 8004dcc:	689a      	ldr	r2, [r3, #8]
 8004dce:	f002 0207 	and.w	r2, r2, #7
 8004dd2:	2a06      	cmp	r2, #6
 8004dd4:	d003      	beq.n	8004dde <HAL_TIM_Base_Start_IT+0x66>
 8004dd6:	681a      	ldr	r2, [r3, #0]
 8004dd8:	f042 0201 	orr.w	r2, r2, #1
 8004ddc:	601a      	str	r2, [r3, #0]
 8004dde:	2000      	movs	r0, #0
 8004de0:	4770      	bx	lr
 8004de2:	2001      	movs	r0, #1
 8004de4:	4770      	bx	lr
 8004de6:	bf00      	nop
 8004de8:	40010000 	.word	0x40010000

08004dec <HAL_TIM_PeriodElapsedCallback>:
 8004dec:	4770      	bx	lr

08004dee <HAL_TIM_OC_DelayElapsedCallback>:
 8004dee:	4770      	bx	lr

08004df0 <HAL_TIM_IC_CaptureCallback>:
 8004df0:	4770      	bx	lr

08004df2 <HAL_TIM_PWM_PulseFinishedCallback>:
 8004df2:	4770      	bx	lr

08004df4 <HAL_TIM_TriggerCallback>:
 8004df4:	4770      	bx	lr

08004df6 <HAL_TIM_IRQHandler>:
 8004df6:	6803      	ldr	r3, [r0, #0]
 8004df8:	b570      	push	{r4, r5, r6, lr}
 8004dfa:	68dd      	ldr	r5, [r3, #12]
 8004dfc:	691e      	ldr	r6, [r3, #16]
 8004dfe:	07b1      	lsls	r1, r6, #30
 8004e00:	4604      	mov	r4, r0
 8004e02:	d50d      	bpl.n	8004e20 <HAL_TIM_IRQHandler+0x2a>
 8004e04:	07aa      	lsls	r2, r5, #30
 8004e06:	d50b      	bpl.n	8004e20 <HAL_TIM_IRQHandler+0x2a>
 8004e08:	f06f 0202 	mvn.w	r2, #2
 8004e0c:	611a      	str	r2, [r3, #16]
 8004e0e:	2201      	movs	r2, #1
 8004e10:	7702      	strb	r2, [r0, #28]
 8004e12:	699b      	ldr	r3, [r3, #24]
 8004e14:	079b      	lsls	r3, r3, #30
 8004e16:	d069      	beq.n	8004eec <HAL_TIM_IRQHandler+0xf6>
 8004e18:	f7ff ffea 	bl	8004df0 <HAL_TIM_IC_CaptureCallback>
 8004e1c:	2300      	movs	r3, #0
 8004e1e:	7723      	strb	r3, [r4, #28]
 8004e20:	0771      	lsls	r1, r6, #29
 8004e22:	d510      	bpl.n	8004e46 <HAL_TIM_IRQHandler+0x50>
 8004e24:	076a      	lsls	r2, r5, #29
 8004e26:	d50e      	bpl.n	8004e46 <HAL_TIM_IRQHandler+0x50>
 8004e28:	6823      	ldr	r3, [r4, #0]
 8004e2a:	f06f 0204 	mvn.w	r2, #4
 8004e2e:	611a      	str	r2, [r3, #16]
 8004e30:	2202      	movs	r2, #2
 8004e32:	7722      	strb	r2, [r4, #28]
 8004e34:	699b      	ldr	r3, [r3, #24]
 8004e36:	f413 7f40 	tst.w	r3, #768	@ 0x300
 8004e3a:	4620      	mov	r0, r4
 8004e3c:	d05c      	beq.n	8004ef8 <HAL_TIM_IRQHandler+0x102>
 8004e3e:	f7ff ffd7 	bl	8004df0 <HAL_TIM_IC_CaptureCallback>
 8004e42:	2300      	movs	r3, #0
 8004e44:	7723      	strb	r3, [r4, #28]
 8004e46:	0733      	lsls	r3, r6, #28
 8004e48:	d50f      	bpl.n	8004e6a <HAL_TIM_IRQHandler+0x74>
 8004e4a:	0728      	lsls	r0, r5, #28
 8004e4c:	d50d      	bpl.n	8004e6a <HAL_TIM_IRQHandler+0x74>
 8004e4e:	6823      	ldr	r3, [r4, #0]
 8004e50:	f06f 0208 	mvn.w	r2, #8
 8004e54:	611a      	str	r2, [r3, #16]
 8004e56:	2204      	movs	r2, #4
 8004e58:	7722      	strb	r2, [r4, #28]
 8004e5a:	69db      	ldr	r3, [r3, #28]
 8004e5c:	0799      	lsls	r1, r3, #30
 8004e5e:	4620      	mov	r0, r4
 8004e60:	d050      	beq.n	8004f04 <HAL_TIM_IRQHandler+0x10e>
 8004e62:	f7ff ffc5 	bl	8004df0 <HAL_TIM_IC_CaptureCallback>
 8004e66:	2300      	movs	r3, #0
 8004e68:	7723      	strb	r3, [r4, #28]
 8004e6a:	06f2      	lsls	r2, r6, #27
 8004e6c:	d510      	bpl.n	8004e90 <HAL_TIM_IRQHandler+0x9a>
 8004e6e:	06eb      	lsls	r3, r5, #27
 8004e70:	d50e      	bpl.n	8004e90 <HAL_TIM_IRQHandler+0x9a>
 8004e72:	6823      	ldr	r3, [r4, #0]
 8004e74:	f06f 0210 	mvn.w	r2, #16
 8004e78:	611a      	str	r2, [r3, #16]
 8004e7a:	2208      	movs	r2, #8
 8004e7c:	7722      	strb	r2, [r4, #28]
 8004e7e:	69db      	ldr	r3, [r3, #28]
 8004e80:	f413 7f40 	tst.w	r3, #768	@ 0x300
 8004e84:	4620      	mov	r0, r4
 8004e86:	d043      	beq.n	8004f10 <HAL_TIM_IRQHandler+0x11a>
 8004e88:	f7ff ffb2 	bl	8004df0 <HAL_TIM_IC_CaptureCallback>
 8004e8c:	2300      	movs	r3, #0
 8004e8e:	7723      	strb	r3, [r4, #28]
 8004e90:	07f0      	lsls	r0, r6, #31
 8004e92:	d508      	bpl.n	8004ea6 <HAL_TIM_IRQHandler+0xb0>
 8004e94:	07e9      	lsls	r1, r5, #31
 8004e96:	d506      	bpl.n	8004ea6 <HAL_TIM_IRQHandler+0xb0>
 8004e98:	6823      	ldr	r3, [r4, #0]
 8004e9a:	f06f 0201 	mvn.w	r2, #1
 8004e9e:	611a      	str	r2, [r3, #16]
 8004ea0:	4620      	mov	r0, r4
 8004ea2:	f7ff ffa3 	bl	8004dec <HAL_TIM_PeriodElapsedCallback>
 8004ea6:	0632      	lsls	r2, r6, #24
 8004ea8:	d508      	bpl.n	8004ebc <HAL_TIM_IRQHandler+0xc6>
 8004eaa:	062b      	lsls	r3, r5, #24
 8004eac:	d506      	bpl.n	8004ebc <HAL_TIM_IRQHandler+0xc6>
 8004eae:	6823      	ldr	r3, [r4, #0]
 8004eb0:	f06f 0280 	mvn.w	r2, #128	@ 0x80
 8004eb4:	611a      	str	r2, [r3, #16]
 8004eb6:	4620      	mov	r0, r4
 8004eb8:	f000 f909 	bl	80050ce <HAL_TIMEx_BreakCallback>
 8004ebc:	0670      	lsls	r0, r6, #25
 8004ebe:	d508      	bpl.n	8004ed2 <HAL_TIM_IRQHandler+0xdc>
 8004ec0:	0669      	lsls	r1, r5, #25
 8004ec2:	d506      	bpl.n	8004ed2 <HAL_TIM_IRQHandler+0xdc>
 8004ec4:	6823      	ldr	r3, [r4, #0]
 8004ec6:	f06f 0240 	mvn.w	r2, #64	@ 0x40
 8004eca:	611a      	str	r2, [r3, #16]
 8004ecc:	4620      	mov	r0, r4
 8004ece:	f7ff ff91 	bl	8004df4 <HAL_TIM_TriggerCallback>
 8004ed2:	06b2      	lsls	r2, r6, #26
 8004ed4:	d522      	bpl.n	8004f1c <HAL_TIM_IRQHandler+0x126>
 8004ed6:	06ab      	lsls	r3, r5, #26
 8004ed8:	d520      	bpl.n	8004f1c <HAL_TIM_IRQHandler+0x126>
 8004eda:	6823      	ldr	r3, [r4, #0]
 8004edc:	f06f 0220 	mvn.w	r2, #32
 8004ee0:	4620      	mov	r0, r4
 8004ee2:	611a      	str	r2, [r3, #16]
 8004ee4:	e8bd 4070 	ldmia.w	sp!, {r4, r5, r6, lr}
 8004ee8:	f000 b8f0 	b.w	80050cc <HAL_TIMEx_CommutCallback>
 8004eec:	f7ff ff7f 	bl	8004dee <HAL_TIM_OC_DelayElapsedCallback>
 8004ef0:	4620      	mov	r0, r4
 8004ef2:	f7ff ff7e 	bl	8004df2 <HAL_TIM_PWM_PulseFinishedCallback>
 8004ef6:	e791      	b.n	8004e1c <HAL_TIM_IRQHandler+0x26>
 8004ef8:	f7ff ff79 	bl	8004dee <HAL_TIM_OC_DelayElapsedCallback>
 8004efc:	4620      	mov	r0, r4
 8004efe:	f7ff ff78 	bl	8004df2 <HAL_TIM_PWM_PulseFinishedCallback>
 8004f02:	e79e      	b.n	8004e42 <HAL_TIM_IRQHandler+0x4c>
 8004f04:	f7ff ff73 	bl	8004dee <HAL_TIM_OC_DelayElapsedCallback>
 8004f08:	4620      	mov	r0, r4
 8004f0a:	f7ff ff72 	bl	8004df2 <HAL_TIM_PWM_PulseFinishedCallback>
 8004f0e:	e7aa      	b.n	8004e66 <HAL_TIM_IRQHandler+0x70>
 8004f10:	f7ff ff6d 	bl	8004dee <HAL_TIM_OC_DelayElapsedCallback>
 8004f14:	4620      	mov	r0, r4
 8004f16:	f7ff ff6c 	bl	8004df2 <HAL_TIM_PWM_PulseFinishedCallback>
 8004f1a:	e7b7      	b.n	8004e8c <HAL_TIM_IRQHandler+0x96>
 8004f1c:	bd70      	pop	{r4, r5, r6, pc}
	...

08004f20 <TIM_Base_SetConfig>:
 8004f20:	4a33      	ldr	r2, [pc, #204]	@ (8004ff0 <TIM_Base_SetConfig+0xd0>)
 8004f22:	6803      	ldr	r3, [r0, #0]
 8004f24:	4290      	cmp	r0, r2
 8004f26:	d012      	beq.n	8004f4e <TIM_Base_SetConfig+0x2e>
 8004f28:	f1b0 4f80 	cmp.w	r0, #1073741824	@ 0x40000000
 8004f2c:	d00f      	beq.n	8004f4e <TIM_Base_SetConfig+0x2e>
 8004f2e:	f5a2 427c 	sub.w	r2, r2, #64512	@ 0xfc00
 8004f32:	4290      	cmp	r0, r2
 8004f34:	d00b      	beq.n	8004f4e <TIM_Base_SetConfig+0x2e>
 8004f36:	f502 6280 	add.w	r2, r2, #1024	@ 0x400
 8004f3a:	4290      	cmp	r0, r2
 8004f3c:	d007      	beq.n	8004f4e <TIM_Base_SetConfig+0x2e>
 8004f3e:	f502 6280 	add.w	r2, r2, #1024	@ 0x400
 8004f42:	4290      	cmp	r0, r2
 8004f44:	d003      	beq.n	8004f4e <TIM_Base_SetConfig+0x2e>
 8004f46:	f502 4278 	add.w	r2, r2, #63488	@ 0xf800
 8004f4a:	4290      	cmp	r0, r2
 8004f4c:	d119      	bne.n	8004f82 <TIM_Base_SetConfig+0x62>
 8004f4e:	684a      	ldr	r2, [r1, #4]
 8004f50:	f023 0370 	bic.w	r3, r3, #112	@ 0x70
 8004f54:	4313      	orrs	r3, r2
 8004f56:	4a26      	ldr	r2, [pc, #152]	@ (8004ff0 <TIM_Base_SetConfig+0xd0>)
 8004f58:	4290      	cmp	r0, r2
 8004f5a:	d029      	beq.n	8004fb0 <TIM_Base_SetConfig+0x90>
 8004f5c:	f1b0 4f80 	cmp.w	r0, #1073741824	@ 0x40000000
 8004f60:	d026      	beq.n	8004fb0 <TIM_Base_SetConfig+0x90>
 8004f62:	f5a2 427c 	sub.w	r2, r2, #64512	@ 0xfc00
 8004f66:	4290      	cmp	r0, r2
 8004f68:	d022      	beq.n	8004fb0 <TIM_Base_SetConfig+0x90>
 8004f6a:	f502 6280 	add.w	r2, r2, #1024	@ 0x400
 8004f6e:	4290      	cmp	r0, r2
 8004f70:	d01e      	beq.n	8004fb0 <TIM_Base_SetConfig+0x90>
 8004f72:	f502 6280 	add.w	r2, r2, #1024	@ 0x400
 8004f76:	4290      	cmp	r0, r2
 8004f78:	d01a      	beq.n	8004fb0 <TIM_Base_SetConfig+0x90>
 8004f7a:	f502 4278 	add.w	r2, r2, #63488	@ 0xf800
 8004f7e:	4290      	cmp	r0, r2
 8004f80:	d016      	beq.n	8004fb0 <TIM_Base_SetConfig+0x90>
 8004f82:	4a1c      	ldr	r2, [pc, #112]	@ (8004ff4 <TIM_Base_SetConfig+0xd4>)
 8004f84:	4290      	cmp	r0, r2
 8004f86:	d013      	beq.n	8004fb0 <TIM_Base_SetConfig+0x90>
 8004f88:	f502 6280 	add.w	r2, r2, #1024	@ 0x400
 8004f8c:	4290      	cmp	r0, r2
 8004f8e:	d00f      	beq.n	8004fb0 <TIM_Base_SetConfig+0x90>
 8004f90:	f502 6280 	add.w	r2, r2, #1024	@ 0x400
 8004f94:	4290      	cmp	r0, r2
 8004f96:	d00b      	beq.n	8004fb0 <TIM_Base_SetConfig+0x90>
 8004f98:	f5a2 3298 	sub.w	r2, r2, #77824	@ 0x13000
 8004f9c:	4290      	cmp	r0, r2
 8004f9e:	d007      	beq.n	8004fb0 <TIM_Base_SetConfig+0x90>
 8004fa0:	f502 6280 	add.w	r2, r2, #1024	@ 0x400
 8004fa4:	4290      	cmp	r0, r2
 8004fa6:	d003      	beq.n	8004fb0 <TIM_Base_SetConfig+0x90>
 8004fa8:	f502 6280 	add.w	r2, r2, #1024	@ 0x400
 8004fac:	4290      	cmp	r0, r2
 8004fae:	d103      	bne.n	8004fb8 <TIM_Base_SetConfig+0x98>
 8004fb0:	68ca      	ldr	r2, [r1, #12]
 8004fb2:	f423 7340 	bic.w	r3, r3, #768	@ 0x300
 8004fb6:	4313      	orrs	r3, r2
 8004fb8:	694a      	ldr	r2, [r1, #20]
 8004fba:	f023 0380 	bic.w	r3, r3, #128	@ 0x80
 8004fbe:	4313      	orrs	r3, r2
 8004fc0:	6003      	str	r3, [r0, #0]
 8004fc2:	688b      	ldr	r3, [r1, #8]
 8004fc4:	62c3      	str	r3, [r0, #44]	@ 0x2c
 8004fc6:	680b      	ldr	r3, [r1, #0]
 8004fc8:	6283      	str	r3, [r0, #40]	@ 0x28
 8004fca:	4b09      	ldr	r3, [pc, #36]	@ (8004ff0 <TIM_Base_SetConfig+0xd0>)
 8004fcc:	4298      	cmp	r0, r3
 8004fce:	d003      	beq.n	8004fd8 <TIM_Base_SetConfig+0xb8>
 8004fd0:	f503 6380 	add.w	r3, r3, #1024	@ 0x400
 8004fd4:	4298      	cmp	r0, r3
 8004fd6:	d101      	bne.n	8004fdc <TIM_Base_SetConfig+0xbc>
 8004fd8:	690b      	ldr	r3, [r1, #16]
 8004fda:	6303      	str	r3, [r0, #48]	@ 0x30
 8004fdc:	2301      	movs	r3, #1
 8004fde:	6143      	str	r3, [r0, #20]
 8004fe0:	6903      	ldr	r3, [r0, #16]
 8004fe2:	07db      	lsls	r3, r3, #31
 8004fe4:	bf42      	ittt	mi
 8004fe6:	6903      	ldrmi	r3, [r0, #16]
 8004fe8:	f023 0301 	bicmi.w	r3, r3, #1
 8004fec:	6103      	strmi	r3, [r0, #16]
 8004fee:	4770      	bx	lr
 8004ff0:	40010000 	.word	0x40010000
 8004ff4:	40014000 	.word	0x40014000

08004ff8 <HAL_TIM_Base_Init>:
 8004ff8:	b510      	push	{r4, lr}
 8004ffa:	4604      	mov	r4, r0
 8004ffc:	b330      	cbz	r0, 800504c <HAL_TIM_Base_Init+0x54>
 8004ffe:	f890 303d 	ldrb.w	r3, [r0, #61]	@ 0x3d
 8005002:	f003 02ff 	and.w	r2, r3, #255	@ 0xff
 8005006:	b91b      	cbnz	r3, 8005010 <HAL_TIM_Base_Init+0x18>
 8005008:	f880 203c 	strb.w	r2, [r0, #60]	@ 0x3c
 800500c:	f7fc ffec 	bl	8001fe8 <HAL_TIM_Base_MspInit>
 8005010:	2302      	movs	r3, #2
 8005012:	6820      	ldr	r0, [r4, #0]
 8005014:	f884 303d 	strb.w	r3, [r4, #61]	@ 0x3d
 8005018:	1d21      	adds	r1, r4, #4
 800501a:	f7ff ff81 	bl	8004f20 <TIM_Base_SetConfig>
 800501e:	2301      	movs	r3, #1
 8005020:	f884 3046 	strb.w	r3, [r4, #70]	@ 0x46
 8005024:	2000      	movs	r0, #0
 8005026:	f884 303e 	strb.w	r3, [r4, #62]	@ 0x3e
 800502a:	f884 303f 	strb.w	r3, [r4, #63]	@ 0x3f
 800502e:	f884 3040 	strb.w	r3, [r4, #64]	@ 0x40
 8005032:	f884 3041 	strb.w	r3, [r4, #65]	@ 0x41
 8005036:	f884 3042 	strb.w	r3, [r4, #66]	@ 0x42
 800503a:	f884 3043 	strb.w	r3, [r4, #67]	@ 0x43
 800503e:	f884 3044 	strb.w	r3, [r4, #68]	@ 0x44
 8005042:	f884 3045 	strb.w	r3, [r4, #69]	@ 0x45
 8005046:	f884 303d 	strb.w	r3, [r4, #61]	@ 0x3d
 800504a:	bd10      	pop	{r4, pc}
 800504c:	2001      	movs	r0, #1
 800504e:	e7fc      	b.n	800504a <HAL_TIM_Base_Init+0x52>

08005050 <HAL_TIMEx_MasterConfigSynchronization>:
 8005050:	b530      	push	{r4, r5, lr}
 8005052:	f890 303c 	ldrb.w	r3, [r0, #60]	@ 0x3c
 8005056:	2b01      	cmp	r3, #1
 8005058:	4602      	mov	r2, r0
 800505a:	f04f 0002 	mov.w	r0, #2
 800505e:	d032      	beq.n	80050c6 <HAL_TIMEx_MasterConfigSynchronization+0x76>
 8005060:	6813      	ldr	r3, [r2, #0]
 8005062:	f882 003d 	strb.w	r0, [r2, #61]	@ 0x3d
 8005066:	685c      	ldr	r4, [r3, #4]
 8005068:	680d      	ldr	r5, [r1, #0]
 800506a:	6898      	ldr	r0, [r3, #8]
 800506c:	f024 0470 	bic.w	r4, r4, #112	@ 0x70
 8005070:	432c      	orrs	r4, r5
 8005072:	605c      	str	r4, [r3, #4]
 8005074:	4c14      	ldr	r4, [pc, #80]	@ (80050c8 <HAL_TIMEx_MasterConfigSynchronization+0x78>)
 8005076:	42a3      	cmp	r3, r4
 8005078:	d01a      	beq.n	80050b0 <HAL_TIMEx_MasterConfigSynchronization+0x60>
 800507a:	f1b3 4f80 	cmp.w	r3, #1073741824	@ 0x40000000
 800507e:	d017      	beq.n	80050b0 <HAL_TIMEx_MasterConfigSynchronization+0x60>
 8005080:	f5a4 447c 	sub.w	r4, r4, #64512	@ 0xfc00
 8005084:	42a3      	cmp	r3, r4
 8005086:	d013      	beq.n	80050b0 <HAL_TIMEx_MasterConfigSynchronization+0x60>
 8005088:	f504 6480 	add.w	r4, r4, #1024	@ 0x400
 800508c:	42a3      	cmp	r3, r4
 800508e:	d00f      	beq.n	80050b0 <HAL_TIMEx_MasterConfigSynchronization+0x60>
 8005090:	f504 6480 	add.w	r4, r4, #1024	@ 0x400
 8005094:	42a3      	cmp	r3, r4
 8005096:	d00b      	beq.n	80050b0 <HAL_TIMEx_MasterConfigSynchronization+0x60>
 8005098:	f504 4478 	add.w	r4, r4, #63488	@ 0xf800
 800509c:	42a3      	cmp	r3, r4
 800509e:	d007      	beq.n	80050b0 <HAL_TIMEx_MasterConfigSynchronization+0x60>
 80050a0:	f504 5470 	add.w	r4, r4, #15360	@ 0x3c00
 80050a4:	42a3      	cmp	r3, r4
 80050a6:	d003      	beq.n	80050b0 <HAL_TIMEx_MasterConfigSynchronization+0x60>
 80050a8:	f5a4 3494 	sub.w	r4, r4, #75776	@ 0x12800
 80050ac:	42a3      	cmp	r3, r4
 80050ae:	d104      	bne.n	80050ba <HAL_TIMEx_MasterConfigSynchronization+0x6a>
 80050b0:	6849      	ldr	r1, [r1, #4]
 80050b2:	f020 0080 	bic.w	r0, r0, #128	@ 0x80
 80050b6:	4301      	orrs	r1, r0
 80050b8:	6099      	str	r1, [r3, #8]
 80050ba:	2301      	movs	r3, #1
 80050bc:	2000      	movs	r0, #0
 80050be:	f882 303d 	strb.w	r3, [r2, #61]	@ 0x3d
 80050c2:	f882 003c 	strb.w	r0, [r2, #60]	@ 0x3c
 80050c6:	bd30      	pop	{r4, r5, pc}
 80050c8:	40010000 	.word	0x40010000

080050cc <HAL_TIMEx_CommutCallback>:
 80050cc:	4770      	bx	lr

080050ce <HAL_TIMEx_BreakCallback>:
 80050ce:	4770      	bx	lr

080050d0 <UART_EndRxTransfer>:
 80050d0:	6802      	ldr	r2, [r0, #0]
 80050d2:	f102 030c 	add.w	r3, r2, #12
 80050d6:	e853 3f00 	ldrex	r3, [r3]
 80050da:	f423 7390 	bic.w	r3, r3, #288	@ 0x120
 80050de:	320c      	adds	r2, #12
 80050e0:	e842 3100 	strex	r1, r3, [r2]
 80050e4:	6802      	ldr	r2, [r0, #0]
 80050e6:	2900      	cmp	r1, #0
 80050e8:	d1f2      	bne.n	80050d0 <UART_EndRxTransfer>
 80050ea:	f102 0314 	add.w	r3, r2, #20
 80050ee:	e853 3f00 	ldrex	r3, [r3]
 80050f2:	f023 0301 	bic.w	r3, r3, #1
 80050f6:	f102 0c14 	add.w	ip, r2, #20
 80050fa:	e84c 3100 	strex	r1, r3, [ip]
 80050fe:	2900      	cmp	r1, #0
 8005100:	d1f3      	bne.n	80050ea <UART_EndRxTransfer+0x1a>
 8005102:	6b03      	ldr	r3, [r0, #48]	@ 0x30
 8005104:	2b01      	cmp	r3, #1
 8005106:	d10b      	bne.n	8005120 <UART_EndRxTransfer+0x50>
 8005108:	f102 030c 	add.w	r3, r2, #12
 800510c:	e853 3f00 	ldrex	r3, [r3]
 8005110:	f023 0310 	bic.w	r3, r3, #16
 8005114:	f102 0c0c 	add.w	ip, r2, #12
 8005118:	e84c 3100 	strex	r1, r3, [ip]
 800511c:	2900      	cmp	r1, #0
 800511e:	d1f3      	bne.n	8005108 <UART_EndRxTransfer+0x38>
 8005120:	2320      	movs	r3, #32
 8005122:	f880 3042 	strb.w	r3, [r0, #66]	@ 0x42
 8005126:	2300      	movs	r3, #0
 8005128:	6303      	str	r3, [r0, #48]	@ 0x30
 800512a:	4770      	bx	lr

0800512c <UART_SetConfig>:
 800512c:	6802      	ldr	r2, [r0, #0]
 800512e:	68c1      	ldr	r1, [r0, #12]
 8005130:	b538      	push	{r3, r4, r5, lr}
 8005132:	6913      	ldr	r3, [r2, #16]
 8005134:	f423 5340 	bic.w	r3, r3, #12288	@ 0x3000
 8005138:	430b      	orrs	r3, r1
 800513a:	6113      	str	r3, [r2, #16]
 800513c:	4605      	mov	r5, r0
 800513e:	6883      	ldr	r3, [r0, #8]
 8005140:	6900      	ldr	r0, [r0, #16]
 8005142:	68d1      	ldr	r1, [r2, #12]
 8005144:	4303      	orrs	r3, r0
 8005146:	6968      	ldr	r0, [r5, #20]
 8005148:	4303      	orrs	r3, r0
 800514a:	69e8      	ldr	r0, [r5, #28]
 800514c:	f421 4116 	bic.w	r1, r1, #38400	@ 0x9600
 8005150:	f021 010c 	bic.w	r1, r1, #12
 8005154:	4303      	orrs	r3, r0
 8005156:	430b      	orrs	r3, r1
 8005158:	60d3      	str	r3, [r2, #12]
 800515a:	6953      	ldr	r3, [r2, #20]
 800515c:	69a9      	ldr	r1, [r5, #24]
 800515e:	f423 7340 	bic.w	r3, r3, #768	@ 0x300
 8005162:	430b      	orrs	r3, r1
 8005164:	6153      	str	r3, [r2, #20]
 8005166:	4b1f      	ldr	r3, [pc, #124]	@ (80051e4 <UART_SetConfig+0xb8>)
 8005168:	429a      	cmp	r2, r3
 800516a:	d003      	beq.n	8005174 <UART_SetConfig+0x48>
 800516c:	f503 6380 	add.w	r3, r3, #1024	@ 0x400
 8005170:	429a      	cmp	r2, r3
 8005172:	d124      	bne.n	80051be <UART_SetConfig+0x92>
 8005174:	f7fe ff1a 	bl	8003fac <HAL_RCC_GetPCLK2Freq>
 8005178:	69ea      	ldr	r2, [r5, #28]
 800517a:	2119      	movs	r1, #25
 800517c:	f5b2 4f00 	cmp.w	r2, #32768	@ 0x8000
 8005180:	e9d5 4300 	ldrd	r4, r3, [r5]
 8005184:	fba0 0101 	umull	r0, r1, r0, r1
 8005188:	d11c      	bne.n	80051c4 <UART_SetConfig+0x98>
 800518a:	18da      	adds	r2, r3, r3
 800518c:	f04f 0500 	mov.w	r5, #0
 8005190:	eb45 0305 	adc.w	r3, r5, r5
 8005194:	f7fb f832 	bl	80001fc <__aeabi_uldivmod>
 8005198:	2264      	movs	r2, #100	@ 0x64
 800519a:	fbb0 f1f2 	udiv	r1, r0, r2
 800519e:	fb02 0311 	mls	r3, r2, r1, r0
 80051a2:	00db      	lsls	r3, r3, #3
 80051a4:	3332      	adds	r3, #50	@ 0x32
 80051a6:	fbb3 f3f2 	udiv	r3, r3, r2
 80051aa:	f003 0207 	and.w	r2, r3, #7
 80051ae:	005b      	lsls	r3, r3, #1
 80051b0:	eb02 1201 	add.w	r2, r2, r1, lsl #4
 80051b4:	f403 73f8 	and.w	r3, r3, #496	@ 0x1f0
 80051b8:	4413      	add	r3, r2
 80051ba:	60a3      	str	r3, [r4, #8]
 80051bc:	bd38      	pop	{r3, r4, r5, pc}
 80051be:	f7fe fee5 	bl	8003f8c <HAL_RCC_GetPCLK1Freq>
 80051c2:	e7d9      	b.n	8005178 <UART_SetConfig+0x4c>
 80051c4:	009a      	lsls	r2, r3, #2
 80051c6:	0f9b      	lsrs	r3, r3, #30
 80051c8:	f7fb f818 	bl	80001fc <__aeabi_uldivmod>
 80051cc:	2264      	movs	r2, #100	@ 0x64
 80051ce:	fbb0 f1f2 	udiv	r1, r0, r2
 80051d2:	fb02 0311 	mls	r3, r2, r1, r0
 80051d6:	011b      	lsls	r3, r3, #4
 80051d8:	3332      	adds	r3, #50	@ 0x32
 80051da:	fbb3 f3f2 	udiv	r3, r3, r2
 80051de:	eb03 1301 	add.w	r3, r3, r1, lsl #4
 80051e2:	e7ea      	b.n	80051ba <UART_SetConfig+0x8e>
 80051e4:	40011000 	.word	0x40011000

080051e8 <UART_WaitOnFlagUntilTimeout.constprop.0>:
 80051e8:	b5f7      	push	{r0, r1, r2, r4, r5, r6, r7, lr}
 80051ea:	4605      	mov	r5, r0
 80051ec:	460c      	mov	r4, r1
 80051ee:	4617      	mov	r7, r2
 80051f0:	461e      	mov	r6, r3
 80051f2:	682a      	ldr	r2, [r5, #0]
 80051f4:	6813      	ldr	r3, [r2, #0]
 80051f6:	ea34 0303 	bics.w	r3, r4, r3
 80051fa:	d101      	bne.n	8005200 <UART_WaitOnFlagUntilTimeout.constprop.0+0x18>
 80051fc:	2000      	movs	r0, #0
 80051fe:	e021      	b.n	8005244 <UART_WaitOnFlagUntilTimeout.constprop.0+0x5c>
 8005200:	1c70      	adds	r0, r6, #1
 8005202:	d0f7      	beq.n	80051f4 <UART_WaitOnFlagUntilTimeout.constprop.0+0xc>
 8005204:	f7fd f8a8 	bl	8002358 <HAL_GetTick>
 8005208:	1bc0      	subs	r0, r0, r7
 800520a:	4286      	cmp	r6, r0
 800520c:	d31c      	bcc.n	8005248 <UART_WaitOnFlagUntilTimeout.constprop.0+0x60>
 800520e:	b1de      	cbz	r6, 8005248 <UART_WaitOnFlagUntilTimeout.constprop.0+0x60>
 8005210:	682b      	ldr	r3, [r5, #0]
 8005212:	68da      	ldr	r2, [r3, #12]
 8005214:	0751      	lsls	r1, r2, #29
 8005216:	d5ec      	bpl.n	80051f2 <UART_WaitOnFlagUntilTimeout.constprop.0+0xa>
 8005218:	2c80      	cmp	r4, #128	@ 0x80
 800521a:	d0ea      	beq.n	80051f2 <UART_WaitOnFlagUntilTimeout.constprop.0+0xa>
 800521c:	2c40      	cmp	r4, #64	@ 0x40
 800521e:	d0e8      	beq.n	80051f2 <UART_WaitOnFlagUntilTimeout.constprop.0+0xa>
 8005220:	681a      	ldr	r2, [r3, #0]
 8005222:	0712      	lsls	r2, r2, #28
 8005224:	d5e5      	bpl.n	80051f2 <UART_WaitOnFlagUntilTimeout.constprop.0+0xa>
 8005226:	2400      	movs	r4, #0
 8005228:	9401      	str	r4, [sp, #4]
 800522a:	681a      	ldr	r2, [r3, #0]
 800522c:	9201      	str	r2, [sp, #4]
 800522e:	685b      	ldr	r3, [r3, #4]
 8005230:	9301      	str	r3, [sp, #4]
 8005232:	4628      	mov	r0, r5
 8005234:	9b01      	ldr	r3, [sp, #4]
 8005236:	f7ff ff4b 	bl	80050d0 <UART_EndRxTransfer>
 800523a:	2308      	movs	r3, #8
 800523c:	646b      	str	r3, [r5, #68]	@ 0x44
 800523e:	f885 4040 	strb.w	r4, [r5, #64]	@ 0x40
 8005242:	2001      	movs	r0, #1
 8005244:	b003      	add	sp, #12
 8005246:	bdf0      	pop	{r4, r5, r6, r7, pc}
 8005248:	2003      	movs	r0, #3
 800524a:	e7fb      	b.n	8005244 <UART_WaitOnFlagUntilTimeout.constprop.0+0x5c>

0800524c <HAL_UART_Init>:
 800524c:	b510      	push	{r4, lr}
 800524e:	4604      	mov	r4, r0
 8005250:	b348      	cbz	r0, 80052a6 <HAL_UART_Init+0x5a>
 8005252:	f890 3041 	ldrb.w	r3, [r0, #65]	@ 0x41
 8005256:	f003 02ff 	and.w	r2, r3, #255	@ 0xff
 800525a:	b91b      	cbnz	r3, 8005264 <HAL_UART_Init+0x18>
 800525c:	f880 2040 	strb.w	r2, [r0, #64]	@ 0x40
 8005260:	f7fc fefc 	bl	800205c <HAL_UART_MspInit>
 8005264:	6822      	ldr	r2, [r4, #0]
 8005266:	2324      	movs	r3, #36	@ 0x24
 8005268:	f884 3041 	strb.w	r3, [r4, #65]	@ 0x41
 800526c:	68d3      	ldr	r3, [r2, #12]
 800526e:	f423 5300 	bic.w	r3, r3, #8192	@ 0x2000
 8005272:	60d3      	str	r3, [r2, #12]
 8005274:	4620      	mov	r0, r4
 8005276:	f7ff ff59 	bl	800512c <UART_SetConfig>
 800527a:	6823      	ldr	r3, [r4, #0]
 800527c:	691a      	ldr	r2, [r3, #16]
 800527e:	f422 4290 	bic.w	r2, r2, #18432	@ 0x4800
 8005282:	611a      	str	r2, [r3, #16]
 8005284:	695a      	ldr	r2, [r3, #20]
 8005286:	f022 022a 	bic.w	r2, r2, #42	@ 0x2a
 800528a:	615a      	str	r2, [r3, #20]
 800528c:	68da      	ldr	r2, [r3, #12]
 800528e:	f442 5200 	orr.w	r2, r2, #8192	@ 0x2000
 8005292:	60da      	str	r2, [r3, #12]
 8005294:	2000      	movs	r0, #0
 8005296:	2320      	movs	r3, #32
 8005298:	6460      	str	r0, [r4, #68]	@ 0x44
 800529a:	f884 3041 	strb.w	r3, [r4, #65]	@ 0x41
 800529e:	f884 3042 	strb.w	r3, [r4, #66]	@ 0x42
 80052a2:	6360      	str	r0, [r4, #52]	@ 0x34
 80052a4:	bd10      	pop	{r4, pc}
 80052a6:	2001      	movs	r0, #1
 80052a8:	e7fc      	b.n	80052a4 <HAL_UART_Init+0x58>

080052aa <HAL_UART_Transmit>:
 80052aa:	e92d 43f8 	stmdb	sp!, {r3, r4, r5, r6, r7, r8, r9, lr}
 80052ae:	4698      	mov	r8, r3
 80052b0:	f890 3041 	ldrb.w	r3, [r0, #65]	@ 0x41
 80052b4:	2b20      	cmp	r3, #32
 80052b6:	4604      	mov	r4, r0
 80052b8:	460e      	mov	r6, r1
 80052ba:	4617      	mov	r7, r2
 80052bc:	d13f      	bne.n	800533e <HAL_UART_Transmit+0x94>
 80052be:	2900      	cmp	r1, #0
 80052c0:	d03f      	beq.n	8005342 <HAL_UART_Transmit+0x98>
 80052c2:	2a00      	cmp	r2, #0
 80052c4:	d03d      	beq.n	8005342 <HAL_UART_Transmit+0x98>
 80052c6:	2321      	movs	r3, #33	@ 0x21
 80052c8:	2500      	movs	r5, #0
 80052ca:	6445      	str	r5, [r0, #68]	@ 0x44
 80052cc:	f880 3041 	strb.w	r3, [r0, #65]	@ 0x41
 80052d0:	f7fd f842 	bl	8002358 <HAL_GetTick>
 80052d4:	68a3      	ldr	r3, [r4, #8]
 80052d6:	84a7      	strh	r7, [r4, #36]	@ 0x24
 80052d8:	f5b3 5f80 	cmp.w	r3, #4096	@ 0x1000
 80052dc:	4681      	mov	r9, r0
 80052de:	84e7      	strh	r7, [r4, #38]	@ 0x26
 80052e0:	d103      	bne.n	80052ea <HAL_UART_Transmit+0x40>
 80052e2:	6923      	ldr	r3, [r4, #16]
 80052e4:	b90b      	cbnz	r3, 80052ea <HAL_UART_Transmit+0x40>
 80052e6:	4635      	mov	r5, r6
 80052e8:	461e      	mov	r6, r3
 80052ea:	8ce3      	ldrh	r3, [r4, #38]	@ 0x26
 80052ec:	b29b      	uxth	r3, r3
 80052ee:	b953      	cbnz	r3, 8005306 <HAL_UART_Transmit+0x5c>
 80052f0:	4643      	mov	r3, r8
 80052f2:	464a      	mov	r2, r9
 80052f4:	2140      	movs	r1, #64	@ 0x40
 80052f6:	4620      	mov	r0, r4
 80052f8:	f7ff ff76 	bl	80051e8 <UART_WaitOnFlagUntilTimeout.constprop.0>
 80052fc:	2320      	movs	r3, #32
 80052fe:	b950      	cbnz	r0, 8005316 <HAL_UART_Transmit+0x6c>
 8005300:	f884 3041 	strb.w	r3, [r4, #65]	@ 0x41
 8005304:	e00a      	b.n	800531c <HAL_UART_Transmit+0x72>
 8005306:	4643      	mov	r3, r8
 8005308:	464a      	mov	r2, r9
 800530a:	2180      	movs	r1, #128	@ 0x80
 800530c:	4620      	mov	r0, r4
 800530e:	f7ff ff6b 	bl	80051e8 <UART_WaitOnFlagUntilTimeout.constprop.0>
 8005312:	b128      	cbz	r0, 8005320 <HAL_UART_Transmit+0x76>
 8005314:	2320      	movs	r3, #32
 8005316:	f884 3041 	strb.w	r3, [r4, #65]	@ 0x41
 800531a:	2003      	movs	r0, #3
 800531c:	e8bd 83f8 	ldmia.w	sp!, {r3, r4, r5, r6, r7, r8, r9, pc}
 8005320:	6822      	ldr	r2, [r4, #0]
 8005322:	b94e      	cbnz	r6, 8005338 <HAL_UART_Transmit+0x8e>
 8005324:	f835 3b02 	ldrh.w	r3, [r5], #2
 8005328:	f3c3 0308 	ubfx	r3, r3, #0, #9
 800532c:	6053      	str	r3, [r2, #4]
 800532e:	8ce1      	ldrh	r1, [r4, #38]	@ 0x26
 8005330:	3901      	subs	r1, #1
 8005332:	b289      	uxth	r1, r1
 8005334:	84e1      	strh	r1, [r4, #38]	@ 0x26
 8005336:	e7d8      	b.n	80052ea <HAL_UART_Transmit+0x40>
 8005338:	f816 3b01 	ldrb.w	r3, [r6], #1
 800533c:	e7f6      	b.n	800532c <HAL_UART_Transmit+0x82>
 800533e:	2002      	movs	r0, #2
 8005340:	e7ec      	b.n	800531c <HAL_UART_Transmit+0x72>
 8005342:	2001      	movs	r0, #1
 8005344:	e7ea      	b.n	800531c <HAL_UART_Transmit+0x72>

08005346 <HAL_UART_TxCpltCallback>:
 8005346:	4770      	bx	lr

08005348 <HAL_UART_ErrorCallback>:
 8005348:	4770      	bx	lr

0800534a <UART_DMAAbortOnError>:
 800534a:	b508      	push	{r3, lr}
 800534c:	6b80      	ldr	r0, [r0, #56]	@ 0x38
 800534e:	2300      	movs	r3, #0
 8005350:	85c3      	strh	r3, [r0, #46]	@ 0x2e
 8005352:	84c3      	strh	r3, [r0, #38]	@ 0x26
 8005354:	f7ff fff8 	bl	8005348 <HAL_UART_ErrorCallback>
 8005358:	bd08      	pop	{r3, pc}

0800535a <HAL_UARTEx_RxEventCallback>:
 800535a:	4770      	bx	lr

0800535c <UART_Receive_IT.isra.0>:
 800535c:	f890 3042 	ldrb.w	r3, [r0, #66]	@ 0x42
 8005360:	2b22      	cmp	r3, #34	@ 0x22
 8005362:	b507      	push	{r0, r1, r2, lr}
 8005364:	d142      	bne.n	80053ec <UART_Receive_IT.isra.0+0x90>
 8005366:	6881      	ldr	r1, [r0, #8]
 8005368:	6802      	ldr	r2, [r0, #0]
 800536a:	6a83      	ldr	r3, [r0, #40]	@ 0x28
 800536c:	f5b1 5f80 	cmp.w	r1, #4096	@ 0x1000
 8005370:	d13f      	bne.n	80053f2 <UART_Receive_IT.isra.0+0x96>
 8005372:	6901      	ldr	r1, [r0, #16]
 8005374:	2900      	cmp	r1, #0
 8005376:	d13f      	bne.n	80053f8 <UART_Receive_IT.isra.0+0x9c>
 8005378:	6852      	ldr	r2, [r2, #4]
 800537a:	f3c2 0208 	ubfx	r2, r2, #0, #9
 800537e:	f823 2b02 	strh.w	r2, [r3], #2
 8005382:	6283      	str	r3, [r0, #40]	@ 0x28
 8005384:	8dc3      	ldrh	r3, [r0, #46]	@ 0x2e
 8005386:	3b01      	subs	r3, #1
 8005388:	b29b      	uxth	r3, r3
 800538a:	85c3      	strh	r3, [r0, #46]	@ 0x2e
 800538c:	2b00      	cmp	r3, #0
 800538e:	d12d      	bne.n	80053ec <UART_Receive_IT.isra.0+0x90>
 8005390:	6802      	ldr	r2, [r0, #0]
 8005392:	68d1      	ldr	r1, [r2, #12]
 8005394:	f021 0120 	bic.w	r1, r1, #32
 8005398:	60d1      	str	r1, [r2, #12]
 800539a:	68d1      	ldr	r1, [r2, #12]
 800539c:	f421 7180 	bic.w	r1, r1, #256	@ 0x100
 80053a0:	60d1      	str	r1, [r2, #12]
 80053a2:	6951      	ldr	r1, [r2, #20]
 80053a4:	f021 0101 	bic.w	r1, r1, #1
 80053a8:	6151      	str	r1, [r2, #20]
 80053aa:	2220      	movs	r2, #32
 80053ac:	f880 2042 	strb.w	r2, [r0, #66]	@ 0x42
 80053b0:	6343      	str	r3, [r0, #52]	@ 0x34
 80053b2:	6b02      	ldr	r2, [r0, #48]	@ 0x30
 80053b4:	2a01      	cmp	r2, #1
 80053b6:	6802      	ldr	r2, [r0, #0]
 80053b8:	d128      	bne.n	800540c <UART_Receive_IT.isra.0+0xb0>
 80053ba:	6303      	str	r3, [r0, #48]	@ 0x30
 80053bc:	f102 030c 	add.w	r3, r2, #12
 80053c0:	e853 3f00 	ldrex	r3, [r3]
 80053c4:	f023 0310 	bic.w	r3, r3, #16
 80053c8:	f102 0c0c 	add.w	ip, r2, #12
 80053cc:	e84c 3100 	strex	r1, r3, [ip]
 80053d0:	2900      	cmp	r1, #0
 80053d2:	d1f3      	bne.n	80053bc <UART_Receive_IT.isra.0+0x60>
 80053d4:	6813      	ldr	r3, [r2, #0]
 80053d6:	06db      	lsls	r3, r3, #27
 80053d8:	d505      	bpl.n	80053e6 <UART_Receive_IT.isra.0+0x8a>
 80053da:	9101      	str	r1, [sp, #4]
 80053dc:	6813      	ldr	r3, [r2, #0]
 80053de:	9301      	str	r3, [sp, #4]
 80053e0:	6853      	ldr	r3, [r2, #4]
 80053e2:	9301      	str	r3, [sp, #4]
 80053e4:	9b01      	ldr	r3, [sp, #4]
 80053e6:	8d81      	ldrh	r1, [r0, #44]	@ 0x2c
 80053e8:	f7ff ffb7 	bl	800535a <HAL_UARTEx_RxEventCallback>
 80053ec:	b003      	add	sp, #12
 80053ee:	f85d fb04 	ldr.w	pc, [sp], #4
 80053f2:	b939      	cbnz	r1, 8005404 <UART_Receive_IT.isra.0+0xa8>
 80053f4:	6901      	ldr	r1, [r0, #16]
 80053f6:	b929      	cbnz	r1, 8005404 <UART_Receive_IT.isra.0+0xa8>
 80053f8:	6852      	ldr	r2, [r2, #4]
 80053fa:	b2d2      	uxtb	r2, r2
 80053fc:	701a      	strb	r2, [r3, #0]
 80053fe:	6a83      	ldr	r3, [r0, #40]	@ 0x28
 8005400:	3301      	adds	r3, #1
 8005402:	e7be      	b.n	8005382 <UART_Receive_IT.isra.0+0x26>
 8005404:	6852      	ldr	r2, [r2, #4]
 8005406:	f002 027f 	and.w	r2, r2, #127	@ 0x7f
 800540a:	e7f7      	b.n	80053fc <UART_Receive_IT.isra.0+0xa0>
 800540c:	f7fc fef6 	bl	80021fc <HAL_UART_RxCpltCallback>
 8005410:	e7ec      	b.n	80053ec <UART_Receive_IT.isra.0+0x90>
	...

08005414 <HAL_UART_IRQHandler>:
 8005414:	6803      	ldr	r3, [r0, #0]
 8005416:	681a      	ldr	r2, [r3, #0]
 8005418:	b573      	push	{r0, r1, r4, r5, r6, lr}
 800541a:	0716      	lsls	r6, r2, #28
 800541c:	68d9      	ldr	r1, [r3, #12]
 800541e:	695d      	ldr	r5, [r3, #20]
 8005420:	4604      	mov	r4, r0
 8005422:	d108      	bne.n	8005436 <HAL_UART_IRQHandler+0x22>
 8005424:	0696      	lsls	r6, r2, #26
 8005426:	d568      	bpl.n	80054fa <HAL_UART_IRQHandler+0xe6>
 8005428:	068d      	lsls	r5, r1, #26
 800542a:	d566      	bpl.n	80054fa <HAL_UART_IRQHandler+0xe6>
 800542c:	b002      	add	sp, #8
 800542e:	e8bd 4070 	ldmia.w	sp!, {r4, r5, r6, lr}
 8005432:	f7ff bf93 	b.w	800535c <UART_Receive_IT.isra.0>
 8005436:	f005 0001 	and.w	r0, r5, #1
 800543a:	f401 7590 	and.w	r5, r1, #288	@ 0x120
 800543e:	4305      	orrs	r5, r0
 8005440:	d05b      	beq.n	80054fa <HAL_UART_IRQHandler+0xe6>
 8005442:	07d6      	lsls	r6, r2, #31
 8005444:	d505      	bpl.n	8005452 <HAL_UART_IRQHandler+0x3e>
 8005446:	05cd      	lsls	r5, r1, #23
 8005448:	bf42      	ittt	mi
 800544a:	6c63      	ldrmi	r3, [r4, #68]	@ 0x44
 800544c:	f043 0301 	orrmi.w	r3, r3, #1
 8005450:	6463      	strmi	r3, [r4, #68]	@ 0x44
 8005452:	0753      	lsls	r3, r2, #29
 8005454:	d504      	bpl.n	8005460 <HAL_UART_IRQHandler+0x4c>
 8005456:	b118      	cbz	r0, 8005460 <HAL_UART_IRQHandler+0x4c>
 8005458:	6c63      	ldr	r3, [r4, #68]	@ 0x44
 800545a:	f043 0302 	orr.w	r3, r3, #2
 800545e:	6463      	str	r3, [r4, #68]	@ 0x44
 8005460:	0796      	lsls	r6, r2, #30
 8005462:	d504      	bpl.n	800546e <HAL_UART_IRQHandler+0x5a>
 8005464:	b118      	cbz	r0, 800546e <HAL_UART_IRQHandler+0x5a>
 8005466:	6c63      	ldr	r3, [r4, #68]	@ 0x44
 8005468:	f043 0304 	orr.w	r3, r3, #4
 800546c:	6463      	str	r3, [r4, #68]	@ 0x44
 800546e:	0715      	lsls	r5, r2, #28
 8005470:	d507      	bpl.n	8005482 <HAL_UART_IRQHandler+0x6e>
 8005472:	f001 0320 	and.w	r3, r1, #32
 8005476:	4303      	orrs	r3, r0
 8005478:	bf1e      	ittt	ne
 800547a:	6c63      	ldrne	r3, [r4, #68]	@ 0x44
 800547c:	f043 0308 	orrne.w	r3, r3, #8
 8005480:	6463      	strne	r3, [r4, #68]	@ 0x44
 8005482:	6c63      	ldr	r3, [r4, #68]	@ 0x44
 8005484:	2b00      	cmp	r3, #0
 8005486:	d032      	beq.n	80054ee <HAL_UART_IRQHandler+0xda>
 8005488:	0692      	lsls	r2, r2, #26
 800548a:	d504      	bpl.n	8005496 <HAL_UART_IRQHandler+0x82>
 800548c:	068b      	lsls	r3, r1, #26
 800548e:	d502      	bpl.n	8005496 <HAL_UART_IRQHandler+0x82>
 8005490:	4620      	mov	r0, r4
 8005492:	f7ff ff63 	bl	800535c <UART_Receive_IT.isra.0>
 8005496:	6826      	ldr	r6, [r4, #0]
 8005498:	6973      	ldr	r3, [r6, #20]
 800549a:	6c62      	ldr	r2, [r4, #68]	@ 0x44
 800549c:	f003 0340 	and.w	r3, r3, #64	@ 0x40
 80054a0:	f002 0208 	and.w	r2, r2, #8
 80054a4:	ea53 0502 	orrs.w	r5, r3, r2
 80054a8:	4620      	mov	r0, r4
 80054aa:	d022      	beq.n	80054f2 <HAL_UART_IRQHandler+0xde>
 80054ac:	f7ff fe10 	bl	80050d0 <UART_EndRxTransfer>
 80054b0:	6973      	ldr	r3, [r6, #20]
 80054b2:	065e      	lsls	r6, r3, #25
 80054b4:	d518      	bpl.n	80054e8 <HAL_UART_IRQHandler+0xd4>
 80054b6:	6822      	ldr	r2, [r4, #0]
 80054b8:	f102 0314 	add.w	r3, r2, #20
 80054bc:	e853 3f00 	ldrex	r3, [r3]
 80054c0:	f023 0340 	bic.w	r3, r3, #64	@ 0x40
 80054c4:	3214      	adds	r2, #20
 80054c6:	e842 3100 	strex	r1, r3, [r2]
 80054ca:	2900      	cmp	r1, #0
 80054cc:	d1f3      	bne.n	80054b6 <HAL_UART_IRQHandler+0xa2>
 80054ce:	6be0      	ldr	r0, [r4, #60]	@ 0x3c
 80054d0:	b150      	cbz	r0, 80054e8 <HAL_UART_IRQHandler+0xd4>
 80054d2:	4b74      	ldr	r3, [pc, #464]	@ (80056a4 <HAL_UART_IRQHandler+0x290>)
 80054d4:	6503      	str	r3, [r0, #80]	@ 0x50
 80054d6:	f7fd fbe0 	bl	8002c9a <HAL_DMA_Abort_IT>
 80054da:	b140      	cbz	r0, 80054ee <HAL_UART_IRQHandler+0xda>
 80054dc:	6be0      	ldr	r0, [r4, #60]	@ 0x3c
 80054de:	6d03      	ldr	r3, [r0, #80]	@ 0x50
 80054e0:	b002      	add	sp, #8
 80054e2:	e8bd 4070 	ldmia.w	sp!, {r4, r5, r6, lr}
 80054e6:	4718      	bx	r3
 80054e8:	4620      	mov	r0, r4
 80054ea:	f7ff ff2d 	bl	8005348 <HAL_UART_ErrorCallback>
 80054ee:	b002      	add	sp, #8
 80054f0:	bd70      	pop	{r4, r5, r6, pc}
 80054f2:	f7ff ff29 	bl	8005348 <HAL_UART_ErrorCallback>
 80054f6:	6465      	str	r5, [r4, #68]	@ 0x44
 80054f8:	e7f9      	b.n	80054ee <HAL_UART_IRQHandler+0xda>
 80054fa:	6b20      	ldr	r0, [r4, #48]	@ 0x30
 80054fc:	2801      	cmp	r0, #1
 80054fe:	f040 8095 	bne.w	800562c <HAL_UART_IRQHandler+0x218>
 8005502:	06d5      	lsls	r5, r2, #27
 8005504:	f140 8092 	bpl.w	800562c <HAL_UART_IRQHandler+0x218>
 8005508:	06c8      	lsls	r0, r1, #27
 800550a:	f140 808f 	bpl.w	800562c <HAL_UART_IRQHandler+0x218>
 800550e:	2200      	movs	r2, #0
 8005510:	9201      	str	r2, [sp, #4]
 8005512:	681a      	ldr	r2, [r3, #0]
 8005514:	9201      	str	r2, [sp, #4]
 8005516:	685a      	ldr	r2, [r3, #4]
 8005518:	9201      	str	r2, [sp, #4]
 800551a:	9a01      	ldr	r2, [sp, #4]
 800551c:	695a      	ldr	r2, [r3, #20]
 800551e:	0652      	lsls	r2, r2, #25
 8005520:	d54e      	bpl.n	80055c0 <HAL_UART_IRQHandler+0x1ac>
 8005522:	6be1      	ldr	r1, [r4, #60]	@ 0x3c
 8005524:	680a      	ldr	r2, [r1, #0]
 8005526:	6852      	ldr	r2, [r2, #4]
 8005528:	b292      	uxth	r2, r2
 800552a:	2a00      	cmp	r2, #0
 800552c:	d0df      	beq.n	80054ee <HAL_UART_IRQHandler+0xda>
 800552e:	8da0      	ldrh	r0, [r4, #44]	@ 0x2c
 8005530:	4290      	cmp	r0, r2
 8005532:	d9dc      	bls.n	80054ee <HAL_UART_IRQHandler+0xda>
 8005534:	85e2      	strh	r2, [r4, #46]	@ 0x2e
 8005536:	69ca      	ldr	r2, [r1, #28]
 8005538:	f5b2 7f80 	cmp.w	r2, #256	@ 0x100
 800553c:	d036      	beq.n	80055ac <HAL_UART_IRQHandler+0x198>
 800553e:	f103 020c 	add.w	r2, r3, #12
 8005542:	e852 2f00 	ldrex	r2, [r2]
 8005546:	f422 7280 	bic.w	r2, r2, #256	@ 0x100
 800554a:	f103 000c 	add.w	r0, r3, #12
 800554e:	e840 2100 	strex	r1, r2, [r0]
 8005552:	2900      	cmp	r1, #0
 8005554:	d1f3      	bne.n	800553e <HAL_UART_IRQHandler+0x12a>
 8005556:	f103 0214 	add.w	r2, r3, #20
 800555a:	e852 2f00 	ldrex	r2, [r2]
 800555e:	f022 0201 	bic.w	r2, r2, #1
 8005562:	f103 0014 	add.w	r0, r3, #20
 8005566:	e840 2100 	strex	r1, r2, [r0]
 800556a:	2900      	cmp	r1, #0
 800556c:	d1f3      	bne.n	8005556 <HAL_UART_IRQHandler+0x142>
 800556e:	f103 0214 	add.w	r2, r3, #20
 8005572:	e852 2f00 	ldrex	r2, [r2]
 8005576:	f022 0240 	bic.w	r2, r2, #64	@ 0x40
 800557a:	f103 0014 	add.w	r0, r3, #20
 800557e:	e840 2100 	strex	r1, r2, [r0]
 8005582:	2900      	cmp	r1, #0
 8005584:	d1f3      	bne.n	800556e <HAL_UART_IRQHandler+0x15a>
 8005586:	2220      	movs	r2, #32
 8005588:	f884 2042 	strb.w	r2, [r4, #66]	@ 0x42
 800558c:	6321      	str	r1, [r4, #48]	@ 0x30
 800558e:	f103 020c 	add.w	r2, r3, #12
 8005592:	e852 2f00 	ldrex	r2, [r2]
 8005596:	f022 0210 	bic.w	r2, r2, #16
 800559a:	f103 000c 	add.w	r0, r3, #12
 800559e:	e840 2100 	strex	r1, r2, [r0]
 80055a2:	2900      	cmp	r1, #0
 80055a4:	d1f3      	bne.n	800558e <HAL_UART_IRQHandler+0x17a>
 80055a6:	6be0      	ldr	r0, [r4, #60]	@ 0x3c
 80055a8:	f7fd fb39 	bl	8002c1e <HAL_DMA_Abort>
 80055ac:	2302      	movs	r3, #2
 80055ae:	6363      	str	r3, [r4, #52]	@ 0x34
 80055b0:	8de3      	ldrh	r3, [r4, #46]	@ 0x2e
 80055b2:	8da1      	ldrh	r1, [r4, #44]	@ 0x2c
 80055b4:	1ac9      	subs	r1, r1, r3
 80055b6:	b289      	uxth	r1, r1
 80055b8:	4620      	mov	r0, r4
 80055ba:	f7ff fece 	bl	800535a <HAL_UARTEx_RxEventCallback>
 80055be:	e796      	b.n	80054ee <HAL_UART_IRQHandler+0xda>
 80055c0:	8de2      	ldrh	r2, [r4, #46]	@ 0x2e
 80055c2:	8de0      	ldrh	r0, [r4, #46]	@ 0x2e
 80055c4:	8da1      	ldrh	r1, [r4, #44]	@ 0x2c
 80055c6:	b280      	uxth	r0, r0
 80055c8:	b292      	uxth	r2, r2
 80055ca:	2800      	cmp	r0, #0
 80055cc:	d08f      	beq.n	80054ee <HAL_UART_IRQHandler+0xda>
 80055ce:	1a89      	subs	r1, r1, r2
 80055d0:	b289      	uxth	r1, r1
 80055d2:	2900      	cmp	r1, #0
 80055d4:	d08b      	beq.n	80054ee <HAL_UART_IRQHandler+0xda>
 80055d6:	f103 020c 	add.w	r2, r3, #12
 80055da:	e852 2f00 	ldrex	r2, [r2]
 80055de:	f422 7290 	bic.w	r2, r2, #288	@ 0x120
 80055e2:	f103 050c 	add.w	r5, r3, #12
 80055e6:	e845 2000 	strex	r0, r2, [r5]
 80055ea:	2800      	cmp	r0, #0
 80055ec:	d1f3      	bne.n	80055d6 <HAL_UART_IRQHandler+0x1c2>
 80055ee:	f103 0214 	add.w	r2, r3, #20
 80055f2:	e852 2f00 	ldrex	r2, [r2]
 80055f6:	f022 0201 	bic.w	r2, r2, #1
 80055fa:	f103 0514 	add.w	r5, r3, #20
 80055fe:	e845 2000 	strex	r0, r2, [r5]
 8005602:	2800      	cmp	r0, #0
 8005604:	d1f3      	bne.n	80055ee <HAL_UART_IRQHandler+0x1da>
 8005606:	2220      	movs	r2, #32
 8005608:	f884 2042 	strb.w	r2, [r4, #66]	@ 0x42
 800560c:	6320      	str	r0, [r4, #48]	@ 0x30
 800560e:	f103 020c 	add.w	r2, r3, #12
 8005612:	e852 2f00 	ldrex	r2, [r2]
 8005616:	f022 0210 	bic.w	r2, r2, #16
 800561a:	f103 050c 	add.w	r5, r3, #12
 800561e:	e845 2000 	strex	r0, r2, [r5]
 8005622:	2800      	cmp	r0, #0
 8005624:	d1f3      	bne.n	800560e <HAL_UART_IRQHandler+0x1fa>
 8005626:	2302      	movs	r3, #2
 8005628:	6363      	str	r3, [r4, #52]	@ 0x34
 800562a:	e7c5      	b.n	80055b8 <HAL_UART_IRQHandler+0x1a4>
 800562c:	0616      	lsls	r6, r2, #24
 800562e:	d528      	bpl.n	8005682 <HAL_UART_IRQHandler+0x26e>
 8005630:	060d      	lsls	r5, r1, #24
 8005632:	d526      	bpl.n	8005682 <HAL_UART_IRQHandler+0x26e>
 8005634:	f894 2041 	ldrb.w	r2, [r4, #65]	@ 0x41
 8005638:	2a21      	cmp	r2, #33	@ 0x21
 800563a:	f47f af58 	bne.w	80054ee <HAL_UART_IRQHandler+0xda>
 800563e:	68a1      	ldr	r1, [r4, #8]
 8005640:	6a22      	ldr	r2, [r4, #32]
 8005642:	f5b1 5f80 	cmp.w	r1, #4096	@ 0x1000
 8005646:	d117      	bne.n	8005678 <HAL_UART_IRQHandler+0x264>
 8005648:	6921      	ldr	r1, [r4, #16]
 800564a:	b9a9      	cbnz	r1, 8005678 <HAL_UART_IRQHandler+0x264>
 800564c:	f832 1b02 	ldrh.w	r1, [r2], #2
 8005650:	f3c1 0108 	ubfx	r1, r1, #0, #9
 8005654:	6059      	str	r1, [r3, #4]
 8005656:	6222      	str	r2, [r4, #32]
 8005658:	8ce2      	ldrh	r2, [r4, #38]	@ 0x26
 800565a:	3a01      	subs	r2, #1
 800565c:	b292      	uxth	r2, r2
 800565e:	84e2      	strh	r2, [r4, #38]	@ 0x26
 8005660:	2a00      	cmp	r2, #0
 8005662:	f47f af44 	bne.w	80054ee <HAL_UART_IRQHandler+0xda>
 8005666:	68da      	ldr	r2, [r3, #12]
 8005668:	f022 0280 	bic.w	r2, r2, #128	@ 0x80
 800566c:	60da      	str	r2, [r3, #12]
 800566e:	68da      	ldr	r2, [r3, #12]
 8005670:	f042 0240 	orr.w	r2, r2, #64	@ 0x40
 8005674:	60da      	str	r2, [r3, #12]
 8005676:	e73a      	b.n	80054ee <HAL_UART_IRQHandler+0xda>
 8005678:	1c51      	adds	r1, r2, #1
 800567a:	6221      	str	r1, [r4, #32]
 800567c:	7812      	ldrb	r2, [r2, #0]
 800567e:	605a      	str	r2, [r3, #4]
 8005680:	e7ea      	b.n	8005658 <HAL_UART_IRQHandler+0x244>
 8005682:	0650      	lsls	r0, r2, #25
 8005684:	f57f af33 	bpl.w	80054ee <HAL_UART_IRQHandler+0xda>
 8005688:	064a      	lsls	r2, r1, #25
 800568a:	f57f af30 	bpl.w	80054ee <HAL_UART_IRQHandler+0xda>
 800568e:	68da      	ldr	r2, [r3, #12]
 8005690:	f022 0240 	bic.w	r2, r2, #64	@ 0x40
 8005694:	60da      	str	r2, [r3, #12]
 8005696:	2320      	movs	r3, #32
 8005698:	f884 3041 	strb.w	r3, [r4, #65]	@ 0x41
 800569c:	4620      	mov	r0, r4
 800569e:	f7ff fe52 	bl	8005346 <HAL_UART_TxCpltCallback>
 80056a2:	e724      	b.n	80054ee <HAL_UART_IRQHandler+0xda>
 80056a4:	0800534b 	.word	0x0800534b

080056a8 <UART_Start_Receive_IT>:
 80056a8:	85c2      	strh	r2, [r0, #46]	@ 0x2e
 80056aa:	2300      	movs	r3, #0
 80056ac:	8582      	strh	r2, [r0, #44]	@ 0x2c
 80056ae:	6902      	ldr	r2, [r0, #16]
 80056b0:	6443      	str	r3, [r0, #68]	@ 0x44
 80056b2:	2322      	movs	r3, #34	@ 0x22
 80056b4:	f880 3042 	strb.w	r3, [r0, #66]	@ 0x42
 80056b8:	6281      	str	r1, [r0, #40]	@ 0x28
 80056ba:	6803      	ldr	r3, [r0, #0]
 80056bc:	b11a      	cbz	r2, 80056c6 <UART_Start_Receive_IT+0x1e>
 80056be:	68da      	ldr	r2, [r3, #12]
 80056c0:	f442 7280 	orr.w	r2, r2, #256	@ 0x100
 80056c4:	60da      	str	r2, [r3, #12]
 80056c6:	695a      	ldr	r2, [r3, #20]
 80056c8:	f042 0201 	orr.w	r2, r2, #1
 80056cc:	615a      	str	r2, [r3, #20]
 80056ce:	68da      	ldr	r2, [r3, #12]
 80056d0:	f042 0220 	orr.w	r2, r2, #32
 80056d4:	60da      	str	r2, [r3, #12]
 80056d6:	2000      	movs	r0, #0
 80056d8:	4770      	bx	lr

080056da <HAL_UART_Receive_IT>:
 80056da:	b470      	push	{r4, r5, r6}
 80056dc:	f890 6042 	ldrb.w	r6, [r0, #66]	@ 0x42
 80056e0:	2e20      	cmp	r6, #32
 80056e2:	d106      	bne.n	80056f2 <HAL_UART_Receive_IT+0x18>
 80056e4:	b141      	cbz	r1, 80056f8 <HAL_UART_Receive_IT+0x1e>
 80056e6:	b13a      	cbz	r2, 80056f8 <HAL_UART_Receive_IT+0x1e>
 80056e8:	2400      	movs	r4, #0
 80056ea:	6304      	str	r4, [r0, #48]	@ 0x30
 80056ec:	bc70      	pop	{r4, r5, r6}
 80056ee:	f7ff bfdb 	b.w	80056a8 <UART_Start_Receive_IT>
 80056f2:	2002      	movs	r0, #2
 80056f4:	bc70      	pop	{r4, r5, r6}
 80056f6:	4770      	bx	lr
 80056f8:	2001      	movs	r0, #1
 80056fa:	e7fb      	b.n	80056f4 <HAL_UART_Receive_IT+0x1a>

080056fc <memset>:
 80056fc:	4402      	add	r2, r0
 80056fe:	4603      	mov	r3, r0
 8005700:	4293      	cmp	r3, r2
 8005702:	d100      	bne.n	8005706 <memset+0xa>
 8005704:	4770      	bx	lr
 8005706:	f803 1b01 	strb.w	r1, [r3], #1
 800570a:	e7f9      	b.n	8005700 <memset+0x4>

0800570c <__libc_init_array>:
 800570c:	b570      	push	{r4, r5, r6, lr}
 800570e:	4d0d      	ldr	r5, [pc, #52]	@ (8005744 <__libc_init_array+0x38>)
 8005710:	4c0d      	ldr	r4, [pc, #52]	@ (8005748 <__libc_init_array+0x3c>)
 8005712:	1b64      	subs	r4, r4, r5
 8005714:	10a4      	asrs	r4, r4, #2
 8005716:	2600      	movs	r6, #0
 8005718:	42a6      	cmp	r6, r4
 800571a:	d109      	bne.n	8005730 <__libc_init_array+0x24>
 800571c:	4d0b      	ldr	r5, [pc, #44]	@ (800574c <__libc_init_array+0x40>)
 800571e:	4c0c      	ldr	r4, [pc, #48]	@ (8005750 <__libc_init_array+0x44>)
 8005720:	f000 f818 	bl	8005754 <_init>
 8005724:	1b64      	subs	r4, r4, r5
 8005726:	10a4      	asrs	r4, r4, #2
 8005728:	2600      	movs	r6, #0
 800572a:	42a6      	cmp	r6, r4
 800572c:	d105      	bne.n	800573a <__libc_init_array+0x2e>
 800572e:	bd70      	pop	{r4, r5, r6, pc}
 8005730:	f855 3b04 	ldr.w	r3, [r5], #4
 8005734:	4798      	blx	r3
 8005736:	3601      	adds	r6, #1
 8005738:	e7ee      	b.n	8005718 <__libc_init_array+0xc>
 800573a:	f855 3b04 	ldr.w	r3, [r5], #4
 800573e:	4798      	blx	r3
 8005740:	3601      	adds	r6, #1
 8005742:	e7f2      	b.n	800572a <__libc_init_array+0x1e>
 8005744:	08005828 	.word	0x08005828
 8005748:	08005828 	.word	0x08005828
 800574c:	08005828 	.word	0x08005828
 8005750:	0800582c 	.word	0x0800582c

08005754 <_init>:
 8005754:	b5f8      	push	{r3, r4, r5, r6, r7, lr}
 8005756:	bf00      	nop
 8005758:	bcf8      	pop	{r3, r4, r5, r6, r7}
 800575a:	bc08      	pop	{r3}
 800575c:	469e      	mov	lr, r3
 800575e:	4770      	bx	lr

08005760 <_fini>:
 8005760:	b5f8      	push	{r3, r4, r5, r6, r7, lr}
 8005762:	bf00      	nop
 8005764:	bcf8      	pop	{r3, r4, r5, r6, r7}
 8005766:	bc08      	pop	{r3}
 8005768:	469e      	mov	lr, r3
 800576a:	4770      	bx	lr
