
AuroraV_Payload_F439.elf:     file format elf32-littlearm

Sections:
Idx Name          Size      VMA       LMA       File off  Algn
  0 .isr_vector   000001ac  08000000  08000000  00001000  2**0
                  CONTENTS, ALLOC, LOAD, READONLY, DATA
  1 .text         00005394  080001ac  080001ac  000011ac  2**2
                  CONTENTS, ALLOC, LOAD, READONLY, CODE
  2 .rodata       000000b4  08005540  08005540  00006540  2**0
                  CONTENTS, ALLOC, LOAD, READONLY, DATA
  3 .ARM.extab    00000000  080055f4  080055f4  00007028  2**0
                  CONTENTS
  4 .ARM          00000008  080055f4  080055f4  000065f4  2**2
                  CONTENTS, ALLOC, LOAD, READONLY, DATA
  5 .preinit_array 00000000  080055fc  080055fc  00007028  2**0
                  CONTENTS, ALLOC, LOAD, DATA
  6 .init_array   00000004  080055fc  080055fc  000065fc  2**2
                  CONTENTS, ALLOC, LOAD, DATA
  7 .fini_array   00000004  08005600  08005600  00006600  2**2
                  CONTENTS, ALLOC, LOAD, DATA
  8 .data         00000028  20000000  08005604  00007000  2**2
                  CONTENTS, ALLOC, LOAD, DATA
  9 .ccmram       00000000  10000000  10000000  00007028  2**0
                  CONTENTS
 10 .bss          00000604  20000028  20000028  00007028  2**2
                  ALLOC
 11 ._user_heap_stack 00000604  2000062c  2000062c  00007028  2**0
                  ALLOC
 12 .ARM.attributes 00000030  00000000  00000000  00007028  2**0
                  CONTENTS, READONLY
 13 .comment      00000043  00000000  00000000  00007058  2**0
                  CONTENTS, READONLY
 14 .debug_frame  000000ac  00000000  00000000  0000709c  2**2
                  CONTENTS, READONLY, DEBUGGING, OCTETS

Disassembly of section .text:

080001ac <__do_global_dtors_aux>:
 80001ac:	b510      	push	{r4, lr}
 80001ae:	4c05      	ldr	r4, [pc, #20]	@ (80001c4 <__do_global_dtors_aux+0x18>)
 80001b0:	7823      	ldrb	r3, [r4, #0]
 80001b2:	b933      	cbnz	r3, 80001c2 <__do_global_dtors_aux+0x16>
 80001b4:	4b04      	ldr	r3, [pc, #16]	@ (80001c8 <__do_global_dtors_aux+0x1c>)
 80001b6:	b113      	cbz	r3, 80001be <__do_global_dtors_aux+0x12>
 80001b8:	4804      	ldr	r0, [pc, #16]	@ (80001cc <__do_global_dtors_aux+0x20>)
 80001ba:	f3af 8000 	nop.w
 80001be:	2301      	movs	r3, #1
 80001c0:	7023      	strb	r3, [r4, #0]
 80001c2:	bd10      	pop	{r4, pc}
 80001c4:	20000028 	.word	0x20000028
 80001c8:	00000000 	.word	0x00000000
 80001cc:	08005528 	.word	0x08005528

080001d0 <frame_dummy>:
 80001d0:	b508      	push	{r3, lr}
 80001d2:	4b03      	ldr	r3, [pc, #12]	@ (80001e0 <frame_dummy+0x10>)
 80001d4:	b11b      	cbz	r3, 80001de <frame_dummy+0xe>
 80001d6:	4903      	ldr	r1, [pc, #12]	@ (80001e4 <frame_dummy+0x14>)
 80001d8:	4803      	ldr	r0, [pc, #12]	@ (80001e8 <frame_dummy+0x18>)
 80001da:	f3af 8000 	nop.w
 80001de:	bd08      	pop	{r3, pc}
 80001e0:	00000000 	.word	0x00000000
 80001e4:	2000002c 	.word	0x2000002c
 80001e8:	08005528 	.word	0x08005528

080001ec <strlen>:
 80001ec:	4603      	mov	r3, r0
 80001ee:	f813 2b01 	ldrb.w	r2, [r3], #1
 80001f2:	2a00      	cmp	r2, #0
 80001f4:	d1fb      	bne.n	80001ee <strlen+0x2>
 80001f6:	1a18      	subs	r0, r3, r0
 80001f8:	3801      	subs	r0, #1
 80001fa:	4770      	bx	lr

080001fc <__aeabi_uldivmod>:
 80001fc:	b953      	cbnz	r3, 8000214 <__aeabi_uldivmod+0x18>
 80001fe:	b94a      	cbnz	r2, 8000214 <__aeabi_uldivmod+0x18>
 8000200:	2900      	cmp	r1, #0
 8000202:	bf08      	it	eq
 8000204:	2800      	cmpeq	r0, #0
 8000206:	bf1c      	itt	ne
 8000208:	f04f 31ff 	movne.w	r1, #4294967295	@ 0xffffffff
 800020c:	f04f 30ff 	movne.w	r0, #4294967295	@ 0xffffffff
 8000210:	f000 b96a 	b.w	80004e8 <__aeabi_idiv0>
 8000214:	f1ad 0c08 	sub.w	ip, sp, #8
 8000218:	e96d ce04 	strd	ip, lr, [sp, #-16]!
 800021c:	f000 f806 	bl	800022c <__udivmoddi4>
 8000220:	f8dd e004 	ldr.w	lr, [sp, #4]
 8000224:	e9dd 2302 	ldrd	r2, r3, [sp, #8]
 8000228:	b004      	add	sp, #16
 800022a:	4770      	bx	lr

0800022c <__udivmoddi4>:
 800022c:	e92d 47f0 	stmdb	sp!, {r4, r5, r6, r7, r8, r9, sl, lr}
 8000230:	9d08      	ldr	r5, [sp, #32]
 8000232:	460c      	mov	r4, r1
 8000234:	2b00      	cmp	r3, #0
 8000236:	d14e      	bne.n	80002d6 <__udivmoddi4+0xaa>
 8000238:	4694      	mov	ip, r2
 800023a:	458c      	cmp	ip, r1
 800023c:	4686      	mov	lr, r0
 800023e:	fab2 f282 	clz	r2, r2
 8000242:	d962      	bls.n	800030a <__udivmoddi4+0xde>
 8000244:	b14a      	cbz	r2, 800025a <__udivmoddi4+0x2e>
 8000246:	f1c2 0320 	rsb	r3, r2, #32
 800024a:	4091      	lsls	r1, r2
 800024c:	fa20 f303 	lsr.w	r3, r0, r3
 8000250:	fa0c fc02 	lsl.w	ip, ip, r2
 8000254:	4319      	orrs	r1, r3
 8000256:	fa00 fe02 	lsl.w	lr, r0, r2
 800025a:	ea4f 471c 	mov.w	r7, ip, lsr #16
 800025e:	fa1f f68c 	uxth.w	r6, ip
 8000262:	fbb1 f4f7 	udiv	r4, r1, r7
 8000266:	ea4f 431e 	mov.w	r3, lr, lsr #16
 800026a:	fb07 1114 	mls	r1, r7, r4, r1
 800026e:	ea43 4301 	orr.w	r3, r3, r1, lsl #16
 8000272:	fb04 f106 	mul.w	r1, r4, r6
 8000276:	4299      	cmp	r1, r3
 8000278:	d90a      	bls.n	8000290 <__udivmoddi4+0x64>
 800027a:	eb1c 0303 	adds.w	r3, ip, r3
 800027e:	f104 30ff 	add.w	r0, r4, #4294967295	@ 0xffffffff
 8000282:	f080 8112 	bcs.w	80004aa <__udivmoddi4+0x27e>
 8000286:	4299      	cmp	r1, r3
 8000288:	f240 810f 	bls.w	80004aa <__udivmoddi4+0x27e>
 800028c:	3c02      	subs	r4, #2
 800028e:	4463      	add	r3, ip
 8000290:	1a59      	subs	r1, r3, r1
 8000292:	fa1f f38e 	uxth.w	r3, lr
 8000296:	fbb1 f0f7 	udiv	r0, r1, r7
 800029a:	fb07 1110 	mls	r1, r7, r0, r1
 800029e:	ea43 4301 	orr.w	r3, r3, r1, lsl #16
 80002a2:	fb00 f606 	mul.w	r6, r0, r6
 80002a6:	429e      	cmp	r6, r3
 80002a8:	d90a      	bls.n	80002c0 <__udivmoddi4+0x94>
 80002aa:	eb1c 0303 	adds.w	r3, ip, r3
 80002ae:	f100 31ff 	add.w	r1, r0, #4294967295	@ 0xffffffff
 80002b2:	f080 80fc 	bcs.w	80004ae <__udivmoddi4+0x282>
 80002b6:	429e      	cmp	r6, r3
 80002b8:	f240 80f9 	bls.w	80004ae <__udivmoddi4+0x282>
 80002bc:	4463      	add	r3, ip
 80002be:	3802      	subs	r0, #2
 80002c0:	1b9b      	subs	r3, r3, r6
 80002c2:	ea40 4004 	orr.w	r0, r0, r4, lsl #16
 80002c6:	2100      	movs	r1, #0
 80002c8:	b11d      	cbz	r5, 80002d2 <__udivmoddi4+0xa6>
 80002ca:	40d3      	lsrs	r3, r2
 80002cc:	2200      	movs	r2, #0
 80002ce:	e9c5 3200 	strd	r3, r2, [r5]
 80002d2:	e8bd 87f0 	ldmia.w	sp!, {r4, r5, r6, r7, r8, r9, sl, pc}
 80002d6:	428b      	cmp	r3, r1
 80002d8:	d905      	bls.n	80002e6 <__udivmoddi4+0xba>
 80002da:	b10d      	cbz	r5, 80002e0 <__udivmoddi4+0xb4>
 80002dc:	e9c5 0100 	strd	r0, r1, [r5]
 80002e0:	2100      	movs	r1, #0
 80002e2:	4608      	mov	r0, r1
 80002e4:	e7f5      	b.n	80002d2 <__udivmoddi4+0xa6>
 80002e6:	fab3 f183 	clz	r1, r3
 80002ea:	2900      	cmp	r1, #0
 80002ec:	d146      	bne.n	800037c <__udivmoddi4+0x150>
 80002ee:	42a3      	cmp	r3, r4
 80002f0:	d302      	bcc.n	80002f8 <__udivmoddi4+0xcc>
 80002f2:	4290      	cmp	r0, r2
 80002f4:	f0c0 80f0 	bcc.w	80004d8 <__udivmoddi4+0x2ac>
 80002f8:	1a86      	subs	r6, r0, r2
 80002fa:	eb64 0303 	sbc.w	r3, r4, r3
 80002fe:	2001      	movs	r0, #1
 8000300:	2d00      	cmp	r5, #0
 8000302:	d0e6      	beq.n	80002d2 <__udivmoddi4+0xa6>
 8000304:	e9c5 6300 	strd	r6, r3, [r5]
 8000308:	e7e3      	b.n	80002d2 <__udivmoddi4+0xa6>
 800030a:	2a00      	cmp	r2, #0
 800030c:	f040 8090 	bne.w	8000430 <__udivmoddi4+0x204>
 8000310:	eba1 040c 	sub.w	r4, r1, ip
 8000314:	ea4f 481c 	mov.w	r8, ip, lsr #16
 8000318:	fa1f f78c 	uxth.w	r7, ip
 800031c:	2101      	movs	r1, #1
 800031e:	fbb4 f6f8 	udiv	r6, r4, r8
 8000322:	ea4f 431e 	mov.w	r3, lr, lsr #16
 8000326:	fb08 4416 	mls	r4, r8, r6, r4
 800032a:	ea43 4304 	orr.w	r3, r3, r4, lsl #16
 800032e:	fb07 f006 	mul.w	r0, r7, r6
 8000332:	4298      	cmp	r0, r3
 8000334:	d908      	bls.n	8000348 <__udivmoddi4+0x11c>
 8000336:	eb1c 0303 	adds.w	r3, ip, r3
 800033a:	f106 34ff 	add.w	r4, r6, #4294967295	@ 0xffffffff
 800033e:	d202      	bcs.n	8000346 <__udivmoddi4+0x11a>
 8000340:	4298      	cmp	r0, r3
 8000342:	f200 80cd 	bhi.w	80004e0 <__udivmoddi4+0x2b4>
 8000346:	4626      	mov	r6, r4
 8000348:	1a1c      	subs	r4, r3, r0
 800034a:	fa1f f38e 	uxth.w	r3, lr
 800034e:	fbb4 f0f8 	udiv	r0, r4, r8
 8000352:	fb08 4410 	mls	r4, r8, r0, r4
 8000356:	ea43 4304 	orr.w	r3, r3, r4, lsl #16
 800035a:	fb00 f707 	mul.w	r7, r0, r7
 800035e:	429f      	cmp	r7, r3
 8000360:	d908      	bls.n	8000374 <__udivmoddi4+0x148>
 8000362:	eb1c 0303 	adds.w	r3, ip, r3
 8000366:	f100 34ff 	add.w	r4, r0, #4294967295	@ 0xffffffff
 800036a:	d202      	bcs.n	8000372 <__udivmoddi4+0x146>
 800036c:	429f      	cmp	r7, r3
 800036e:	f200 80b0 	bhi.w	80004d2 <__udivmoddi4+0x2a6>
 8000372:	4620      	mov	r0, r4
 8000374:	1bdb      	subs	r3, r3, r7
 8000376:	ea40 4006 	orr.w	r0, r0, r6, lsl #16
 800037a:	e7a5      	b.n	80002c8 <__udivmoddi4+0x9c>
 800037c:	f1c1 0620 	rsb	r6, r1, #32
 8000380:	408b      	lsls	r3, r1
 8000382:	fa22 f706 	lsr.w	r7, r2, r6
 8000386:	431f      	orrs	r7, r3
 8000388:	fa20 fc06 	lsr.w	ip, r0, r6
 800038c:	fa04 f301 	lsl.w	r3, r4, r1
 8000390:	ea43 030c 	orr.w	r3, r3, ip
 8000394:	40f4      	lsrs	r4, r6
 8000396:	fa00 f801 	lsl.w	r8, r0, r1
 800039a:	0c38      	lsrs	r0, r7, #16
 800039c:	ea4f 4913 	mov.w	r9, r3, lsr #16
 80003a0:	fbb4 fef0 	udiv	lr, r4, r0
 80003a4:	fa1f fc87 	uxth.w	ip, r7
 80003a8:	fb00 441e 	mls	r4, r0, lr, r4
 80003ac:	ea49 4404 	orr.w	r4, r9, r4, lsl #16
 80003b0:	fb0e f90c 	mul.w	r9, lr, ip
 80003b4:	45a1      	cmp	r9, r4
 80003b6:	fa02 f201 	lsl.w	r2, r2, r1
 80003ba:	d90a      	bls.n	80003d2 <__udivmoddi4+0x1a6>
 80003bc:	193c      	adds	r4, r7, r4
 80003be:	f10e 3aff 	add.w	sl, lr, #4294967295	@ 0xffffffff
 80003c2:	f080 8084 	bcs.w	80004ce <__udivmoddi4+0x2a2>
 80003c6:	45a1      	cmp	r9, r4
 80003c8:	f240 8081 	bls.w	80004ce <__udivmoddi4+0x2a2>
 80003cc:	f1ae 0e02 	sub.w	lr, lr, #2
 80003d0:	443c      	add	r4, r7
 80003d2:	eba4 0409 	sub.w	r4, r4, r9
 80003d6:	fa1f f983 	uxth.w	r9, r3
 80003da:	fbb4 f3f0 	udiv	r3, r4, r0
 80003de:	fb00 4413 	mls	r4, r0, r3, r4
 80003e2:	ea49 4404 	orr.w	r4, r9, r4, lsl #16
 80003e6:	fb03 fc0c 	mul.w	ip, r3, ip
 80003ea:	45a4      	cmp	ip, r4
 80003ec:	d907      	bls.n	80003fe <__udivmoddi4+0x1d2>
 80003ee:	193c      	adds	r4, r7, r4
 80003f0:	f103 30ff 	add.w	r0, r3, #4294967295	@ 0xffffffff
 80003f4:	d267      	bcs.n	80004c6 <__udivmoddi4+0x29a>
 80003f6:	45a4      	cmp	ip, r4
 80003f8:	d965      	bls.n	80004c6 <__udivmoddi4+0x29a>
 80003fa:	3b02      	subs	r3, #2
 80003fc:	443c      	add	r4, r7
 80003fe:	ea43 400e 	orr.w	r0, r3, lr, lsl #16
 8000402:	fba0 9302 	umull	r9, r3, r0, r2
 8000406:	eba4 040c 	sub.w	r4, r4, ip
 800040a:	429c      	cmp	r4, r3
 800040c:	46ce      	mov	lr, r9
 800040e:	469c      	mov	ip, r3
 8000410:	d351      	bcc.n	80004b6 <__udivmoddi4+0x28a>
 8000412:	d04e      	beq.n	80004b2 <__udivmoddi4+0x286>
 8000414:	b155      	cbz	r5, 800042c <__udivmoddi4+0x200>
 8000416:	ebb8 030e 	subs.w	r3, r8, lr
 800041a:	eb64 040c 	sbc.w	r4, r4, ip
 800041e:	fa04 f606 	lsl.w	r6, r4, r6
 8000422:	40cb      	lsrs	r3, r1
 8000424:	431e      	orrs	r6, r3
 8000426:	40cc      	lsrs	r4, r1
 8000428:	e9c5 6400 	strd	r6, r4, [r5]
 800042c:	2100      	movs	r1, #0
 800042e:	e750      	b.n	80002d2 <__udivmoddi4+0xa6>
 8000430:	f1c2 0320 	rsb	r3, r2, #32
 8000434:	fa20 f103 	lsr.w	r1, r0, r3
 8000438:	fa0c fc02 	lsl.w	ip, ip, r2
 800043c:	fa24 f303 	lsr.w	r3, r4, r3
 8000440:	4094      	lsls	r4, r2
 8000442:	430c      	orrs	r4, r1
 8000444:	ea4f 481c 	mov.w	r8, ip, lsr #16
 8000448:	fa00 fe02 	lsl.w	lr, r0, r2
 800044c:	fa1f f78c 	uxth.w	r7, ip
 8000450:	fbb3 f0f8 	udiv	r0, r3, r8
 8000454:	fb08 3110 	mls	r1, r8, r0, r3
 8000458:	0c23      	lsrs	r3, r4, #16
 800045a:	ea43 4301 	orr.w	r3, r3, r1, lsl #16
 800045e:	fb00 f107 	mul.w	r1, r0, r7
 8000462:	4299      	cmp	r1, r3
 8000464:	d908      	bls.n	8000478 <__udivmoddi4+0x24c>
 8000466:	eb1c 0303 	adds.w	r3, ip, r3
 800046a:	f100 36ff 	add.w	r6, r0, #4294967295	@ 0xffffffff
 800046e:	d22c      	bcs.n	80004ca <__udivmoddi4+0x29e>
 8000470:	4299      	cmp	r1, r3
 8000472:	d92a      	bls.n	80004ca <__udivmoddi4+0x29e>
 8000474:	3802      	subs	r0, #2
 8000476:	4463      	add	r3, ip
 8000478:	1a5b      	subs	r3, r3, r1
 800047a:	b2a4      	uxth	r4, r4
 800047c:	fbb3 f1f8 	udiv	r1, r3, r8
 8000480:	fb08 3311 	mls	r3, r8, r1, r3
 8000484:	ea44 4403 	orr.w	r4, r4, r3, lsl #16
 8000488:	fb01 f307 	mul.w	r3, r1, r7
 800048c:	42a3      	cmp	r3, r4
 800048e:	d908      	bls.n	80004a2 <__udivmoddi4+0x276>
 8000490:	eb1c 0404 	adds.w	r4, ip, r4
 8000494:	f101 36ff 	add.w	r6, r1, #4294967295	@ 0xffffffff
 8000498:	d213      	bcs.n	80004c2 <__udivmoddi4+0x296>
 800049a:	42a3      	cmp	r3, r4
 800049c:	d911      	bls.n	80004c2 <__udivmoddi4+0x296>
 800049e:	3902      	subs	r1, #2
 80004a0:	4464      	add	r4, ip
 80004a2:	1ae4      	subs	r4, r4, r3
 80004a4:	ea41 4100 	orr.w	r1, r1, r0, lsl #16
 80004a8:	e739      	b.n	800031e <__udivmoddi4+0xf2>
 80004aa:	4604      	mov	r4, r0
 80004ac:	e6f0      	b.n	8000290 <__udivmoddi4+0x64>
 80004ae:	4608      	mov	r0, r1
 80004b0:	e706      	b.n	80002c0 <__udivmoddi4+0x94>
 80004b2:	45c8      	cmp	r8, r9
 80004b4:	d2ae      	bcs.n	8000414 <__udivmoddi4+0x1e8>
 80004b6:	ebb9 0e02 	subs.w	lr, r9, r2
 80004ba:	eb63 0c07 	sbc.w	ip, r3, r7
 80004be:	3801      	subs	r0, #1
 80004c0:	e7a8      	b.n	8000414 <__udivmoddi4+0x1e8>
 80004c2:	4631      	mov	r1, r6
 80004c4:	e7ed      	b.n	80004a2 <__udivmoddi4+0x276>
 80004c6:	4603      	mov	r3, r0
 80004c8:	e799      	b.n	80003fe <__udivmoddi4+0x1d2>
 80004ca:	4630      	mov	r0, r6
 80004cc:	e7d4      	b.n	8000478 <__udivmoddi4+0x24c>
 80004ce:	46d6      	mov	lr, sl
 80004d0:	e77f      	b.n	80003d2 <__udivmoddi4+0x1a6>
 80004d2:	4463      	add	r3, ip
 80004d4:	3802      	subs	r0, #2
 80004d6:	e74d      	b.n	8000374 <__udivmoddi4+0x148>
 80004d8:	4606      	mov	r6, r0
 80004da:	4623      	mov	r3, r4
 80004dc:	4608      	mov	r0, r1
 80004de:	e70f      	b.n	8000300 <__udivmoddi4+0xd4>
 80004e0:	3e02      	subs	r6, #2
 80004e2:	4463      	add	r3, ip
 80004e4:	e730      	b.n	8000348 <__udivmoddi4+0x11c>
 80004e6:	bf00      	nop

080004e8 <__aeabi_idiv0>:
 80004e8:	4770      	bx	lr
 80004ea:	bf00      	nop

080004ec <readAccelerometer>:
 80004ec:	b507      	push	{r0, r1, r2, lr}
 80004ee:	4603      	mov	r3, r0
 80004f0:	2200      	movs	r2, #0
 80004f2:	601a      	str	r2, [r3, #0]
 80004f4:	809a      	strh	r2, [r3, #4]
 80004f6:	4608      	mov	r0, r1
 80004f8:	4a05      	ldr	r2, [pc, #20]	@ (8000510 <readAccelerometer+0x24>)
 80004fa:	4906      	ldr	r1, [pc, #24]	@ (8000514 <readAccelerometer+0x28>)
 80004fc:	9300      	str	r3, [sp, #0]
 80004fe:	7812      	ldrb	r2, [r2, #0]
 8000500:	7809      	ldrb	r1, [r1, #0]
 8000502:	2306      	movs	r3, #6
 8000504:	f000 fa62 	bl	80009cc <i2c_burst_read>
 8000508:	b003      	add	sp, #12
 800050a:	f85d fb04 	ldr.w	pc, [sp], #4
 800050e:	bf00      	nop
 8000510:	20000000 	.word	0x20000000
 8000514:	20000007 	.word	0x20000007

08000518 <readAccel_whoami>:
 8000518:	b507      	push	{r0, r1, r2, lr}
 800051a:	4a07      	ldr	r2, [pc, #28]	@ (8000538 <readAccel_whoami+0x20>)
 800051c:	2300      	movs	r3, #0
 800051e:	f88d 3007 	strb.w	r3, [sp, #7]
 8000522:	7812      	ldrb	r2, [r2, #0]
 8000524:	4b05      	ldr	r3, [pc, #20]	@ (800053c <readAccel_whoami+0x24>)
 8000526:	f10d 0107 	add.w	r1, sp, #7
 800052a:	f000 fa38 	bl	800099e <i2c_read_reg>
 800052e:	f89d 0007 	ldrb.w	r0, [sp, #7]
 8000532:	b003      	add	sp, #12
 8000534:	f85d fb04 	ldr.w	pc, [sp], #4
 8000538:	20000007 	.word	0x20000007
 800053c:	20000044 	.word	0x20000044

08000540 <writeOffset>:
 8000540:	b570      	push	{r4, r5, r6, lr}
 8000542:	4d0a      	ldr	r5, [pc, #40]	@ (800056c <writeOffset+0x2c>)
 8000544:	4a0a      	ldr	r2, [pc, #40]	@ (8000570 <writeOffset+0x30>)
 8000546:	7829      	ldrb	r1, [r5, #0]
 8000548:	4604      	mov	r4, r0
 800054a:	2302      	movs	r3, #2
 800054c:	f000 fa59 	bl	8000a02 <i2c_write_reg>
 8000550:	7829      	ldrb	r1, [r5, #0]
 8000552:	4a08      	ldr	r2, [pc, #32]	@ (8000574 <writeOffset+0x34>)
 8000554:	2301      	movs	r3, #1
 8000556:	4620      	mov	r0, r4
 8000558:	f000 fa53 	bl	8000a02 <i2c_write_reg>
 800055c:	7829      	ldrb	r1, [r5, #0]
 800055e:	4a06      	ldr	r2, [pc, #24]	@ (8000578 <writeOffset+0x38>)
 8000560:	4620      	mov	r0, r4
 8000562:	2301      	movs	r3, #1
 8000564:	e8bd 4070 	ldmia.w	sp!, {r4, r5, r6, lr}
 8000568:	f000 ba4b 	b.w	8000a02 <i2c_write_reg>
 800056c:	20000007 	.word	0x20000007
 8000570:	20000003 	.word	0x20000003
 8000574:	20000002 	.word	0x20000002
 8000578:	20000001 	.word	0x20000001

0800057c <init_accel>:
 800057c:	b570      	push	{r4, r5, r6, lr}
 800057e:	4d0f      	ldr	r5, [pc, #60]	@ (80005bc <init_accel+0x40>)
 8000580:	4e0f      	ldr	r6, [pc, #60]	@ (80005c0 <init_accel+0x44>)
 8000582:	7829      	ldrb	r1, [r5, #0]
 8000584:	4604      	mov	r4, r0
 8000586:	4632      	mov	r2, r6
 8000588:	2300      	movs	r3, #0
 800058a:	f000 fa3a 	bl	8000a02 <i2c_write_reg>
 800058e:	7829      	ldrb	r1, [r5, #0]
 8000590:	4a0c      	ldr	r2, [pc, #48]	@ (80005c4 <init_accel+0x48>)
 8000592:	230b      	movs	r3, #11
 8000594:	4620      	mov	r0, r4
 8000596:	f000 fa34 	bl	8000a02 <i2c_write_reg>
 800059a:	7829      	ldrb	r1, [r5, #0]
 800059c:	4a0a      	ldr	r2, [pc, #40]	@ (80005c8 <init_accel+0x4c>)
 800059e:	230b      	movs	r3, #11
 80005a0:	4620      	mov	r0, r4
 80005a2:	f000 fa2e 	bl	8000a02 <i2c_write_reg>
 80005a6:	4620      	mov	r0, r4
 80005a8:	f7ff ffca 	bl	8000540 <writeOffset>
 80005ac:	7829      	ldrb	r1, [r5, #0]
 80005ae:	4632      	mov	r2, r6
 80005b0:	4620      	mov	r0, r4
 80005b2:	2308      	movs	r3, #8
 80005b4:	e8bd 4070 	ldmia.w	sp!, {r4, r5, r6, lr}
 80005b8:	f000 ba23 	b.w	8000a02 <i2c_write_reg>
 80005bc:	20000007 	.word	0x20000007
 80005c0:	20000005 	.word	0x20000005
 80005c4:	20000004 	.word	0x20000004
 80005c8:	20000006 	.word	0x20000006

080005cc <getBME280Config>:
 80005cc:	2300      	movs	r3, #0
 80005ce:	b120      	cbz	r0, 80005da <getBME280Config+0xe>
 80005d0:	2801      	cmp	r0, #1
 80005d2:	bf08      	it	eq
 80005d4:	2377      	moveq	r3, #119	@ 0x77
 80005d6:	4618      	mov	r0, r3
 80005d8:	4770      	bx	lr
 80005da:	2376      	movs	r3, #118	@ 0x76
 80005dc:	e7fb      	b.n	80005d6 <getBME280Config+0xa>
	...

080005e0 <init_bme280>:
 80005e0:	b5f7      	push	{r0, r1, r2, r4, r5, r6, r7, lr}
 80005e2:	4604      	mov	r4, r0
 80005e4:	4608      	mov	r0, r1
 80005e6:	f7ff fff1 	bl	80005cc <getBME280Config>
 80005ea:	4f16      	ldr	r7, [pc, #88]	@ (8000644 <init_bme280+0x64>)
 80005ec:	4a16      	ldr	r2, [pc, #88]	@ (8000648 <init_bme280+0x68>)
 80005ee:	b2c5      	uxtb	r5, r0
 80005f0:	2600      	movs	r6, #0
 80005f2:	4629      	mov	r1, r5
 80005f4:	23b6      	movs	r3, #182	@ 0xb6
 80005f6:	4620      	mov	r0, r4
 80005f8:	f88d 6007 	strb.w	r6, [sp, #7]
 80005fc:	f000 fa01 	bl	8000a02 <i2c_write_reg>
 8000600:	463b      	mov	r3, r7
 8000602:	462a      	mov	r2, r5
 8000604:	f10d 0107 	add.w	r1, sp, #7
 8000608:	4620      	mov	r0, r4
 800060a:	f000 f9c8 	bl	800099e <i2c_read_reg>
 800060e:	f89d 3007 	ldrb.w	r3, [sp, #7]
 8000612:	f023 0307 	bic.w	r3, r3, #7
 8000616:	f043 0301 	orr.w	r3, r3, #1
 800061a:	463a      	mov	r2, r7
 800061c:	4629      	mov	r1, r5
 800061e:	4620      	mov	r0, r4
 8000620:	f88d 3007 	strb.w	r3, [sp, #7]
 8000624:	f000 f9ed 	bl	8000a02 <i2c_write_reg>
 8000628:	4629      	mov	r1, r5
 800062a:	4a08      	ldr	r2, [pc, #32]	@ (800064c <init_bme280+0x6c>)
 800062c:	2327      	movs	r3, #39	@ 0x27
 800062e:	4620      	mov	r0, r4
 8000630:	f000 f9e7 	bl	8000a02 <i2c_write_reg>
 8000634:	4a06      	ldr	r2, [pc, #24]	@ (8000650 <init_bme280+0x70>)
 8000636:	4633      	mov	r3, r6
 8000638:	4629      	mov	r1, r5
 800063a:	4620      	mov	r0, r4
 800063c:	f000 f9e1 	bl	8000a02 <i2c_write_reg>
 8000640:	b003      	add	sp, #12
 8000642:	bdf0      	pop	{r4, r5, r6, r7, pc}
 8000644:	2000000d 	.word	0x2000000d
 8000648:	2000000e 	.word	0x2000000e
 800064c:	2000000c 	.word	0x2000000c
 8000650:	2000000b 	.word	0x2000000b

08000654 <readBME280_id_reg>:
 8000654:	b513      	push	{r0, r1, r4, lr}
 8000656:	4604      	mov	r4, r0
 8000658:	4608      	mov	r0, r1
 800065a:	f7ff ffb7 	bl	80005cc <getBME280Config>
 800065e:	2300      	movs	r3, #0
 8000660:	f88d 3007 	strb.w	r3, [sp, #7]
 8000664:	b2c2      	uxtb	r2, r0
 8000666:	4b05      	ldr	r3, [pc, #20]	@ (800067c <readBME280_id_reg+0x28>)
 8000668:	f10d 0107 	add.w	r1, sp, #7
 800066c:	4620      	mov	r0, r4
 800066e:	f000 f996 	bl	800099e <i2c_read_reg>
 8000672:	f89d 0007 	ldrb.w	r0, [sp, #7]
 8000676:	b002      	add	sp, #8
 8000678:	bd10      	pop	{r4, pc}
 800067a:	bf00      	nop
 800067c:	2000000f 	.word	0x2000000f

08000680 <readBME280_calib>:
 8000680:	b573      	push	{r0, r1, r4, r5, r6, lr}
 8000682:	4604      	mov	r4, r0
 8000684:	4608      	mov	r0, r1
 8000686:	461e      	mov	r6, r3
 8000688:	f7ff ffa0 	bl	80005cc <getBME280Config>
 800068c:	9200      	str	r2, [sp, #0]
 800068e:	4a09      	ldr	r2, [pc, #36]	@ (80006b4 <readBME280_calib+0x34>)
 8000690:	b2c5      	uxtb	r5, r0
 8000692:	4629      	mov	r1, r5
 8000694:	7812      	ldrb	r2, [r2, #0]
 8000696:	2319      	movs	r3, #25
 8000698:	4620      	mov	r0, r4
 800069a:	f000 f997 	bl	80009cc <i2c_burst_read>
 800069e:	4a06      	ldr	r2, [pc, #24]	@ (80006b8 <readBME280_calib+0x38>)
 80006a0:	9600      	str	r6, [sp, #0]
 80006a2:	7812      	ldrb	r2, [r2, #0]
 80006a4:	2307      	movs	r3, #7
 80006a6:	4629      	mov	r1, r5
 80006a8:	4620      	mov	r0, r4
 80006aa:	f000 f98f 	bl	80009cc <i2c_burst_read>
 80006ae:	b002      	add	sp, #8
 80006b0:	bd70      	pop	{r4, r5, r6, pc}
 80006b2:	bf00      	nop
 80006b4:	20000009 	.word	0x20000009
 80006b8:	20000008 	.word	0x20000008

080006bc <readTempHumPres>:
 80006bc:	b57f      	push	{r0, r1, r2, r3, r4, r5, r6, lr}
 80006be:	460d      	mov	r5, r1
 80006c0:	4917      	ldr	r1, [pc, #92]	@ (8000720 <readTempHumPres+0x64>)
 80006c2:	4604      	mov	r4, r0
 80006c4:	6808      	ldr	r0, [r1, #0]
 80006c6:	6849      	ldr	r1, [r1, #4]
 80006c8:	ab02      	add	r3, sp, #8
 80006ca:	c303      	stmia	r3!, {r0, r1}
 80006cc:	4610      	mov	r0, r2
 80006ce:	f7ff ff7d 	bl	80005cc <getBME280Config>
 80006d2:	4a14      	ldr	r2, [pc, #80]	@ (8000724 <readTempHumPres+0x68>)
 80006d4:	ae02      	add	r6, sp, #8
 80006d6:	9600      	str	r6, [sp, #0]
 80006d8:	b2c1      	uxtb	r1, r0
 80006da:	7812      	ldrb	r2, [r2, #0]
 80006dc:	2308      	movs	r3, #8
 80006de:	4628      	mov	r0, r5
 80006e0:	f000 f974 	bl	80009cc <i2c_burst_read>
 80006e4:	2300      	movs	r3, #0
 80006e6:	461a      	mov	r2, r3
 80006e8:	2124      	movs	r1, #36	@ 0x24
 80006ea:	fa21 f003 	lsr.w	r0, r1, r3
 80006ee:	07c0      	lsls	r0, r0, #31
 80006f0:	bf5c      	itt	pl
 80006f2:	5cf0      	ldrbpl	r0, [r6, r3]
 80006f4:	54a0      	strbpl	r0, [r4, r2]
 80006f6:	f103 0301 	add.w	r3, r3, #1
 80006fa:	bf5c      	itt	pl
 80006fc:	3201      	addpl	r2, #1
 80006fe:	b2d2      	uxtbpl	r2, r2
 8000700:	2b08      	cmp	r3, #8
 8000702:	d1f2      	bne.n	80006ea <readTempHumPres+0x2e>
 8000704:	7823      	ldrb	r3, [r4, #0]
 8000706:	7862      	ldrb	r2, [r4, #1]
 8000708:	7022      	strb	r2, [r4, #0]
 800070a:	7063      	strb	r3, [r4, #1]
 800070c:	78e2      	ldrb	r2, [r4, #3]
 800070e:	78a3      	ldrb	r3, [r4, #2]
 8000710:	70e3      	strb	r3, [r4, #3]
 8000712:	70a2      	strb	r2, [r4, #2]
 8000714:	7923      	ldrb	r3, [r4, #4]
 8000716:	7962      	ldrb	r2, [r4, #5]
 8000718:	7122      	strb	r2, [r4, #4]
 800071a:	7163      	strb	r3, [r4, #5]
 800071c:	b004      	add	sp, #16
 800071e:	bd70      	pop	{r4, r5, r6, pc}
 8000720:	08005540 	.word	0x08005540
 8000724:	2000000a 	.word	0x2000000a

08000728 <sendCAN_TxMessage>:
 8000728:	b510      	push	{r4, lr}
 800072a:	b086      	sub	sp, #24
 800072c:	f8bd 4020 	ldrh.w	r4, [sp, #32]
 8000730:	9400      	str	r4, [sp, #0]
 8000732:	9104      	str	r1, [sp, #16]
 8000734:	2400      	movs	r4, #0
 8000736:	4669      	mov	r1, sp
 8000738:	e9cd 4402 	strd	r4, r4, [sp, #8]
 800073c:	f88d 4014 	strb.w	r4, [sp, #20]
 8000740:	f001 feef 	bl	8002522 <HAL_CAN_AddTxMessage>
 8000744:	b006      	add	sp, #24
 8000746:	bd10      	pop	{r4, pc}

08000748 <check_status_register>:
 8000748:	b57f      	push	{r0, r1, r2, r3, r4, r5, r6, lr}
 800074a:	ab02      	add	r3, sp, #8
 800074c:	e883 0006 	stmia.w	r3, {r1, r2}
 8000750:	2300      	movs	r3, #0
 8000752:	f88d 3017 	strb.w	r3, [sp, #23]
 8000756:	f8bd 300c 	ldrh.w	r3, [sp, #12]
 800075a:	9300      	str	r3, [sp, #0]
 800075c:	f10d 0217 	add.w	r2, sp, #23
 8000760:	460b      	mov	r3, r1
 8000762:	4601      	mov	r1, r0
 8000764:	4803      	ldr	r0, [pc, #12]	@ (8000774 <check_status_register+0x2c>)
 8000766:	f001 f985 	bl	8001a74 <spi_sendOp_readByte>
 800076a:	f89d 0017 	ldrb.w	r0, [sp, #23]
 800076e:	b007      	add	sp, #28
 8000770:	f85d fb04 	ldr.w	pc, [sp], #4
 8000774:	20000015 	.word	0x20000015

08000778 <check_busy>:
 8000778:	e92d 41f3 	stmdb	sp!, {r0, r1, r4, r5, r6, r7, r8, lr}
 800077c:	466d      	mov	r5, sp
 800077e:	e885 0006 	stmia.w	r5, {r1, r2}
 8000782:	4607      	mov	r7, r0
 8000784:	4698      	mov	r8, r3
 8000786:	f001 fd85 	bl	8002294 <HAL_GetTick>
 800078a:	4606      	mov	r6, r0
 800078c:	e895 0006 	ldmia.w	r5, {r1, r2}
 8000790:	4638      	mov	r0, r7
 8000792:	f7ff ffd9 	bl	8000748 <check_status_register>
 8000796:	f000 0401 	and.w	r4, r0, #1
 800079a:	f001 fd7b 	bl	8002294 <HAL_GetTick>
 800079e:	1b80      	subs	r0, r0, r6
 80007a0:	4540      	cmp	r0, r8
 80007a2:	d205      	bcs.n	80007b0 <check_busy+0x38>
 80007a4:	2c00      	cmp	r4, #0
 80007a6:	d1f1      	bne.n	800078c <check_busy+0x14>
 80007a8:	4620      	mov	r0, r4
 80007aa:	b002      	add	sp, #8
 80007ac:	e8bd 81f0 	ldmia.w	sp!, {r4, r5, r6, r7, r8, pc}
 80007b0:	2401      	movs	r4, #1
 80007b2:	e7f9      	b.n	80007a8 <check_busy+0x30>

080007b4 <write_enable_spi>:
 80007b4:	b082      	sub	sp, #8
 80007b6:	ab02      	add	r3, sp, #8
 80007b8:	e903 0006 	stmdb	r3, {r1, r2}
 80007bc:	460a      	mov	r2, r1
 80007be:	f8bd 3004 	ldrh.w	r3, [sp, #4]
 80007c2:	4601      	mov	r1, r0
 80007c4:	4801      	ldr	r0, [pc, #4]	@ (80007cc <write_enable_spi+0x18>)
 80007c6:	b002      	add	sp, #8
 80007c8:	f001 b976 	b.w	8001ab8 <perform_operation>
 80007cc:	20000017 	.word	0x20000017

080007d0 <erase_chip_spi>:
 80007d0:	b537      	push	{r0, r1, r2, r4, r5, lr}
 80007d2:	466c      	mov	r4, sp
 80007d4:	e884 0006 	stmia.w	r4, {r1, r2}
 80007d8:	4605      	mov	r5, r0
 80007da:	e894 0006 	ldmia.w	r4, {r1, r2}
 80007de:	2305      	movs	r3, #5
 80007e0:	f7ff ffca 	bl	8000778 <check_busy>
 80007e4:	e894 0006 	ldmia.w	r4, {r1, r2}
 80007e8:	4628      	mov	r0, r5
 80007ea:	f7ff ffe3 	bl	80007b4 <write_enable_spi>
 80007ee:	f8bd 3004 	ldrh.w	r3, [sp, #4]
 80007f2:	9a00      	ldr	r2, [sp, #0]
 80007f4:	4806      	ldr	r0, [pc, #24]	@ (8000810 <erase_chip_spi+0x40>)
 80007f6:	4629      	mov	r1, r5
 80007f8:	f001 f95e 	bl	8001ab8 <perform_operation>
 80007fc:	e894 0006 	ldmia.w	r4, {r1, r2}
 8000800:	4b04      	ldr	r3, [pc, #16]	@ (8000814 <erase_chip_spi+0x44>)
 8000802:	4628      	mov	r0, r5
 8000804:	f7ff ffb8 	bl	8000778 <check_busy>
 8000808:	2000      	movs	r0, #0
 800080a:	b003      	add	sp, #12
 800080c:	bd30      	pop	{r4, r5, pc}
 800080e:	bf00      	nop
 8000810:	20000012 	.word	0x20000012
 8000814:	00030d40 	.word	0x00030d40

08000818 <software_reset>:
 8000818:	b5f7      	push	{r0, r1, r2, r4, r5, r6, r7, lr}
 800081a:	466d      	mov	r5, sp
 800081c:	e885 0006 	stmia.w	r5, {r1, r2}
 8000820:	f8bd 7004 	ldrh.w	r7, [sp, #4]
 8000824:	4604      	mov	r4, r0
 8000826:	460e      	mov	r6, r1
 8000828:	2305      	movs	r3, #5
 800082a:	e895 0006 	ldmia.w	r5, {r1, r2}
 800082e:	f7ff ffa3 	bl	8000778 <check_busy>
 8000832:	463b      	mov	r3, r7
 8000834:	4632      	mov	r2, r6
 8000836:	4621      	mov	r1, r4
 8000838:	4807      	ldr	r0, [pc, #28]	@ (8000858 <software_reset+0x40>)
 800083a:	f001 f93d 	bl	8001ab8 <perform_operation>
 800083e:	463b      	mov	r3, r7
 8000840:	4632      	mov	r2, r6
 8000842:	4621      	mov	r1, r4
 8000844:	4805      	ldr	r0, [pc, #20]	@ (800085c <software_reset+0x44>)
 8000846:	f001 f937 	bl	8001ab8 <perform_operation>
 800084a:	2005      	movs	r0, #5
 800084c:	b003      	add	sp, #12
 800084e:	e8bd 40f0 	ldmia.w	sp!, {r4, r5, r6, r7, lr}
 8000852:	f001 bd25 	b.w	80022a0 <HAL_Delay>
 8000856:	bf00      	nop
 8000858:	20000011 	.word	0x20000011
 800085c:	20000010 	.word	0x20000010

08000860 <write_data_spi_dma>:
 8000860:	b082      	sub	sp, #8
 8000862:	b5f0      	push	{r4, r5, r6, r7, lr}
 8000864:	b085      	sub	sp, #20
 8000866:	ac0a      	add	r4, sp, #40	@ 0x28
 8000868:	460d      	mov	r5, r1
 800086a:	f844 3f04 	str.w	r3, [r4, #4]!
 800086e:	4606      	mov	r6, r0
 8000870:	4617      	mov	r7, r2
 8000872:	2305      	movs	r3, #5
 8000874:	e894 0006 	ldmia.w	r4, {r1, r2}
 8000878:	4628      	mov	r0, r5
 800087a:	f7ff ff7d 	bl	8000778 <check_busy>
 800087e:	e894 0006 	ldmia.w	r4, {r1, r2}
 8000882:	4628      	mov	r0, r5
 8000884:	f7ff ff96 	bl	80007b4 <write_enable_spi>
 8000888:	f8bd 3030 	ldrh.w	r3, [sp, #48]	@ 0x30
 800088c:	9302      	str	r3, [sp, #8]
 800088e:	9b0b      	ldr	r3, [sp, #44]	@ 0x2c
 8000890:	4807      	ldr	r0, [pc, #28]	@ (80008b0 <write_data_spi_dma+0x50>)
 8000892:	e9cd 7300 	strd	r7, r3, [sp]
 8000896:	4632      	mov	r2, r6
 8000898:	462b      	mov	r3, r5
 800089a:	f44f 7180 	mov.w	r1, #256	@ 0x100
 800089e:	f001 f965 	bl	8001b6c <spi_write_data_dma>
 80008a2:	2000      	movs	r0, #0
 80008a4:	b005      	add	sp, #20
 80008a6:	e8bd 40f0 	ldmia.w	sp!, {r4, r5, r6, r7, lr}
 80008aa:	b002      	add	sp, #8
 80008ac:	4770      	bx	lr
 80008ae:	bf00      	nop
 80008b0:	20000016 	.word	0x20000016

080008b4 <find_next_blank_page>:
 80008b4:	e92d 41f0 	stmdb	sp!, {r4, r5, r6, r7, r8, lr}
 80008b8:	b088      	sub	sp, #32
 80008ba:	af04      	add	r7, sp, #16
 80008bc:	e887 000c 	stmia.w	r7, {r2, r3}
 80008c0:	2400      	movs	r4, #0
 80008c2:	f8df 8050 	ldr.w	r8, [pc, #80]	@ 8000914 <find_next_blank_page+0x60>
 80008c6:	9407      	str	r4, [sp, #28]
 80008c8:	4606      	mov	r6, r0
 80008ca:	460d      	mov	r5, r1
 80008cc:	e897 0006 	ldmia.w	r7, {r1, r2}
 80008d0:	2305      	movs	r3, #5
 80008d2:	4630      	mov	r0, r6
 80008d4:	f7ff ff50 	bl	8000778 <check_busy>
 80008d8:	f8bd 3014 	ldrh.w	r3, [sp, #20]
 80008dc:	9302      	str	r3, [sp, #8]
 80008de:	9b04      	ldr	r3, [sp, #16]
 80008e0:	aa07      	add	r2, sp, #28
 80008e2:	e9cd 4300 	strd	r4, r3, [sp]
 80008e6:	2104      	movs	r1, #4
 80008e8:	4633      	mov	r3, r6
 80008ea:	4640      	mov	r0, r8
 80008ec:	f001 f8fc 	bl	8001ae8 <spi_read_data>
 80008f0:	9b07      	ldr	r3, [sp, #28]
 80008f2:	3301      	adds	r3, #1
 80008f4:	4620      	mov	r0, r4
 80008f6:	f504 7480 	add.w	r4, r4, #256	@ 0x100
 80008fa:	d1e7      	bne.n	80008cc <find_next_blank_page+0x18>
 80008fc:	4b04      	ldr	r3, [pc, #16]	@ (8000910 <find_next_blank_page+0x5c>)
 80008fe:	4298      	cmp	r0, r3
 8000900:	d103      	bne.n	800090a <find_next_blank_page+0x56>
 8000902:	782b      	ldrb	r3, [r5, #0]
 8000904:	b90b      	cbnz	r3, 800090a <find_next_blank_page+0x56>
 8000906:	2301      	movs	r3, #1
 8000908:	702b      	strb	r3, [r5, #0]
 800090a:	b008      	add	sp, #32
 800090c:	e8bd 81f0 	ldmia.w	sp!, {r4, r5, r6, r7, r8, pc}
 8000910:	00ffff00 	.word	0x00ffff00
 8000914:	20000014 	.word	0x20000014

08000918 <read_page_spi>:
 8000918:	b082      	sub	sp, #8
 800091a:	b57f      	push	{r0, r1, r2, r3, r4, r5, r6, lr}
 800091c:	460c      	mov	r4, r1
 800091e:	a908      	add	r1, sp, #32
 8000920:	4605      	mov	r5, r0
 8000922:	f841 3f04 	str.w	r3, [r1, #4]!
 8000926:	4616      	mov	r6, r2
 8000928:	2305      	movs	r3, #5
 800092a:	c906      	ldmia	r1, {r1, r2}
 800092c:	4620      	mov	r0, r4
 800092e:	f7ff ff23 	bl	8000778 <check_busy>
 8000932:	f8bd 3028 	ldrh.w	r3, [sp, #40]	@ 0x28
 8000936:	9302      	str	r3, [sp, #8]
 8000938:	9b09      	ldr	r3, [sp, #36]	@ 0x24
 800093a:	4807      	ldr	r0, [pc, #28]	@ (8000958 <read_page_spi+0x40>)
 800093c:	e9cd 6300 	strd	r6, r3, [sp]
 8000940:	462a      	mov	r2, r5
 8000942:	4623      	mov	r3, r4
 8000944:	f44f 7180 	mov.w	r1, #256	@ 0x100
 8000948:	f001 f8ce 	bl	8001ae8 <spi_read_data>
 800094c:	b004      	add	sp, #16
 800094e:	e8bd 4070 	ldmia.w	sp!, {r4, r5, r6, lr}
 8000952:	b002      	add	sp, #8
 8000954:	4770      	bx	lr
 8000956:	bf00      	nop
 8000958:	20000014 	.word	0x20000014

0800095c <read_manufacturer_id>:
 800095c:	b530      	push	{r4, r5, lr}
 800095e:	b087      	sub	sp, #28
 8000960:	460c      	mov	r4, r1
 8000962:	a904      	add	r1, sp, #16
 8000964:	e881 000c 	stmia.w	r1, {r2, r3}
 8000968:	4605      	mov	r5, r0
 800096a:	c906      	ldmia	r1, {r1, r2}
 800096c:	2305      	movs	r3, #5
 800096e:	4620      	mov	r0, r4
 8000970:	f7ff ff02 	bl	8000778 <check_busy>
 8000974:	f8bd 3014 	ldrh.w	r3, [sp, #20]
 8000978:	9302      	str	r3, [sp, #8]
 800097a:	9b04      	ldr	r3, [sp, #16]
 800097c:	9301      	str	r3, [sp, #4]
 800097e:	2300      	movs	r3, #0
 8000980:	9300      	str	r3, [sp, #0]
 8000982:	462a      	mov	r2, r5
 8000984:	4623      	mov	r3, r4
 8000986:	2102      	movs	r1, #2
 8000988:	4802      	ldr	r0, [pc, #8]	@ (8000994 <read_manufacturer_id+0x38>)
 800098a:	f001 f8ad 	bl	8001ae8 <spi_read_data>
 800098e:	b007      	add	sp, #28
 8000990:	bd30      	pop	{r4, r5, pc}
 8000992:	bf00      	nop
 8000994:	20000013 	.word	0x20000013

08000998 <create_GPIO_Config>:
 8000998:	6001      	str	r1, [r0, #0]
 800099a:	8082      	strh	r2, [r0, #4]
 800099c:	4770      	bx	lr

0800099e <i2c_read_reg>:
 800099e:	b5f7      	push	{r0, r1, r2, r4, r5, r6, r7, lr}
 80009a0:	4614      	mov	r4, r2
 80009a2:	2501      	movs	r5, #1
 80009a4:	0064      	lsls	r4, r4, #1
 80009a6:	4606      	mov	r6, r0
 80009a8:	460f      	mov	r7, r1
 80009aa:	461a      	mov	r2, r3
 80009ac:	f004 01fe 	and.w	r1, r4, #254	@ 0xfe
 80009b0:	462b      	mov	r3, r5
 80009b2:	9500      	str	r5, [sp, #0]
 80009b4:	f002 fcb0 	bl	8003318 <HAL_I2C_Master_Transmit>
 80009b8:	9500      	str	r5, [sp, #0]
 80009ba:	462b      	mov	r3, r5
 80009bc:	463a      	mov	r2, r7
 80009be:	ea44 0105 	orr.w	r1, r4, r5
 80009c2:	4630      	mov	r0, r6
 80009c4:	f002 fd82 	bl	80034cc <HAL_I2C_Master_Receive>
 80009c8:	b003      	add	sp, #12
 80009ca:	bdf0      	pop	{r4, r5, r6, r7, pc}

080009cc <i2c_burst_read>:
 80009cc:	b57f      	push	{r0, r1, r2, r3, r4, r5, r6, lr}
 80009ce:	461e      	mov	r6, r3
 80009d0:	004c      	lsls	r4, r1, #1
 80009d2:	2301      	movs	r3, #1
 80009d4:	f062 027f 	orn	r2, r2, #127	@ 0x7f
 80009d8:	f88d 200f 	strb.w	r2, [sp, #15]
 80009dc:	9300      	str	r3, [sp, #0]
 80009de:	f10d 020f 	add.w	r2, sp, #15
 80009e2:	f004 01fe 	and.w	r1, r4, #254	@ 0xfe
 80009e6:	4605      	mov	r5, r0
 80009e8:	f002 fc96 	bl	8003318 <HAL_I2C_Master_Transmit>
 80009ec:	230a      	movs	r3, #10
 80009ee:	9300      	str	r3, [sp, #0]
 80009f0:	9a08      	ldr	r2, [sp, #32]
 80009f2:	4633      	mov	r3, r6
 80009f4:	f044 0101 	orr.w	r1, r4, #1
 80009f8:	4628      	mov	r0, r5
 80009fa:	f002 fd67 	bl	80034cc <HAL_I2C_Master_Receive>
 80009fe:	b004      	add	sp, #16
 8000a00:	bd70      	pop	{r4, r5, r6, pc}

08000a02 <i2c_write_reg>:
 8000a02:	b51f      	push	{r0, r1, r2, r3, r4, lr}
 8000a04:	0049      	lsls	r1, r1, #1
 8000a06:	7812      	ldrb	r2, [r2, #0]
 8000a08:	f88d 300d 	strb.w	r3, [sp, #13]
 8000a0c:	2301      	movs	r3, #1
 8000a0e:	f88d 200c 	strb.w	r2, [sp, #12]
 8000a12:	9300      	str	r3, [sp, #0]
 8000a14:	aa03      	add	r2, sp, #12
 8000a16:	2302      	movs	r3, #2
 8000a18:	f001 01fe 	and.w	r1, r1, #254	@ 0xfe
 8000a1c:	f002 fc7c 	bl	8003318 <HAL_I2C_Master_Transmit>
 8000a20:	b005      	add	sp, #20
 8000a22:	f85d fb04 	ldr.w	pc, [sp], #4
	...

08000a28 <SystemClock_Config>:
 8000a28:	b530      	push	{r4, r5, lr}
 8000a2a:	2400      	movs	r4, #0
 8000a2c:	b095      	sub	sp, #84	@ 0x54
 8000a2e:	2214      	movs	r2, #20
 8000a30:	4621      	mov	r1, r4
 8000a32:	a803      	add	r0, sp, #12
 8000a34:	e9cd 4409 	strd	r4, r4, [sp, #36]	@ 0x24
 8000a38:	f004 fd4a 	bl	80054d0 <memset>
 8000a3c:	4b1f      	ldr	r3, [pc, #124]	@ (8000abc <SystemClock_Config+0x94>)
 8000a3e:	9401      	str	r4, [sp, #4]
 8000a40:	6c1a      	ldr	r2, [r3, #64]	@ 0x40
 8000a42:	f042 5280 	orr.w	r2, r2, #268435456	@ 0x10000000
 8000a46:	641a      	str	r2, [r3, #64]	@ 0x40
 8000a48:	6c1b      	ldr	r3, [r3, #64]	@ 0x40
 8000a4a:	f003 5380 	and.w	r3, r3, #268435456	@ 0x10000000
 8000a4e:	9301      	str	r3, [sp, #4]
 8000a50:	9b01      	ldr	r3, [sp, #4]
 8000a52:	4b1b      	ldr	r3, [pc, #108]	@ (8000ac0 <SystemClock_Config+0x98>)
 8000a54:	9402      	str	r4, [sp, #8]
 8000a56:	681a      	ldr	r2, [r3, #0]
 8000a58:	f442 4240 	orr.w	r2, r2, #49152	@ 0xc000
 8000a5c:	601a      	str	r2, [r3, #0]
 8000a5e:	681b      	ldr	r3, [r3, #0]
 8000a60:	f403 4340 	and.w	r3, r3, #49152	@ 0xc000
 8000a64:	9302      	str	r3, [sp, #8]
 8000a66:	9b02      	ldr	r3, [sp, #8]
 8000a68:	230a      	movs	r3, #10
 8000a6a:	2201      	movs	r2, #1
 8000a6c:	9308      	str	r3, [sp, #32]
 8000a6e:	2310      	movs	r3, #16
 8000a70:	2502      	movs	r5, #2
 8000a72:	e9cd 230b 	strd	r2, r3, [sp, #44]	@ 0x2c
 8000a76:	9310      	str	r3, [sp, #64]	@ 0x40
 8000a78:	f44f 73a8 	mov.w	r3, #336	@ 0x150
 8000a7c:	e9cd 3511 	strd	r3, r5, [sp, #68]	@ 0x44
 8000a80:	a808      	add	r0, sp, #32
 8000a82:	2304      	movs	r3, #4
 8000a84:	e9cd 540e 	strd	r5, r4, [sp, #56]	@ 0x38
 8000a88:	920d      	str	r2, [sp, #52]	@ 0x34
 8000a8a:	9313      	str	r3, [sp, #76]	@ 0x4c
 8000a8c:	f002 fef2 	bl	8003874 <HAL_RCC_OscConfig>
 8000a90:	b108      	cbz	r0, 8000a96 <SystemClock_Config+0x6e>
 8000a92:	b672      	cpsid	i
 8000a94:	e7fe      	b.n	8000a94 <SystemClock_Config+0x6c>
 8000a96:	230f      	movs	r3, #15
 8000a98:	e9cd 3503 	strd	r3, r5, [sp, #12]
 8000a9c:	9005      	str	r0, [sp, #20]
 8000a9e:	f44f 52a0 	mov.w	r2, #5120	@ 0x1400
 8000aa2:	f44f 5380 	mov.w	r3, #4096	@ 0x1000
 8000aa6:	2105      	movs	r1, #5
 8000aa8:	a803      	add	r0, sp, #12
 8000aaa:	e9cd 2306 	strd	r2, r3, [sp, #24]
 8000aae:	f003 f8bd 	bl	8003c2c <HAL_RCC_ClockConfig>
 8000ab2:	b108      	cbz	r0, 8000ab8 <SystemClock_Config+0x90>
 8000ab4:	b672      	cpsid	i
 8000ab6:	e7fe      	b.n	8000ab6 <SystemClock_Config+0x8e>
 8000ab8:	b015      	add	sp, #84	@ 0x54
 8000aba:	bd30      	pop	{r4, r5, pc}
 8000abc:	40023800 	.word	0x40023800
 8000ac0:	40007000 	.word	0x40007000

08000ac4 <clean_data_buffer>:
 8000ac4:	4602      	mov	r2, r0
 8000ac6:	4608      	mov	r0, r1
 8000ac8:	21ff      	movs	r1, #255	@ 0xff
 8000aca:	f004 bd01 	b.w	80054d0 <memset>
	...

08000ad0 <gpio_set_config>:
 8000ad0:	b5f7      	push	{r0, r1, r2, r4, r5, r6, r7, lr}
 8000ad2:	4d2c      	ldr	r5, [pc, #176]	@ (8000b84 <gpio_set_config+0xb4>)
 8000ad4:	4e2c      	ldr	r6, [pc, #176]	@ (8000b88 <gpio_set_config+0xb8>)
 8000ad6:	4f2d      	ldr	r7, [pc, #180]	@ (8000b8c <gpio_set_config+0xbc>)
 8000ad8:	466c      	mov	r4, sp
 8000ada:	4629      	mov	r1, r5
 8000adc:	4620      	mov	r0, r4
 8000ade:	f44f 4280 	mov.w	r2, #16384	@ 0x4000
 8000ae2:	f7ff ff59 	bl	8000998 <create_GPIO_Config>
 8000ae6:	e894 0003 	ldmia.w	r4, {r0, r1}
 8000aea:	f44f 5200 	mov.w	r2, #8192	@ 0x2000
 8000aee:	e886 0003 	stmia.w	r6, {r0, r1}
 8000af2:	4629      	mov	r1, r5
 8000af4:	4620      	mov	r0, r4
 8000af6:	f7ff ff4f 	bl	8000998 <create_GPIO_Config>
 8000afa:	e894 0003 	ldmia.w	r4, {r0, r1}
 8000afe:	4e24      	ldr	r6, [pc, #144]	@ (8000b90 <gpio_set_config+0xc0>)
 8000b00:	f44f 5280 	mov.w	r2, #4096	@ 0x1000
 8000b04:	e886 0003 	stmia.w	r6, {r0, r1}
 8000b08:	4629      	mov	r1, r5
 8000b0a:	4620      	mov	r0, r4
 8000b0c:	f7ff ff44 	bl	8000998 <create_GPIO_Config>
 8000b10:	e894 0003 	ldmia.w	r4, {r0, r1}
 8000b14:	4e1f      	ldr	r6, [pc, #124]	@ (8000b94 <gpio_set_config+0xc4>)
 8000b16:	e886 0003 	stmia.w	r6, {r0, r1}
 8000b1a:	4e1f      	ldr	r6, [pc, #124]	@ (8000b98 <gpio_set_config+0xc8>)
 8000b1c:	4620      	mov	r0, r4
 8000b1e:	4631      	mov	r1, r6
 8000b20:	2210      	movs	r2, #16
 8000b22:	f7ff ff39 	bl	8000998 <create_GPIO_Config>
 8000b26:	e894 0003 	ldmia.w	r4, {r0, r1}
 8000b2a:	2210      	movs	r2, #16
 8000b2c:	e887 0003 	stmia.w	r7, {r0, r1}
 8000b30:	4620      	mov	r0, r4
 8000b32:	491a      	ldr	r1, [pc, #104]	@ (8000b9c <gpio_set_config+0xcc>)
 8000b34:	4f1a      	ldr	r7, [pc, #104]	@ (8000ba0 <gpio_set_config+0xd0>)
 8000b36:	f7ff ff2f 	bl	8000998 <create_GPIO_Config>
 8000b3a:	e894 0003 	ldmia.w	r4, {r0, r1}
 8000b3e:	2202      	movs	r2, #2
 8000b40:	e887 0003 	stmia.w	r7, {r0, r1}
 8000b44:	4631      	mov	r1, r6
 8000b46:	4620      	mov	r0, r4
 8000b48:	f7ff ff26 	bl	8000998 <create_GPIO_Config>
 8000b4c:	e894 0003 	ldmia.w	r4, {r0, r1}
 8000b50:	4f14      	ldr	r7, [pc, #80]	@ (8000ba4 <gpio_set_config+0xd4>)
 8000b52:	2201      	movs	r2, #1
 8000b54:	e887 0003 	stmia.w	r7, {r0, r1}
 8000b58:	4631      	mov	r1, r6
 8000b5a:	4620      	mov	r0, r4
 8000b5c:	f7ff ff1c 	bl	8000998 <create_GPIO_Config>
 8000b60:	e894 0003 	ldmia.w	r4, {r0, r1}
 8000b64:	4f10      	ldr	r7, [pc, #64]	@ (8000ba8 <gpio_set_config+0xd8>)
 8000b66:	4e11      	ldr	r6, [pc, #68]	@ (8000bac <gpio_set_config+0xdc>)
 8000b68:	e887 0003 	stmia.w	r7, {r0, r1}
 8000b6c:	2202      	movs	r2, #2
 8000b6e:	4629      	mov	r1, r5
 8000b70:	4620      	mov	r0, r4
 8000b72:	f7ff ff11 	bl	8000998 <create_GPIO_Config>
 8000b76:	e894 0003 	ldmia.w	r4, {r0, r1}
 8000b7a:	e886 0003 	stmia.w	r6, {r0, r1}
 8000b7e:	b003      	add	sp, #12
 8000b80:	bdf0      	pop	{r4, r5, r6, r7, pc}
 8000b82:	bf00      	nop
 8000b84:	40020400 	.word	0x40020400
 8000b88:	20000080 	.word	0x20000080
 8000b8c:	20000068 	.word	0x20000068
 8000b90:	20000078 	.word	0x20000078
 8000b94:	20000070 	.word	0x20000070
 8000b98:	40020800 	.word	0x40020800
 8000b9c:	40020000 	.word	0x40020000
 8000ba0:	20000060 	.word	0x20000060
 8000ba4:	20000058 	.word	0x20000058
 8000ba8:	20000050 	.word	0x20000050
 8000bac:	20000048 	.word	0x20000048

08000bb0 <decodeASCII>:
 8000bb0:	3830      	subs	r0, #48	@ 0x30
 8000bb2:	b2c3      	uxtb	r3, r0
 8000bb4:	2b09      	cmp	r3, #9
 8000bb6:	bf88      	it	hi
 8000bb8:	f04f 30ff 	movhi.w	r0, #4294967295	@ 0xffffffff
 8000bbc:	b2c0      	uxtb	r0, r0
 8000bbe:	4770      	bx	lr

08000bc0 <combine_system_status>:
 8000bc0:	4b04      	ldr	r3, [pc, #16]	@ (8000bd4 <combine_system_status+0x14>)
 8000bc2:	7818      	ldrb	r0, [r3, #0]
 8000bc4:	4b04      	ldr	r3, [pc, #16]	@ (8000bd8 <combine_system_status+0x18>)
 8000bc6:	781b      	ldrb	r3, [r3, #0]
 8000bc8:	f000 001f 	and.w	r0, r0, #31
 8000bcc:	ea40 1043 	orr.w	r0, r0, r3, lsl #5
 8000bd0:	b2c0      	uxtb	r0, r0
 8000bd2:	4770      	bx	lr
 8000bd4:	20000046 	.word	0x20000046
 8000bd8:	20000045 	.word	0x20000045

08000bdc <handleCAN>:
 8000bdc:	b51f      	push	{r0, r1, r2, r3, r4, lr}
 8000bde:	4b27      	ldr	r3, [pc, #156]	@ (8000c7c <handleCAN+0xa0>)
 8000be0:	681b      	ldr	r3, [r3, #0]
 8000be2:	f240 72ff 	movw	r2, #2047	@ 0x7ff
 8000be6:	4293      	cmp	r3, r2
 8000be8:	d10c      	bne.n	8000c04 <handleCAN+0x28>
 8000bea:	4a25      	ldr	r2, [pc, #148]	@ (8000c80 <handleCAN+0xa4>)
 8000bec:	2101      	movs	r1, #1
 8000bee:	7011      	strb	r1, [r2, #0]
 8000bf0:	2200      	movs	r2, #0
 8000bf2:	9300      	str	r3, [sp, #0]
 8000bf4:	4b23      	ldr	r3, [pc, #140]	@ (8000c84 <handleCAN+0xa8>)
 8000bf6:	f88d 200c 	strb.w	r2, [sp, #12]
 8000bfa:	aa03      	add	r2, sp, #12
 8000bfc:	4822      	ldr	r0, [pc, #136]	@ (8000c88 <handleCAN+0xac>)
 8000bfe:	f7ff fd93 	bl	8000728 <sendCAN_TxMessage>
 8000c02:	e011      	b.n	8000c28 <handleCAN+0x4c>
 8000c04:	f240 5204 	movw	r2, #1284	@ 0x504
 8000c08:	4293      	cmp	r3, r2
 8000c0a:	d80a      	bhi.n	8000c22 <handleCAN+0x46>
 8000c0c:	f5b3 6fa0 	cmp.w	r3, #1280	@ 0x500
 8000c10:	d90a      	bls.n	8000c28 <handleCAN+0x4c>
 8000c12:	f2a3 5302 	subw	r3, r3, #1282	@ 0x502
 8000c16:	2b02      	cmp	r3, #2
 8000c18:	d809      	bhi.n	8000c2e <handleCAN+0x52>
 8000c1a:	e8df f003 	tbb	[pc, r3]
 8000c1e:	150f      	.short	0x150f
 8000c20:	1b          	.byte	0x1b
 8000c21:	00          	.byte	0x00
 8000c22:	f5b3 6fe0 	cmp.w	r3, #1792	@ 0x700
 8000c26:	d020      	beq.n	8000c6a <handleCAN+0x8e>
 8000c28:	b005      	add	sp, #20
 8000c2a:	f85d fb04 	ldr.w	pc, [sp], #4
 8000c2e:	f240 5301 	movw	r3, #1281	@ 0x501
 8000c32:	9300      	str	r3, [sp, #0]
 8000c34:	4a15      	ldr	r2, [pc, #84]	@ (8000c8c <handleCAN+0xb0>)
 8000c36:	4b13      	ldr	r3, [pc, #76]	@ (8000c84 <handleCAN+0xa8>)
 8000c38:	2106      	movs	r1, #6
 8000c3a:	e7df      	b.n	8000bfc <handleCAN+0x20>
 8000c3c:	f240 5302 	movw	r3, #1282	@ 0x502
 8000c40:	9300      	str	r3, [sp, #0]
 8000c42:	4a13      	ldr	r2, [pc, #76]	@ (8000c90 <handleCAN+0xb4>)
 8000c44:	4b0f      	ldr	r3, [pc, #60]	@ (8000c84 <handleCAN+0xa8>)
 8000c46:	e7f7      	b.n	8000c38 <handleCAN+0x5c>
 8000c48:	f240 5303 	movw	r3, #1283	@ 0x503
 8000c4c:	9300      	str	r3, [sp, #0]
 8000c4e:	4a11      	ldr	r2, [pc, #68]	@ (8000c94 <handleCAN+0xb8>)
 8000c50:	4b0c      	ldr	r3, [pc, #48]	@ (8000c84 <handleCAN+0xa8>)
 8000c52:	e7f1      	b.n	8000c38 <handleCAN+0x5c>
 8000c54:	f7ff ffb4 	bl	8000bc0 <combine_system_status>
 8000c58:	f240 5304 	movw	r3, #1284	@ 0x504
 8000c5c:	9300      	str	r3, [sp, #0]
 8000c5e:	f88d 000c 	strb.w	r0, [sp, #12]
 8000c62:	4b08      	ldr	r3, [pc, #32]	@ (8000c84 <handleCAN+0xa8>)
 8000c64:	aa03      	add	r2, sp, #12
 8000c66:	2101      	movs	r1, #1
 8000c68:	e7c8      	b.n	8000bfc <handleCAN+0x20>
 8000c6a:	4b0b      	ldr	r3, [pc, #44]	@ (8000c98 <handleCAN+0xbc>)
 8000c6c:	480b      	ldr	r0, [pc, #44]	@ (8000c9c <handleCAN+0xc0>)
 8000c6e:	7819      	ldrb	r1, [r3, #0]
 8000c70:	b005      	add	sp, #20
 8000c72:	f85d eb04 	ldr.w	lr, [sp], #4
 8000c76:	f001 ba8c 	b.w	8002192 <send_uart_hex>
 8000c7a:	bf00      	nop
 8000c7c:	200002b0 	.word	0x200002b0
 8000c80:	20000045 	.word	0x20000045
 8000c84:	200002cc 	.word	0x200002cc
 8000c88:	200005ec 	.word	0x200005ec
 8000c8c:	20000097 	.word	0x20000097
 8000c90:	20000091 	.word	0x20000091
 8000c94:	2000009d 	.word	0x2000009d
 8000c98:	20000046 	.word	0x20000046
 8000c9c:	200002dc 	.word	0x200002dc

08000ca0 <configureCAN>:
 8000ca0:	b500      	push	{lr}
 8000ca2:	2300      	movs	r3, #0
 8000ca4:	b08b      	sub	sp, #44	@ 0x2c
 8000ca6:	210a      	movs	r1, #10
 8000ca8:	e9cd 3104 	strd	r3, r1, [sp, #16]
 8000cac:	f44f 4120 	mov.w	r1, #40960	@ 0xa000
 8000cb0:	2201      	movs	r2, #1
 8000cb2:	e9cd 1300 	strd	r1, r3, [sp]
 8000cb6:	e9cd 1302 	strd	r1, r3, [sp, #8]
 8000cba:	4805      	ldr	r0, [pc, #20]	@ (8000cd0 <configureCAN+0x30>)
 8000cbc:	9208      	str	r2, [sp, #32]
 8000cbe:	4669      	mov	r1, sp
 8000cc0:	e9cd 3206 	strd	r3, r2, [sp, #24]
 8000cc4:	9309      	str	r3, [sp, #36]	@ 0x24
 8000cc6:	f001 fb7b 	bl	80023c0 <HAL_CAN_ConfigFilter>
 8000cca:	b00b      	add	sp, #44	@ 0x2c
 8000ccc:	f85d fb04 	ldr.w	pc, [sp], #4
 8000cd0:	200005ec 	.word	0x200005ec

08000cd4 <find_next_blank_page_all>:
 8000cd4:	b538      	push	{r3, r4, r5, lr}
 8000cd6:	4d0a      	ldr	r5, [pc, #40]	@ (8000d00 <find_next_blank_page_all+0x2c>)
 8000cd8:	4b0a      	ldr	r3, [pc, #40]	@ (8000d04 <find_next_blank_page_all+0x30>)
 8000cda:	480b      	ldr	r0, [pc, #44]	@ (8000d08 <find_next_blank_page_all+0x34>)
 8000cdc:	cb0c      	ldmia	r3, {r2, r3}
 8000cde:	4629      	mov	r1, r5
 8000ce0:	f7ff fde8 	bl	80008b4 <find_next_blank_page>
 8000ce4:	4b09      	ldr	r3, [pc, #36]	@ (8000d0c <find_next_blank_page_all+0x38>)
 8000ce6:	4604      	mov	r4, r0
 8000ce8:	cb0c      	ldmia	r3, {r2, r3}
 8000cea:	4629      	mov	r1, r5
 8000cec:	4808      	ldr	r0, [pc, #32]	@ (8000d10 <find_next_blank_page_all+0x3c>)
 8000cee:	f7ff fde1 	bl	80008b4 <find_next_blank_page>
 8000cf2:	4b08      	ldr	r3, [pc, #32]	@ (8000d14 <find_next_blank_page_all+0x40>)
 8000cf4:	42a0      	cmp	r0, r4
 8000cf6:	bfb8      	it	lt
 8000cf8:	4620      	movlt	r0, r4
 8000cfa:	6018      	str	r0, [r3, #0]
 8000cfc:	bd38      	pop	{r3, r4, r5, pc}
 8000cfe:	bf00      	nop
 8000d00:	20000088 	.word	0x20000088
 8000d04:	20000068 	.word	0x20000068
 8000d08:	200004cc 	.word	0x200004cc
 8000d0c:	20000058 	.word	0x20000058
 8000d10:	20000474 	.word	0x20000474
 8000d14:	2000008c 	.word	0x2000008c

08000d18 <systemInit>:
 8000d18:	e92d 43f8 	stmdb	sp!, {r3, r4, r5, r6, r7, r8, r9, lr}
 8000d1c:	f8df 81a8 	ldr.w	r8, [pc, #424]	@ 8000ec8 <systemInit+0x1b0>
 8000d20:	4d4a      	ldr	r5, [pc, #296]	@ (8000e4c <systemInit+0x134>)
 8000d22:	4b4b      	ldr	r3, [pc, #300]	@ (8000e50 <systemInit+0x138>)
 8000d24:	f8c8 3000 	str.w	r3, [r8]
 8000d28:	4b4a      	ldr	r3, [pc, #296]	@ (8000e54 <systemInit+0x13c>)
 8000d2a:	602b      	str	r3, [r5, #0]
 8000d2c:	f7ff ffb8 	bl	8000ca0 <configureCAN>
 8000d30:	4b49      	ldr	r3, [pc, #292]	@ (8000e58 <systemInit+0x140>)
 8000d32:	494a      	ldr	r1, [pc, #296]	@ (8000e5c <systemInit+0x144>)
 8000d34:	4f4a      	ldr	r7, [pc, #296]	@ (8000e60 <systemInit+0x148>)
 8000d36:	4e4b      	ldr	r6, [pc, #300]	@ (8000e64 <systemInit+0x14c>)
 8000d38:	f8df 9190 	ldr.w	r9, [pc, #400]	@ 8000ecc <systemInit+0x1b4>
 8000d3c:	2400      	movs	r4, #0
 8000d3e:	601c      	str	r4, [r3, #0]
 8000d40:	4b49      	ldr	r3, [pc, #292]	@ (8000e68 <systemInit+0x150>)
 8000d42:	2008      	movs	r0, #8
 8000d44:	701c      	strb	r4, [r3, #0]
 8000d46:	f7ff febd 	bl	8000ac4 <clean_data_buffer>
 8000d4a:	f7ff fec1 	bl	8000ad0 <gpio_set_config>
 8000d4e:	4b47      	ldr	r3, [pc, #284]	@ (8000e6c <systemInit+0x154>)
 8000d50:	4622      	mov	r2, r4
 8000d52:	8899      	ldrh	r1, [r3, #4]
 8000d54:	6818      	ldr	r0, [r3, #0]
 8000d56:	f002 f8f9 	bl	8002f4c <HAL_GPIO_WritePin>
 8000d5a:	4b45      	ldr	r3, [pc, #276]	@ (8000e70 <systemInit+0x158>)
 8000d5c:	4622      	mov	r2, r4
 8000d5e:	8899      	ldrh	r1, [r3, #4]
 8000d60:	6818      	ldr	r0, [r3, #0]
 8000d62:	f002 f8f3 	bl	8002f4c <HAL_GPIO_WritePin>
 8000d66:	88b9      	ldrh	r1, [r7, #4]
 8000d68:	6838      	ldr	r0, [r7, #0]
 8000d6a:	2201      	movs	r2, #1
 8000d6c:	f002 f8ee 	bl	8002f4c <HAL_GPIO_WritePin>
 8000d70:	2201      	movs	r2, #1
 8000d72:	88b1      	ldrh	r1, [r6, #4]
 8000d74:	6830      	ldr	r0, [r6, #0]
 8000d76:	f002 f8e9 	bl	8002f4c <HAL_GPIO_WritePin>
 8000d7a:	4649      	mov	r1, r9
 8000d7c:	f44f 7080 	mov.w	r0, #256	@ 0x100
 8000d80:	f7ff fea0 	bl	8000ac4 <clean_data_buffer>
 8000d84:	f509 7180 	add.w	r1, r9, #256	@ 0x100
 8000d88:	f44f 7080 	mov.w	r0, #256	@ 0x100
 8000d8c:	f7ff fe9a 	bl	8000ac4 <clean_data_buffer>
 8000d90:	4b38      	ldr	r3, [pc, #224]	@ (8000e74 <systemInit+0x15c>)
 8000d92:	f8d8 0000 	ldr.w	r0, [r8]
 8000d96:	601c      	str	r4, [r3, #0]
 8000d98:	809c      	strh	r4, [r3, #4]
 8000d9a:	4b37      	ldr	r3, [pc, #220]	@ (8000e78 <systemInit+0x160>)
 8000d9c:	f8df 9130 	ldr.w	r9, [pc, #304]	@ 8000ed0 <systemInit+0x1b8>
 8000da0:	601c      	str	r4, [r3, #0]
 8000da2:	809c      	strh	r4, [r3, #4]
 8000da4:	4b35      	ldr	r3, [pc, #212]	@ (8000e7c <systemInit+0x164>)
 8000da6:	601c      	str	r4, [r3, #0]
 8000da8:	809c      	strh	r4, [r3, #4]
 8000daa:	f7ff fbe7 	bl	800057c <init_accel>
 8000dae:	4621      	mov	r1, r4
 8000db0:	6828      	ldr	r0, [r5, #0]
 8000db2:	f7ff fc15 	bl	80005e0 <init_bme280>
 8000db6:	6828      	ldr	r0, [r5, #0]
 8000db8:	2101      	movs	r1, #1
 8000dba:	f7ff fc11 	bl	80005e0 <init_bme280>
 8000dbe:	e897 0006 	ldmia.w	r7, {r1, r2}
 8000dc2:	4f2f      	ldr	r7, [pc, #188]	@ (8000e80 <systemInit+0x168>)
 8000dc4:	4648      	mov	r0, r9
 8000dc6:	f7ff fd27 	bl	8000818 <software_reset>
 8000dca:	e896 0006 	ldmia.w	r6, {r1, r2}
 8000dce:	4638      	mov	r0, r7
 8000dd0:	f7ff fd22 	bl	8000818 <software_reset>
 8000dd4:	4b2b      	ldr	r3, [pc, #172]	@ (8000e84 <systemInit+0x16c>)
 8000dd6:	701c      	strb	r4, [r3, #0]
 8000dd8:	f7ff ff7c 	bl	8000cd4 <find_next_blank_page_all>
 8000ddc:	4b2a      	ldr	r3, [pc, #168]	@ (8000e88 <systemInit+0x170>)
 8000dde:	682a      	ldr	r2, [r5, #0]
 8000de0:	6018      	str	r0, [r3, #0]
 8000de2:	4b2a      	ldr	r3, [pc, #168]	@ (8000e8c <systemInit+0x174>)
 8000de4:	701c      	strb	r4, [r3, #0]
 8000de6:	4b2a      	ldr	r3, [pc, #168]	@ (8000e90 <systemInit+0x178>)
 8000de8:	801c      	strh	r4, [r3, #0]
 8000dea:	4b2a      	ldr	r3, [pc, #168]	@ (8000e94 <systemInit+0x17c>)
 8000dec:	701c      	strb	r4, [r3, #0]
 8000dee:	4b2a      	ldr	r3, [pc, #168]	@ (8000e98 <systemInit+0x180>)
 8000df0:	701c      	strb	r4, [r3, #0]
 8000df2:	4b2a      	ldr	r3, [pc, #168]	@ (8000e9c <systemInit+0x184>)
 8000df4:	701c      	strb	r4, [r3, #0]
 8000df6:	4b2a      	ldr	r3, [pc, #168]	@ (8000ea0 <systemInit+0x188>)
 8000df8:	701c      	strb	r4, [r3, #0]
 8000dfa:	4b2a      	ldr	r3, [pc, #168]	@ (8000ea4 <systemInit+0x18c>)
 8000dfc:	701c      	strb	r4, [r3, #0]
 8000dfe:	4b2a      	ldr	r3, [pc, #168]	@ (8000ea8 <systemInit+0x190>)
 8000e00:	4639      	mov	r1, r7
 8000e02:	701c      	strb	r4, [r3, #0]
 8000e04:	4648      	mov	r0, r9
 8000e06:	f8d8 3000 	ldr.w	r3, [r8]
 8000e0a:	4c28      	ldr	r4, [pc, #160]	@ (8000eac <systemInit+0x194>)
 8000e0c:	f000 fc1c 	bl	8001648 <systemStatus>
 8000e10:	4b27      	ldr	r3, [pc, #156]	@ (8000eb0 <systemInit+0x198>)
 8000e12:	4601      	mov	r1, r0
 8000e14:	7018      	strb	r0, [r3, #0]
 8000e16:	4620      	mov	r0, r4
 8000e18:	f001 f9bb 	bl	8002192 <send_uart_hex>
 8000e1c:	4620      	mov	r0, r4
 8000e1e:	4c25      	ldr	r4, [pc, #148]	@ (8000eb4 <systemInit+0x19c>)
 8000e20:	4925      	ldr	r1, [pc, #148]	@ (8000eb8 <systemInit+0x1a0>)
 8000e22:	2202      	movs	r2, #2
 8000e24:	f004 fb43 	bl	80054ae <HAL_UART_Receive_IT>
 8000e28:	4620      	mov	r0, r4
 8000e2a:	f001 fb4f 	bl	80024cc <HAL_CAN_Start>
 8000e2e:	2102      	movs	r1, #2
 8000e30:	4620      	mov	r0, r4
 8000e32:	f001 fc3d 	bl	80026b0 <HAL_CAN_ActivateNotification>
 8000e36:	4821      	ldr	r0, [pc, #132]	@ (8000ebc <systemInit+0x1a4>)
 8000e38:	f000 fdb2 	bl	80019a0 <initialise_rtc_default>
 8000e3c:	4820      	ldr	r0, [pc, #128]	@ (8000ec0 <systemInit+0x1a8>)
 8000e3e:	f003 fe85 	bl	8004b4c <HAL_TIM_Base_Start_IT>
 8000e42:	e8bd 43f8 	ldmia.w	sp!, {r3, r4, r5, r6, r7, r8, r9, lr}
 8000e46:	481f      	ldr	r0, [pc, #124]	@ (8000ec4 <systemInit+0x1ac>)
 8000e48:	f003 be80 	b.w	8004b4c <HAL_TIM_Base_Start_IT>
 8000e4c:	200002d4 	.word	0x200002d4
 8000e50:	20000544 	.word	0x20000544
 8000e54:	20000598 	.word	0x20000598
 8000e58:	200002cc 	.word	0x200002cc
 8000e5c:	200002a8 	.word	0x200002a8
 8000e60:	20000068 	.word	0x20000068
 8000e64:	20000058 	.word	0x20000058
 8000e68:	200002a6 	.word	0x200002a6
 8000e6c:	20000080 	.word	0x20000080
 8000e70:	20000070 	.word	0x20000070
 8000e74:	2000009d 	.word	0x2000009d
 8000e78:	20000097 	.word	0x20000097
 8000e7c:	20000091 	.word	0x20000091
 8000e80:	20000474 	.word	0x20000474
 8000e84:	20000088 	.word	0x20000088
 8000e88:	2000008c 	.word	0x2000008c
 8000e8c:	20000090 	.word	0x20000090
 8000e90:	2000008a 	.word	0x2000008a
 8000e94:	200002d0 	.word	0x200002d0
 8000e98:	200002a7 	.word	0x200002a7
 8000e9c:	200002a5 	.word	0x200002a5
 8000ea0:	200002a4 	.word	0x200002a4
 8000ea4:	20000045 	.word	0x20000045
 8000ea8:	20000047 	.word	0x20000047
 8000eac:	200002dc 	.word	0x200002dc
 8000eb0:	20000046 	.word	0x20000046
 8000eb4:	200005ec 	.word	0x200005ec
 8000eb8:	200002d1 	.word	0x200002d1
 8000ebc:	20000524 	.word	0x20000524
 8000ec0:	2000036c 	.word	0x2000036c
 8000ec4:	20000324 	.word	0x20000324
 8000ec8:	200002d8 	.word	0x200002d8
 8000ecc:	200000a4 	.word	0x200000a4
 8000ed0:	200004cc 	.word	0x200004cc

08000ed4 <handleUART>:
 8000ed4:	b530      	push	{r4, r5, lr}
 8000ed6:	4c78      	ldr	r4, [pc, #480]	@ (80010b8 <handleUART+0x1e4>)
 8000ed8:	7823      	ldrb	r3, [r4, #0]
 8000eda:	2b68      	cmp	r3, #104	@ 0x68
 8000edc:	b085      	sub	sp, #20
 8000ede:	d10c      	bne.n	8000efa <handleUART+0x26>
 8000ee0:	4876      	ldr	r0, [pc, #472]	@ (80010bc <handleUART+0x1e8>)
 8000ee2:	f000 fbf5 	bl	80016d0 <heartbeatUART>
 8000ee6:	4b76      	ldr	r3, [pc, #472]	@ (80010c0 <handleUART+0x1ec>)
 8000ee8:	4874      	ldr	r0, [pc, #464]	@ (80010bc <handleUART+0x1e8>)
 8000eea:	7819      	ldrb	r1, [r3, #0]
 8000eec:	f001 f951 	bl	8002192 <send_uart_hex>
 8000ef0:	2300      	movs	r3, #0
 8000ef2:	7023      	strb	r3, [r4, #0]
 8000ef4:	7063      	strb	r3, [r4, #1]
 8000ef6:	b005      	add	sp, #20
 8000ef8:	bd30      	pop	{r4, r5, pc}
 8000efa:	3b61      	subs	r3, #97	@ 0x61
 8000efc:	2b17      	cmp	r3, #23
 8000efe:	d8f7      	bhi.n	8000ef0 <handleUART+0x1c>
 8000f00:	a201      	add	r2, pc, #4	@ (adr r2, 8000f08 <handleUART+0x34>)
 8000f02:	f852 f023 	ldr.w	pc, [r2, r3, lsl #2]
 8000f06:	bf00      	nop
 8000f08:	08001059 	.word	0x08001059
 8000f0c:	08001061 	.word	0x08001061
 8000f10:	0800104d 	.word	0x0800104d
 8000f14:	08000ef1 	.word	0x08000ef1
 8000f18:	08000f69 	.word	0x08000f69
 8000f1c:	08000ef1 	.word	0x08000ef1
 8000f20:	08000ef1 	.word	0x08000ef1
 8000f24:	08000ef1 	.word	0x08000ef1
 8000f28:	08000ef1 	.word	0x08000ef1
 8000f2c:	08000ef1 	.word	0x08000ef1
 8000f30:	08000ef1 	.word	0x08000ef1
 8000f34:	08000ef1 	.word	0x08000ef1
 8000f38:	08000fdb 	.word	0x08000fdb
 8000f3c:	0800109d 	.word	0x0800109d
 8000f40:	08000ef1 	.word	0x08000ef1
 8000f44:	08001077 	.word	0x08001077
 8000f48:	08000ef1 	.word	0x08000ef1
 8000f4c:	08000fab 	.word	0x08000fab
 8000f50:	08000ef1 	.word	0x08000ef1
 8000f54:	0800108d 	.word	0x0800108d
 8000f58:	08000ef1 	.word	0x08000ef1
 8000f5c:	08000ef1 	.word	0x08000ef1
 8000f60:	08001001 	.word	0x08001001
 8000f64:	08001027 	.word	0x08001027
 8000f68:	4d56      	ldr	r5, [pc, #344]	@ (80010c4 <handleUART+0x1f0>)
 8000f6a:	2201      	movs	r2, #1
 8000f6c:	6828      	ldr	r0, [r5, #0]
 8000f6e:	88a9      	ldrh	r1, [r5, #4]
 8000f70:	f001 ffec 	bl	8002f4c <HAL_GPIO_WritePin>
 8000f74:	7860      	ldrb	r0, [r4, #1]
 8000f76:	f7ff fe1b 	bl	8000bb0 <decodeASCII>
 8000f7a:	b978      	cbnz	r0, 8000f9c <handleUART+0xc8>
 8000f7c:	4b52      	ldr	r3, [pc, #328]	@ (80010c8 <handleUART+0x1f4>)
 8000f7e:	494f      	ldr	r1, [pc, #316]	@ (80010bc <handleUART+0x1e8>)
 8000f80:	4852      	ldr	r0, [pc, #328]	@ (80010cc <handleUART+0x1f8>)
 8000f82:	cb0c      	ldmia	r3, {r2, r3}
 8000f84:	f000 fba8 	bl	80016d8 <eraseFlashSPI>
 8000f88:	f7ff fea4 	bl	8000cd4 <find_next_blank_page_all>
 8000f8c:	4b50      	ldr	r3, [pc, #320]	@ (80010d0 <handleUART+0x1fc>)
 8000f8e:	6018      	str	r0, [r3, #0]
 8000f90:	88a9      	ldrh	r1, [r5, #4]
 8000f92:	6828      	ldr	r0, [r5, #0]
 8000f94:	2200      	movs	r2, #0
 8000f96:	f001 ffd9 	bl	8002f4c <HAL_GPIO_WritePin>
 8000f9a:	e7a9      	b.n	8000ef0 <handleUART+0x1c>
 8000f9c:	2801      	cmp	r0, #1
 8000f9e:	d1f3      	bne.n	8000f88 <handleUART+0xb4>
 8000fa0:	4b4c      	ldr	r3, [pc, #304]	@ (80010d4 <handleUART+0x200>)
 8000fa2:	4946      	ldr	r1, [pc, #280]	@ (80010bc <handleUART+0x1e8>)
 8000fa4:	484c      	ldr	r0, [pc, #304]	@ (80010d8 <handleUART+0x204>)
 8000fa6:	cb0c      	ldmia	r3, {r2, r3}
 8000fa8:	e7ec      	b.n	8000f84 <handleUART+0xb0>
 8000faa:	4d46      	ldr	r5, [pc, #280]	@ (80010c4 <handleUART+0x1f0>)
 8000fac:	2201      	movs	r2, #1
 8000fae:	6828      	ldr	r0, [r5, #0]
 8000fb0:	88a9      	ldrh	r1, [r5, #4]
 8000fb2:	f001 ffcb 	bl	8002f4c <HAL_GPIO_WritePin>
 8000fb6:	7860      	ldrb	r0, [r4, #1]
 8000fb8:	f7ff fdfa 	bl	8000bb0 <decodeASCII>
 8000fbc:	b930      	cbnz	r0, 8000fcc <handleUART+0xf8>
 8000fbe:	4b42      	ldr	r3, [pc, #264]	@ (80010c8 <handleUART+0x1f4>)
 8000fc0:	493e      	ldr	r1, [pc, #248]	@ (80010bc <handleUART+0x1e8>)
 8000fc2:	4842      	ldr	r0, [pc, #264]	@ (80010cc <handleUART+0x1f8>)
 8000fc4:	cb0c      	ldmia	r3, {r2, r3}
 8000fc6:	f000 fb9d 	bl	8001704 <readFlashToUART>
 8000fca:	e7e1      	b.n	8000f90 <handleUART+0xbc>
 8000fcc:	2801      	cmp	r0, #1
 8000fce:	d1df      	bne.n	8000f90 <handleUART+0xbc>
 8000fd0:	4b40      	ldr	r3, [pc, #256]	@ (80010d4 <handleUART+0x200>)
 8000fd2:	493a      	ldr	r1, [pc, #232]	@ (80010bc <handleUART+0x1e8>)
 8000fd4:	4840      	ldr	r0, [pc, #256]	@ (80010d8 <handleUART+0x204>)
 8000fd6:	cb0c      	ldmia	r3, {r2, r3}
 8000fd8:	e7f5      	b.n	8000fc6 <handleUART+0xf2>
 8000fda:	7860      	ldrb	r0, [r4, #1]
 8000fdc:	f7ff fde8 	bl	8000bb0 <decodeASCII>
 8000fe0:	b930      	cbnz	r0, 8000ff0 <handleUART+0x11c>
 8000fe2:	4b39      	ldr	r3, [pc, #228]	@ (80010c8 <handleUART+0x1f4>)
 8000fe4:	4935      	ldr	r1, [pc, #212]	@ (80010bc <handleUART+0x1e8>)
 8000fe6:	4839      	ldr	r0, [pc, #228]	@ (80010cc <handleUART+0x1f8>)
 8000fe8:	cb0c      	ldmia	r3, {r2, r3}
 8000fea:	f000 fbb1 	bl	8001750 <readFlashManuSPI>
 8000fee:	e77f      	b.n	8000ef0 <handleUART+0x1c>
 8000ff0:	2801      	cmp	r0, #1
 8000ff2:	f47f af7d 	bne.w	8000ef0 <handleUART+0x1c>
 8000ff6:	4b37      	ldr	r3, [pc, #220]	@ (80010d4 <handleUART+0x200>)
 8000ff8:	4930      	ldr	r1, [pc, #192]	@ (80010bc <handleUART+0x1e8>)
 8000ffa:	4837      	ldr	r0, [pc, #220]	@ (80010d8 <handleUART+0x204>)
 8000ffc:	cb0c      	ldmia	r3, {r2, r3}
 8000ffe:	e7f4      	b.n	8000fea <handleUART+0x116>
 8001000:	7860      	ldrb	r0, [r4, #1]
 8001002:	f7ff fdd5 	bl	8000bb0 <decodeASCII>
 8001006:	b930      	cbnz	r0, 8001016 <handleUART+0x142>
 8001008:	4b2f      	ldr	r3, [pc, #188]	@ (80010c8 <handleUART+0x1f4>)
 800100a:	492c      	ldr	r1, [pc, #176]	@ (80010bc <handleUART+0x1e8>)
 800100c:	482f      	ldr	r0, [pc, #188]	@ (80010cc <handleUART+0x1f8>)
 800100e:	cb0c      	ldmia	r3, {r2, r3}
 8001010:	f000 fbb8 	bl	8001784 <writePageSPI_W>
 8001014:	e76c      	b.n	8000ef0 <handleUART+0x1c>
 8001016:	2801      	cmp	r0, #1
 8001018:	f47f af6a 	bne.w	8000ef0 <handleUART+0x1c>
 800101c:	4b2d      	ldr	r3, [pc, #180]	@ (80010d4 <handleUART+0x200>)
 800101e:	4927      	ldr	r1, [pc, #156]	@ (80010bc <handleUART+0x1e8>)
 8001020:	482d      	ldr	r0, [pc, #180]	@ (80010d8 <handleUART+0x204>)
 8001022:	cb0c      	ldmia	r3, {r2, r3}
 8001024:	e7f4      	b.n	8001010 <handleUART+0x13c>
 8001026:	7860      	ldrb	r0, [r4, #1]
 8001028:	f7ff fdc2 	bl	8000bb0 <decodeASCII>
 800102c:	b930      	cbnz	r0, 800103c <handleUART+0x168>
 800102e:	4b26      	ldr	r3, [pc, #152]	@ (80010c8 <handleUART+0x1f4>)
 8001030:	4922      	ldr	r1, [pc, #136]	@ (80010bc <handleUART+0x1e8>)
 8001032:	4826      	ldr	r0, [pc, #152]	@ (80010cc <handleUART+0x1f8>)
 8001034:	cb0c      	ldmia	r3, {r2, r3}
 8001036:	f000 fbc9 	bl	80017cc <resetSPIFlash>
 800103a:	e759      	b.n	8000ef0 <handleUART+0x1c>
 800103c:	2801      	cmp	r0, #1
 800103e:	f47f af57 	bne.w	8000ef0 <handleUART+0x1c>
 8001042:	4b24      	ldr	r3, [pc, #144]	@ (80010d4 <handleUART+0x200>)
 8001044:	491d      	ldr	r1, [pc, #116]	@ (80010bc <handleUART+0x1e8>)
 8001046:	4824      	ldr	r0, [pc, #144]	@ (80010d8 <handleUART+0x204>)
 8001048:	cb0c      	ldmia	r3, {r2, r3}
 800104a:	e7f4      	b.n	8001036 <handleUART+0x162>
 800104c:	4b23      	ldr	r3, [pc, #140]	@ (80010dc <handleUART+0x208>)
 800104e:	491b      	ldr	r1, [pc, #108]	@ (80010bc <handleUART+0x1e8>)
 8001050:	6818      	ldr	r0, [r3, #0]
 8001052:	f000 fbcd 	bl	80017f0 <checkAccelWhoAmI>
 8001056:	e74b      	b.n	8000ef0 <handleUART+0x1c>
 8001058:	4818      	ldr	r0, [pc, #96]	@ (80010bc <handleUART+0x1e8>)
 800105a:	f000 fbd3 	bl	8001804 <accelToUART>
 800105e:	e747      	b.n	8000ef0 <handleUART+0x1c>
 8001060:	4b1f      	ldr	r3, [pc, #124]	@ (80010e0 <handleUART+0x20c>)
 8001062:	7860      	ldrb	r0, [r4, #1]
 8001064:	681d      	ldr	r5, [r3, #0]
 8001066:	4915      	ldr	r1, [pc, #84]	@ (80010bc <handleUART+0x1e8>)
 8001068:	f7ff fda2 	bl	8000bb0 <decodeASCII>
 800106c:	4602      	mov	r2, r0
 800106e:	4628      	mov	r0, r5
 8001070:	f000 fbd8 	bl	8001824 <readTempSensorID>
 8001074:	e73c      	b.n	8000ef0 <handleUART+0x1c>
 8001076:	4b1a      	ldr	r3, [pc, #104]	@ (80010e0 <handleUART+0x20c>)
 8001078:	7860      	ldrb	r0, [r4, #1]
 800107a:	681d      	ldr	r5, [r3, #0]
 800107c:	490f      	ldr	r1, [pc, #60]	@ (80010bc <handleUART+0x1e8>)
 800107e:	f7ff fd97 	bl	8000bb0 <decodeASCII>
 8001082:	4602      	mov	r2, r0
 8001084:	4628      	mov	r0, r5
 8001086:	f000 fbd8 	bl	800183a <readTempCalibration>
 800108a:	e731      	b.n	8000ef0 <handleUART+0x1c>
 800108c:	7860      	ldrb	r0, [r4, #1]
 800108e:	f7ff fd8f 	bl	8000bb0 <decodeASCII>
 8001092:	4601      	mov	r1, r0
 8001094:	4809      	ldr	r0, [pc, #36]	@ (80010bc <handleUART+0x1e8>)
 8001096:	f000 fc03 	bl	80018a0 <readTempSensor>
 800109a:	e729      	b.n	8000ef0 <handleUART+0x1c>
 800109c:	7863      	ldrb	r3, [r4, #1]
 800109e:	f88d 300c 	strb.w	r3, [sp, #12]
 80010a2:	f44f 63e0 	mov.w	r3, #1792	@ 0x700
 80010a6:	9300      	str	r3, [sp, #0]
 80010a8:	480e      	ldr	r0, [pc, #56]	@ (80010e4 <handleUART+0x210>)
 80010aa:	4b0f      	ldr	r3, [pc, #60]	@ (80010e8 <handleUART+0x214>)
 80010ac:	aa03      	add	r2, sp, #12
 80010ae:	2101      	movs	r1, #1
 80010b0:	f7ff fb3a 	bl	8000728 <sendCAN_TxMessage>
 80010b4:	e71c      	b.n	8000ef0 <handleUART+0x1c>
 80010b6:	bf00      	nop
 80010b8:	200002d1 	.word	0x200002d1
 80010bc:	200002dc 	.word	0x200002dc
 80010c0:	20000046 	.word	0x20000046
 80010c4:	20000078 	.word	0x20000078
 80010c8:	20000068 	.word	0x20000068
 80010cc:	200004cc 	.word	0x200004cc
 80010d0:	2000008c 	.word	0x2000008c
 80010d4:	20000058 	.word	0x20000058
 80010d8:	20000474 	.word	0x20000474
 80010dc:	200002d8 	.word	0x200002d8
 80010e0:	200002d4 	.word	0x200002d4
 80010e4:	200005ec 	.word	0x200005ec
 80010e8:	200002cc 	.word	0x200002cc

080010ec <main>:
 80010ec:	e92d 47f0 	stmdb	sp!, {r4, r5, r6, r7, r8, r9, sl, lr}
 80010f0:	b08e      	sub	sp, #56	@ 0x38
 80010f2:	2400      	movs	r4, #0
 80010f4:	4dae      	ldr	r5, [pc, #696]	@ (80013b0 <main+0x2c4>)
 80010f6:	f8df 92fc 	ldr.w	r9, [pc, #764]	@ 80013f4 <main+0x308>
 80010fa:	f001 f8a5 	bl	8002248 <HAL_Init>
 80010fe:	f7ff fc93 	bl	8000a28 <SystemClock_Config>
 8001102:	2214      	movs	r2, #20
 8001104:	2100      	movs	r1, #0
 8001106:	a809      	add	r0, sp, #36	@ 0x24
 8001108:	f004 f9e2 	bl	80054d0 <memset>
 800110c:	9404      	str	r4, [sp, #16]
 800110e:	6b2b      	ldr	r3, [r5, #48]	@ 0x30
 8001110:	48a8      	ldr	r0, [pc, #672]	@ (80013b4 <main+0x2c8>)
 8001112:	f043 0304 	orr.w	r3, r3, #4
 8001116:	632b      	str	r3, [r5, #48]	@ 0x30
 8001118:	6b2b      	ldr	r3, [r5, #48]	@ 0x30
 800111a:	f003 0304 	and.w	r3, r3, #4
 800111e:	9304      	str	r3, [sp, #16]
 8001120:	9b04      	ldr	r3, [sp, #16]
 8001122:	9405      	str	r4, [sp, #20]
 8001124:	6b2b      	ldr	r3, [r5, #48]	@ 0x30
 8001126:	f043 0380 	orr.w	r3, r3, #128	@ 0x80
 800112a:	632b      	str	r3, [r5, #48]	@ 0x30
 800112c:	6b2b      	ldr	r3, [r5, #48]	@ 0x30
 800112e:	f003 0380 	and.w	r3, r3, #128	@ 0x80
 8001132:	9305      	str	r3, [sp, #20]
 8001134:	9b05      	ldr	r3, [sp, #20]
 8001136:	9406      	str	r4, [sp, #24]
 8001138:	6b2b      	ldr	r3, [r5, #48]	@ 0x30
 800113a:	f043 0301 	orr.w	r3, r3, #1
 800113e:	632b      	str	r3, [r5, #48]	@ 0x30
 8001140:	6b2b      	ldr	r3, [r5, #48]	@ 0x30
 8001142:	f003 0301 	and.w	r3, r3, #1
 8001146:	9306      	str	r3, [sp, #24]
 8001148:	9b06      	ldr	r3, [sp, #24]
 800114a:	9407      	str	r4, [sp, #28]
 800114c:	6b2b      	ldr	r3, [r5, #48]	@ 0x30
 800114e:	f043 0302 	orr.w	r3, r3, #2
 8001152:	632b      	str	r3, [r5, #48]	@ 0x30
 8001154:	6b2b      	ldr	r3, [r5, #48]	@ 0x30
 8001156:	f003 0302 	and.w	r3, r3, #2
 800115a:	9307      	str	r3, [sp, #28]
 800115c:	9b07      	ldr	r3, [sp, #28]
 800115e:	9408      	str	r4, [sp, #32]
 8001160:	6b2b      	ldr	r3, [r5, #48]	@ 0x30
 8001162:	f043 0308 	orr.w	r3, r3, #8
 8001166:	632b      	str	r3, [r5, #48]	@ 0x30
 8001168:	6b2b      	ldr	r3, [r5, #48]	@ 0x30
 800116a:	f003 0308 	and.w	r3, r3, #8
 800116e:	9308      	str	r3, [sp, #32]
 8001170:	4622      	mov	r2, r4
 8001172:	2113      	movs	r1, #19
 8001174:	9b08      	ldr	r3, [sp, #32]
 8001176:	f001 fee9 	bl	8002f4c <HAL_GPIO_WritePin>
 800117a:	488f      	ldr	r0, [pc, #572]	@ (80013b8 <main+0x2cc>)
 800117c:	4622      	mov	r2, r4
 800117e:	2110      	movs	r1, #16
 8001180:	f001 fee4 	bl	8002f4c <HAL_GPIO_WritePin>
 8001184:	4622      	mov	r2, r4
 8001186:	488d      	ldr	r0, [pc, #564]	@ (80013bc <main+0x2d0>)
 8001188:	f44f 41e0 	mov.w	r1, #28672	@ 0x7000
 800118c:	f001 fede 	bl	8002f4c <HAL_GPIO_WritePin>
 8001190:	2601      	movs	r6, #1
 8001192:	4888      	ldr	r0, [pc, #544]	@ (80013b4 <main+0x2c8>)
 8001194:	a909      	add	r1, sp, #36	@ 0x24
 8001196:	e9cd 6609 	strd	r6, r6, [sp, #36]	@ 0x24
 800119a:	e9cd 640b 	strd	r6, r4, [sp, #44]	@ 0x2c
 800119e:	f001 fdeb 	bl	8002d78 <HAL_GPIO_Init>
 80011a2:	2312      	movs	r3, #18
 80011a4:	4883      	ldr	r0, [pc, #524]	@ (80013b4 <main+0x2c8>)
 80011a6:	a909      	add	r1, sp, #36	@ 0x24
 80011a8:	e9cd 3609 	strd	r3, r6, [sp, #36]	@ 0x24
 80011ac:	e9cd 440b 	strd	r4, r4, [sp, #44]	@ 0x2c
 80011b0:	f001 fde2 	bl	8002d78 <HAL_GPIO_Init>
 80011b4:	2310      	movs	r3, #16
 80011b6:	4880      	ldr	r0, [pc, #512]	@ (80013b8 <main+0x2cc>)
 80011b8:	a909      	add	r1, sp, #36	@ 0x24
 80011ba:	2702      	movs	r7, #2
 80011bc:	e9cd 3609 	strd	r3, r6, [sp, #36]	@ 0x24
 80011c0:	e9cd 640b 	strd	r6, r4, [sp, #44]	@ 0x2c
 80011c4:	f001 fdd8 	bl	8002d78 <HAL_GPIO_Init>
 80011c8:	f44f 1388 	mov.w	r3, #1114112	@ 0x110000
 80011cc:	487b      	ldr	r0, [pc, #492]	@ (80013bc <main+0x2d0>)
 80011ce:	940b      	str	r4, [sp, #44]	@ 0x2c
 80011d0:	a909      	add	r1, sp, #36	@ 0x24
 80011d2:	e9cd 7309 	strd	r7, r3, [sp, #36]	@ 0x24
 80011d6:	f001 fdcf 	bl	8002d78 <HAL_GPIO_Init>
 80011da:	f44f 43e0 	mov.w	r3, #28672	@ 0x7000
 80011de:	4877      	ldr	r0, [pc, #476]	@ (80013bc <main+0x2d0>)
 80011e0:	a909      	add	r1, sp, #36	@ 0x24
 80011e2:	e9cd 3609 	strd	r3, r6, [sp, #36]	@ 0x24
 80011e6:	e9cd 740b 	strd	r7, r4, [sp, #44]	@ 0x2c
 80011ea:	f001 fdc5 	bl	8002d78 <HAL_GPIO_Init>
 80011ee:	f44f 53c0 	mov.w	r3, #6144	@ 0x1800
 80011f2:	e9cd 3709 	strd	r3, r7, [sp, #36]	@ 0x24
 80011f6:	4870      	ldr	r0, [pc, #448]	@ (80013b8 <main+0x2cc>)
 80011f8:	940b      	str	r4, [sp, #44]	@ 0x2c
 80011fa:	2309      	movs	r3, #9
 80011fc:	a909      	add	r1, sp, #36	@ 0x24
 80011fe:	f04f 0803 	mov.w	r8, #3
 8001202:	e9cd 830c 	strd	r8, r3, [sp, #48]	@ 0x30
 8001206:	f001 fdb7 	bl	8002d78 <HAL_GPIO_Init>
 800120a:	4622      	mov	r2, r4
 800120c:	4621      	mov	r1, r4
 800120e:	2007      	movs	r0, #7
 8001210:	f001 fb82 	bl	8002918 <HAL_NVIC_SetPriority>
 8001214:	2007      	movs	r0, #7
 8001216:	f001 fbb1 	bl	800297c <HAL_NVIC_EnableIRQ>
 800121a:	9402      	str	r4, [sp, #8]
 800121c:	6b2b      	ldr	r3, [r5, #48]	@ 0x30
 800121e:	f443 0380 	orr.w	r3, r3, #4194304	@ 0x400000
 8001222:	632b      	str	r3, [r5, #48]	@ 0x30
 8001224:	6b2b      	ldr	r3, [r5, #48]	@ 0x30
 8001226:	f403 0380 	and.w	r3, r3, #4194304	@ 0x400000
 800122a:	9302      	str	r3, [sp, #8]
 800122c:	9b02      	ldr	r3, [sp, #8]
 800122e:	9403      	str	r4, [sp, #12]
 8001230:	6b2b      	ldr	r3, [r5, #48]	@ 0x30
 8001232:	f443 1300 	orr.w	r3, r3, #2097152	@ 0x200000
 8001236:	632b      	str	r3, [r5, #48]	@ 0x30
 8001238:	6b2b      	ldr	r3, [r5, #48]	@ 0x30
 800123a:	4d61      	ldr	r5, [pc, #388]	@ (80013c0 <main+0x2d4>)
 800123c:	f403 1300 	and.w	r3, r3, #2097152	@ 0x200000
 8001240:	4622      	mov	r2, r4
 8001242:	4621      	mov	r1, r4
 8001244:	9303      	str	r3, [sp, #12]
 8001246:	200f      	movs	r0, #15
 8001248:	9b03      	ldr	r3, [sp, #12]
 800124a:	f001 fb65 	bl	8002918 <HAL_NVIC_SetPriority>
 800124e:	200f      	movs	r0, #15
 8001250:	f001 fb94 	bl	800297c <HAL_NVIC_EnableIRQ>
 8001254:	4621      	mov	r1, r4
 8001256:	4622      	mov	r2, r4
 8001258:	203b      	movs	r0, #59	@ 0x3b
 800125a:	f001 fb5d 	bl	8002918 <HAL_NVIC_SetPriority>
 800125e:	203b      	movs	r0, #59	@ 0x3b
 8001260:	f001 fb8c 	bl	800297c <HAL_NVIC_EnableIRQ>
 8001264:	4b57      	ldr	r3, [pc, #348]	@ (80013c4 <main+0x2d8>)
 8001266:	622c      	str	r4, [r5, #32]
 8001268:	e9c5 9300 	strd	r9, r3, [r5]
 800126c:	4628      	mov	r0, r5
 800126e:	f44f 4380 	mov.w	r3, #16384	@ 0x4000
 8001272:	e9c5 4402 	strd	r4, r4, [r5, #8]
 8001276:	e9c5 3404 	strd	r3, r4, [r5, #16]
 800127a:	e9c5 4406 	strd	r4, r4, [r5, #24]
 800127e:	f001 ffa3 	bl	80031c8 <HAL_I2C_Init>
 8001282:	4601      	mov	r1, r0
 8001284:	b108      	cbz	r0, 800128a <main+0x19e>
 8001286:	b672      	cpsid	i
 8001288:	e7fe      	b.n	8001288 <main+0x19c>
 800128a:	4628      	mov	r0, r5
 800128c:	f002 fa98 	bl	80037c0 <HAL_I2CEx_ConfigAnalogFilter>
 8001290:	4601      	mov	r1, r0
 8001292:	b108      	cbz	r0, 8001298 <main+0x1ac>
 8001294:	b672      	cpsid	i
 8001296:	e7fe      	b.n	8001296 <main+0x1aa>
 8001298:	4628      	mov	r0, r5
 800129a:	f002 fab0 	bl	80037fe <HAL_I2CEx_ConfigDigitalFilter>
 800129e:	4603      	mov	r3, r0
 80012a0:	b108      	cbz	r0, 80012a6 <main+0x1ba>
 80012a2:	b672      	cpsid	i
 80012a4:	e7fe      	b.n	80012a4 <main+0x1b8>
 80012a6:	4848      	ldr	r0, [pc, #288]	@ (80013c8 <main+0x2dc>)
 80012a8:	4a48      	ldr	r2, [pc, #288]	@ (80013cc <main+0x2e0>)
 80012aa:	6183      	str	r3, [r0, #24]
 80012ac:	e9c0 2300 	strd	r2, r3, [r0]
 80012b0:	f04f 0e7f 	mov.w	lr, #127	@ 0x7f
 80012b4:	22ff      	movs	r2, #255	@ 0xff
 80012b6:	e9c0 3304 	strd	r3, r3, [r0, #16]
 80012ba:	e9c0 e202 	strd	lr, r2, [r0, #8]
 80012be:	f002 fee8 	bl	8004092 <HAL_RTC_Init>
 80012c2:	4603      	mov	r3, r0
 80012c4:	b108      	cbz	r0, 80012ca <main+0x1de>
 80012c6:	b672      	cpsid	i
 80012c8:	e7fe      	b.n	80012c8 <main+0x1dc>
 80012ca:	4841      	ldr	r0, [pc, #260]	@ (80013d0 <main+0x2e4>)
 80012cc:	4a41      	ldr	r2, [pc, #260]	@ (80013d4 <main+0x2e8>)
 80012ce:	6283      	str	r3, [r0, #40]	@ 0x28
 80012d0:	f44f 7582 	mov.w	r5, #260	@ 0x104
 80012d4:	e9c0 2500 	strd	r2, r5, [r0]
 80012d8:	f44f 7400 	mov.w	r4, #512	@ 0x200
 80012dc:	2208      	movs	r2, #8
 80012de:	260a      	movs	r6, #10
 80012e0:	e9c0 3302 	strd	r3, r3, [r0, #8]
 80012e4:	e9c0 3304 	strd	r3, r3, [r0, #16]
 80012e8:	e9c0 4206 	strd	r4, r2, [r0, #24]
 80012ec:	e9c0 3308 	strd	r3, r3, [r0, #32]
 80012f0:	62c6      	str	r6, [r0, #44]	@ 0x2c
 80012f2:	f003 f8d1 	bl	8004498 <HAL_SPI_Init>
 80012f6:	b108      	cbz	r0, 80012fc <main+0x210>
 80012f8:	b672      	cpsid	i
 80012fa:	e7fe      	b.n	80012fa <main+0x20e>
 80012fc:	4f36      	ldr	r7, [pc, #216]	@ (80013d8 <main+0x2ec>)
 80012fe:	f8df c0f8 	ldr.w	ip, [pc, #248]	@ 80013f8 <main+0x30c>
 8001302:	60b8      	str	r0, [r7, #8]
 8001304:	f245 2307 	movw	r3, #20999	@ 0x5207
 8001308:	e9cd 0009 	strd	r0, r0, [sp, #36]	@ 0x24
 800130c:	e9c7 c300 	strd	ip, r3, [r7]
 8001310:	61b8      	str	r0, [r7, #24]
 8001312:	2328      	movs	r3, #40	@ 0x28
 8001314:	4638      	mov	r0, r7
 8001316:	60fb      	str	r3, [r7, #12]
 8001318:	f003 fd58 	bl	8004dcc <HAL_TIM_Base_Init>
 800131c:	b108      	cbz	r0, 8001322 <main+0x236>
 800131e:	b672      	cpsid	i
 8001320:	e7fe      	b.n	8001320 <main+0x234>
 8001322:	e9cd 0009 	strd	r0, r0, [sp, #36]	@ 0x24
 8001326:	a909      	add	r1, sp, #36	@ 0x24
 8001328:	4638      	mov	r0, r7
 800132a:	f003 fd7b 	bl	8004e24 <HAL_TIMEx_MasterConfigSynchronization>
 800132e:	4603      	mov	r3, r0
 8001330:	b108      	cbz	r0, 8001336 <main+0x24a>
 8001332:	b672      	cpsid	i
 8001334:	e7fe      	b.n	8001334 <main+0x248>
 8001336:	4829      	ldr	r0, [pc, #164]	@ (80013dc <main+0x2f0>)
 8001338:	4f29      	ldr	r7, [pc, #164]	@ (80013e0 <main+0x2f4>)
 800133a:	6103      	str	r3, [r0, #16]
 800133c:	f44f 32e1 	mov.w	r2, #115200	@ 0x1c200
 8001340:	e9c0 7200 	strd	r7, r2, [r0]
 8001344:	220c      	movs	r2, #12
 8001346:	e9c0 3302 	strd	r3, r3, [r0, #8]
 800134a:	e9c0 2305 	strd	r2, r3, [r0, #20]
 800134e:	61c3      	str	r3, [r0, #28]
 8001350:	f003 fe66 	bl	8005020 <HAL_UART_Init>
 8001354:	4603      	mov	r3, r0
 8001356:	b108      	cbz	r0, 800135c <main+0x270>
 8001358:	b672      	cpsid	i
 800135a:	e7fe      	b.n	800135a <main+0x26e>
 800135c:	4821      	ldr	r0, [pc, #132]	@ (80013e4 <main+0x2f8>)
 800135e:	4a22      	ldr	r2, [pc, #136]	@ (80013e8 <main+0x2fc>)
 8001360:	e9c0 3302 	strd	r3, r3, [r0, #8]
 8001364:	e9c0 3304 	strd	r3, r3, [r0, #16]
 8001368:	e9c0 4306 	strd	r4, r3, [r0, #24]
 800136c:	e9c0 3308 	strd	r3, r3, [r0, #32]
 8001370:	e9c0 360a 	strd	r3, r6, [r0, #40]	@ 0x28
 8001374:	e9c0 2500 	strd	r2, r5, [r0]
 8001378:	f003 f88e 	bl	8004498 <HAL_SPI_Init>
 800137c:	4603      	mov	r3, r0
 800137e:	b108      	cbz	r0, 8001384 <main+0x298>
 8001380:	b672      	cpsid	i
 8001382:	e7fe      	b.n	8001382 <main+0x296>
 8001384:	4819      	ldr	r0, [pc, #100]	@ (80013ec <main+0x300>)
 8001386:	4c1a      	ldr	r4, [pc, #104]	@ (80013f0 <main+0x304>)
 8001388:	6083      	str	r3, [r0, #8]
 800138a:	2218      	movs	r2, #24
 800138c:	e9c0 4200 	strd	r4, r2, [r0]
 8001390:	f04f 7580 	mov.w	r5, #16777216	@ 0x1000000
 8001394:	f44f 2220 	mov.w	r2, #655360	@ 0xa0000
 8001398:	e9c0 5203 	strd	r5, r2, [r0, #12]
 800139c:	f44f 1280 	mov.w	r2, #1048576	@ 0x100000
 80013a0:	e9c0 2305 	strd	r2, r3, [r0, #20]
 80013a4:	8383      	strh	r3, [r0, #28]
 80013a6:	f000 ff8f 	bl	80022c8 <HAL_CAN_Init>
 80013aa:	b338      	cbz	r0, 80013fc <main+0x310>
 80013ac:	b672      	cpsid	i
 80013ae:	e7fe      	b.n	80013ae <main+0x2c2>
 80013b0:	40023800 	.word	0x40023800
 80013b4:	40020800 	.word	0x40020800
 80013b8:	40020000 	.word	0x40020000
 80013bc:	40020400 	.word	0x40020400
 80013c0:	20000598 	.word	0x20000598
 80013c4:	000186a0 	.word	0x000186a0
 80013c8:	20000524 	.word	0x20000524
 80013cc:	40002800 	.word	0x40002800
 80013d0:	200004cc 	.word	0x200004cc
 80013d4:	40013000 	.word	0x40013000
 80013d8:	2000036c 	.word	0x2000036c
 80013dc:	200002dc 	.word	0x200002dc
 80013e0:	40004400 	.word	0x40004400
 80013e4:	20000474 	.word	0x20000474
 80013e8:	40003800 	.word	0x40003800
 80013ec:	200005ec 	.word	0x200005ec
 80013f0:	40006800 	.word	0x40006800
 80013f4:	40005400 	.word	0x40005400
 80013f8:	40001000 	.word	0x40001000
 80013fc:	4c73      	ldr	r4, [pc, #460]	@ (80015cc <main+0x4e0>)
 80013fe:	4974      	ldr	r1, [pc, #464]	@ (80015d0 <main+0x4e4>)
 8001400:	f245 2207 	movw	r2, #20999	@ 0x5207
 8001404:	2300      	movs	r3, #0
 8001406:	e9c4 1200 	strd	r1, r2, [r4]
 800140a:	4620      	mov	r0, r4
 800140c:	f44f 62fa 	mov.w	r2, #2000	@ 0x7d0
 8001410:	e9cd 3309 	strd	r3, r3, [sp, #36]	@ 0x24
 8001414:	60a3      	str	r3, [r4, #8]
 8001416:	60e2      	str	r2, [r4, #12]
 8001418:	61a3      	str	r3, [r4, #24]
 800141a:	f003 fcd7 	bl	8004dcc <HAL_TIM_Base_Init>
 800141e:	b108      	cbz	r0, 8001424 <main+0x338>
 8001420:	b672      	cpsid	i
 8001422:	e7fe      	b.n	8001422 <main+0x336>
 8001424:	e9cd 0009 	strd	r0, r0, [sp, #36]	@ 0x24
 8001428:	a909      	add	r1, sp, #36	@ 0x24
 800142a:	4620      	mov	r0, r4
 800142c:	f003 fcfa 	bl	8004e24 <HAL_TIMEx_MasterConfigSynchronization>
 8001430:	b108      	cbz	r0, 8001436 <main+0x34a>
 8001432:	b672      	cpsid	i
 8001434:	e7fe      	b.n	8001434 <main+0x348>
 8001436:	4c67      	ldr	r4, [pc, #412]	@ (80015d4 <main+0x4e8>)
 8001438:	4a67      	ldr	r2, [pc, #412]	@ (80015d8 <main+0x4ec>)
 800143a:	4b68      	ldr	r3, [pc, #416]	@ (80015dc <main+0x4f0>)
 800143c:	6220      	str	r0, [r4, #32]
 800143e:	e9c4 2300 	strd	r2, r3, [r4]
 8001442:	f44f 4380 	mov.w	r3, #16384	@ 0x4000
 8001446:	e9c4 0002 	strd	r0, r0, [r4, #8]
 800144a:	e9c4 3004 	strd	r3, r0, [r4, #16]
 800144e:	e9c4 0006 	strd	r0, r0, [r4, #24]
 8001452:	4620      	mov	r0, r4
 8001454:	f001 feb8 	bl	80031c8 <HAL_I2C_Init>
 8001458:	4601      	mov	r1, r0
 800145a:	b108      	cbz	r0, 8001460 <main+0x374>
 800145c:	b672      	cpsid	i
 800145e:	e7fe      	b.n	800145e <main+0x372>
 8001460:	4620      	mov	r0, r4
 8001462:	f002 f9ad 	bl	80037c0 <HAL_I2CEx_ConfigAnalogFilter>
 8001466:	4601      	mov	r1, r0
 8001468:	b108      	cbz	r0, 800146e <main+0x382>
 800146a:	b672      	cpsid	i
 800146c:	e7fe      	b.n	800146c <main+0x380>
 800146e:	4620      	mov	r0, r4
 8001470:	f002 f9c5 	bl	80037fe <HAL_I2CEx_ConfigDigitalFilter>
 8001474:	b108      	cbz	r0, 800147a <main+0x38e>
 8001476:	b672      	cpsid	i
 8001478:	e7fe      	b.n	8001478 <main+0x38c>
 800147a:	f7ff fc4d 	bl	8000d18 <systemInit>
 800147e:	4f58      	ldr	r7, [pc, #352]	@ (80015e0 <main+0x4f4>)
 8001480:	f8df 81b4 	ldr.w	r8, [pc, #436]	@ 8001638 <main+0x54c>
 8001484:	783b      	ldrb	r3, [r7, #0]
 8001486:	2b01      	cmp	r3, #1
 8001488:	d104      	bne.n	8001494 <main+0x3a8>
 800148a:	4856      	ldr	r0, [pc, #344]	@ (80015e4 <main+0x4f8>)
 800148c:	f000 fa88 	bl	80019a0 <initialise_rtc_default>
 8001490:	2300      	movs	r3, #0
 8001492:	703b      	strb	r3, [r7, #0]
 8001494:	4c54      	ldr	r4, [pc, #336]	@ (80015e8 <main+0x4fc>)
 8001496:	7823      	ldrb	r3, [r4, #0]
 8001498:	2b01      	cmp	r3, #1
 800149a:	d103      	bne.n	80014a4 <main+0x3b8>
 800149c:	f7ff fd1a 	bl	8000ed4 <handleUART>
 80014a0:	2300      	movs	r3, #0
 80014a2:	7023      	strb	r3, [r4, #0]
 80014a4:	f898 3000 	ldrb.w	r3, [r8]
 80014a8:	2b01      	cmp	r3, #1
 80014aa:	d111      	bne.n	80014d0 <main+0x3e4>
 80014ac:	4b4f      	ldr	r3, [pc, #316]	@ (80015ec <main+0x500>)
 80014ae:	781a      	ldrb	r2, [r3, #0]
 80014b0:	2a01      	cmp	r2, #1
 80014b2:	d103      	bne.n	80014bc <main+0x3d0>
 80014b4:	4b4e      	ldr	r3, [pc, #312]	@ (80015f0 <main+0x504>)
 80014b6:	7819      	ldrb	r1, [r3, #0]
 80014b8:	b901      	cbnz	r1, 80014bc <main+0x3d0>
 80014ba:	701a      	strb	r2, [r3, #0]
 80014bc:	f7ff fb8e 	bl	8000bdc <handleCAN>
 80014c0:	4b4c      	ldr	r3, [pc, #304]	@ (80015f4 <main+0x508>)
 80014c2:	8899      	ldrh	r1, [r3, #4]
 80014c4:	6818      	ldr	r0, [r3, #0]
 80014c6:	f001 fd46 	bl	8002f56 <HAL_GPIO_TogglePin>
 80014ca:	2300      	movs	r3, #0
 80014cc:	f888 3000 	strb.w	r3, [r8]
 80014d0:	4c49      	ldr	r4, [pc, #292]	@ (80015f8 <main+0x50c>)
 80014d2:	7825      	ldrb	r5, [r4, #0]
 80014d4:	2d01      	cmp	r5, #1
 80014d6:	d118      	bne.n	800150a <main+0x41e>
 80014d8:	4b48      	ldr	r3, [pc, #288]	@ (80015fc <main+0x510>)
 80014da:	8899      	ldrh	r1, [r3, #4]
 80014dc:	6818      	ldr	r0, [r3, #0]
 80014de:	f001 fd3a 	bl	8002f56 <HAL_GPIO_TogglePin>
 80014e2:	4b47      	ldr	r3, [pc, #284]	@ (8001600 <main+0x514>)
 80014e4:	4a47      	ldr	r2, [pc, #284]	@ (8001604 <main+0x518>)
 80014e6:	681b      	ldr	r3, [r3, #0]
 80014e8:	6812      	ldr	r2, [r2, #0]
 80014ea:	4947      	ldr	r1, [pc, #284]	@ (8001608 <main+0x51c>)
 80014ec:	4847      	ldr	r0, [pc, #284]	@ (800160c <main+0x520>)
 80014ee:	f000 f8ab 	bl	8001648 <systemStatus>
 80014f2:	4b47      	ldr	r3, [pc, #284]	@ (8001610 <main+0x524>)
 80014f4:	7018      	strb	r0, [r3, #0]
 80014f6:	4b47      	ldr	r3, [pc, #284]	@ (8001614 <main+0x528>)
 80014f8:	2800      	cmp	r0, #0
 80014fa:	d164      	bne.n	80015c6 <main+0x4da>
 80014fc:	462a      	mov	r2, r5
 80014fe:	8899      	ldrh	r1, [r3, #4]
 8001500:	6818      	ldr	r0, [r3, #0]
 8001502:	f001 fd23 	bl	8002f4c <HAL_GPIO_WritePin>
 8001506:	2300      	movs	r3, #0
 8001508:	7023      	strb	r3, [r4, #0]
 800150a:	4c43      	ldr	r4, [pc, #268]	@ (8001618 <main+0x52c>)
 800150c:	7823      	ldrb	r3, [r4, #0]
 800150e:	2b01      	cmp	r3, #1
 8001510:	d108      	bne.n	8001524 <main+0x438>
 8001512:	4b3c      	ldr	r3, [pc, #240]	@ (8001604 <main+0x518>)
 8001514:	4a33      	ldr	r2, [pc, #204]	@ (80015e4 <main+0x4f8>)
 8001516:	6819      	ldr	r1, [r3, #0]
 8001518:	4b39      	ldr	r3, [pc, #228]	@ (8001600 <main+0x514>)
 800151a:	6818      	ldr	r0, [r3, #0]
 800151c:	f000 f9e0 	bl	80018e0 <readAllSensors>
 8001520:	2300      	movs	r3, #0
 8001522:	7023      	strb	r3, [r4, #0]
 8001524:	f8df 9114 	ldr.w	r9, [pc, #276]	@ 800163c <main+0x550>
 8001528:	4c3c      	ldr	r4, [pc, #240]	@ (800161c <main+0x530>)
 800152a:	f8b9 3000 	ldrh.w	r3, [r9]
 800152e:	2beb      	cmp	r3, #235	@ 0xeb
 8001530:	d93b      	bls.n	80015aa <main+0x4be>
 8001532:	4b3b      	ldr	r3, [pc, #236]	@ (8001620 <main+0x534>)
 8001534:	4d3b      	ldr	r5, [pc, #236]	@ (8001624 <main+0x538>)
 8001536:	6818      	ldr	r0, [r3, #0]
 8001538:	8899      	ldrh	r1, [r3, #4]
 800153a:	b289      	uxth	r1, r1
 800153c:	f001 fd00 	bl	8002f40 <HAL_GPIO_ReadPin>
 8001540:	4b39      	ldr	r3, [pc, #228]	@ (8001628 <main+0x53c>)
 8001542:	781b      	ldrb	r3, [r3, #0]
 8001544:	2b00      	cmp	r3, #0
 8001546:	bf14      	ite	ne
 8001548:	2200      	movne	r2, #0
 800154a:	f000 0201 	andeq.w	r2, r0, #1
 800154e:	b32a      	cbz	r2, 800159c <main+0x4b0>
 8001550:	4e28      	ldr	r6, [pc, #160]	@ (80015f4 <main+0x508>)
 8001552:	f8df a0ec 	ldr.w	sl, [pc, #236]	@ 8001640 <main+0x554>
 8001556:	88b1      	ldrh	r1, [r6, #4]
 8001558:	6830      	ldr	r0, [r6, #0]
 800155a:	f001 fcf7 	bl	8002f4c <HAL_GPIO_WritePin>
 800155e:	4b33      	ldr	r3, [pc, #204]	@ (800162c <main+0x540>)
 8001560:	7828      	ldrb	r0, [r5, #0]
 8001562:	685a      	ldr	r2, [r3, #4]
 8001564:	9200      	str	r2, [sp, #0]
 8001566:	681b      	ldr	r3, [r3, #0]
 8001568:	6822      	ldr	r2, [r4, #0]
 800156a:	4928      	ldr	r1, [pc, #160]	@ (800160c <main+0x520>)
 800156c:	eb0a 2000 	add.w	r0, sl, r0, lsl #8
 8001570:	f7ff f976 	bl	8000860 <write_data_spi_dma>
 8001574:	4b2e      	ldr	r3, [pc, #184]	@ (8001630 <main+0x544>)
 8001576:	7828      	ldrb	r0, [r5, #0]
 8001578:	685a      	ldr	r2, [r3, #4]
 800157a:	9200      	str	r2, [sp, #0]
 800157c:	681b      	ldr	r3, [r3, #0]
 800157e:	6822      	ldr	r2, [r4, #0]
 8001580:	4921      	ldr	r1, [pc, #132]	@ (8001608 <main+0x51c>)
 8001582:	eb0a 2000 	add.w	r0, sl, r0, lsl #8
 8001586:	f7ff f96b 	bl	8000860 <write_data_spi_dma>
 800158a:	6823      	ldr	r3, [r4, #0]
 800158c:	88b1      	ldrh	r1, [r6, #4]
 800158e:	6830      	ldr	r0, [r6, #0]
 8001590:	f503 7380 	add.w	r3, r3, #256	@ 0x100
 8001594:	2200      	movs	r2, #0
 8001596:	6023      	str	r3, [r4, #0]
 8001598:	f001 fcd8 	bl	8002f4c <HAL_GPIO_WritePin>
 800159c:	782b      	ldrb	r3, [r5, #0]
 800159e:	f083 0301 	eor.w	r3, r3, #1
 80015a2:	702b      	strb	r3, [r5, #0]
 80015a4:	2300      	movs	r3, #0
 80015a6:	f8a9 3000 	strh.w	r3, [r9]
 80015aa:	6822      	ldr	r2, [r4, #0]
 80015ac:	4b21      	ldr	r3, [pc, #132]	@ (8001634 <main+0x548>)
 80015ae:	429a      	cmp	r2, r3
 80015b0:	f47f af68 	bne.w	8001484 <main+0x398>
 80015b4:	4b1c      	ldr	r3, [pc, #112]	@ (8001628 <main+0x53c>)
 80015b6:	781b      	ldrb	r3, [r3, #0]
 80015b8:	2b00      	cmp	r3, #0
 80015ba:	f47f af63 	bne.w	8001484 <main+0x398>
 80015be:	f7ff fb89 	bl	8000cd4 <find_next_blank_page_all>
 80015c2:	6020      	str	r0, [r4, #0]
 80015c4:	e75e      	b.n	8001484 <main+0x398>
 80015c6:	2200      	movs	r2, #0
 80015c8:	e799      	b.n	80014fe <main+0x412>
 80015ca:	bf00      	nop
 80015cc:	20000324 	.word	0x20000324
 80015d0:	40001400 	.word	0x40001400
 80015d4:	20000544 	.word	0x20000544
 80015d8:	40005c00 	.word	0x40005c00
 80015dc:	000186a0 	.word	0x000186a0
 80015e0:	20000047 	.word	0x20000047
 80015e4:	20000524 	.word	0x20000524
 80015e8:	200002d0 	.word	0x200002d0
 80015ec:	200002a6 	.word	0x200002a6
 80015f0:	20000045 	.word	0x20000045
 80015f4:	20000078 	.word	0x20000078
 80015f8:	200002a4 	.word	0x200002a4
 80015fc:	20000080 	.word	0x20000080
 8001600:	200002d8 	.word	0x200002d8
 8001604:	200002d4 	.word	0x200002d4
 8001608:	20000474 	.word	0x20000474
 800160c:	200004cc 	.word	0x200004cc
 8001610:	20000046 	.word	0x20000046
 8001614:	20000070 	.word	0x20000070
 8001618:	200002a5 	.word	0x200002a5
 800161c:	2000008c 	.word	0x2000008c
 8001620:	20000048 	.word	0x20000048
 8001624:	200000a3 	.word	0x200000a3
 8001628:	20000088 	.word	0x20000088
 800162c:	20000068 	.word	0x20000068
 8001630:	20000058 	.word	0x20000058
 8001634:	00ffff00 	.word	0x00ffff00
 8001638:	200002a7 	.word	0x200002a7
 800163c:	2000008a 	.word	0x2000008a
 8001640:	200000a4 	.word	0x200000a4

08001644 <Error_Handler>:
 8001644:	b672      	cpsid	i
 8001646:	e7fe      	b.n	8001646 <Error_Handler+0x2>

08001648 <systemStatus>:
 8001648:	e92d 41f3 	stmdb	sp!, {r0, r1, r4, r5, r6, r7, r8, lr}
 800164c:	4607      	mov	r7, r0
 800164e:	4688      	mov	r8, r1
 8001650:	4610      	mov	r0, r2
 8001652:	2101      	movs	r1, #1
 8001654:	4615      	mov	r5, r2
 8001656:	461e      	mov	r6, r3
 8001658:	f7fe fffc 	bl	8000654 <readBME280_id_reg>
 800165c:	2100      	movs	r1, #0
 800165e:	f1b0 0460 	subs.w	r4, r0, #96	@ 0x60
 8001662:	4628      	mov	r0, r5
 8001664:	bf18      	it	ne
 8001666:	2401      	movne	r4, #1
 8001668:	f7fe fff4 	bl	8000654 <readBME280_id_reg>
 800166c:	0124      	lsls	r4, r4, #4
 800166e:	2860      	cmp	r0, #96	@ 0x60
 8001670:	4630      	mov	r0, r6
 8001672:	bf18      	it	ne
 8001674:	f044 0408 	orrne.w	r4, r4, #8
 8001678:	f7fe ff4e 	bl	8000518 <readAccel_whoami>
 800167c:	4b12      	ldr	r3, [pc, #72]	@ (80016c8 <systemStatus+0x80>)
 800167e:	28e5      	cmp	r0, #229	@ 0xe5
 8001680:	cb0c      	ldmia	r3, {r2, r3}
 8001682:	f04f 0500 	mov.w	r5, #0
 8001686:	4641      	mov	r1, r8
 8001688:	4668      	mov	r0, sp
 800168a:	bf18      	it	ne
 800168c:	f044 0404 	orrne.w	r4, r4, #4
 8001690:	f8ad 5000 	strh.w	r5, [sp]
 8001694:	f7ff f962 	bl	800095c <read_manufacturer_id>
 8001698:	f89d 3000 	ldrb.w	r3, [sp]
 800169c:	f8ad 5004 	strh.w	r5, [sp, #4]
 80016a0:	2bef      	cmp	r3, #239	@ 0xef
 80016a2:	4b0a      	ldr	r3, [pc, #40]	@ (80016cc <systemStatus+0x84>)
 80016a4:	a801      	add	r0, sp, #4
 80016a6:	cb0c      	ldmia	r3, {r2, r3}
 80016a8:	4639      	mov	r1, r7
 80016aa:	bf18      	it	ne
 80016ac:	f044 0402 	orrne.w	r4, r4, #2
 80016b0:	f7ff f954 	bl	800095c <read_manufacturer_id>
 80016b4:	f89d 3004 	ldrb.w	r3, [sp, #4]
 80016b8:	2bef      	cmp	r3, #239	@ 0xef
 80016ba:	bf18      	it	ne
 80016bc:	f044 0401 	orrne.w	r4, r4, #1
 80016c0:	4620      	mov	r0, r4
 80016c2:	b002      	add	sp, #8
 80016c4:	e8bd 81f0 	ldmia.w	sp!, {r4, r5, r6, r7, r8, pc}
 80016c8:	20000058 	.word	0x20000058
 80016cc:	20000068 	.word	0x20000068

080016d0 <heartbeatUART>:
 80016d0:	2151      	movs	r1, #81	@ 0x51
 80016d2:	f000 bd5e 	b.w	8002192 <send_uart_hex>
	...

080016d8 <eraseFlashSPI>:
 80016d8:	b513      	push	{r0, r1, r4, lr}
 80016da:	460c      	mov	r4, r1
 80016dc:	4669      	mov	r1, sp
 80016de:	e881 000c 	stmia.w	r1, {r2, r3}
 80016e2:	c906      	ldmia	r1, {r1, r2}
 80016e4:	f7ff f874 	bl	80007d0 <erase_chip_spi>
 80016e8:	b930      	cbnz	r0, 80016f8 <eraseFlashSPI+0x20>
 80016ea:	4904      	ldr	r1, [pc, #16]	@ (80016fc <eraseFlashSPI+0x24>)
 80016ec:	4620      	mov	r0, r4
 80016ee:	b002      	add	sp, #8
 80016f0:	e8bd 4010 	ldmia.w	sp!, {r4, lr}
 80016f4:	f000 bd3e 	b.w	8002174 <send_uart_string>
 80016f8:	4901      	ldr	r1, [pc, #4]	@ (8001700 <eraseFlashSPI+0x28>)
 80016fa:	e7f7      	b.n	80016ec <eraseFlashSPI+0x14>
 80016fc:	08005548 	.word	0x08005548
 8001700:	08005560 	.word	0x08005560

08001704 <readFlashToUART>:
 8001704:	e92d 41f0 	stmdb	sp!, {r4, r5, r6, r7, r8, lr}
 8001708:	b0c4      	sub	sp, #272	@ 0x110
 800170a:	ae02      	add	r6, sp, #8
 800170c:	e886 000c 	stmia.w	r6, {r2, r3}
 8001710:	4b0e      	ldr	r3, [pc, #56]	@ (800174c <readFlashToUART+0x48>)
 8001712:	681c      	ldr	r4, [r3, #0]
 8001714:	2c00      	cmp	r4, #0
 8001716:	bf08      	it	eq
 8001718:	f44f 7480 	moveq.w	r4, #256	@ 0x100
 800171c:	4607      	mov	r7, r0
 800171e:	4688      	mov	r8, r1
 8001720:	0a24      	lsrs	r4, r4, #8
 8001722:	2500      	movs	r5, #0
 8001724:	42a5      	cmp	r5, r4
 8001726:	ea4f 2205 	mov.w	r2, r5, lsl #8
 800172a:	d102      	bne.n	8001732 <readFlashToUART+0x2e>
 800172c:	b044      	add	sp, #272	@ 0x110
 800172e:	e8bd 81f0 	ldmia.w	sp!, {r4, r5, r6, r7, r8, pc}
 8001732:	6873      	ldr	r3, [r6, #4]
 8001734:	9300      	str	r3, [sp, #0]
 8001736:	6833      	ldr	r3, [r6, #0]
 8001738:	4639      	mov	r1, r7
 800173a:	a804      	add	r0, sp, #16
 800173c:	f7ff f8ec 	bl	8000918 <read_page_spi>
 8001740:	a904      	add	r1, sp, #16
 8001742:	4640      	mov	r0, r8
 8001744:	f000 fd10 	bl	8002168 <uart_transmit_page>
 8001748:	3501      	adds	r5, #1
 800174a:	e7eb      	b.n	8001724 <readFlashToUART+0x20>
 800174c:	2000008c 	.word	0x2000008c

08001750 <readFlashManuSPI>:
 8001750:	b51f      	push	{r0, r1, r2, r3, r4, lr}
 8001752:	460c      	mov	r4, r1
 8001754:	4669      	mov	r1, sp
 8001756:	e881 000c 	stmia.w	r1, {r2, r3}
 800175a:	2300      	movs	r3, #0
 800175c:	f8ad 300c 	strh.w	r3, [sp, #12]
 8001760:	e891 000c 	ldmia.w	r1, {r2, r3}
 8001764:	4601      	mov	r1, r0
 8001766:	a803      	add	r0, sp, #12
 8001768:	f7ff f8f8 	bl	800095c <read_manufacturer_id>
 800176c:	f89d 100c 	ldrb.w	r1, [sp, #12]
 8001770:	4620      	mov	r0, r4
 8001772:	f000 fd0e 	bl	8002192 <send_uart_hex>
 8001776:	f89d 100d 	ldrb.w	r1, [sp, #13]
 800177a:	4620      	mov	r0, r4
 800177c:	f000 fd09 	bl	8002192 <send_uart_hex>
 8001780:	b004      	add	sp, #16
 8001782:	bd10      	pop	{r4, pc}

08001784 <writePageSPI_W>:
 8001784:	b5f0      	push	{r4, r5, r6, r7, lr}
 8001786:	b0c5      	sub	sp, #276	@ 0x114
 8001788:	ac02      	add	r4, sp, #8
 800178a:	e884 000c 	stmia.w	r4, {r2, r3}
 800178e:	4607      	mov	r7, r0
 8001790:	460d      	mov	r5, r1
 8001792:	f44f 7280 	mov.w	r2, #256	@ 0x100
 8001796:	2177      	movs	r1, #119	@ 0x77
 8001798:	a804      	add	r0, sp, #16
 800179a:	f003 fe99 	bl	80054d0 <memset>
 800179e:	4e09      	ldr	r6, [pc, #36]	@ (80017c4 <writePageSPI_W+0x40>)
 80017a0:	6863      	ldr	r3, [r4, #4]
 80017a2:	9300      	str	r3, [sp, #0]
 80017a4:	6823      	ldr	r3, [r4, #0]
 80017a6:	6832      	ldr	r2, [r6, #0]
 80017a8:	4639      	mov	r1, r7
 80017aa:	a804      	add	r0, sp, #16
 80017ac:	f7ff f858 	bl	8000860 <write_data_spi_dma>
 80017b0:	6833      	ldr	r3, [r6, #0]
 80017b2:	4905      	ldr	r1, [pc, #20]	@ (80017c8 <writePageSPI_W+0x44>)
 80017b4:	f503 7380 	add.w	r3, r3, #256	@ 0x100
 80017b8:	4628      	mov	r0, r5
 80017ba:	6033      	str	r3, [r6, #0]
 80017bc:	f000 fcda 	bl	8002174 <send_uart_string>
 80017c0:	b045      	add	sp, #276	@ 0x114
 80017c2:	bdf0      	pop	{r4, r5, r6, r7, pc}
 80017c4:	2000008c 	.word	0x2000008c
 80017c8:	080055a6 	.word	0x080055a6

080017cc <resetSPIFlash>:
 80017cc:	b537      	push	{r0, r1, r2, r4, r5, lr}
 80017ce:	466c      	mov	r4, sp
 80017d0:	e884 000c 	stmia.w	r4, {r2, r3}
 80017d4:	460d      	mov	r5, r1
 80017d6:	e894 0006 	ldmia.w	r4, {r1, r2}
 80017da:	f7ff f81d 	bl	8000818 <software_reset>
 80017de:	4903      	ldr	r1, [pc, #12]	@ (80017ec <resetSPIFlash+0x20>)
 80017e0:	4628      	mov	r0, r5
 80017e2:	b003      	add	sp, #12
 80017e4:	e8bd 4030 	ldmia.w	sp!, {r4, r5, lr}
 80017e8:	f000 bcc4 	b.w	8002174 <send_uart_string>
 80017ec:	080055c0 	.word	0x080055c0

080017f0 <checkAccelWhoAmI>:
 80017f0:	b510      	push	{r4, lr}
 80017f2:	460c      	mov	r4, r1
 80017f4:	f7fe fe90 	bl	8000518 <readAccel_whoami>
 80017f8:	4601      	mov	r1, r0
 80017fa:	4620      	mov	r0, r4
 80017fc:	e8bd 4010 	ldmia.w	sp!, {r4, lr}
 8001800:	f000 bcc7 	b.w	8002192 <send_uart_hex>

08001804 <accelToUART>:
 8001804:	b570      	push	{r4, r5, r6, lr}
 8001806:	4e06      	ldr	r6, [pc, #24]	@ (8001820 <accelToUART+0x1c>)
 8001808:	4605      	mov	r5, r0
 800180a:	2400      	movs	r4, #0
 800180c:	f816 1b01 	ldrb.w	r1, [r6], #1
 8001810:	4628      	mov	r0, r5
 8001812:	3401      	adds	r4, #1
 8001814:	f000 fcbd 	bl	8002192 <send_uart_hex>
 8001818:	2c06      	cmp	r4, #6
 800181a:	d1f7      	bne.n	800180c <accelToUART+0x8>
 800181c:	bd70      	pop	{r4, r5, r6, pc}
 800181e:	bf00      	nop
 8001820:	2000009d 	.word	0x2000009d

08001824 <readTempSensorID>:
 8001824:	b510      	push	{r4, lr}
 8001826:	460c      	mov	r4, r1
 8001828:	4611      	mov	r1, r2
 800182a:	f7fe ff13 	bl	8000654 <readBME280_id_reg>
 800182e:	4601      	mov	r1, r0
 8001830:	4620      	mov	r0, r4
 8001832:	e8bd 4010 	ldmia.w	sp!, {r4, lr}
 8001836:	f000 bcac 	b.w	8002192 <send_uart_hex>

0800183a <readTempCalibration>:
 800183a:	b570      	push	{r4, r5, r6, lr}
 800183c:	b08a      	sub	sp, #40	@ 0x28
 800183e:	4604      	mov	r4, r0
 8001840:	460d      	mov	r5, r1
 8001842:	4616      	mov	r6, r2
 8001844:	2100      	movs	r1, #0
 8001846:	2219      	movs	r2, #25
 8001848:	a803      	add	r0, sp, #12
 800184a:	f003 fe41 	bl	80054d0 <memset>
 800184e:	2300      	movs	r3, #0
 8001850:	a901      	add	r1, sp, #4
 8001852:	4618      	mov	r0, r3
 8001854:	2b06      	cmp	r3, #6
 8001856:	f103 0201 	add.w	r2, r3, #1
 800185a:	d802      	bhi.n	8001862 <readTempCalibration+0x28>
 800185c:	5458      	strb	r0, [r3, r1]
 800185e:	4613      	mov	r3, r2
 8001860:	e7f8      	b.n	8001854 <readTempCalibration+0x1a>
 8001862:	2a19      	cmp	r2, #25
 8001864:	4613      	mov	r3, r2
 8001866:	d1f5      	bne.n	8001854 <readTempCalibration+0x1a>
 8001868:	4631      	mov	r1, r6
 800186a:	4620      	mov	r0, r4
 800186c:	ab01      	add	r3, sp, #4
 800186e:	aa03      	add	r2, sp, #12
 8001870:	f7fe ff06 	bl	8000680 <readBME280_calib>
 8001874:	ac03      	add	r4, sp, #12
 8001876:	2600      	movs	r6, #0
 8001878:	f814 1b01 	ldrb.w	r1, [r4], #1
 800187c:	4628      	mov	r0, r5
 800187e:	3601      	adds	r6, #1
 8001880:	f000 fc87 	bl	8002192 <send_uart_hex>
 8001884:	2e19      	cmp	r6, #25
 8001886:	d1f7      	bne.n	8001878 <readTempCalibration+0x3e>
 8001888:	ac01      	add	r4, sp, #4
 800188a:	2600      	movs	r6, #0
 800188c:	f814 1b01 	ldrb.w	r1, [r4], #1
 8001890:	4628      	mov	r0, r5
 8001892:	3601      	adds	r6, #1
 8001894:	f000 fc7d 	bl	8002192 <send_uart_hex>
 8001898:	2e07      	cmp	r6, #7
 800189a:	d1f7      	bne.n	800188c <readTempCalibration+0x52>
 800189c:	b00a      	add	sp, #40	@ 0x28
 800189e:	bd70      	pop	{r4, r5, r6, pc}

080018a0 <readTempSensor>:
 80018a0:	b570      	push	{r4, r5, r6, lr}
 80018a2:	4605      	mov	r5, r0
 80018a4:	460c      	mov	r4, r1
 80018a6:	b949      	cbnz	r1, 80018bc <readTempSensor+0x1c>
 80018a8:	4e0b      	ldr	r6, [pc, #44]	@ (80018d8 <readTempSensor+0x38>)
 80018aa:	f816 1b01 	ldrb.w	r1, [r6], #1
 80018ae:	4628      	mov	r0, r5
 80018b0:	3401      	adds	r4, #1
 80018b2:	f000 fc6e 	bl	8002192 <send_uart_hex>
 80018b6:	2c06      	cmp	r4, #6
 80018b8:	d1f7      	bne.n	80018aa <readTempSensor+0xa>
 80018ba:	bd70      	pop	{r4, r5, r6, pc}
 80018bc:	2901      	cmp	r1, #1
 80018be:	d1fc      	bne.n	80018ba <readTempSensor+0x1a>
 80018c0:	4e06      	ldr	r6, [pc, #24]	@ (80018dc <readTempSensor+0x3c>)
 80018c2:	2400      	movs	r4, #0
 80018c4:	f816 1b01 	ldrb.w	r1, [r6], #1
 80018c8:	4628      	mov	r0, r5
 80018ca:	3401      	adds	r4, #1
 80018cc:	f000 fc61 	bl	8002192 <send_uart_hex>
 80018d0:	2c06      	cmp	r4, #6
 80018d2:	d1f7      	bne.n	80018c4 <readTempSensor+0x24>
 80018d4:	e7f1      	b.n	80018ba <readTempSensor+0x1a>
 80018d6:	bf00      	nop
 80018d8:	20000097 	.word	0x20000097
 80018dc:	20000091 	.word	0x20000091

080018e0 <readAllSensors>:
 80018e0:	e92d 43f8 	stmdb	sp!, {r3, r4, r5, r6, r7, r8, r9, lr}
 80018e4:	f8df 80b4 	ldr.w	r8, [pc, #180]	@ 800199c <readAllSensors+0xbc>
 80018e8:	4f27      	ldr	r7, [pc, #156]	@ (8001988 <readAllSensors+0xa8>)
 80018ea:	4e28      	ldr	r6, [pc, #160]	@ (800198c <readAllSensors+0xac>)
 80018ec:	460c      	mov	r4, r1
 80018ee:	4601      	mov	r1, r0
 80018f0:	4640      	mov	r0, r8
 80018f2:	4615      	mov	r5, r2
 80018f4:	f7fe fdfa 	bl	80004ec <readAccelerometer>
 80018f8:	2200      	movs	r2, #0
 80018fa:	4621      	mov	r1, r4
 80018fc:	4638      	mov	r0, r7
 80018fe:	f7fe fedd 	bl	80006bc <readTempHumPres>
 8001902:	4823      	ldr	r0, [pc, #140]	@ (8001990 <readAllSensors+0xb0>)
 8001904:	2201      	movs	r2, #1
 8001906:	4621      	mov	r1, r4
 8001908:	f7fe fed8 	bl	80006bc <readTempHumPres>
 800190c:	4628      	mov	r0, r5
 800190e:	f000 f877 	bl	8001a00 <getTimestampMilliseconds>
 8001912:	8835      	ldrh	r5, [r6, #0]
 8001914:	2dea      	cmp	r5, #234	@ 0xea
 8001916:	d834      	bhi.n	8001982 <readAllSensors+0xa2>
 8001918:	4b1e      	ldr	r3, [pc, #120]	@ (8001994 <readAllSensors+0xb4>)
 800191a:	4c1f      	ldr	r4, [pc, #124]	@ (8001998 <readAllSensors+0xb8>)
 800191c:	781a      	ldrb	r2, [r3, #0]
 800191e:	f8d8 c000 	ldr.w	ip, [r8]
 8001922:	eb04 2302 	add.w	r3, r4, r2, lsl #8
 8001926:	1959      	adds	r1, r3, r5
 8001928:	5558      	strb	r0, [r3, r5]
 800192a:	f3c0 2007 	ubfx	r0, r0, #8, #8
 800192e:	7048      	strb	r0, [r1, #1]
 8001930:	eb05 2302 	add.w	r3, r5, r2, lsl #8
 8001934:	1ca1      	adds	r1, r4, #2
 8001936:	1858      	adds	r0, r3, r1
 8001938:	f841 c003 	str.w	ip, [r1, r3]
 800193c:	f8b8 1004 	ldrh.w	r1, [r8, #4]
 8001940:	8081      	strh	r1, [r0, #4]
 8001942:	f104 0108 	add.w	r1, r4, #8
 8001946:	f8d7 c000 	ldr.w	ip, [r7]
 800194a:	f841 c003 	str.w	ip, [r1, r3]
 800194e:	1858      	adds	r0, r3, r1
 8001950:	88bb      	ldrh	r3, [r7, #4]
 8001952:	8083      	strh	r3, [r0, #4]
 8001954:	f105 030d 	add.w	r3, r5, #13
 8001958:	eb03 2302 	add.w	r3, r3, r2, lsl #8
 800195c:	490c      	ldr	r1, [pc, #48]	@ (8001990 <readAllSensors+0xb0>)
 800195e:	ea4f 2902 	mov.w	r9, r2, lsl #8
 8001962:	4423      	add	r3, r4
 8001964:	2206      	movs	r2, #6
 8001966:	f811 0b01 	ldrb.w	r0, [r1], #1
 800196a:	f803 0f01 	strb.w	r0, [r3, #1]!
 800196e:	3a01      	subs	r2, #1
 8001970:	d1f9      	bne.n	8001966 <readAllSensors+0x86>
 8001972:	f7ff f925 	bl	8000bc0 <combine_system_status>
 8001976:	444c      	add	r4, r9
 8001978:	8833      	ldrh	r3, [r6, #0]
 800197a:	442c      	add	r4, r5
 800197c:	3315      	adds	r3, #21
 800197e:	7520      	strb	r0, [r4, #20]
 8001980:	8033      	strh	r3, [r6, #0]
 8001982:	e8bd 83f8 	ldmia.w	sp!, {r3, r4, r5, r6, r7, r8, r9, pc}
 8001986:	bf00      	nop
 8001988:	20000097 	.word	0x20000097
 800198c:	2000008a 	.word	0x2000008a
 8001990:	20000091 	.word	0x20000091
 8001994:	200000a3 	.word	0x200000a3
 8001998:	200000a4 	.word	0x200000a4
 800199c:	2000009d 	.word	0x2000009d

080019a0 <initialise_rtc_default>:
 80019a0:	b537      	push	{r0, r1, r2, r4, r5, lr}
 80019a2:	4b13      	ldr	r3, [pc, #76]	@ (80019f0 <initialise_rtc_default+0x50>)
 80019a4:	2500      	movs	r5, #0
 80019a6:	9501      	str	r5, [sp, #4]
 80019a8:	6c1a      	ldr	r2, [r3, #64]	@ 0x40
 80019aa:	f042 5280 	orr.w	r2, r2, #268435456	@ 0x10000000
 80019ae:	641a      	str	r2, [r3, #64]	@ 0x40
 80019b0:	6c1b      	ldr	r3, [r3, #64]	@ 0x40
 80019b2:	f003 5380 	and.w	r3, r3, #268435456	@ 0x10000000
 80019b6:	9301      	str	r3, [sp, #4]
 80019b8:	4604      	mov	r4, r0
 80019ba:	9b01      	ldr	r3, [sp, #4]
 80019bc:	f001 ff3e 	bl	800383c <HAL_PWR_EnableBkUpAccess>
 80019c0:	4b0c      	ldr	r3, [pc, #48]	@ (80019f4 <initialise_rtc_default+0x54>)
 80019c2:	2201      	movs	r2, #1
 80019c4:	f8c3 2e40 	str.w	r2, [r3, #3648]	@ 0xe40
 80019c8:	4620      	mov	r0, r4
 80019ca:	f8c3 5e40 	str.w	r5, [r3, #3648]	@ 0xe40
 80019ce:	f000 f9e5 	bl	8001d9c <HAL_RTC_MspInit>
 80019d2:	462a      	mov	r2, r5
 80019d4:	4908      	ldr	r1, [pc, #32]	@ (80019f8 <initialise_rtc_default+0x58>)
 80019d6:	4620      	mov	r0, r4
 80019d8:	f002 fbae 	bl	8004138 <HAL_RTC_SetTime>
 80019dc:	4907      	ldr	r1, [pc, #28]	@ (80019fc <initialise_rtc_default+0x5c>)
 80019de:	462a      	mov	r2, r5
 80019e0:	4620      	mov	r0, r4
 80019e2:	f002 fc03 	bl	80041ec <HAL_RTC_SetDate>
 80019e6:	b003      	add	sp, #12
 80019e8:	e8bd 4030 	ldmia.w	sp!, {r4, r5, lr}
 80019ec:	f001 bf34 	b.w	8003858 <HAL_PWR_DisableBkUpAccess>
 80019f0:	40023800 	.word	0x40023800
 80019f4:	42470000 	.word	0x42470000
 80019f8:	20000614 	.word	0x20000614
 80019fc:	20000018 	.word	0x20000018

08001a00 <getTimestampMilliseconds>:
 8001a00:	b510      	push	{r4, lr}
 8001a02:	b086      	sub	sp, #24
 8001a04:	4604      	mov	r4, r0
 8001a06:	a901      	add	r1, sp, #4
 8001a08:	2200      	movs	r2, #0
 8001a0a:	f002 fc3f 	bl	800428c <HAL_RTC_GetTime>
 8001a0e:	4669      	mov	r1, sp
 8001a10:	2200      	movs	r2, #0
 8001a12:	4620      	mov	r0, r4
 8001a14:	f002 fc5d 	bl	80042d2 <HAL_RTC_GetDate>
 8001a18:	e9dd 2302 	ldrd	r2, r3, [sp, #8]
 8001a1c:	1a9a      	subs	r2, r3, r2
 8001a1e:	ee07 2a90 	vmov	s15, r2
 8001a22:	3301      	adds	r3, #1
 8001a24:	eeb8 7a67 	vcvt.f32.u32	s14, s15
 8001a28:	ee07 3a90 	vmov	s15, r3
 8001a2c:	eef8 7a67 	vcvt.f32.u32	s15, s15
 8001a30:	f89d 1005 	ldrb.w	r1, [sp, #5]
 8001a34:	f89d 2006 	ldrb.w	r2, [sp, #6]
 8001a38:	eec7 6a27 	vdiv.f32	s13, s14, s15
 8001a3c:	233c      	movs	r3, #60	@ 0x3c
 8001a3e:	fb13 2301 	smlabb	r3, r3, r1, r2
 8001a42:	f89d 2004 	ldrb.w	r2, [sp, #4]
 8001a46:	f44f 6161 	mov.w	r1, #3600	@ 0xe10
 8001a4a:	fb01 3302 	mla	r3, r1, r2, r3
 8001a4e:	f44f 727a 	mov.w	r2, #1000	@ 0x3e8
 8001a52:	4353      	muls	r3, r2
 8001a54:	ee07 3a90 	vmov	s15, r3
 8001a58:	ed9f 7a05 	vldr	s14, [pc, #20]	@ 8001a70 <getTimestampMilliseconds+0x70>
 8001a5c:	eef8 7ae7 	vcvt.f32.s32	s15, s15
 8001a60:	eee6 7a87 	vfma.f32	s15, s13, s14
 8001a64:	eefc 7ae7 	vcvt.u32.f32	s15, s15
 8001a68:	ee17 0a90 	vmov	r0, s15
 8001a6c:	b006      	add	sp, #24
 8001a6e:	bd10      	pop	{r4, pc}
 8001a70:	447a0000 	.word	0x447a0000

08001a74 <spi_sendOp_readByte>:
 8001a74:	e92d 41f0 	stmdb	sp!, {r4, r5, r6, r7, r8, lr}
 8001a78:	f8bd 8018 	ldrh.w	r8, [sp, #24]
 8001a7c:	460d      	mov	r5, r1
 8001a7e:	4607      	mov	r7, r0
 8001a80:	4616      	mov	r6, r2
 8001a82:	4641      	mov	r1, r8
 8001a84:	4618      	mov	r0, r3
 8001a86:	2200      	movs	r2, #0
 8001a88:	461c      	mov	r4, r3
 8001a8a:	f001 fa5f 	bl	8002f4c <HAL_GPIO_WritePin>
 8001a8e:	4639      	mov	r1, r7
 8001a90:	2302      	movs	r3, #2
 8001a92:	2201      	movs	r2, #1
 8001a94:	4628      	mov	r0, r5
 8001a96:	f002 fd5b 	bl	8004550 <HAL_SPI_Transmit>
 8001a9a:	2302      	movs	r3, #2
 8001a9c:	4631      	mov	r1, r6
 8001a9e:	2201      	movs	r2, #1
 8001aa0:	4628      	mov	r0, r5
 8001aa2:	f002 ff00 	bl	80048a6 <HAL_SPI_Receive>
 8001aa6:	2201      	movs	r2, #1
 8001aa8:	4605      	mov	r5, r0
 8001aaa:	4641      	mov	r1, r8
 8001aac:	4620      	mov	r0, r4
 8001aae:	f001 fa4d 	bl	8002f4c <HAL_GPIO_WritePin>
 8001ab2:	4628      	mov	r0, r5
 8001ab4:	e8bd 81f0 	ldmia.w	sp!, {r4, r5, r6, r7, r8, pc}

08001ab8 <perform_operation>:
 8001ab8:	b5f8      	push	{r3, r4, r5, r6, r7, lr}
 8001aba:	4614      	mov	r4, r2
 8001abc:	4607      	mov	r7, r0
 8001abe:	460e      	mov	r6, r1
 8001ac0:	4620      	mov	r0, r4
 8001ac2:	4619      	mov	r1, r3
 8001ac4:	2200      	movs	r2, #0
 8001ac6:	461d      	mov	r5, r3
 8001ac8:	f001 fa40 	bl	8002f4c <HAL_GPIO_WritePin>
 8001acc:	2302      	movs	r3, #2
 8001ace:	4639      	mov	r1, r7
 8001ad0:	2201      	movs	r2, #1
 8001ad2:	4630      	mov	r0, r6
 8001ad4:	f002 fd3c 	bl	8004550 <HAL_SPI_Transmit>
 8001ad8:	2201      	movs	r2, #1
 8001ada:	4606      	mov	r6, r0
 8001adc:	4629      	mov	r1, r5
 8001ade:	4620      	mov	r0, r4
 8001ae0:	f001 fa34 	bl	8002f4c <HAL_GPIO_WritePin>
 8001ae4:	4630      	mov	r0, r6
 8001ae6:	bdf8      	pop	{r3, r4, r5, r6, r7, pc}

08001ae8 <spi_read_data>:
 8001ae8:	e92d 43f7 	stmdb	sp!, {r0, r1, r2, r4, r5, r6, r7, r8, r9, lr}
 8001aec:	461c      	mov	r4, r3
 8001aee:	e9dd 360a 	ldrd	r3, r6, [sp, #40]	@ 0x28
 8001af2:	f8bd 7030 	ldrh.w	r7, [sp, #48]	@ 0x30
 8001af6:	f88d 3005 	strb.w	r3, [sp, #5]
 8001afa:	4615      	mov	r5, r2
 8001afc:	0a1a      	lsrs	r2, r3, #8
 8001afe:	4681      	mov	r9, r0
 8001b00:	4688      	mov	r8, r1
 8001b02:	f88d 2006 	strb.w	r2, [sp, #6]
 8001b06:	0c1b      	lsrs	r3, r3, #16
 8001b08:	4639      	mov	r1, r7
 8001b0a:	4630      	mov	r0, r6
 8001b0c:	2200      	movs	r2, #0
 8001b0e:	f88d 3007 	strb.w	r3, [sp, #7]
 8001b12:	f001 fa1b 	bl	8002f4c <HAL_GPIO_WritePin>
 8001b16:	4649      	mov	r1, r9
 8001b18:	2302      	movs	r3, #2
 8001b1a:	2201      	movs	r2, #1
 8001b1c:	4620      	mov	r0, r4
 8001b1e:	f002 fd17 	bl	8004550 <HAL_SPI_Transmit>
 8001b22:	f10d 0107 	add.w	r1, sp, #7
 8001b26:	2302      	movs	r3, #2
 8001b28:	2201      	movs	r2, #1
 8001b2a:	4620      	mov	r0, r4
 8001b2c:	f002 fd10 	bl	8004550 <HAL_SPI_Transmit>
 8001b30:	f10d 0106 	add.w	r1, sp, #6
 8001b34:	2302      	movs	r3, #2
 8001b36:	2201      	movs	r2, #1
 8001b38:	4620      	mov	r0, r4
 8001b3a:	f002 fd09 	bl	8004550 <HAL_SPI_Transmit>
 8001b3e:	f10d 0105 	add.w	r1, sp, #5
 8001b42:	2302      	movs	r3, #2
 8001b44:	2201      	movs	r2, #1
 8001b46:	4620      	mov	r0, r4
 8001b48:	f002 fd02 	bl	8004550 <HAL_SPI_Transmit>
 8001b4c:	2364      	movs	r3, #100	@ 0x64
 8001b4e:	4642      	mov	r2, r8
 8001b50:	4629      	mov	r1, r5
 8001b52:	4620      	mov	r0, r4
 8001b54:	f002 fea7 	bl	80048a6 <HAL_SPI_Receive>
 8001b58:	2201      	movs	r2, #1
 8001b5a:	4604      	mov	r4, r0
 8001b5c:	4639      	mov	r1, r7
 8001b5e:	4630      	mov	r0, r6
 8001b60:	f001 f9f4 	bl	8002f4c <HAL_GPIO_WritePin>
 8001b64:	4620      	mov	r0, r4
 8001b66:	b003      	add	sp, #12
 8001b68:	e8bd 83f0 	ldmia.w	sp!, {r4, r5, r6, r7, r8, r9, pc}

08001b6c <spi_write_data_dma>:
 8001b6c:	b5f7      	push	{r0, r1, r2, r4, r5, r6, r7, lr}
 8001b6e:	461c      	mov	r4, r3
 8001b70:	9b08      	ldr	r3, [sp, #32]
 8001b72:	f88d 3005 	strb.w	r3, [sp, #5]
 8001b76:	4615      	mov	r5, r2
 8001b78:	0a1a      	lsrs	r2, r3, #8
 8001b7a:	4607      	mov	r7, r0
 8001b7c:	460e      	mov	r6, r1
 8001b7e:	9809      	ldr	r0, [sp, #36]	@ 0x24
 8001b80:	f8bd 1028 	ldrh.w	r1, [sp, #40]	@ 0x28
 8001b84:	f88d 2006 	strb.w	r2, [sp, #6]
 8001b88:	0c1b      	lsrs	r3, r3, #16
 8001b8a:	2200      	movs	r2, #0
 8001b8c:	f88d 3007 	strb.w	r3, [sp, #7]
 8001b90:	f001 f9dc 	bl	8002f4c <HAL_GPIO_WritePin>
 8001b94:	4639      	mov	r1, r7
 8001b96:	2302      	movs	r3, #2
 8001b98:	2201      	movs	r2, #1
 8001b9a:	4620      	mov	r0, r4
 8001b9c:	f002 fcd8 	bl	8004550 <HAL_SPI_Transmit>
 8001ba0:	f10d 0107 	add.w	r1, sp, #7
 8001ba4:	2302      	movs	r3, #2
 8001ba6:	2201      	movs	r2, #1
 8001ba8:	4620      	mov	r0, r4
 8001baa:	f002 fcd1 	bl	8004550 <HAL_SPI_Transmit>
 8001bae:	f10d 0106 	add.w	r1, sp, #6
 8001bb2:	2302      	movs	r3, #2
 8001bb4:	2201      	movs	r2, #1
 8001bb6:	4620      	mov	r0, r4
 8001bb8:	f002 fcca 	bl	8004550 <HAL_SPI_Transmit>
 8001bbc:	2302      	movs	r3, #2
 8001bbe:	f10d 0105 	add.w	r1, sp, #5
 8001bc2:	2201      	movs	r2, #1
 8001bc4:	4620      	mov	r0, r4
 8001bc6:	f002 fcc3 	bl	8004550 <HAL_SPI_Transmit>
 8001bca:	4632      	mov	r2, r6
 8001bcc:	4629      	mov	r1, r5
 8001bce:	4620      	mov	r0, r4
 8001bd0:	f002 ff0e 	bl	80049f0 <HAL_SPI_Transmit_DMA>
 8001bd4:	b003      	add	sp, #12
 8001bd6:	bdf0      	pop	{r4, r5, r6, r7, pc}

08001bd8 <HAL_MspInit>:
 8001bd8:	b082      	sub	sp, #8
 8001bda:	4b0c      	ldr	r3, [pc, #48]	@ (8001c0c <HAL_MspInit+0x34>)
 8001bdc:	2100      	movs	r1, #0
 8001bde:	9100      	str	r1, [sp, #0]
 8001be0:	6c5a      	ldr	r2, [r3, #68]	@ 0x44
 8001be2:	f442 4280 	orr.w	r2, r2, #16384	@ 0x4000
 8001be6:	645a      	str	r2, [r3, #68]	@ 0x44
 8001be8:	6c5a      	ldr	r2, [r3, #68]	@ 0x44
 8001bea:	f402 4280 	and.w	r2, r2, #16384	@ 0x4000
 8001bee:	9200      	str	r2, [sp, #0]
 8001bf0:	9a00      	ldr	r2, [sp, #0]
 8001bf2:	9101      	str	r1, [sp, #4]
 8001bf4:	6c1a      	ldr	r2, [r3, #64]	@ 0x40
 8001bf6:	f042 5280 	orr.w	r2, r2, #268435456	@ 0x10000000
 8001bfa:	641a      	str	r2, [r3, #64]	@ 0x40
 8001bfc:	6c1b      	ldr	r3, [r3, #64]	@ 0x40
 8001bfe:	f003 5380 	and.w	r3, r3, #268435456	@ 0x10000000
 8001c02:	9301      	str	r3, [sp, #4]
 8001c04:	9b01      	ldr	r3, [sp, #4]
 8001c06:	b002      	add	sp, #8
 8001c08:	4770      	bx	lr
 8001c0a:	bf00      	nop
 8001c0c:	40023800 	.word	0x40023800

08001c10 <HAL_CAN_MspInit>:
 8001c10:	b510      	push	{r4, lr}
 8001c12:	4604      	mov	r4, r0
 8001c14:	b088      	sub	sp, #32
 8001c16:	2214      	movs	r2, #20
 8001c18:	2100      	movs	r1, #0
 8001c1a:	a803      	add	r0, sp, #12
 8001c1c:	f003 fc58 	bl	80054d0 <memset>
 8001c20:	6822      	ldr	r2, [r4, #0]
 8001c22:	4b1d      	ldr	r3, [pc, #116]	@ (8001c98 <HAL_CAN_MspInit+0x88>)
 8001c24:	429a      	cmp	r2, r3
 8001c26:	d134      	bne.n	8001c92 <HAL_CAN_MspInit+0x82>
 8001c28:	f503 33e8 	add.w	r3, r3, #118784	@ 0x1d000
 8001c2c:	2400      	movs	r4, #0
 8001c2e:	9400      	str	r4, [sp, #0]
 8001c30:	6c1a      	ldr	r2, [r3, #64]	@ 0x40
 8001c32:	481a      	ldr	r0, [pc, #104]	@ (8001c9c <HAL_CAN_MspInit+0x8c>)
 8001c34:	f042 6280 	orr.w	r2, r2, #67108864	@ 0x4000000
 8001c38:	641a      	str	r2, [r3, #64]	@ 0x40
 8001c3a:	6c1a      	ldr	r2, [r3, #64]	@ 0x40
 8001c3c:	f002 6280 	and.w	r2, r2, #67108864	@ 0x4000000
 8001c40:	9200      	str	r2, [sp, #0]
 8001c42:	9a00      	ldr	r2, [sp, #0]
 8001c44:	9401      	str	r4, [sp, #4]
 8001c46:	6c1a      	ldr	r2, [r3, #64]	@ 0x40
 8001c48:	f042 7200 	orr.w	r2, r2, #33554432	@ 0x2000000
 8001c4c:	641a      	str	r2, [r3, #64]	@ 0x40
 8001c4e:	6c1a      	ldr	r2, [r3, #64]	@ 0x40
 8001c50:	f002 7200 	and.w	r2, r2, #33554432	@ 0x2000000
 8001c54:	9201      	str	r2, [sp, #4]
 8001c56:	9a01      	ldr	r2, [sp, #4]
 8001c58:	9402      	str	r4, [sp, #8]
 8001c5a:	6b1a      	ldr	r2, [r3, #48]	@ 0x30
 8001c5c:	f042 0202 	orr.w	r2, r2, #2
 8001c60:	631a      	str	r2, [r3, #48]	@ 0x30
 8001c62:	6b1b      	ldr	r3, [r3, #48]	@ 0x30
 8001c64:	f003 0302 	and.w	r3, r3, #2
 8001c68:	9302      	str	r3, [sp, #8]
 8001c6a:	2260      	movs	r2, #96	@ 0x60
 8001c6c:	9b02      	ldr	r3, [sp, #8]
 8001c6e:	2302      	movs	r3, #2
 8001c70:	e9cd 2303 	strd	r2, r3, [sp, #12]
 8001c74:	2103      	movs	r1, #3
 8001c76:	2309      	movs	r3, #9
 8001c78:	e9cd 1306 	strd	r1, r3, [sp, #24]
 8001c7c:	a903      	add	r1, sp, #12
 8001c7e:	f001 f87b 	bl	8002d78 <HAL_GPIO_Init>
 8001c82:	2040      	movs	r0, #64	@ 0x40
 8001c84:	4622      	mov	r2, r4
 8001c86:	4621      	mov	r1, r4
 8001c88:	f000 fe46 	bl	8002918 <HAL_NVIC_SetPriority>
 8001c8c:	2040      	movs	r0, #64	@ 0x40
 8001c8e:	f000 fe75 	bl	800297c <HAL_NVIC_EnableIRQ>
 8001c92:	b008      	add	sp, #32
 8001c94:	bd10      	pop	{r4, pc}
 8001c96:	bf00      	nop
 8001c98:	40006800 	.word	0x40006800
 8001c9c:	40020400 	.word	0x40020400

08001ca0 <HAL_I2C_MspInit>:
 8001ca0:	e92d 41f0 	stmdb	sp!, {r4, r5, r6, r7, r8, lr}
 8001ca4:	2214      	movs	r2, #20
 8001ca6:	b08a      	sub	sp, #40	@ 0x28
 8001ca8:	4604      	mov	r4, r0
 8001caa:	2100      	movs	r1, #0
 8001cac:	eb0d 0002 	add.w	r0, sp, r2
 8001cb0:	f003 fc0e 	bl	80054d0 <memset>
 8001cb4:	6823      	ldr	r3, [r4, #0]
 8001cb6:	4a33      	ldr	r2, [pc, #204]	@ (8001d84 <HAL_I2C_MspInit+0xe4>)
 8001cb8:	4293      	cmp	r3, r2
 8001cba:	d125      	bne.n	8001d08 <HAL_I2C_MspInit+0x68>
 8001cbc:	4c32      	ldr	r4, [pc, #200]	@ (8001d88 <HAL_I2C_MspInit+0xe8>)
 8001cbe:	4833      	ldr	r0, [pc, #204]	@ (8001d8c <HAL_I2C_MspInit+0xec>)
 8001cc0:	2500      	movs	r5, #0
 8001cc2:	9500      	str	r5, [sp, #0]
 8001cc4:	6b23      	ldr	r3, [r4, #48]	@ 0x30
 8001cc6:	f043 0302 	orr.w	r3, r3, #2
 8001cca:	6323      	str	r3, [r4, #48]	@ 0x30
 8001ccc:	6b23      	ldr	r3, [r4, #48]	@ 0x30
 8001cce:	f003 0302 	and.w	r3, r3, #2
 8001cd2:	9300      	str	r3, [sp, #0]
 8001cd4:	9b00      	ldr	r3, [sp, #0]
 8001cd6:	f44f 7240 	mov.w	r2, #768	@ 0x300
 8001cda:	2312      	movs	r3, #18
 8001cdc:	e9cd 2305 	strd	r2, r3, [sp, #20]
 8001ce0:	2103      	movs	r1, #3
 8001ce2:	2304      	movs	r3, #4
 8001ce4:	e9cd 1308 	strd	r1, r3, [sp, #32]
 8001ce8:	a905      	add	r1, sp, #20
 8001cea:	f001 f845 	bl	8002d78 <HAL_GPIO_Init>
 8001cee:	9501      	str	r5, [sp, #4]
 8001cf0:	6c23      	ldr	r3, [r4, #64]	@ 0x40
 8001cf2:	f443 1300 	orr.w	r3, r3, #2097152	@ 0x200000
 8001cf6:	6423      	str	r3, [r4, #64]	@ 0x40
 8001cf8:	6c23      	ldr	r3, [r4, #64]	@ 0x40
 8001cfa:	f403 1300 	and.w	r3, r3, #2097152	@ 0x200000
 8001cfe:	9301      	str	r3, [sp, #4]
 8001d00:	9b01      	ldr	r3, [sp, #4]
 8001d02:	b00a      	add	sp, #40	@ 0x28
 8001d04:	e8bd 81f0 	ldmia.w	sp!, {r4, r5, r6, r7, r8, pc}
 8001d08:	4a21      	ldr	r2, [pc, #132]	@ (8001d90 <HAL_I2C_MspInit+0xf0>)
 8001d0a:	4293      	cmp	r3, r2
 8001d0c:	d1f9      	bne.n	8001d02 <HAL_I2C_MspInit+0x62>
 8001d0e:	4c1e      	ldr	r4, [pc, #120]	@ (8001d88 <HAL_I2C_MspInit+0xe8>)
 8001d10:	4820      	ldr	r0, [pc, #128]	@ (8001d94 <HAL_I2C_MspInit+0xf4>)
 8001d12:	2500      	movs	r5, #0
 8001d14:	9502      	str	r5, [sp, #8]
 8001d16:	6b23      	ldr	r3, [r4, #48]	@ 0x30
 8001d18:	f043 0304 	orr.w	r3, r3, #4
 8001d1c:	6323      	str	r3, [r4, #48]	@ 0x30
 8001d1e:	6b23      	ldr	r3, [r4, #48]	@ 0x30
 8001d20:	f003 0304 	and.w	r3, r3, #4
 8001d24:	9302      	str	r3, [sp, #8]
 8001d26:	9b02      	ldr	r3, [sp, #8]
 8001d28:	9503      	str	r5, [sp, #12]
 8001d2a:	6b23      	ldr	r3, [r4, #48]	@ 0x30
 8001d2c:	f043 0301 	orr.w	r3, r3, #1
 8001d30:	6323      	str	r3, [r4, #48]	@ 0x30
 8001d32:	6b23      	ldr	r3, [r4, #48]	@ 0x30
 8001d34:	f003 0301 	and.w	r3, r3, #1
 8001d38:	9303      	str	r3, [sp, #12]
 8001d3a:	9b03      	ldr	r3, [sp, #12]
 8001d3c:	f04f 0812 	mov.w	r8, #18
 8001d40:	f44f 7300 	mov.w	r3, #512	@ 0x200
 8001d44:	2703      	movs	r7, #3
 8001d46:	2604      	movs	r6, #4
 8001d48:	a905      	add	r1, sp, #20
 8001d4a:	e9cd 3805 	strd	r3, r8, [sp, #20]
 8001d4e:	e9cd 7608 	strd	r7, r6, [sp, #32]
 8001d52:	f001 f811 	bl	8002d78 <HAL_GPIO_Init>
 8001d56:	f44f 7380 	mov.w	r3, #256	@ 0x100
 8001d5a:	480f      	ldr	r0, [pc, #60]	@ (8001d98 <HAL_I2C_MspInit+0xf8>)
 8001d5c:	9609      	str	r6, [sp, #36]	@ 0x24
 8001d5e:	a905      	add	r1, sp, #20
 8001d60:	e9cd 3805 	strd	r3, r8, [sp, #20]
 8001d64:	e9cd 5707 	strd	r5, r7, [sp, #28]
 8001d68:	f001 f806 	bl	8002d78 <HAL_GPIO_Init>
 8001d6c:	9504      	str	r5, [sp, #16]
 8001d6e:	6c23      	ldr	r3, [r4, #64]	@ 0x40
 8001d70:	f443 0300 	orr.w	r3, r3, #8388608	@ 0x800000
 8001d74:	6423      	str	r3, [r4, #64]	@ 0x40
 8001d76:	6c23      	ldr	r3, [r4, #64]	@ 0x40
 8001d78:	f403 0300 	and.w	r3, r3, #8388608	@ 0x800000
 8001d7c:	9304      	str	r3, [sp, #16]
 8001d7e:	9b04      	ldr	r3, [sp, #16]
 8001d80:	e7bf      	b.n	8001d02 <HAL_I2C_MspInit+0x62>
 8001d82:	bf00      	nop
 8001d84:	40005400 	.word	0x40005400
 8001d88:	40023800 	.word	0x40023800
 8001d8c:	40020400 	.word	0x40020400
 8001d90:	40005c00 	.word	0x40005c00
 8001d94:	40020800 	.word	0x40020800
 8001d98:	40020000 	.word	0x40020000

08001d9c <HAL_RTC_MspInit>:
 8001d9c:	b510      	push	{r4, lr}
 8001d9e:	4604      	mov	r4, r0
 8001da0:	b08c      	sub	sp, #48	@ 0x30
 8001da2:	2230      	movs	r2, #48	@ 0x30
 8001da4:	2100      	movs	r1, #0
 8001da6:	4668      	mov	r0, sp
 8001da8:	f003 fb92 	bl	80054d0 <memset>
 8001dac:	6822      	ldr	r2, [r4, #0]
 8001dae:	4b0a      	ldr	r3, [pc, #40]	@ (8001dd8 <HAL_RTC_MspInit+0x3c>)
 8001db0:	429a      	cmp	r2, r3
 8001db2:	d10e      	bne.n	8001dd2 <HAL_RTC_MspInit+0x36>
 8001db4:	2320      	movs	r3, #32
 8001db6:	9300      	str	r3, [sp, #0]
 8001db8:	4668      	mov	r0, sp
 8001dba:	f44f 7300 	mov.w	r3, #512	@ 0x200
 8001dbe:	930a      	str	r3, [sp, #40]	@ 0x28
 8001dc0:	f001 ffee 	bl	8003da0 <HAL_RCCEx_PeriphCLKConfig>
 8001dc4:	b108      	cbz	r0, 8001dca <HAL_RTC_MspInit+0x2e>
 8001dc6:	f7ff fc3d 	bl	8001644 <Error_Handler>
 8001dca:	4b04      	ldr	r3, [pc, #16]	@ (8001ddc <HAL_RTC_MspInit+0x40>)
 8001dcc:	2201      	movs	r2, #1
 8001dce:	f8c3 2e3c 	str.w	r2, [r3, #3644]	@ 0xe3c
 8001dd2:	b00c      	add	sp, #48	@ 0x30
 8001dd4:	bd10      	pop	{r4, pc}
 8001dd6:	bf00      	nop
 8001dd8:	40002800 	.word	0x40002800
 8001ddc:	42470000 	.word	0x42470000

08001de0 <HAL_SPI_MspInit>:
 8001de0:	e92d 41f0 	stmdb	sp!, {r4, r5, r6, r7, r8, lr}
 8001de4:	2214      	movs	r2, #20
 8001de6:	b08a      	sub	sp, #40	@ 0x28
 8001de8:	4606      	mov	r6, r0
 8001dea:	2100      	movs	r1, #0
 8001dec:	eb0d 0002 	add.w	r0, sp, r2
 8001df0:	f003 fb6e 	bl	80054d0 <memset>
 8001df4:	6833      	ldr	r3, [r6, #0]
 8001df6:	4a41      	ldr	r2, [pc, #260]	@ (8001efc <HAL_SPI_MspInit+0x11c>)
 8001df8:	4293      	cmp	r3, r2
 8001dfa:	d13f      	bne.n	8001e7c <HAL_SPI_MspInit+0x9c>
 8001dfc:	4b40      	ldr	r3, [pc, #256]	@ (8001f00 <HAL_SPI_MspInit+0x120>)
 8001dfe:	4841      	ldr	r0, [pc, #260]	@ (8001f04 <HAL_SPI_MspInit+0x124>)
 8001e00:	4c41      	ldr	r4, [pc, #260]	@ (8001f08 <HAL_SPI_MspInit+0x128>)
 8001e02:	2500      	movs	r5, #0
 8001e04:	9500      	str	r5, [sp, #0]
 8001e06:	6c5a      	ldr	r2, [r3, #68]	@ 0x44
 8001e08:	f442 5280 	orr.w	r2, r2, #4096	@ 0x1000
 8001e0c:	645a      	str	r2, [r3, #68]	@ 0x44
 8001e0e:	6c5a      	ldr	r2, [r3, #68]	@ 0x44
 8001e10:	f402 5280 	and.w	r2, r2, #4096	@ 0x1000
 8001e14:	9200      	str	r2, [sp, #0]
 8001e16:	9a00      	ldr	r2, [sp, #0]
 8001e18:	9501      	str	r5, [sp, #4]
 8001e1a:	6b1a      	ldr	r2, [r3, #48]	@ 0x30
 8001e1c:	f042 0201 	orr.w	r2, r2, #1
 8001e20:	631a      	str	r2, [r3, #48]	@ 0x30
 8001e22:	6b1b      	ldr	r3, [r3, #48]	@ 0x30
 8001e24:	f003 0301 	and.w	r3, r3, #1
 8001e28:	9301      	str	r3, [sp, #4]
 8001e2a:	9b01      	ldr	r3, [sp, #4]
 8001e2c:	22e0      	movs	r2, #224	@ 0xe0
 8001e2e:	2302      	movs	r3, #2
 8001e30:	e9cd 2305 	strd	r2, r3, [sp, #20]
 8001e34:	2103      	movs	r1, #3
 8001e36:	2305      	movs	r3, #5
 8001e38:	e9cd 1308 	strd	r1, r3, [sp, #32]
 8001e3c:	a905      	add	r1, sp, #20
 8001e3e:	f000 ff9b 	bl	8002d78 <HAL_GPIO_Init>
 8001e42:	4832      	ldr	r0, [pc, #200]	@ (8001f0c <HAL_SPI_MspInit+0x12c>)
 8001e44:	f04f 63c0 	mov.w	r3, #100663296	@ 0x6000000
 8001e48:	e9c4 0300 	strd	r0, r3, [r4]
 8001e4c:	2340      	movs	r3, #64	@ 0x40
 8001e4e:	e9c4 3502 	strd	r3, r5, [r4, #8]
 8001e52:	f44f 6380 	mov.w	r3, #1024	@ 0x400
 8001e56:	e9c4 3504 	strd	r3, r5, [r4, #16]
 8001e5a:	f44f 3380 	mov.w	r3, #65536	@ 0x10000
 8001e5e:	e9c4 5506 	strd	r5, r5, [r4, #24]
 8001e62:	e9c4 3508 	strd	r3, r5, [r4, #32]
 8001e66:	4620      	mov	r0, r4
 8001e68:	f000 fdc0 	bl	80029ec <HAL_DMA_Init>
 8001e6c:	b108      	cbz	r0, 8001e72 <HAL_SPI_MspInit+0x92>
 8001e6e:	f7ff fbe9 	bl	8001644 <Error_Handler>
 8001e72:	64b4      	str	r4, [r6, #72]	@ 0x48
 8001e74:	63a6      	str	r6, [r4, #56]	@ 0x38
 8001e76:	b00a      	add	sp, #40	@ 0x28
 8001e78:	e8bd 81f0 	ldmia.w	sp!, {r4, r5, r6, r7, r8, pc}
 8001e7c:	4a24      	ldr	r2, [pc, #144]	@ (8001f10 <HAL_SPI_MspInit+0x130>)
 8001e7e:	4293      	cmp	r3, r2
 8001e80:	d1f9      	bne.n	8001e76 <HAL_SPI_MspInit+0x96>
 8001e82:	4b1f      	ldr	r3, [pc, #124]	@ (8001f00 <HAL_SPI_MspInit+0x120>)
 8001e84:	4823      	ldr	r0, [pc, #140]	@ (8001f14 <HAL_SPI_MspInit+0x134>)
 8001e86:	2500      	movs	r5, #0
 8001e88:	9502      	str	r5, [sp, #8]
 8001e8a:	6c1a      	ldr	r2, [r3, #64]	@ 0x40
 8001e8c:	f442 4280 	orr.w	r2, r2, #16384	@ 0x4000
 8001e90:	641a      	str	r2, [r3, #64]	@ 0x40
 8001e92:	6c1a      	ldr	r2, [r3, #64]	@ 0x40
 8001e94:	f402 4280 	and.w	r2, r2, #16384	@ 0x4000
 8001e98:	9202      	str	r2, [sp, #8]
 8001e9a:	9a02      	ldr	r2, [sp, #8]
 8001e9c:	9503      	str	r5, [sp, #12]
 8001e9e:	6b1a      	ldr	r2, [r3, #48]	@ 0x30
 8001ea0:	f042 0204 	orr.w	r2, r2, #4
 8001ea4:	631a      	str	r2, [r3, #48]	@ 0x30
 8001ea6:	6b1a      	ldr	r2, [r3, #48]	@ 0x30
 8001ea8:	f002 0204 	and.w	r2, r2, #4
 8001eac:	9203      	str	r2, [sp, #12]
 8001eae:	9a03      	ldr	r2, [sp, #12]
 8001eb0:	9504      	str	r5, [sp, #16]
 8001eb2:	6b1a      	ldr	r2, [r3, #48]	@ 0x30
 8001eb4:	f042 0208 	orr.w	r2, r2, #8
 8001eb8:	631a      	str	r2, [r3, #48]	@ 0x30
 8001eba:	6b1b      	ldr	r3, [r3, #48]	@ 0x30
 8001ebc:	f003 0308 	and.w	r3, r3, #8
 8001ec0:	9304      	str	r3, [sp, #16]
 8001ec2:	2405      	movs	r4, #5
 8001ec4:	9b04      	ldr	r3, [sp, #16]
 8001ec6:	f04f 0802 	mov.w	r8, #2
 8001eca:	230c      	movs	r3, #12
 8001ecc:	2703      	movs	r7, #3
 8001ece:	a905      	add	r1, sp, #20
 8001ed0:	e9cd 3805 	strd	r3, r8, [sp, #20]
 8001ed4:	e9cd 7408 	strd	r7, r4, [sp, #32]
 8001ed8:	f000 ff4e 	bl	8002d78 <HAL_GPIO_Init>
 8001edc:	2308      	movs	r3, #8
 8001ede:	480e      	ldr	r0, [pc, #56]	@ (8001f18 <HAL_SPI_MspInit+0x138>)
 8001ee0:	9409      	str	r4, [sp, #36]	@ 0x24
 8001ee2:	a905      	add	r1, sp, #20
 8001ee4:	e9cd 3805 	strd	r3, r8, [sp, #20]
 8001ee8:	e9cd 5707 	strd	r5, r7, [sp, #28]
 8001eec:	4c0b      	ldr	r4, [pc, #44]	@ (8001f1c <HAL_SPI_MspInit+0x13c>)
 8001eee:	f000 ff43 	bl	8002d78 <HAL_GPIO_Init>
 8001ef2:	4b0b      	ldr	r3, [pc, #44]	@ (8001f20 <HAL_SPI_MspInit+0x140>)
 8001ef4:	e9c4 3500 	strd	r3, r5, [r4]
 8001ef8:	e7a8      	b.n	8001e4c <HAL_SPI_MspInit+0x6c>
 8001efa:	bf00      	nop
 8001efc:	40013000 	.word	0x40013000
 8001f00:	40023800 	.word	0x40023800
 8001f04:	40020000 	.word	0x40020000
 8001f08:	20000414 	.word	0x20000414
 8001f0c:	40026458 	.word	0x40026458
 8001f10:	40003800 	.word	0x40003800
 8001f14:	40020800 	.word	0x40020800
 8001f18:	40020c00 	.word	0x40020c00
 8001f1c:	200003b4 	.word	0x200003b4
 8001f20:	40026070 	.word	0x40026070

08001f24 <HAL_TIM_Base_MspInit>:
 8001f24:	b507      	push	{r0, r1, r2, lr}
 8001f26:	6803      	ldr	r3, [r0, #0]
 8001f28:	4a18      	ldr	r2, [pc, #96]	@ (8001f8c <HAL_TIM_Base_MspInit+0x68>)
 8001f2a:	4293      	cmp	r3, r2
 8001f2c:	d115      	bne.n	8001f5a <HAL_TIM_Base_MspInit+0x36>
 8001f2e:	4b18      	ldr	r3, [pc, #96]	@ (8001f90 <HAL_TIM_Base_MspInit+0x6c>)
 8001f30:	2200      	movs	r2, #0
 8001f32:	9200      	str	r2, [sp, #0]
 8001f34:	6c19      	ldr	r1, [r3, #64]	@ 0x40
 8001f36:	f041 0110 	orr.w	r1, r1, #16
 8001f3a:	6419      	str	r1, [r3, #64]	@ 0x40
 8001f3c:	6c1b      	ldr	r3, [r3, #64]	@ 0x40
 8001f3e:	f003 0310 	and.w	r3, r3, #16
 8001f42:	9300      	str	r3, [sp, #0]
 8001f44:	2036      	movs	r0, #54	@ 0x36
 8001f46:	4611      	mov	r1, r2
 8001f48:	9b00      	ldr	r3, [sp, #0]
 8001f4a:	f000 fce5 	bl	8002918 <HAL_NVIC_SetPriority>
 8001f4e:	2036      	movs	r0, #54	@ 0x36
 8001f50:	b003      	add	sp, #12
 8001f52:	f85d eb04 	ldr.w	lr, [sp], #4
 8001f56:	f000 bd11 	b.w	800297c <HAL_NVIC_EnableIRQ>
 8001f5a:	4a0e      	ldr	r2, [pc, #56]	@ (8001f94 <HAL_TIM_Base_MspInit+0x70>)
 8001f5c:	4293      	cmp	r3, r2
 8001f5e:	d111      	bne.n	8001f84 <HAL_TIM_Base_MspInit+0x60>
 8001f60:	4b0b      	ldr	r3, [pc, #44]	@ (8001f90 <HAL_TIM_Base_MspInit+0x6c>)
 8001f62:	2200      	movs	r2, #0
 8001f64:	9201      	str	r2, [sp, #4]
 8001f66:	6c19      	ldr	r1, [r3, #64]	@ 0x40
 8001f68:	f041 0120 	orr.w	r1, r1, #32
 8001f6c:	6419      	str	r1, [r3, #64]	@ 0x40
 8001f6e:	6c1b      	ldr	r3, [r3, #64]	@ 0x40
 8001f70:	f003 0320 	and.w	r3, r3, #32
 8001f74:	9301      	str	r3, [sp, #4]
 8001f76:	2037      	movs	r0, #55	@ 0x37
 8001f78:	4611      	mov	r1, r2
 8001f7a:	9b01      	ldr	r3, [sp, #4]
 8001f7c:	f000 fccc 	bl	8002918 <HAL_NVIC_SetPriority>
 8001f80:	2037      	movs	r0, #55	@ 0x37
 8001f82:	e7e5      	b.n	8001f50 <HAL_TIM_Base_MspInit+0x2c>
 8001f84:	b003      	add	sp, #12
 8001f86:	f85d fb04 	ldr.w	pc, [sp], #4
 8001f8a:	bf00      	nop
 8001f8c:	40001000 	.word	0x40001000
 8001f90:	40023800 	.word	0x40023800
 8001f94:	40001400 	.word	0x40001400

08001f98 <HAL_UART_MspInit>:
 8001f98:	b510      	push	{r4, lr}
 8001f9a:	4604      	mov	r4, r0
 8001f9c:	b088      	sub	sp, #32
 8001f9e:	2214      	movs	r2, #20
 8001fa0:	2100      	movs	r1, #0
 8001fa2:	a803      	add	r0, sp, #12
 8001fa4:	f003 fa94 	bl	80054d0 <memset>
 8001fa8:	6822      	ldr	r2, [r4, #0]
 8001faa:	4b18      	ldr	r3, [pc, #96]	@ (800200c <HAL_UART_MspInit+0x74>)
 8001fac:	429a      	cmp	r2, r3
 8001fae:	d12a      	bne.n	8002006 <HAL_UART_MspInit+0x6e>
 8001fb0:	f503 33fa 	add.w	r3, r3, #128000	@ 0x1f400
 8001fb4:	2400      	movs	r4, #0
 8001fb6:	9401      	str	r4, [sp, #4]
 8001fb8:	6c1a      	ldr	r2, [r3, #64]	@ 0x40
 8001fba:	4815      	ldr	r0, [pc, #84]	@ (8002010 <HAL_UART_MspInit+0x78>)
 8001fbc:	f442 3200 	orr.w	r2, r2, #131072	@ 0x20000
 8001fc0:	641a      	str	r2, [r3, #64]	@ 0x40
 8001fc2:	6c1a      	ldr	r2, [r3, #64]	@ 0x40
 8001fc4:	f402 3200 	and.w	r2, r2, #131072	@ 0x20000
 8001fc8:	9201      	str	r2, [sp, #4]
 8001fca:	9a01      	ldr	r2, [sp, #4]
 8001fcc:	9402      	str	r4, [sp, #8]
 8001fce:	6b1a      	ldr	r2, [r3, #48]	@ 0x30
 8001fd0:	f042 0208 	orr.w	r2, r2, #8
 8001fd4:	631a      	str	r2, [r3, #48]	@ 0x30
 8001fd6:	6b1b      	ldr	r3, [r3, #48]	@ 0x30
 8001fd8:	f003 0308 	and.w	r3, r3, #8
 8001fdc:	9302      	str	r3, [sp, #8]
 8001fde:	2260      	movs	r2, #96	@ 0x60
 8001fe0:	9b02      	ldr	r3, [sp, #8]
 8001fe2:	2302      	movs	r3, #2
 8001fe4:	e9cd 2303 	strd	r2, r3, [sp, #12]
 8001fe8:	2103      	movs	r1, #3
 8001fea:	2307      	movs	r3, #7
 8001fec:	e9cd 1306 	strd	r1, r3, [sp, #24]
 8001ff0:	a903      	add	r1, sp, #12
 8001ff2:	f000 fec1 	bl	8002d78 <HAL_GPIO_Init>
 8001ff6:	2026      	movs	r0, #38	@ 0x26
 8001ff8:	4622      	mov	r2, r4
 8001ffa:	4621      	mov	r1, r4
 8001ffc:	f000 fc8c 	bl	8002918 <HAL_NVIC_SetPriority>
 8002000:	2026      	movs	r0, #38	@ 0x26
 8002002:	f000 fcbb 	bl	800297c <HAL_NVIC_EnableIRQ>
 8002006:	b008      	add	sp, #32
 8002008:	bd10      	pop	{r4, pc}
 800200a:	bf00      	nop
 800200c:	40004400 	.word	0x40004400
 8002010:	40020c00 	.word	0x40020c00

08002014 <NMI_Handler>:
 8002014:	e7fe      	b.n	8002014 <NMI_Handler>

08002016 <HardFault_Handler>:
 8002016:	e7fe      	b.n	8002016 <HardFault_Handler>

08002018 <MemManage_Handler>:
 8002018:	e7fe      	b.n	8002018 <MemManage_Handler>

0800201a <BusFault_Handler>:
 800201a:	e7fe      	b.n	800201a <BusFault_Handler>

0800201c <UsageFault_Handler>:
 800201c:	e7fe      	b.n	800201c <UsageFault_Handler>

0800201e <SVC_Handler>:
 800201e:	4770      	bx	lr

08002020 <DebugMon_Handler>:
 8002020:	4770      	bx	lr

08002022 <PendSV_Handler>:
 8002022:	4770      	bx	lr

08002024 <SysTick_Handler>:
 8002024:	f000 b92a 	b.w	800227c <HAL_IncTick>

08002028 <EXTI1_IRQHandler>:
 8002028:	2002      	movs	r0, #2
 800202a:	f000 bf9d 	b.w	8002f68 <HAL_GPIO_EXTI_IRQHandler>
	...

08002030 <DMA1_Stream4_IRQHandler>:
 8002030:	4801      	ldr	r0, [pc, #4]	@ (8002038 <DMA1_Stream4_IRQHandler+0x8>)
 8002032:	f000 bde3 	b.w	8002bfc <HAL_DMA_IRQHandler>
 8002036:	bf00      	nop
 8002038:	200003b4 	.word	0x200003b4

0800203c <USART2_IRQHandler>:
 800203c:	4801      	ldr	r0, [pc, #4]	@ (8002044 <USART2_IRQHandler+0x8>)
 800203e:	f003 b8d3 	b.w	80051e8 <HAL_UART_IRQHandler>
 8002042:	bf00      	nop
 8002044:	200002dc 	.word	0x200002dc

08002048 <TIM6_DAC_IRQHandler>:
 8002048:	b508      	push	{r3, lr}
 800204a:	4803      	ldr	r0, [pc, #12]	@ (8002058 <TIM6_DAC_IRQHandler+0x10>)
 800204c:	f002 fdbd 	bl	8004bca <HAL_TIM_IRQHandler>
 8002050:	4b02      	ldr	r3, [pc, #8]	@ (800205c <TIM6_DAC_IRQHandler+0x14>)
 8002052:	2201      	movs	r2, #1
 8002054:	701a      	strb	r2, [r3, #0]
 8002056:	bd08      	pop	{r3, pc}
 8002058:	2000036c 	.word	0x2000036c
 800205c:	200002a5 	.word	0x200002a5

08002060 <TIM7_IRQHandler>:
 8002060:	b508      	push	{r3, lr}
 8002062:	4803      	ldr	r0, [pc, #12]	@ (8002070 <TIM7_IRQHandler+0x10>)
 8002064:	f002 fdb1 	bl	8004bca <HAL_TIM_IRQHandler>
 8002068:	4b02      	ldr	r3, [pc, #8]	@ (8002074 <TIM7_IRQHandler+0x14>)
 800206a:	2201      	movs	r2, #1
 800206c:	701a      	strb	r2, [r3, #0]
 800206e:	bd08      	pop	{r3, pc}
 8002070:	20000324 	.word	0x20000324
 8002074:	200002a4 	.word	0x200002a4

08002078 <DMA2_Stream3_IRQHandler>:
 8002078:	4801      	ldr	r0, [pc, #4]	@ (8002080 <DMA2_Stream3_IRQHandler+0x8>)
 800207a:	f000 bdbf 	b.w	8002bfc <HAL_DMA_IRQHandler>
 800207e:	bf00      	nop
 8002080:	20000414 	.word	0x20000414

08002084 <CAN2_RX0_IRQHandler>:
 8002084:	4801      	ldr	r0, [pc, #4]	@ (800208c <CAN2_RX0_IRQHandler+0x8>)
 8002086:	f000 bb30 	b.w	80026ea <HAL_CAN_IRQHandler>
 800208a:	bf00      	nop
 800208c:	200005ec 	.word	0x200005ec

08002090 <HAL_CAN_RxFifo0MsgPendingCallback>:
 8002090:	b508      	push	{r3, lr}
 8002092:	4a06      	ldr	r2, [pc, #24]	@ (80020ac <HAL_CAN_RxFifo0MsgPendingCallback+0x1c>)
 8002094:	4b06      	ldr	r3, [pc, #24]	@ (80020b0 <HAL_CAN_RxFifo0MsgPendingCallback+0x20>)
 8002096:	2100      	movs	r1, #0
 8002098:	f000 fa8e 	bl	80025b8 <HAL_CAN_GetRxMessage>
 800209c:	4b05      	ldr	r3, [pc, #20]	@ (80020b4 <HAL_CAN_RxFifo0MsgPendingCallback+0x24>)
 800209e:	2201      	movs	r2, #1
 80020a0:	701a      	strb	r2, [r3, #0]
 80020a2:	4b05      	ldr	r3, [pc, #20]	@ (80020b8 <HAL_CAN_RxFifo0MsgPendingCallback+0x28>)
 80020a4:	7819      	ldrb	r1, [r3, #0]
 80020a6:	b901      	cbnz	r1, 80020aa <HAL_CAN_RxFifo0MsgPendingCallback+0x1a>
 80020a8:	701a      	strb	r2, [r3, #0]
 80020aa:	bd08      	pop	{r3, pc}
 80020ac:	200002b0 	.word	0x200002b0
 80020b0:	200002a8 	.word	0x200002a8
 80020b4:	200002a7 	.word	0x200002a7
 80020b8:	200002a6 	.word	0x200002a6

080020bc <HAL_GPIO_EXTI_Callback>:
 80020bc:	4b04      	ldr	r3, [pc, #16]	@ (80020d0 <HAL_GPIO_EXTI_Callback+0x14>)
 80020be:	889b      	ldrh	r3, [r3, #4]
 80020c0:	b29b      	uxth	r3, r3
 80020c2:	4283      	cmp	r3, r0
 80020c4:	bf02      	ittt	eq
 80020c6:	4b03      	ldreq	r3, [pc, #12]	@ (80020d4 <HAL_GPIO_EXTI_Callback+0x18>)
 80020c8:	2201      	moveq	r2, #1
 80020ca:	701a      	strbeq	r2, [r3, #0]
 80020cc:	4770      	bx	lr
 80020ce:	bf00      	nop
 80020d0:	20000048 	.word	0x20000048
 80020d4:	20000047 	.word	0x20000047

080020d8 <HAL_SPI_TxCpltCallback>:
 80020d8:	6803      	ldr	r3, [r0, #0]
 80020da:	4a11      	ldr	r2, [pc, #68]	@ (8002120 <HAL_SPI_TxCpltCallback+0x48>)
 80020dc:	4293      	cmp	r3, r2
 80020de:	b510      	push	{r4, lr}
 80020e0:	4604      	mov	r4, r0
 80020e2:	d117      	bne.n	8002114 <HAL_SPI_TxCpltCallback+0x3c>
 80020e4:	4b0f      	ldr	r3, [pc, #60]	@ (8002124 <HAL_SPI_TxCpltCallback+0x4c>)
 80020e6:	8899      	ldrh	r1, [r3, #4]
 80020e8:	6818      	ldr	r0, [r3, #0]
 80020ea:	2201      	movs	r2, #1
 80020ec:	f000 ff2e 	bl	8002f4c <HAL_GPIO_WritePin>
 80020f0:	6822      	ldr	r2, [r4, #0]
 80020f2:	490d      	ldr	r1, [pc, #52]	@ (8002128 <HAL_SPI_TxCpltCallback+0x50>)
 80020f4:	6853      	ldr	r3, [r2, #4]
 80020f6:	f023 0302 	bic.w	r3, r3, #2
 80020fa:	6053      	str	r3, [r2, #4]
 80020fc:	4b0b      	ldr	r3, [pc, #44]	@ (800212c <HAL_SPI_TxCpltCallback+0x54>)
 80020fe:	781b      	ldrb	r3, [r3, #0]
 8002100:	f083 0301 	eor.w	r3, r3, #1
 8002104:	e8bd 4010 	ldmia.w	sp!, {r4, lr}
 8002108:	eb01 2103 	add.w	r1, r1, r3, lsl #8
 800210c:	f44f 7080 	mov.w	r0, #256	@ 0x100
 8002110:	f7fe bcd8 	b.w	8000ac4 <clean_data_buffer>
 8002114:	4a06      	ldr	r2, [pc, #24]	@ (8002130 <HAL_SPI_TxCpltCallback+0x58>)
 8002116:	4293      	cmp	r3, r2
 8002118:	d1ea      	bne.n	80020f0 <HAL_SPI_TxCpltCallback+0x18>
 800211a:	4b06      	ldr	r3, [pc, #24]	@ (8002134 <HAL_SPI_TxCpltCallback+0x5c>)
 800211c:	e7e3      	b.n	80020e6 <HAL_SPI_TxCpltCallback+0xe>
 800211e:	bf00      	nop
 8002120:	40013000 	.word	0x40013000
 8002124:	20000068 	.word	0x20000068
 8002128:	200000a4 	.word	0x200000a4
 800212c:	200000a3 	.word	0x200000a3
 8002130:	40003800 	.word	0x40003800
 8002134:	20000058 	.word	0x20000058

08002138 <HAL_UART_RxCpltCallback>:
 8002138:	4b03      	ldr	r3, [pc, #12]	@ (8002148 <HAL_UART_RxCpltCallback+0x10>)
 800213a:	4904      	ldr	r1, [pc, #16]	@ (800214c <HAL_UART_RxCpltCallback+0x14>)
 800213c:	4804      	ldr	r0, [pc, #16]	@ (8002150 <HAL_UART_RxCpltCallback+0x18>)
 800213e:	2201      	movs	r2, #1
 8002140:	701a      	strb	r2, [r3, #0]
 8002142:	2202      	movs	r2, #2
 8002144:	f003 b9b3 	b.w	80054ae <HAL_UART_Receive_IT>
 8002148:	200002d0 	.word	0x200002d0
 800214c:	200002d1 	.word	0x200002d1
 8002150:	200002dc 	.word	0x200002dc

08002154 <SystemInit>:
 8002154:	4a03      	ldr	r2, [pc, #12]	@ (8002164 <SystemInit+0x10>)
 8002156:	f8d2 3088 	ldr.w	r3, [r2, #136]	@ 0x88
 800215a:	f443 0370 	orr.w	r3, r3, #15728640	@ 0xf00000
 800215e:	f8c2 3088 	str.w	r3, [r2, #136]	@ 0x88
 8002162:	4770      	bx	lr
 8002164:	e000ed00 	.word	0xe000ed00

08002168 <uart_transmit_page>:
 8002168:	f04f 33ff 	mov.w	r3, #4294967295	@ 0xffffffff
 800216c:	f44f 7280 	mov.w	r2, #256	@ 0x100
 8002170:	f002 bf85 	b.w	800507e <HAL_UART_Transmit>

08002174 <send_uart_string>:
 8002174:	b570      	push	{r4, r5, r6, lr}
 8002176:	4605      	mov	r5, r0
 8002178:	4608      	mov	r0, r1
 800217a:	460c      	mov	r4, r1
 800217c:	f7fe f836 	bl	80001ec <strlen>
 8002180:	4621      	mov	r1, r4
 8002182:	b282      	uxth	r2, r0
 8002184:	f04f 33ff 	mov.w	r3, #4294967295	@ 0xffffffff
 8002188:	4628      	mov	r0, r5
 800218a:	e8bd 4070 	ldmia.w	sp!, {r4, r5, r6, lr}
 800218e:	f002 bf76 	b.w	800507e <HAL_UART_Transmit>

08002192 <send_uart_hex>:
 8002192:	b507      	push	{r0, r1, r2, lr}
 8002194:	f04f 33ff 	mov.w	r3, #4294967295	@ 0xffffffff
 8002198:	f88d 1004 	strb.w	r1, [sp, #4]
 800219c:	2201      	movs	r2, #1
 800219e:	a901      	add	r1, sp, #4
 80021a0:	f002 ff6d 	bl	800507e <HAL_UART_Transmit>
 80021a4:	b003      	add	sp, #12
 80021a6:	f85d fb04 	ldr.w	pc, [sp], #4
	...

080021ac <Reset_Handler>:
 80021ac:	f8df d034 	ldr.w	sp, [pc, #52]	@ 80021e4 <LoopFillZerobss+0xe>
 80021b0:	f7ff ffd0 	bl	8002154 <SystemInit>
 80021b4:	480c      	ldr	r0, [pc, #48]	@ (80021e8 <LoopFillZerobss+0x12>)
 80021b6:	490d      	ldr	r1, [pc, #52]	@ (80021ec <LoopFillZerobss+0x16>)
 80021b8:	4a0d      	ldr	r2, [pc, #52]	@ (80021f0 <LoopFillZerobss+0x1a>)
 80021ba:	2300      	movs	r3, #0
 80021bc:	e002      	b.n	80021c4 <LoopCopyDataInit>

080021be <CopyDataInit>:
 80021be:	58d4      	ldr	r4, [r2, r3]
 80021c0:	50c4      	str	r4, [r0, r3]
 80021c2:	3304      	adds	r3, #4

080021c4 <LoopCopyDataInit>:
 80021c4:	18c4      	adds	r4, r0, r3
 80021c6:	428c      	cmp	r4, r1
 80021c8:	d3f9      	bcc.n	80021be <CopyDataInit>
 80021ca:	4a0a      	ldr	r2, [pc, #40]	@ (80021f4 <LoopFillZerobss+0x1e>)
 80021cc:	4c0a      	ldr	r4, [pc, #40]	@ (80021f8 <LoopFillZerobss+0x22>)
 80021ce:	2300      	movs	r3, #0
 80021d0:	e001      	b.n	80021d6 <LoopFillZerobss>

080021d2 <FillZerobss>:
 80021d2:	6013      	str	r3, [r2, #0]
 80021d4:	3204      	adds	r2, #4

080021d6 <LoopFillZerobss>:
 80021d6:	42a2      	cmp	r2, r4
 80021d8:	d3fb      	bcc.n	80021d2 <FillZerobss>
 80021da:	f003 f981 	bl	80054e0 <__libc_init_array>
 80021de:	f7fe ff85 	bl	80010ec <main>
 80021e2:	4770      	bx	lr
 80021e4:	20030000 	.word	0x20030000
 80021e8:	20000000 	.word	0x20000000
 80021ec:	20000028 	.word	0x20000028
 80021f0:	08005604 	.word	0x08005604
 80021f4:	20000028 	.word	0x20000028
 80021f8:	2000062c 	.word	0x2000062c

080021fc <ADC_IRQHandler>:
 80021fc:	e7fe      	b.n	80021fc <ADC_IRQHandler>
	...

08002200 <HAL_InitTick>:
 8002200:	b538      	push	{r3, r4, r5, lr}
 8002202:	4b0e      	ldr	r3, [pc, #56]	@ (800223c <HAL_InitTick+0x3c>)
 8002204:	781a      	ldrb	r2, [r3, #0]
 8002206:	f44f 737a 	mov.w	r3, #1000	@ 0x3e8
 800220a:	fbb3 f3f2 	udiv	r3, r3, r2
 800220e:	4a0c      	ldr	r2, [pc, #48]	@ (8002240 <HAL_InitTick+0x40>)
 8002210:	4605      	mov	r5, r0
 8002212:	6810      	ldr	r0, [r2, #0]
 8002214:	fbb0 f0f3 	udiv	r0, r0, r3
 8002218:	f000 fbbe 	bl	8002998 <HAL_SYSTICK_Config>
 800221c:	4604      	mov	r4, r0
 800221e:	b958      	cbnz	r0, 8002238 <HAL_InitTick+0x38>
 8002220:	2d0f      	cmp	r5, #15
 8002222:	d809      	bhi.n	8002238 <HAL_InitTick+0x38>
 8002224:	4602      	mov	r2, r0
 8002226:	4629      	mov	r1, r5
 8002228:	f04f 30ff 	mov.w	r0, #4294967295	@ 0xffffffff
 800222c:	f000 fb74 	bl	8002918 <HAL_NVIC_SetPriority>
 8002230:	4b04      	ldr	r3, [pc, #16]	@ (8002244 <HAL_InitTick+0x44>)
 8002232:	4620      	mov	r0, r4
 8002234:	601d      	str	r5, [r3, #0]
 8002236:	bd38      	pop	{r3, r4, r5, pc}
 8002238:	2001      	movs	r0, #1
 800223a:	e7fc      	b.n	8002236 <HAL_InitTick+0x36>
 800223c:	20000020 	.word	0x20000020
 8002240:	2000001c 	.word	0x2000001c
 8002244:	20000024 	.word	0x20000024

08002248 <HAL_Init>:
 8002248:	b508      	push	{r3, lr}
 800224a:	4b0b      	ldr	r3, [pc, #44]	@ (8002278 <HAL_Init+0x30>)
 800224c:	681a      	ldr	r2, [r3, #0]
 800224e:	f442 7200 	orr.w	r2, r2, #512	@ 0x200
 8002252:	601a      	str	r2, [r3, #0]
 8002254:	681a      	ldr	r2, [r3, #0]
 8002256:	f442 6280 	orr.w	r2, r2, #1024	@ 0x400
 800225a:	601a      	str	r2, [r3, #0]
 800225c:	681a      	ldr	r2, [r3, #0]
 800225e:	f442 7280 	orr.w	r2, r2, #256	@ 0x100
 8002262:	601a      	str	r2, [r3, #0]
 8002264:	2003      	movs	r0, #3
 8002266:	f000 fb45 	bl	80028f4 <HAL_NVIC_SetPriorityGrouping>
 800226a:	200f      	movs	r0, #15
 800226c:	f7ff ffc8 	bl	8002200 <HAL_InitTick>
 8002270:	f7ff fcb2 	bl	8001bd8 <HAL_MspInit>
 8002274:	2000      	movs	r0, #0
 8002276:	bd08      	pop	{r3, pc}
 8002278:	40023c00 	.word	0x40023c00

0800227c <HAL_IncTick>:
 800227c:	4a03      	ldr	r2, [pc, #12]	@ (800228c <HAL_IncTick+0x10>)
 800227e:	4b04      	ldr	r3, [pc, #16]	@ (8002290 <HAL_IncTick+0x14>)
 8002280:	6811      	ldr	r1, [r2, #0]
 8002282:	781b      	ldrb	r3, [r3, #0]
 8002284:	440b      	add	r3, r1
 8002286:	6013      	str	r3, [r2, #0]
 8002288:	4770      	bx	lr
 800228a:	bf00      	nop
 800228c:	20000628 	.word	0x20000628
 8002290:	20000020 	.word	0x20000020

08002294 <HAL_GetTick>:
 8002294:	4b01      	ldr	r3, [pc, #4]	@ (800229c <HAL_GetTick+0x8>)
 8002296:	6818      	ldr	r0, [r3, #0]
 8002298:	4770      	bx	lr
 800229a:	bf00      	nop
 800229c:	20000628 	.word	0x20000628

080022a0 <HAL_Delay>:
 80022a0:	b538      	push	{r3, r4, r5, lr}
 80022a2:	4604      	mov	r4, r0
 80022a4:	f7ff fff6 	bl	8002294 <HAL_GetTick>
 80022a8:	1c63      	adds	r3, r4, #1
 80022aa:	bf1c      	itt	ne
 80022ac:	4b05      	ldrne	r3, [pc, #20]	@ (80022c4 <HAL_Delay+0x24>)
 80022ae:	781b      	ldrbne	r3, [r3, #0]
 80022b0:	4605      	mov	r5, r0
 80022b2:	bf18      	it	ne
 80022b4:	18e4      	addne	r4, r4, r3
 80022b6:	f7ff ffed 	bl	8002294 <HAL_GetTick>
 80022ba:	1b43      	subs	r3, r0, r5
 80022bc:	42a3      	cmp	r3, r4
 80022be:	d3fa      	bcc.n	80022b6 <HAL_Delay+0x16>
 80022c0:	bd38      	pop	{r3, r4, r5, pc}
 80022c2:	bf00      	nop
 80022c4:	20000020 	.word	0x20000020

080022c8 <HAL_CAN_Init>:
 80022c8:	b538      	push	{r3, r4, r5, lr}
 80022ca:	4604      	mov	r4, r0
 80022cc:	2800      	cmp	r0, #0
 80022ce:	d06e      	beq.n	80023ae <HAL_CAN_Init+0xe6>
 80022d0:	f890 3020 	ldrb.w	r3, [r0, #32]
 80022d4:	b90b      	cbnz	r3, 80022da <HAL_CAN_Init+0x12>
 80022d6:	f7ff fc9b 	bl	8001c10 <HAL_CAN_MspInit>
 80022da:	6822      	ldr	r2, [r4, #0]
 80022dc:	6813      	ldr	r3, [r2, #0]
 80022de:	f043 0301 	orr.w	r3, r3, #1
 80022e2:	6013      	str	r3, [r2, #0]
 80022e4:	f7ff ffd6 	bl	8002294 <HAL_GetTick>
 80022e8:	4605      	mov	r5, r0
 80022ea:	6823      	ldr	r3, [r4, #0]
 80022ec:	685a      	ldr	r2, [r3, #4]
 80022ee:	07d1      	lsls	r1, r2, #31
 80022f0:	d551      	bpl.n	8002396 <HAL_CAN_Init+0xce>
 80022f2:	681a      	ldr	r2, [r3, #0]
 80022f4:	f022 0202 	bic.w	r2, r2, #2
 80022f8:	601a      	str	r2, [r3, #0]
 80022fa:	f7ff ffcb 	bl	8002294 <HAL_GetTick>
 80022fe:	4605      	mov	r5, r0
 8002300:	6823      	ldr	r3, [r4, #0]
 8002302:	685a      	ldr	r2, [r3, #4]
 8002304:	0792      	lsls	r2, r2, #30
 8002306:	d454      	bmi.n	80023b2 <HAL_CAN_Init+0xea>
 8002308:	7e22      	ldrb	r2, [r4, #24]
 800230a:	2a01      	cmp	r2, #1
 800230c:	681a      	ldr	r2, [r3, #0]
 800230e:	bf0c      	ite	eq
 8002310:	f042 0280 	orreq.w	r2, r2, #128	@ 0x80
 8002314:	f022 0280 	bicne.w	r2, r2, #128	@ 0x80
 8002318:	601a      	str	r2, [r3, #0]
 800231a:	7e62      	ldrb	r2, [r4, #25]
 800231c:	2a01      	cmp	r2, #1
 800231e:	681a      	ldr	r2, [r3, #0]
 8002320:	bf0c      	ite	eq
 8002322:	f042 0240 	orreq.w	r2, r2, #64	@ 0x40
 8002326:	f022 0240 	bicne.w	r2, r2, #64	@ 0x40
 800232a:	601a      	str	r2, [r3, #0]
 800232c:	7ea2      	ldrb	r2, [r4, #26]
 800232e:	2a01      	cmp	r2, #1
 8002330:	681a      	ldr	r2, [r3, #0]
 8002332:	bf0c      	ite	eq
 8002334:	f042 0220 	orreq.w	r2, r2, #32
 8002338:	f022 0220 	bicne.w	r2, r2, #32
 800233c:	601a      	str	r2, [r3, #0]
 800233e:	7ee2      	ldrb	r2, [r4, #27]
 8002340:	2a01      	cmp	r2, #1
 8002342:	681a      	ldr	r2, [r3, #0]
 8002344:	bf0c      	ite	eq
 8002346:	f022 0210 	biceq.w	r2, r2, #16
 800234a:	f042 0210 	orrne.w	r2, r2, #16
 800234e:	601a      	str	r2, [r3, #0]
 8002350:	7f22      	ldrb	r2, [r4, #28]
 8002352:	2a01      	cmp	r2, #1
 8002354:	681a      	ldr	r2, [r3, #0]
 8002356:	bf0c      	ite	eq
 8002358:	f042 0208 	orreq.w	r2, r2, #8
 800235c:	f022 0208 	bicne.w	r2, r2, #8
 8002360:	601a      	str	r2, [r3, #0]
 8002362:	7f62      	ldrb	r2, [r4, #29]
 8002364:	2a01      	cmp	r2, #1
 8002366:	681a      	ldr	r2, [r3, #0]
 8002368:	bf0c      	ite	eq
 800236a:	f042 0204 	orreq.w	r2, r2, #4
 800236e:	f022 0204 	bicne.w	r2, r2, #4
 8002372:	601a      	str	r2, [r3, #0]
 8002374:	e9d4 2102 	ldrd	r2, r1, [r4, #8]
 8002378:	430a      	orrs	r2, r1
 800237a:	6921      	ldr	r1, [r4, #16]
 800237c:	430a      	orrs	r2, r1
 800237e:	6961      	ldr	r1, [r4, #20]
 8002380:	430a      	orrs	r2, r1
 8002382:	6861      	ldr	r1, [r4, #4]
 8002384:	3901      	subs	r1, #1
 8002386:	430a      	orrs	r2, r1
 8002388:	61da      	str	r2, [r3, #28]
 800238a:	2000      	movs	r0, #0
 800238c:	2301      	movs	r3, #1
 800238e:	6260      	str	r0, [r4, #36]	@ 0x24
 8002390:	f884 3020 	strb.w	r3, [r4, #32]
 8002394:	e00c      	b.n	80023b0 <HAL_CAN_Init+0xe8>
 8002396:	f7ff ff7d 	bl	8002294 <HAL_GetTick>
 800239a:	1b40      	subs	r0, r0, r5
 800239c:	280a      	cmp	r0, #10
 800239e:	d9a4      	bls.n	80022ea <HAL_CAN_Init+0x22>
 80023a0:	6a63      	ldr	r3, [r4, #36]	@ 0x24
 80023a2:	f443 3300 	orr.w	r3, r3, #131072	@ 0x20000
 80023a6:	6263      	str	r3, [r4, #36]	@ 0x24
 80023a8:	2305      	movs	r3, #5
 80023aa:	f884 3020 	strb.w	r3, [r4, #32]
 80023ae:	2001      	movs	r0, #1
 80023b0:	bd38      	pop	{r3, r4, r5, pc}
 80023b2:	f7ff ff6f 	bl	8002294 <HAL_GetTick>
 80023b6:	1b40      	subs	r0, r0, r5
 80023b8:	280a      	cmp	r0, #10
 80023ba:	d9a1      	bls.n	8002300 <HAL_CAN_Init+0x38>
 80023bc:	e7f0      	b.n	80023a0 <HAL_CAN_Init+0xd8>
	...

080023c0 <HAL_CAN_ConfigFilter>:
 80023c0:	b530      	push	{r4, r5, lr}
 80023c2:	f890 3020 	ldrb.w	r3, [r0, #32]
 80023c6:	3b01      	subs	r3, #1
 80023c8:	2b01      	cmp	r3, #1
 80023ca:	d877      	bhi.n	80024bc <HAL_CAN_ConfigFilter+0xfc>
 80023cc:	4b3e      	ldr	r3, [pc, #248]	@ (80024c8 <HAL_CAN_ConfigFilter+0x108>)
 80023ce:	f8d3 2200 	ldr.w	r2, [r3, #512]	@ 0x200
 80023d2:	f042 0201 	orr.w	r2, r2, #1
 80023d6:	f8c3 2200 	str.w	r2, [r3, #512]	@ 0x200
 80023da:	f8d3 2200 	ldr.w	r2, [r3, #512]	@ 0x200
 80023de:	f422 527c 	bic.w	r2, r2, #16128	@ 0x3f00
 80023e2:	f8c3 2200 	str.w	r2, [r3, #512]	@ 0x200
 80023e6:	f8d3 2200 	ldr.w	r2, [r3, #512]	@ 0x200
 80023ea:	6a48      	ldr	r0, [r1, #36]	@ 0x24
 80023ec:	ea42 2200 	orr.w	r2, r2, r0, lsl #8
 80023f0:	f8c3 2200 	str.w	r2, [r3, #512]	@ 0x200
 80023f4:	694a      	ldr	r2, [r1, #20]
 80023f6:	f8d3 521c 	ldr.w	r5, [r3, #540]	@ 0x21c
 80023fa:	f002 041f 	and.w	r4, r2, #31
 80023fe:	2001      	movs	r0, #1
 8002400:	40a0      	lsls	r0, r4
 8002402:	ea25 0500 	bic.w	r5, r5, r0
 8002406:	f8c3 521c 	str.w	r5, [r3, #540]	@ 0x21c
 800240a:	69cd      	ldr	r5, [r1, #28]
 800240c:	43c4      	mvns	r4, r0
 800240e:	2d00      	cmp	r5, #0
 8002410:	d135      	bne.n	800247e <HAL_CAN_ConfigFilter+0xbe>
 8002412:	f8d3 520c 	ldr.w	r5, [r3, #524]	@ 0x20c
 8002416:	4025      	ands	r5, r4
 8002418:	f8c3 520c 	str.w	r5, [r3, #524]	@ 0x20c
 800241c:	68cb      	ldr	r3, [r1, #12]
 800241e:	888d      	ldrh	r5, [r1, #4]
 8002420:	ea45 4503 	orr.w	r5, r5, r3, lsl #16
 8002424:	00d3      	lsls	r3, r2, #3
 8002426:	f103 4380 	add.w	r3, r3, #1073741824	@ 0x40000000
 800242a:	f503 43c8 	add.w	r3, r3, #25600	@ 0x6400
 800242e:	880a      	ldrh	r2, [r1, #0]
 8002430:	f8c3 5240 	str.w	r5, [r3, #576]	@ 0x240
 8002434:	688d      	ldr	r5, [r1, #8]
 8002436:	ea42 4205 	orr.w	r2, r2, r5, lsl #16
 800243a:	f8c3 2244 	str.w	r2, [r3, #580]	@ 0x244
 800243e:	698a      	ldr	r2, [r1, #24]
 8002440:	4b21      	ldr	r3, [pc, #132]	@ (80024c8 <HAL_CAN_ConfigFilter+0x108>)
 8002442:	bb8a      	cbnz	r2, 80024a8 <HAL_CAN_ConfigFilter+0xe8>
 8002444:	f8d3 2204 	ldr.w	r2, [r3, #516]	@ 0x204
 8002448:	4022      	ands	r2, r4
 800244a:	f8c3 2204 	str.w	r2, [r3, #516]	@ 0x204
 800244e:	690a      	ldr	r2, [r1, #16]
 8002450:	bb72      	cbnz	r2, 80024b0 <HAL_CAN_ConfigFilter+0xf0>
 8002452:	f8d3 2214 	ldr.w	r2, [r3, #532]	@ 0x214
 8002456:	4014      	ands	r4, r2
 8002458:	f8c3 4214 	str.w	r4, [r3, #532]	@ 0x214
 800245c:	6a0b      	ldr	r3, [r1, #32]
 800245e:	2b01      	cmp	r3, #1
 8002460:	4b19      	ldr	r3, [pc, #100]	@ (80024c8 <HAL_CAN_ConfigFilter+0x108>)
 8002462:	bf02      	ittt	eq
 8002464:	f8d3 221c 	ldreq.w	r2, [r3, #540]	@ 0x21c
 8002468:	4302      	orreq	r2, r0
 800246a:	f8c3 221c 	streq.w	r2, [r3, #540]	@ 0x21c
 800246e:	f8d3 2200 	ldr.w	r2, [r3, #512]	@ 0x200
 8002472:	f022 0201 	bic.w	r2, r2, #1
 8002476:	f8c3 2200 	str.w	r2, [r3, #512]	@ 0x200
 800247a:	2000      	movs	r0, #0
 800247c:	bd30      	pop	{r4, r5, pc}
 800247e:	2d01      	cmp	r5, #1
 8002480:	d1dd      	bne.n	800243e <HAL_CAN_ConfigFilter+0x7e>
 8002482:	f8d3 520c 	ldr.w	r5, [r3, #524]	@ 0x20c
 8002486:	4305      	orrs	r5, r0
 8002488:	f8c3 520c 	str.w	r5, [r3, #524]	@ 0x20c
 800248c:	680b      	ldr	r3, [r1, #0]
 800248e:	888d      	ldrh	r5, [r1, #4]
 8002490:	ea45 4503 	orr.w	r5, r5, r3, lsl #16
 8002494:	00d3      	lsls	r3, r2, #3
 8002496:	f103 4380 	add.w	r3, r3, #1073741824	@ 0x40000000
 800249a:	f503 43c8 	add.w	r3, r3, #25600	@ 0x6400
 800249e:	898a      	ldrh	r2, [r1, #12]
 80024a0:	f8c3 5240 	str.w	r5, [r3, #576]	@ 0x240
 80024a4:	688d      	ldr	r5, [r1, #8]
 80024a6:	e7c6      	b.n	8002436 <HAL_CAN_ConfigFilter+0x76>
 80024a8:	f8d3 2204 	ldr.w	r2, [r3, #516]	@ 0x204
 80024ac:	4302      	orrs	r2, r0
 80024ae:	e7cc      	b.n	800244a <HAL_CAN_ConfigFilter+0x8a>
 80024b0:	f8d3 2214 	ldr.w	r2, [r3, #532]	@ 0x214
 80024b4:	4302      	orrs	r2, r0
 80024b6:	f8c3 2214 	str.w	r2, [r3, #532]	@ 0x214
 80024ba:	e7cf      	b.n	800245c <HAL_CAN_ConfigFilter+0x9c>
 80024bc:	6a43      	ldr	r3, [r0, #36]	@ 0x24
 80024be:	f443 2380 	orr.w	r3, r3, #262144	@ 0x40000
 80024c2:	6243      	str	r3, [r0, #36]	@ 0x24
 80024c4:	2001      	movs	r0, #1
 80024c6:	e7d9      	b.n	800247c <HAL_CAN_ConfigFilter+0xbc>
 80024c8:	40006400 	.word	0x40006400

080024cc <HAL_CAN_Start>:
 80024cc:	b538      	push	{r3, r4, r5, lr}
 80024ce:	f890 3020 	ldrb.w	r3, [r0, #32]
 80024d2:	2b01      	cmp	r3, #1
 80024d4:	4604      	mov	r4, r0
 80024d6:	d11f      	bne.n	8002518 <HAL_CAN_Start+0x4c>
 80024d8:	6802      	ldr	r2, [r0, #0]
 80024da:	2302      	movs	r3, #2
 80024dc:	f880 3020 	strb.w	r3, [r0, #32]
 80024e0:	6813      	ldr	r3, [r2, #0]
 80024e2:	f023 0301 	bic.w	r3, r3, #1
 80024e6:	6013      	str	r3, [r2, #0]
 80024e8:	f7ff fed4 	bl	8002294 <HAL_GetTick>
 80024ec:	4605      	mov	r5, r0
 80024ee:	6823      	ldr	r3, [r4, #0]
 80024f0:	6858      	ldr	r0, [r3, #4]
 80024f2:	f010 0001 	ands.w	r0, r0, #1
 80024f6:	d101      	bne.n	80024fc <HAL_CAN_Start+0x30>
 80024f8:	6260      	str	r0, [r4, #36]	@ 0x24
 80024fa:	bd38      	pop	{r3, r4, r5, pc}
 80024fc:	f7ff feca 	bl	8002294 <HAL_GetTick>
 8002500:	1b40      	subs	r0, r0, r5
 8002502:	280a      	cmp	r0, #10
 8002504:	d9f3      	bls.n	80024ee <HAL_CAN_Start+0x22>
 8002506:	6a63      	ldr	r3, [r4, #36]	@ 0x24
 8002508:	f443 3300 	orr.w	r3, r3, #131072	@ 0x20000
 800250c:	6263      	str	r3, [r4, #36]	@ 0x24
 800250e:	2305      	movs	r3, #5
 8002510:	f884 3020 	strb.w	r3, [r4, #32]
 8002514:	2001      	movs	r0, #1
 8002516:	e7f0      	b.n	80024fa <HAL_CAN_Start+0x2e>
 8002518:	6a43      	ldr	r3, [r0, #36]	@ 0x24
 800251a:	f443 2300 	orr.w	r3, r3, #524288	@ 0x80000
 800251e:	6243      	str	r3, [r0, #36]	@ 0x24
 8002520:	e7f8      	b.n	8002514 <HAL_CAN_Start+0x48>

08002522 <HAL_CAN_AddTxMessage>:
 8002522:	b5f0      	push	{r4, r5, r6, r7, lr}
 8002524:	f890 5020 	ldrb.w	r5, [r0, #32]
 8002528:	6804      	ldr	r4, [r0, #0]
 800252a:	3d01      	subs	r5, #1
 800252c:	2d01      	cmp	r5, #1
 800252e:	68a6      	ldr	r6, [r4, #8]
 8002530:	d83e      	bhi.n	80025b0 <HAL_CAN_AddTxMessage+0x8e>
 8002532:	f016 5fe0 	tst.w	r6, #469762048	@ 0x1c000000
 8002536:	d035      	beq.n	80025a4 <HAL_CAN_AddTxMessage+0x82>
 8002538:	f3c6 6001 	ubfx	r0, r6, #24, #2
 800253c:	2501      	movs	r5, #1
 800253e:	4085      	lsls	r5, r0
 8002540:	601d      	str	r5, [r3, #0]
 8002542:	e9d1 5702 	ldrd	r5, r7, [r1, #8]
 8002546:	f100 0318 	add.w	r3, r0, #24
 800254a:	bb25      	cbnz	r5, 8002596 <HAL_CAN_AddTxMessage+0x74>
 800254c:	680d      	ldr	r5, [r1, #0]
 800254e:	011b      	lsls	r3, r3, #4
 8002550:	ea47 5745 	orr.w	r7, r7, r5, lsl #21
 8002554:	50e7      	str	r7, [r4, r3]
 8002556:	eb04 1300 	add.w	r3, r4, r0, lsl #4
 800255a:	690e      	ldr	r6, [r1, #16]
 800255c:	f8c3 6184 	str.w	r6, [r3, #388]	@ 0x184
 8002560:	7d09      	ldrb	r1, [r1, #20]
 8002562:	2901      	cmp	r1, #1
 8002564:	bf08      	it	eq
 8002566:	f8d3 1184 	ldreq.w	r1, [r3, #388]	@ 0x184
 800256a:	ea4f 1500 	mov.w	r5, r0, lsl #4
 800256e:	bf04      	itt	eq
 8002570:	f441 7180 	orreq.w	r1, r1, #256	@ 0x100
 8002574:	f8c3 1184 	streq.w	r1, [r3, #388]	@ 0x184
 8002578:	442c      	add	r4, r5
 800257a:	6851      	ldr	r1, [r2, #4]
 800257c:	f8c4 118c 	str.w	r1, [r4, #396]	@ 0x18c
 8002580:	6812      	ldr	r2, [r2, #0]
 8002582:	f8c4 2188 	str.w	r2, [r4, #392]	@ 0x188
 8002586:	f8d3 2180 	ldr.w	r2, [r3, #384]	@ 0x180
 800258a:	f042 0201 	orr.w	r2, r2, #1
 800258e:	f8c3 2180 	str.w	r2, [r3, #384]	@ 0x180
 8002592:	2000      	movs	r0, #0
 8002594:	bdf0      	pop	{r4, r5, r6, r7, pc}
 8002596:	684e      	ldr	r6, [r1, #4]
 8002598:	433d      	orrs	r5, r7
 800259a:	011b      	lsls	r3, r3, #4
 800259c:	ea45 05c6 	orr.w	r5, r5, r6, lsl #3
 80025a0:	50e5      	str	r5, [r4, r3]
 80025a2:	e7d8      	b.n	8002556 <HAL_CAN_AddTxMessage+0x34>
 80025a4:	6a43      	ldr	r3, [r0, #36]	@ 0x24
 80025a6:	f443 1300 	orr.w	r3, r3, #2097152	@ 0x200000
 80025aa:	6243      	str	r3, [r0, #36]	@ 0x24
 80025ac:	2001      	movs	r0, #1
 80025ae:	e7f1      	b.n	8002594 <HAL_CAN_AddTxMessage+0x72>
 80025b0:	6a43      	ldr	r3, [r0, #36]	@ 0x24
 80025b2:	f443 2380 	orr.w	r3, r3, #262144	@ 0x40000
 80025b6:	e7f8      	b.n	80025aa <HAL_CAN_AddTxMessage+0x88>

080025b8 <HAL_CAN_GetRxMessage>:
 80025b8:	b5f0      	push	{r4, r5, r6, r7, lr}
 80025ba:	f890 4020 	ldrb.w	r4, [r0, #32]
 80025be:	3c01      	subs	r4, #1
 80025c0:	2c01      	cmp	r4, #1
 80025c2:	d871      	bhi.n	80026a8 <HAL_CAN_GetRxMessage+0xf0>
 80025c4:	6806      	ldr	r6, [r0, #0]
 80025c6:	b941      	cbnz	r1, 80025da <HAL_CAN_GetRxMessage+0x22>
 80025c8:	68f4      	ldr	r4, [r6, #12]
 80025ca:	07a4      	lsls	r4, r4, #30
 80025cc:	d107      	bne.n	80025de <HAL_CAN_GetRxMessage+0x26>
 80025ce:	6a43      	ldr	r3, [r0, #36]	@ 0x24
 80025d0:	f443 1300 	orr.w	r3, r3, #2097152	@ 0x200000
 80025d4:	6243      	str	r3, [r0, #36]	@ 0x24
 80025d6:	2001      	movs	r0, #1
 80025d8:	bdf0      	pop	{r4, r5, r6, r7, pc}
 80025da:	6934      	ldr	r4, [r6, #16]
 80025dc:	e7f5      	b.n	80025ca <HAL_CAN_GetRxMessage+0x12>
 80025de:	eb06 1501 	add.w	r5, r6, r1, lsl #4
 80025e2:	010c      	lsls	r4, r1, #4
 80025e4:	f8d5 71b0 	ldr.w	r7, [r5, #432]	@ 0x1b0
 80025e8:	f007 0704 	and.w	r7, r7, #4
 80025ec:	6097      	str	r7, [r2, #8]
 80025ee:	2f00      	cmp	r7, #0
 80025f0:	d150      	bne.n	8002694 <HAL_CAN_GetRxMessage+0xdc>
 80025f2:	f8d5 71b0 	ldr.w	r7, [r5, #432]	@ 0x1b0
 80025f6:	0d7f      	lsrs	r7, r7, #21
 80025f8:	6017      	str	r7, [r2, #0]
 80025fa:	f8d5 71b0 	ldr.w	r7, [r5, #432]	@ 0x1b0
 80025fe:	f007 0702 	and.w	r7, r7, #2
 8002602:	60d7      	str	r7, [r2, #12]
 8002604:	f8d5 71b4 	ldr.w	r7, [r5, #436]	@ 0x1b4
 8002608:	073f      	lsls	r7, r7, #28
 800260a:	bf56      	itet	pl
 800260c:	f8d5 71b4 	ldrpl.w	r7, [r5, #436]	@ 0x1b4
 8002610:	2708      	movmi	r7, #8
 8002612:	f007 070f 	andpl.w	r7, r7, #15
 8002616:	6117      	str	r7, [r2, #16]
 8002618:	f8d5 71b4 	ldr.w	r7, [r5, #436]	@ 0x1b4
 800261c:	f8d5 51b4 	ldr.w	r5, [r5, #436]	@ 0x1b4
 8002620:	4426      	add	r6, r4
 8002622:	f3c7 2707 	ubfx	r7, r7, #8, #8
 8002626:	0c2d      	lsrs	r5, r5, #16
 8002628:	6197      	str	r7, [r2, #24]
 800262a:	6155      	str	r5, [r2, #20]
 800262c:	f8d6 21b8 	ldr.w	r2, [r6, #440]	@ 0x1b8
 8002630:	701a      	strb	r2, [r3, #0]
 8002632:	6802      	ldr	r2, [r0, #0]
 8002634:	4422      	add	r2, r4
 8002636:	f8d2 21b8 	ldr.w	r2, [r2, #440]	@ 0x1b8
 800263a:	0a12      	lsrs	r2, r2, #8
 800263c:	705a      	strb	r2, [r3, #1]
 800263e:	6802      	ldr	r2, [r0, #0]
 8002640:	4422      	add	r2, r4
 8002642:	f8d2 21b8 	ldr.w	r2, [r2, #440]	@ 0x1b8
 8002646:	0c12      	lsrs	r2, r2, #16
 8002648:	709a      	strb	r2, [r3, #2]
 800264a:	6802      	ldr	r2, [r0, #0]
 800264c:	4422      	add	r2, r4
 800264e:	f8d2 21b8 	ldr.w	r2, [r2, #440]	@ 0x1b8
 8002652:	0e12      	lsrs	r2, r2, #24
 8002654:	70da      	strb	r2, [r3, #3]
 8002656:	6802      	ldr	r2, [r0, #0]
 8002658:	4422      	add	r2, r4
 800265a:	f8d2 21bc 	ldr.w	r2, [r2, #444]	@ 0x1bc
 800265e:	711a      	strb	r2, [r3, #4]
 8002660:	6802      	ldr	r2, [r0, #0]
 8002662:	4422      	add	r2, r4
 8002664:	f8d2 21bc 	ldr.w	r2, [r2, #444]	@ 0x1bc
 8002668:	0a12      	lsrs	r2, r2, #8
 800266a:	715a      	strb	r2, [r3, #5]
 800266c:	6802      	ldr	r2, [r0, #0]
 800266e:	4422      	add	r2, r4
 8002670:	f8d2 21bc 	ldr.w	r2, [r2, #444]	@ 0x1bc
 8002674:	0c12      	lsrs	r2, r2, #16
 8002676:	719a      	strb	r2, [r3, #6]
 8002678:	6802      	ldr	r2, [r0, #0]
 800267a:	4422      	add	r2, r4
 800267c:	f8d2 21bc 	ldr.w	r2, [r2, #444]	@ 0x1bc
 8002680:	0e12      	lsrs	r2, r2, #24
 8002682:	71da      	strb	r2, [r3, #7]
 8002684:	6803      	ldr	r3, [r0, #0]
 8002686:	b951      	cbnz	r1, 800269e <HAL_CAN_GetRxMessage+0xe6>
 8002688:	68da      	ldr	r2, [r3, #12]
 800268a:	f042 0220 	orr.w	r2, r2, #32
 800268e:	60da      	str	r2, [r3, #12]
 8002690:	2000      	movs	r0, #0
 8002692:	e7a1      	b.n	80025d8 <HAL_CAN_GetRxMessage+0x20>
 8002694:	f8d5 71b0 	ldr.w	r7, [r5, #432]	@ 0x1b0
 8002698:	08ff      	lsrs	r7, r7, #3
 800269a:	6057      	str	r7, [r2, #4]
 800269c:	e7ad      	b.n	80025fa <HAL_CAN_GetRxMessage+0x42>
 800269e:	691a      	ldr	r2, [r3, #16]
 80026a0:	f042 0220 	orr.w	r2, r2, #32
 80026a4:	611a      	str	r2, [r3, #16]
 80026a6:	e7f3      	b.n	8002690 <HAL_CAN_GetRxMessage+0xd8>
 80026a8:	6a43      	ldr	r3, [r0, #36]	@ 0x24
 80026aa:	f443 2380 	orr.w	r3, r3, #262144	@ 0x40000
 80026ae:	e791      	b.n	80025d4 <HAL_CAN_GetRxMessage+0x1c>

080026b0 <HAL_CAN_ActivateNotification>:
 80026b0:	f890 3020 	ldrb.w	r3, [r0, #32]
 80026b4:	3b01      	subs	r3, #1
 80026b6:	2b01      	cmp	r3, #1
 80026b8:	d805      	bhi.n	80026c6 <HAL_CAN_ActivateNotification+0x16>
 80026ba:	6802      	ldr	r2, [r0, #0]
 80026bc:	6953      	ldr	r3, [r2, #20]
 80026be:	4319      	orrs	r1, r3
 80026c0:	6151      	str	r1, [r2, #20]
 80026c2:	2000      	movs	r0, #0
 80026c4:	4770      	bx	lr
 80026c6:	6a43      	ldr	r3, [r0, #36]	@ 0x24
 80026c8:	f443 2380 	orr.w	r3, r3, #262144	@ 0x40000
 80026cc:	6243      	str	r3, [r0, #36]	@ 0x24
 80026ce:	2001      	movs	r0, #1
 80026d0:	4770      	bx	lr

080026d2 <HAL_CAN_TxMailbox0CompleteCallback>:
 80026d2:	4770      	bx	lr

080026d4 <HAL_CAN_TxMailbox1CompleteCallback>:
 80026d4:	4770      	bx	lr

080026d6 <HAL_CAN_TxMailbox2CompleteCallback>:
 80026d6:	4770      	bx	lr

080026d8 <HAL_CAN_TxMailbox0AbortCallback>:
 80026d8:	4770      	bx	lr

080026da <HAL_CAN_TxMailbox1AbortCallback>:
 80026da:	4770      	bx	lr

080026dc <HAL_CAN_TxMailbox2AbortCallback>:
 80026dc:	4770      	bx	lr

080026de <HAL_CAN_RxFifo0FullCallback>:
 80026de:	4770      	bx	lr

080026e0 <HAL_CAN_RxFifo1MsgPendingCallback>:
 80026e0:	4770      	bx	lr

080026e2 <HAL_CAN_RxFifo1FullCallback>:
 80026e2:	4770      	bx	lr

080026e4 <HAL_CAN_SleepCallback>:
 80026e4:	4770      	bx	lr

080026e6 <HAL_CAN_WakeUpFromRxMsgCallback>:
 80026e6:	4770      	bx	lr

080026e8 <HAL_CAN_ErrorCallback>:
 80026e8:	4770      	bx	lr

080026ea <HAL_CAN_IRQHandler>:
 80026ea:	e92d 4ff8 	stmdb	sp!, {r3, r4, r5, r6, r7, r8, r9, sl, fp, lr}
 80026ee:	6803      	ldr	r3, [r0, #0]
 80026f0:	695e      	ldr	r6, [r3, #20]
 80026f2:	f8d3 9004 	ldr.w	r9, [r3, #4]
 80026f6:	f8d3 8008 	ldr.w	r8, [r3, #8]
 80026fa:	f8d3 b00c 	ldr.w	fp, [r3, #12]
 80026fe:	f8d3 a010 	ldr.w	sl, [r3, #16]
 8002702:	699f      	ldr	r7, [r3, #24]
 8002704:	f016 0401 	ands.w	r4, r6, #1
 8002708:	4605      	mov	r5, r0
 800270a:	d027      	beq.n	800275c <HAL_CAN_IRQHandler+0x72>
 800270c:	f018 0f01 	tst.w	r8, #1
 8002710:	d007      	beq.n	8002722 <HAL_CAN_IRQHandler+0x38>
 8002712:	2201      	movs	r2, #1
 8002714:	f018 0f02 	tst.w	r8, #2
 8002718:	609a      	str	r2, [r3, #8]
 800271a:	f000 80a6 	beq.w	800286a <HAL_CAN_IRQHandler+0x180>
 800271e:	f7ff ffd8 	bl	80026d2 <HAL_CAN_TxMailbox0CompleteCallback>
 8002722:	2400      	movs	r4, #0
 8002724:	f418 7f80 	tst.w	r8, #256	@ 0x100
 8002728:	d00a      	beq.n	8002740 <HAL_CAN_IRQHandler+0x56>
 800272a:	682b      	ldr	r3, [r5, #0]
 800272c:	f44f 7280 	mov.w	r2, #256	@ 0x100
 8002730:	f418 7f00 	tst.w	r8, #512	@ 0x200
 8002734:	609a      	str	r2, [r3, #8]
 8002736:	f000 80a7 	beq.w	8002888 <HAL_CAN_IRQHandler+0x19e>
 800273a:	4628      	mov	r0, r5
 800273c:	f7ff ffca 	bl	80026d4 <HAL_CAN_TxMailbox1CompleteCallback>
 8002740:	f418 3f80 	tst.w	r8, #65536	@ 0x10000
 8002744:	d00a      	beq.n	800275c <HAL_CAN_IRQHandler+0x72>
 8002746:	682b      	ldr	r3, [r5, #0]
 8002748:	f44f 3280 	mov.w	r2, #65536	@ 0x10000
 800274c:	f418 3f00 	tst.w	r8, #131072	@ 0x20000
 8002750:	609a      	str	r2, [r3, #8]
 8002752:	f000 80a9 	beq.w	80028a8 <HAL_CAN_IRQHandler+0x1be>
 8002756:	4628      	mov	r0, r5
 8002758:	f7ff ffbd 	bl	80026d6 <HAL_CAN_TxMailbox2CompleteCallback>
 800275c:	0730      	lsls	r0, r6, #28
 800275e:	d507      	bpl.n	8002770 <HAL_CAN_IRQHandler+0x86>
 8002760:	f01b 0f10 	tst.w	fp, #16
 8002764:	bf1f      	itttt	ne
 8002766:	682b      	ldrne	r3, [r5, #0]
 8002768:	2210      	movne	r2, #16
 800276a:	f444 7400 	orrne.w	r4, r4, #512	@ 0x200
 800276e:	60da      	strne	r2, [r3, #12]
 8002770:	0771      	lsls	r1, r6, #29
 8002772:	d508      	bpl.n	8002786 <HAL_CAN_IRQHandler+0x9c>
 8002774:	f01b 0f08 	tst.w	fp, #8
 8002778:	d005      	beq.n	8002786 <HAL_CAN_IRQHandler+0x9c>
 800277a:	682b      	ldr	r3, [r5, #0]
 800277c:	2208      	movs	r2, #8
 800277e:	60da      	str	r2, [r3, #12]
 8002780:	4628      	mov	r0, r5
 8002782:	f7ff ffac 	bl	80026de <HAL_CAN_RxFifo0FullCallback>
 8002786:	07b2      	lsls	r2, r6, #30
 8002788:	d506      	bpl.n	8002798 <HAL_CAN_IRQHandler+0xae>
 800278a:	682b      	ldr	r3, [r5, #0]
 800278c:	68db      	ldr	r3, [r3, #12]
 800278e:	079b      	lsls	r3, r3, #30
 8002790:	d002      	beq.n	8002798 <HAL_CAN_IRQHandler+0xae>
 8002792:	4628      	mov	r0, r5
 8002794:	f7ff fc7c 	bl	8002090 <HAL_CAN_RxFifo0MsgPendingCallback>
 8002798:	0670      	lsls	r0, r6, #25
 800279a:	d507      	bpl.n	80027ac <HAL_CAN_IRQHandler+0xc2>
 800279c:	f01a 0f10 	tst.w	sl, #16
 80027a0:	bf1f      	itttt	ne
 80027a2:	682b      	ldrne	r3, [r5, #0]
 80027a4:	2210      	movne	r2, #16
 80027a6:	f444 6480 	orrne.w	r4, r4, #1024	@ 0x400
 80027aa:	611a      	strne	r2, [r3, #16]
 80027ac:	06b1      	lsls	r1, r6, #26
 80027ae:	d508      	bpl.n	80027c2 <HAL_CAN_IRQHandler+0xd8>
 80027b0:	f01a 0f08 	tst.w	sl, #8
 80027b4:	d005      	beq.n	80027c2 <HAL_CAN_IRQHandler+0xd8>
 80027b6:	682b      	ldr	r3, [r5, #0]
 80027b8:	2208      	movs	r2, #8
 80027ba:	611a      	str	r2, [r3, #16]
 80027bc:	4628      	mov	r0, r5
 80027be:	f7ff ff90 	bl	80026e2 <HAL_CAN_RxFifo1FullCallback>
 80027c2:	06f2      	lsls	r2, r6, #27
 80027c4:	d506      	bpl.n	80027d4 <HAL_CAN_IRQHandler+0xea>
 80027c6:	682b      	ldr	r3, [r5, #0]
 80027c8:	691b      	ldr	r3, [r3, #16]
 80027ca:	079b      	lsls	r3, r3, #30
 80027cc:	d002      	beq.n	80027d4 <HAL_CAN_IRQHandler+0xea>
 80027ce:	4628      	mov	r0, r5
 80027d0:	f7ff ff86 	bl	80026e0 <HAL_CAN_RxFifo1MsgPendingCallback>
 80027d4:	03b0      	lsls	r0, r6, #14
 80027d6:	d508      	bpl.n	80027ea <HAL_CAN_IRQHandler+0x100>
 80027d8:	f019 0f10 	tst.w	r9, #16
 80027dc:	d005      	beq.n	80027ea <HAL_CAN_IRQHandler+0x100>
 80027de:	682b      	ldr	r3, [r5, #0]
 80027e0:	2210      	movs	r2, #16
 80027e2:	605a      	str	r2, [r3, #4]
 80027e4:	4628      	mov	r0, r5
 80027e6:	f7ff ff7d 	bl	80026e4 <HAL_CAN_SleepCallback>
 80027ea:	03f1      	lsls	r1, r6, #15
 80027ec:	d508      	bpl.n	8002800 <HAL_CAN_IRQHandler+0x116>
 80027ee:	f019 0f08 	tst.w	r9, #8
 80027f2:	d005      	beq.n	8002800 <HAL_CAN_IRQHandler+0x116>
 80027f4:	682b      	ldr	r3, [r5, #0]
 80027f6:	2208      	movs	r2, #8
 80027f8:	605a      	str	r2, [r3, #4]
 80027fa:	4628      	mov	r0, r5
 80027fc:	f7ff ff73 	bl	80026e6 <HAL_CAN_WakeUpFromRxMsgCallback>
 8002800:	0432      	lsls	r2, r6, #16
 8002802:	d529      	bpl.n	8002858 <HAL_CAN_IRQHandler+0x16e>
 8002804:	f019 0f04 	tst.w	r9, #4
 8002808:	682a      	ldr	r2, [r5, #0]
 800280a:	d023      	beq.n	8002854 <HAL_CAN_IRQHandler+0x16a>
 800280c:	05f3      	lsls	r3, r6, #23
 800280e:	d503      	bpl.n	8002818 <HAL_CAN_IRQHandler+0x12e>
 8002810:	07f8      	lsls	r0, r7, #31
 8002812:	bf48      	it	mi
 8002814:	f044 0401 	orrmi.w	r4, r4, #1
 8002818:	05b1      	lsls	r1, r6, #22
 800281a:	d503      	bpl.n	8002824 <HAL_CAN_IRQHandler+0x13a>
 800281c:	07bb      	lsls	r3, r7, #30
 800281e:	bf48      	it	mi
 8002820:	f044 0402 	orrmi.w	r4, r4, #2
 8002824:	0570      	lsls	r0, r6, #21
 8002826:	d503      	bpl.n	8002830 <HAL_CAN_IRQHandler+0x146>
 8002828:	0779      	lsls	r1, r7, #29
 800282a:	bf48      	it	mi
 800282c:	f044 0404 	orrmi.w	r4, r4, #4
 8002830:	0533      	lsls	r3, r6, #20
 8002832:	d50f      	bpl.n	8002854 <HAL_CAN_IRQHandler+0x16a>
 8002834:	f017 0370 	ands.w	r3, r7, #112	@ 0x70
 8002838:	d00c      	beq.n	8002854 <HAL_CAN_IRQHandler+0x16a>
 800283a:	2b40      	cmp	r3, #64	@ 0x40
 800283c:	d054      	beq.n	80028e8 <HAL_CAN_IRQHandler+0x1fe>
 800283e:	d843      	bhi.n	80028c8 <HAL_CAN_IRQHandler+0x1de>
 8002840:	2b20      	cmp	r3, #32
 8002842:	d04b      	beq.n	80028dc <HAL_CAN_IRQHandler+0x1f2>
 8002844:	2b30      	cmp	r3, #48	@ 0x30
 8002846:	d04c      	beq.n	80028e2 <HAL_CAN_IRQHandler+0x1f8>
 8002848:	2b10      	cmp	r3, #16
 800284a:	d044      	beq.n	80028d6 <HAL_CAN_IRQHandler+0x1ec>
 800284c:	6993      	ldr	r3, [r2, #24]
 800284e:	f023 0370 	bic.w	r3, r3, #112	@ 0x70
 8002852:	6193      	str	r3, [r2, #24]
 8002854:	2304      	movs	r3, #4
 8002856:	6053      	str	r3, [r2, #4]
 8002858:	b12c      	cbz	r4, 8002866 <HAL_CAN_IRQHandler+0x17c>
 800285a:	6a6b      	ldr	r3, [r5, #36]	@ 0x24
 800285c:	4323      	orrs	r3, r4
 800285e:	626b      	str	r3, [r5, #36]	@ 0x24
 8002860:	4628      	mov	r0, r5
 8002862:	f7ff ff41 	bl	80026e8 <HAL_CAN_ErrorCallback>
 8002866:	e8bd 8ff8 	ldmia.w	sp!, {r3, r4, r5, r6, r7, r8, r9, sl, fp, pc}
 800286a:	f018 0f04 	tst.w	r8, #4
 800286e:	d105      	bne.n	800287c <HAL_CAN_IRQHandler+0x192>
 8002870:	f018 0f08 	tst.w	r8, #8
 8002874:	d105      	bne.n	8002882 <HAL_CAN_IRQHandler+0x198>
 8002876:	f7ff ff2f 	bl	80026d8 <HAL_CAN_TxMailbox0AbortCallback>
 800287a:	e752      	b.n	8002722 <HAL_CAN_IRQHandler+0x38>
 800287c:	f44f 6400 	mov.w	r4, #2048	@ 0x800
 8002880:	e750      	b.n	8002724 <HAL_CAN_IRQHandler+0x3a>
 8002882:	f44f 5480 	mov.w	r4, #4096	@ 0x1000
 8002886:	e74d      	b.n	8002724 <HAL_CAN_IRQHandler+0x3a>
 8002888:	f418 6f80 	tst.w	r8, #1024	@ 0x400
 800288c:	d002      	beq.n	8002894 <HAL_CAN_IRQHandler+0x1aa>
 800288e:	f444 5400 	orr.w	r4, r4, #8192	@ 0x2000
 8002892:	e755      	b.n	8002740 <HAL_CAN_IRQHandler+0x56>
 8002894:	f418 6f00 	tst.w	r8, #2048	@ 0x800
 8002898:	d002      	beq.n	80028a0 <HAL_CAN_IRQHandler+0x1b6>
 800289a:	f444 4480 	orr.w	r4, r4, #16384	@ 0x4000
 800289e:	e74f      	b.n	8002740 <HAL_CAN_IRQHandler+0x56>
 80028a0:	4628      	mov	r0, r5
 80028a2:	f7ff ff1a 	bl	80026da <HAL_CAN_TxMailbox1AbortCallback>
 80028a6:	e74b      	b.n	8002740 <HAL_CAN_IRQHandler+0x56>
 80028a8:	f418 2f80 	tst.w	r8, #262144	@ 0x40000
 80028ac:	d002      	beq.n	80028b4 <HAL_CAN_IRQHandler+0x1ca>
 80028ae:	f444 4400 	orr.w	r4, r4, #32768	@ 0x8000
 80028b2:	e753      	b.n	800275c <HAL_CAN_IRQHandler+0x72>
 80028b4:	f418 2f00 	tst.w	r8, #524288	@ 0x80000
 80028b8:	d002      	beq.n	80028c0 <HAL_CAN_IRQHandler+0x1d6>
 80028ba:	f444 3480 	orr.w	r4, r4, #65536	@ 0x10000
 80028be:	e74d      	b.n	800275c <HAL_CAN_IRQHandler+0x72>
 80028c0:	4628      	mov	r0, r5
 80028c2:	f7ff ff0b 	bl	80026dc <HAL_CAN_TxMailbox2AbortCallback>
 80028c6:	e749      	b.n	800275c <HAL_CAN_IRQHandler+0x72>
 80028c8:	2b50      	cmp	r3, #80	@ 0x50
 80028ca:	d010      	beq.n	80028ee <HAL_CAN_IRQHandler+0x204>
 80028cc:	2b60      	cmp	r3, #96	@ 0x60
 80028ce:	d1bd      	bne.n	800284c <HAL_CAN_IRQHandler+0x162>
 80028d0:	f444 7480 	orr.w	r4, r4, #256	@ 0x100
 80028d4:	e7ba      	b.n	800284c <HAL_CAN_IRQHandler+0x162>
 80028d6:	f044 0408 	orr.w	r4, r4, #8
 80028da:	e7b7      	b.n	800284c <HAL_CAN_IRQHandler+0x162>
 80028dc:	f044 0410 	orr.w	r4, r4, #16
 80028e0:	e7b4      	b.n	800284c <HAL_CAN_IRQHandler+0x162>
 80028e2:	f044 0420 	orr.w	r4, r4, #32
 80028e6:	e7b1      	b.n	800284c <HAL_CAN_IRQHandler+0x162>
 80028e8:	f044 0440 	orr.w	r4, r4, #64	@ 0x40
 80028ec:	e7ae      	b.n	800284c <HAL_CAN_IRQHandler+0x162>
 80028ee:	f044 0480 	orr.w	r4, r4, #128	@ 0x80
 80028f2:	e7ab      	b.n	800284c <HAL_CAN_IRQHandler+0x162>

080028f4 <HAL_NVIC_SetPriorityGrouping>:
 80028f4:	4907      	ldr	r1, [pc, #28]	@ (8002914 <HAL_NVIC_SetPriorityGrouping+0x20>)
 80028f6:	68ca      	ldr	r2, [r1, #12]
 80028f8:	f422 62e0 	bic.w	r2, r2, #1792	@ 0x700
 80028fc:	0203      	lsls	r3, r0, #8
 80028fe:	0412      	lsls	r2, r2, #16
 8002900:	f403 63e0 	and.w	r3, r3, #1792	@ 0x700
 8002904:	0c12      	lsrs	r2, r2, #16
 8002906:	4313      	orrs	r3, r2
 8002908:	f043 63bf 	orr.w	r3, r3, #100139008	@ 0x5f80000
 800290c:	f443 3300 	orr.w	r3, r3, #131072	@ 0x20000
 8002910:	60cb      	str	r3, [r1, #12]
 8002912:	4770      	bx	lr
 8002914:	e000ed00 	.word	0xe000ed00

08002918 <HAL_NVIC_SetPriority>:
 8002918:	4b16      	ldr	r3, [pc, #88]	@ (8002974 <HAL_NVIC_SetPriority+0x5c>)
 800291a:	b530      	push	{r4, r5, lr}
 800291c:	68dc      	ldr	r4, [r3, #12]
 800291e:	f3c4 2402 	ubfx	r4, r4, #8, #3
 8002922:	f1c4 0307 	rsb	r3, r4, #7
 8002926:	1d25      	adds	r5, r4, #4
 8002928:	2b04      	cmp	r3, #4
 800292a:	bf28      	it	cs
 800292c:	2304      	movcs	r3, #4
 800292e:	2d06      	cmp	r5, #6
 8002930:	f04f 35ff 	mov.w	r5, #4294967295	@ 0xffffffff
 8002934:	bf8c      	ite	hi
 8002936:	3c03      	subhi	r4, #3
 8002938:	2400      	movls	r4, #0
 800293a:	fa05 f303 	lsl.w	r3, r5, r3
 800293e:	ea21 0303 	bic.w	r3, r1, r3
 8002942:	40a5      	lsls	r5, r4
 8002944:	ea22 0205 	bic.w	r2, r2, r5
 8002948:	40a3      	lsls	r3, r4
 800294a:	2800      	cmp	r0, #0
 800294c:	ea43 0302 	orr.w	r3, r3, r2
 8002950:	bfac      	ite	ge
 8002952:	f100 4060 	addge.w	r0, r0, #3758096384	@ 0xe0000000
 8002956:	4a08      	ldrlt	r2, [pc, #32]	@ (8002978 <HAL_NVIC_SetPriority+0x60>)
 8002958:	ea4f 1303 	mov.w	r3, r3, lsl #4
 800295c:	bfb8      	it	lt
 800295e:	f000 000f 	andlt.w	r0, r0, #15
 8002962:	b2db      	uxtb	r3, r3
 8002964:	bfaa      	itet	ge
 8002966:	f500 4061 	addge.w	r0, r0, #57600	@ 0xe100
 800296a:	5413      	strblt	r3, [r2, r0]
 800296c:	f880 3300 	strbge.w	r3, [r0, #768]	@ 0x300
 8002970:	bd30      	pop	{r4, r5, pc}
 8002972:	bf00      	nop
 8002974:	e000ed00 	.word	0xe000ed00
 8002978:	e000ed14 	.word	0xe000ed14

0800297c <HAL_NVIC_EnableIRQ>:
 800297c:	2800      	cmp	r0, #0
 800297e:	db07      	blt.n	8002990 <HAL_NVIC_EnableIRQ+0x14>
 8002980:	4a04      	ldr	r2, [pc, #16]	@ (8002994 <HAL_NVIC_EnableIRQ+0x18>)
 8002982:	0941      	lsrs	r1, r0, #5
 8002984:	2301      	movs	r3, #1
 8002986:	f000 001f 	and.w	r0, r0, #31
 800298a:	4083      	lsls	r3, r0
 800298c:	f842 3021 	str.w	r3, [r2, r1, lsl #2]
 8002990:	4770      	bx	lr
 8002992:	bf00      	nop
 8002994:	e000e100 	.word	0xe000e100

08002998 <HAL_SYSTICK_Config>:
 8002998:	3801      	subs	r0, #1
 800299a:	f1b0 7f80 	cmp.w	r0, #16777216	@ 0x1000000
 800299e:	d20b      	bcs.n	80029b8 <HAL_SYSTICK_Config+0x20>
 80029a0:	f04f 23e0 	mov.w	r3, #3758153728	@ 0xe000e000
 80029a4:	4a05      	ldr	r2, [pc, #20]	@ (80029bc <HAL_SYSTICK_Config+0x24>)
 80029a6:	6158      	str	r0, [r3, #20]
 80029a8:	21f0      	movs	r1, #240	@ 0xf0
 80029aa:	f882 1023 	strb.w	r1, [r2, #35]	@ 0x23
 80029ae:	2000      	movs	r0, #0
 80029b0:	2207      	movs	r2, #7
 80029b2:	6198      	str	r0, [r3, #24]
 80029b4:	611a      	str	r2, [r3, #16]
 80029b6:	4770      	bx	lr
 80029b8:	2001      	movs	r0, #1
 80029ba:	4770      	bx	lr
 80029bc:	e000ed00 	.word	0xe000ed00

080029c0 <DMA_CalcBaseAndBitshift>:
 80029c0:	6803      	ldr	r3, [r0, #0]
 80029c2:	b510      	push	{r4, lr}
 80029c4:	4c08      	ldr	r4, [pc, #32]	@ (80029e8 <DMA_CalcBaseAndBitshift+0x28>)
 80029c6:	4602      	mov	r2, r0
 80029c8:	b2d9      	uxtb	r1, r3
 80029ca:	3910      	subs	r1, #16
 80029cc:	2018      	movs	r0, #24
 80029ce:	fbb1 f0f0 	udiv	r0, r1, r0
 80029d2:	5c20      	ldrb	r0, [r4, r0]
 80029d4:	65d0      	str	r0, [r2, #92]	@ 0x5c
 80029d6:	f423 707f 	bic.w	r0, r3, #1020	@ 0x3fc
 80029da:	f020 0003 	bic.w	r0, r0, #3
 80029de:	295f      	cmp	r1, #95	@ 0x5f
 80029e0:	bf88      	it	hi
 80029e2:	3004      	addhi	r0, #4
 80029e4:	6590      	str	r0, [r2, #88]	@ 0x58
 80029e6:	bd10      	pop	{r4, pc}
 80029e8:	080055eb 	.word	0x080055eb

080029ec <HAL_DMA_Init>:
 80029ec:	b570      	push	{r4, r5, r6, lr}
 80029ee:	4604      	mov	r4, r0
 80029f0:	f7ff fc50 	bl	8002294 <HAL_GetTick>
 80029f4:	4605      	mov	r5, r0
 80029f6:	2c00      	cmp	r4, #0
 80029f8:	d060      	beq.n	8002abc <HAL_DMA_Init+0xd0>
 80029fa:	2302      	movs	r3, #2
 80029fc:	f884 3035 	strb.w	r3, [r4, #53]	@ 0x35
 8002a00:	6822      	ldr	r2, [r4, #0]
 8002a02:	2300      	movs	r3, #0
 8002a04:	f884 3034 	strb.w	r3, [r4, #52]	@ 0x34
 8002a08:	6813      	ldr	r3, [r2, #0]
 8002a0a:	f023 0301 	bic.w	r3, r3, #1
 8002a0e:	6013      	str	r3, [r2, #0]
 8002a10:	6822      	ldr	r2, [r4, #0]
 8002a12:	6813      	ldr	r3, [r2, #0]
 8002a14:	07d8      	lsls	r0, r3, #31
 8002a16:	d42e      	bmi.n	8002a76 <HAL_DMA_Init+0x8a>
 8002a18:	6813      	ldr	r3, [r2, #0]
 8002a1a:	4832      	ldr	r0, [pc, #200]	@ (8002ae4 <HAL_DMA_Init+0xf8>)
 8002a1c:	69a1      	ldr	r1, [r4, #24]
 8002a1e:	4018      	ands	r0, r3
 8002a20:	e9d4 3501 	ldrd	r3, r5, [r4, #4]
 8002a24:	432b      	orrs	r3, r5
 8002a26:	68e5      	ldr	r5, [r4, #12]
 8002a28:	432b      	orrs	r3, r5
 8002a2a:	6925      	ldr	r5, [r4, #16]
 8002a2c:	432b      	orrs	r3, r5
 8002a2e:	6965      	ldr	r5, [r4, #20]
 8002a30:	432b      	orrs	r3, r5
 8002a32:	69e5      	ldr	r5, [r4, #28]
 8002a34:	430b      	orrs	r3, r1
 8002a36:	432b      	orrs	r3, r5
 8002a38:	6a25      	ldr	r5, [r4, #32]
 8002a3a:	432b      	orrs	r3, r5
 8002a3c:	4303      	orrs	r3, r0
 8002a3e:	6a60      	ldr	r0, [r4, #36]	@ 0x24
 8002a40:	2804      	cmp	r0, #4
 8002a42:	bf02      	ittt	eq
 8002a44:	e9d4 560b 	ldrdeq	r5, r6, [r4, #44]	@ 0x2c
 8002a48:	4335      	orreq	r5, r6
 8002a4a:	432b      	orreq	r3, r5
 8002a4c:	6013      	str	r3, [r2, #0]
 8002a4e:	6953      	ldr	r3, [r2, #20]
 8002a50:	2804      	cmp	r0, #4
 8002a52:	f023 0307 	bic.w	r3, r3, #7
 8002a56:	ea43 0300 	orr.w	r3, r3, r0
 8002a5a:	d135      	bne.n	8002ac8 <HAL_DMA_Init+0xdc>
 8002a5c:	6aa0      	ldr	r0, [r4, #40]	@ 0x28
 8002a5e:	6ae5      	ldr	r5, [r4, #44]	@ 0x2c
 8002a60:	4303      	orrs	r3, r0
 8002a62:	b38d      	cbz	r5, 8002ac8 <HAL_DMA_Init+0xdc>
 8002a64:	b991      	cbnz	r1, 8002a8c <HAL_DMA_Init+0xa0>
 8002a66:	2801      	cmp	r0, #1
 8002a68:	d020      	beq.n	8002aac <HAL_DMA_Init+0xc0>
 8002a6a:	f030 0102 	bics.w	r1, r0, #2
 8002a6e:	d12b      	bne.n	8002ac8 <HAL_DMA_Init+0xdc>
 8002a70:	01e9      	lsls	r1, r5, #7
 8002a72:	d529      	bpl.n	8002ac8 <HAL_DMA_Init+0xdc>
 8002a74:	e01d      	b.n	8002ab2 <HAL_DMA_Init+0xc6>
 8002a76:	f7ff fc0d 	bl	8002294 <HAL_GetTick>
 8002a7a:	1b40      	subs	r0, r0, r5
 8002a7c:	2805      	cmp	r0, #5
 8002a7e:	d9c7      	bls.n	8002a10 <HAL_DMA_Init+0x24>
 8002a80:	2320      	movs	r3, #32
 8002a82:	2003      	movs	r0, #3
 8002a84:	6563      	str	r3, [r4, #84]	@ 0x54
 8002a86:	f884 0035 	strb.w	r0, [r4, #53]	@ 0x35
 8002a8a:	bd70      	pop	{r4, r5, r6, pc}
 8002a8c:	f5b1 5f00 	cmp.w	r1, #8192	@ 0x2000
 8002a90:	d116      	bne.n	8002ac0 <HAL_DMA_Init+0xd4>
 8002a92:	2803      	cmp	r0, #3
 8002a94:	d818      	bhi.n	8002ac8 <HAL_DMA_Init+0xdc>
 8002a96:	a101      	add	r1, pc, #4	@ (adr r1, 8002a9c <HAL_DMA_Init+0xb0>)
 8002a98:	f851 f020 	ldr.w	pc, [r1, r0, lsl #2]
 8002a9c:	08002ab3 	.word	0x08002ab3
 8002aa0:	08002a71 	.word	0x08002a71
 8002aa4:	08002ab3 	.word	0x08002ab3
 8002aa8:	08002aad 	.word	0x08002aad
 8002aac:	f1b5 7fc0 	cmp.w	r5, #25165824	@ 0x1800000
 8002ab0:	d10a      	bne.n	8002ac8 <HAL_DMA_Init+0xdc>
 8002ab2:	2340      	movs	r3, #64	@ 0x40
 8002ab4:	6563      	str	r3, [r4, #84]	@ 0x54
 8002ab6:	2301      	movs	r3, #1
 8002ab8:	f884 3035 	strb.w	r3, [r4, #53]	@ 0x35
 8002abc:	2001      	movs	r0, #1
 8002abe:	e7e4      	b.n	8002a8a <HAL_DMA_Init+0x9e>
 8002ac0:	2802      	cmp	r0, #2
 8002ac2:	d9f6      	bls.n	8002ab2 <HAL_DMA_Init+0xc6>
 8002ac4:	2803      	cmp	r0, #3
 8002ac6:	d0d3      	beq.n	8002a70 <HAL_DMA_Init+0x84>
 8002ac8:	6153      	str	r3, [r2, #20]
 8002aca:	4620      	mov	r0, r4
 8002acc:	f7ff ff78 	bl	80029c0 <DMA_CalcBaseAndBitshift>
 8002ad0:	6de2      	ldr	r2, [r4, #92]	@ 0x5c
 8002ad2:	233f      	movs	r3, #63	@ 0x3f
 8002ad4:	4093      	lsls	r3, r2
 8002ad6:	6083      	str	r3, [r0, #8]
 8002ad8:	2000      	movs	r0, #0
 8002ada:	2301      	movs	r3, #1
 8002adc:	6560      	str	r0, [r4, #84]	@ 0x54
 8002ade:	f884 3035 	strb.w	r3, [r4, #53]	@ 0x35
 8002ae2:	e7d2      	b.n	8002a8a <HAL_DMA_Init+0x9e>
 8002ae4:	f010803f 	.word	0xf010803f

08002ae8 <HAL_DMA_Start_IT>:
 8002ae8:	b570      	push	{r4, r5, r6, lr}
 8002aea:	f890 4034 	ldrb.w	r4, [r0, #52]	@ 0x34
 8002aee:	6d86      	ldr	r6, [r0, #88]	@ 0x58
 8002af0:	2c01      	cmp	r4, #1
 8002af2:	d030      	beq.n	8002b56 <HAL_DMA_Start_IT+0x6e>
 8002af4:	2401      	movs	r4, #1
 8002af6:	f880 4034 	strb.w	r4, [r0, #52]	@ 0x34
 8002afa:	f890 4035 	ldrb.w	r4, [r0, #53]	@ 0x35
 8002afe:	2c01      	cmp	r4, #1
 8002b00:	f04f 0400 	mov.w	r4, #0
 8002b04:	d125      	bne.n	8002b52 <HAL_DMA_Start_IT+0x6a>
 8002b06:	2502      	movs	r5, #2
 8002b08:	f880 5035 	strb.w	r5, [r0, #53]	@ 0x35
 8002b0c:	6544      	str	r4, [r0, #84]	@ 0x54
 8002b0e:	6804      	ldr	r4, [r0, #0]
 8002b10:	6825      	ldr	r5, [r4, #0]
 8002b12:	f425 2580 	bic.w	r5, r5, #262144	@ 0x40000
 8002b16:	6025      	str	r5, [r4, #0]
 8002b18:	6063      	str	r3, [r4, #4]
 8002b1a:	6883      	ldr	r3, [r0, #8]
 8002b1c:	2b40      	cmp	r3, #64	@ 0x40
 8002b1e:	bf0e      	itee	eq
 8002b20:	60a2      	streq	r2, [r4, #8]
 8002b22:	60a1      	strne	r1, [r4, #8]
 8002b24:	60e2      	strne	r2, [r4, #12]
 8002b26:	6dc2      	ldr	r2, [r0, #92]	@ 0x5c
 8002b28:	bf08      	it	eq
 8002b2a:	60e1      	streq	r1, [r4, #12]
 8002b2c:	233f      	movs	r3, #63	@ 0x3f
 8002b2e:	4093      	lsls	r3, r2
 8002b30:	60b3      	str	r3, [r6, #8]
 8002b32:	6823      	ldr	r3, [r4, #0]
 8002b34:	f043 0316 	orr.w	r3, r3, #22
 8002b38:	6023      	str	r3, [r4, #0]
 8002b3a:	6c03      	ldr	r3, [r0, #64]	@ 0x40
 8002b3c:	b11b      	cbz	r3, 8002b46 <HAL_DMA_Start_IT+0x5e>
 8002b3e:	6823      	ldr	r3, [r4, #0]
 8002b40:	f043 0308 	orr.w	r3, r3, #8
 8002b44:	6023      	str	r3, [r4, #0]
 8002b46:	6823      	ldr	r3, [r4, #0]
 8002b48:	f043 0301 	orr.w	r3, r3, #1
 8002b4c:	6023      	str	r3, [r4, #0]
 8002b4e:	2000      	movs	r0, #0
 8002b50:	bd70      	pop	{r4, r5, r6, pc}
 8002b52:	f880 4034 	strb.w	r4, [r0, #52]	@ 0x34
 8002b56:	2002      	movs	r0, #2
 8002b58:	e7fa      	b.n	8002b50 <HAL_DMA_Start_IT+0x68>

08002b5a <HAL_DMA_Abort>:
 8002b5a:	b570      	push	{r4, r5, r6, lr}
 8002b5c:	4604      	mov	r4, r0
 8002b5e:	6d86      	ldr	r6, [r0, #88]	@ 0x58
 8002b60:	f7ff fb98 	bl	8002294 <HAL_GetTick>
 8002b64:	f894 3035 	ldrb.w	r3, [r4, #53]	@ 0x35
 8002b68:	2b02      	cmp	r3, #2
 8002b6a:	4605      	mov	r5, r0
 8002b6c:	d006      	beq.n	8002b7c <HAL_DMA_Abort+0x22>
 8002b6e:	2380      	movs	r3, #128	@ 0x80
 8002b70:	6563      	str	r3, [r4, #84]	@ 0x54
 8002b72:	2001      	movs	r0, #1
 8002b74:	2300      	movs	r3, #0
 8002b76:	f884 3034 	strb.w	r3, [r4, #52]	@ 0x34
 8002b7a:	bd70      	pop	{r4, r5, r6, pc}
 8002b7c:	6823      	ldr	r3, [r4, #0]
 8002b7e:	681a      	ldr	r2, [r3, #0]
 8002b80:	f022 0216 	bic.w	r2, r2, #22
 8002b84:	601a      	str	r2, [r3, #0]
 8002b86:	695a      	ldr	r2, [r3, #20]
 8002b88:	f022 0280 	bic.w	r2, r2, #128	@ 0x80
 8002b8c:	615a      	str	r2, [r3, #20]
 8002b8e:	6c22      	ldr	r2, [r4, #64]	@ 0x40
 8002b90:	b90a      	cbnz	r2, 8002b96 <HAL_DMA_Abort+0x3c>
 8002b92:	6ca2      	ldr	r2, [r4, #72]	@ 0x48
 8002b94:	b11a      	cbz	r2, 8002b9e <HAL_DMA_Abort+0x44>
 8002b96:	681a      	ldr	r2, [r3, #0]
 8002b98:	f022 0208 	bic.w	r2, r2, #8
 8002b9c:	601a      	str	r2, [r3, #0]
 8002b9e:	681a      	ldr	r2, [r3, #0]
 8002ba0:	f022 0201 	bic.w	r2, r2, #1
 8002ba4:	601a      	str	r2, [r3, #0]
 8002ba6:	6823      	ldr	r3, [r4, #0]
 8002ba8:	6818      	ldr	r0, [r3, #0]
 8002baa:	f010 0001 	ands.w	r0, r0, #1
 8002bae:	d107      	bne.n	8002bc0 <HAL_DMA_Abort+0x66>
 8002bb0:	6de2      	ldr	r2, [r4, #92]	@ 0x5c
 8002bb2:	233f      	movs	r3, #63	@ 0x3f
 8002bb4:	4093      	lsls	r3, r2
 8002bb6:	60b3      	str	r3, [r6, #8]
 8002bb8:	2301      	movs	r3, #1
 8002bba:	f884 3035 	strb.w	r3, [r4, #53]	@ 0x35
 8002bbe:	e7d9      	b.n	8002b74 <HAL_DMA_Abort+0x1a>
 8002bc0:	f7ff fb68 	bl	8002294 <HAL_GetTick>
 8002bc4:	1b40      	subs	r0, r0, r5
 8002bc6:	2805      	cmp	r0, #5
 8002bc8:	d9ed      	bls.n	8002ba6 <HAL_DMA_Abort+0x4c>
 8002bca:	2320      	movs	r3, #32
 8002bcc:	2003      	movs	r0, #3
 8002bce:	6563      	str	r3, [r4, #84]	@ 0x54
 8002bd0:	f884 0035 	strb.w	r0, [r4, #53]	@ 0x35
 8002bd4:	e7ce      	b.n	8002b74 <HAL_DMA_Abort+0x1a>

08002bd6 <HAL_DMA_Abort_IT>:
 8002bd6:	f890 3035 	ldrb.w	r3, [r0, #53]	@ 0x35
 8002bda:	2b02      	cmp	r3, #2
 8002bdc:	d003      	beq.n	8002be6 <HAL_DMA_Abort_IT+0x10>
 8002bde:	2380      	movs	r3, #128	@ 0x80
 8002be0:	6543      	str	r3, [r0, #84]	@ 0x54
 8002be2:	2001      	movs	r0, #1
 8002be4:	4770      	bx	lr
 8002be6:	6802      	ldr	r2, [r0, #0]
 8002be8:	2305      	movs	r3, #5
 8002bea:	f880 3035 	strb.w	r3, [r0, #53]	@ 0x35
 8002bee:	6813      	ldr	r3, [r2, #0]
 8002bf0:	f023 0301 	bic.w	r3, r3, #1
 8002bf4:	6013      	str	r3, [r2, #0]
 8002bf6:	2000      	movs	r0, #0
 8002bf8:	4770      	bx	lr
	...

08002bfc <HAL_DMA_IRQHandler>:
 8002bfc:	b5f7      	push	{r0, r1, r2, r4, r5, r6, r7, lr}
 8002bfe:	2300      	movs	r3, #0
 8002c00:	9301      	str	r3, [sp, #4]
 8002c02:	4b5c      	ldr	r3, [pc, #368]	@ (8002d74 <HAL_DMA_IRQHandler+0x178>)
 8002c04:	6d85      	ldr	r5, [r0, #88]	@ 0x58
 8002c06:	681f      	ldr	r7, [r3, #0]
 8002c08:	6dc3      	ldr	r3, [r0, #92]	@ 0x5c
 8002c0a:	682e      	ldr	r6, [r5, #0]
 8002c0c:	2208      	movs	r2, #8
 8002c0e:	409a      	lsls	r2, r3
 8002c10:	4232      	tst	r2, r6
 8002c12:	4604      	mov	r4, r0
 8002c14:	d00c      	beq.n	8002c30 <HAL_DMA_IRQHandler+0x34>
 8002c16:	6801      	ldr	r1, [r0, #0]
 8002c18:	6808      	ldr	r0, [r1, #0]
 8002c1a:	0740      	lsls	r0, r0, #29
 8002c1c:	d508      	bpl.n	8002c30 <HAL_DMA_IRQHandler+0x34>
 8002c1e:	6808      	ldr	r0, [r1, #0]
 8002c20:	f020 0004 	bic.w	r0, r0, #4
 8002c24:	6008      	str	r0, [r1, #0]
 8002c26:	60aa      	str	r2, [r5, #8]
 8002c28:	6d62      	ldr	r2, [r4, #84]	@ 0x54
 8002c2a:	f042 0201 	orr.w	r2, r2, #1
 8002c2e:	6562      	str	r2, [r4, #84]	@ 0x54
 8002c30:	2201      	movs	r2, #1
 8002c32:	409a      	lsls	r2, r3
 8002c34:	4232      	tst	r2, r6
 8002c36:	d008      	beq.n	8002c4a <HAL_DMA_IRQHandler+0x4e>
 8002c38:	6821      	ldr	r1, [r4, #0]
 8002c3a:	6949      	ldr	r1, [r1, #20]
 8002c3c:	0609      	lsls	r1, r1, #24
 8002c3e:	bf41      	itttt	mi
 8002c40:	60aa      	strmi	r2, [r5, #8]
 8002c42:	6d62      	ldrmi	r2, [r4, #84]	@ 0x54
 8002c44:	f042 0202 	orrmi.w	r2, r2, #2
 8002c48:	6562      	strmi	r2, [r4, #84]	@ 0x54
 8002c4a:	2204      	movs	r2, #4
 8002c4c:	409a      	lsls	r2, r3
 8002c4e:	4232      	tst	r2, r6
 8002c50:	d008      	beq.n	8002c64 <HAL_DMA_IRQHandler+0x68>
 8002c52:	6821      	ldr	r1, [r4, #0]
 8002c54:	6809      	ldr	r1, [r1, #0]
 8002c56:	0788      	lsls	r0, r1, #30
 8002c58:	bf41      	itttt	mi
 8002c5a:	60aa      	strmi	r2, [r5, #8]
 8002c5c:	6d62      	ldrmi	r2, [r4, #84]	@ 0x54
 8002c5e:	f042 0204 	orrmi.w	r2, r2, #4
 8002c62:	6562      	strmi	r2, [r4, #84]	@ 0x54
 8002c64:	2210      	movs	r2, #16
 8002c66:	409a      	lsls	r2, r3
 8002c68:	4232      	tst	r2, r6
 8002c6a:	d010      	beq.n	8002c8e <HAL_DMA_IRQHandler+0x92>
 8002c6c:	6823      	ldr	r3, [r4, #0]
 8002c6e:	6819      	ldr	r1, [r3, #0]
 8002c70:	0709      	lsls	r1, r1, #28
 8002c72:	d50c      	bpl.n	8002c8e <HAL_DMA_IRQHandler+0x92>
 8002c74:	60aa      	str	r2, [r5, #8]
 8002c76:	681a      	ldr	r2, [r3, #0]
 8002c78:	0350      	lsls	r0, r2, #13
 8002c7a:	d537      	bpl.n	8002cec <HAL_DMA_IRQHandler+0xf0>
 8002c7c:	681b      	ldr	r3, [r3, #0]
 8002c7e:	0319      	lsls	r1, r3, #12
 8002c80:	d401      	bmi.n	8002c86 <HAL_DMA_IRQHandler+0x8a>
 8002c82:	6c23      	ldr	r3, [r4, #64]	@ 0x40
 8002c84:	e000      	b.n	8002c88 <HAL_DMA_IRQHandler+0x8c>
 8002c86:	6ca3      	ldr	r3, [r4, #72]	@ 0x48
 8002c88:	b10b      	cbz	r3, 8002c8e <HAL_DMA_IRQHandler+0x92>
 8002c8a:	4620      	mov	r0, r4
 8002c8c:	4798      	blx	r3
 8002c8e:	6de1      	ldr	r1, [r4, #92]	@ 0x5c
 8002c90:	2220      	movs	r2, #32
 8002c92:	408a      	lsls	r2, r1
 8002c94:	4232      	tst	r2, r6
 8002c96:	d03a      	beq.n	8002d0e <HAL_DMA_IRQHandler+0x112>
 8002c98:	6823      	ldr	r3, [r4, #0]
 8002c9a:	6818      	ldr	r0, [r3, #0]
 8002c9c:	06c6      	lsls	r6, r0, #27
 8002c9e:	d536      	bpl.n	8002d0e <HAL_DMA_IRQHandler+0x112>
 8002ca0:	60aa      	str	r2, [r5, #8]
 8002ca2:	f894 2035 	ldrb.w	r2, [r4, #53]	@ 0x35
 8002ca6:	2a05      	cmp	r2, #5
 8002ca8:	681a      	ldr	r2, [r3, #0]
 8002caa:	d127      	bne.n	8002cfc <HAL_DMA_IRQHandler+0x100>
 8002cac:	f022 0216 	bic.w	r2, r2, #22
 8002cb0:	601a      	str	r2, [r3, #0]
 8002cb2:	695a      	ldr	r2, [r3, #20]
 8002cb4:	f022 0280 	bic.w	r2, r2, #128	@ 0x80
 8002cb8:	615a      	str	r2, [r3, #20]
 8002cba:	6c22      	ldr	r2, [r4, #64]	@ 0x40
 8002cbc:	b90a      	cbnz	r2, 8002cc2 <HAL_DMA_IRQHandler+0xc6>
 8002cbe:	6ca2      	ldr	r2, [r4, #72]	@ 0x48
 8002cc0:	b11a      	cbz	r2, 8002cca <HAL_DMA_IRQHandler+0xce>
 8002cc2:	681a      	ldr	r2, [r3, #0]
 8002cc4:	f022 0208 	bic.w	r2, r2, #8
 8002cc8:	601a      	str	r2, [r3, #0]
 8002cca:	233f      	movs	r3, #63	@ 0x3f
 8002ccc:	408b      	lsls	r3, r1
 8002cce:	60ab      	str	r3, [r5, #8]
 8002cd0:	2301      	movs	r3, #1
 8002cd2:	f884 3035 	strb.w	r3, [r4, #53]	@ 0x35
 8002cd6:	2300      	movs	r3, #0
 8002cd8:	f884 3034 	strb.w	r3, [r4, #52]	@ 0x34
 8002cdc:	6d23      	ldr	r3, [r4, #80]	@ 0x50
 8002cde:	2b00      	cmp	r3, #0
 8002ce0:	d045      	beq.n	8002d6e <HAL_DMA_IRQHandler+0x172>
 8002ce2:	4620      	mov	r0, r4
 8002ce4:	b003      	add	sp, #12
 8002ce6:	e8bd 40f0 	ldmia.w	sp!, {r4, r5, r6, r7, lr}
 8002cea:	4718      	bx	r3
 8002cec:	681a      	ldr	r2, [r3, #0]
 8002cee:	05d2      	lsls	r2, r2, #23
 8002cf0:	bf5e      	ittt	pl
 8002cf2:	681a      	ldrpl	r2, [r3, #0]
 8002cf4:	f022 0208 	bicpl.w	r2, r2, #8
 8002cf8:	601a      	strpl	r2, [r3, #0]
 8002cfa:	e7c2      	b.n	8002c82 <HAL_DMA_IRQHandler+0x86>
 8002cfc:	0350      	lsls	r0, r2, #13
 8002cfe:	d527      	bpl.n	8002d50 <HAL_DMA_IRQHandler+0x154>
 8002d00:	681b      	ldr	r3, [r3, #0]
 8002d02:	0319      	lsls	r1, r3, #12
 8002d04:	d431      	bmi.n	8002d6a <HAL_DMA_IRQHandler+0x16e>
 8002d06:	6c63      	ldr	r3, [r4, #68]	@ 0x44
 8002d08:	b10b      	cbz	r3, 8002d0e <HAL_DMA_IRQHandler+0x112>
 8002d0a:	4620      	mov	r0, r4
 8002d0c:	4798      	blx	r3
 8002d0e:	6d63      	ldr	r3, [r4, #84]	@ 0x54
 8002d10:	b36b      	cbz	r3, 8002d6e <HAL_DMA_IRQHandler+0x172>
 8002d12:	6d63      	ldr	r3, [r4, #84]	@ 0x54
 8002d14:	07da      	lsls	r2, r3, #31
 8002d16:	d519      	bpl.n	8002d4c <HAL_DMA_IRQHandler+0x150>
 8002d18:	6822      	ldr	r2, [r4, #0]
 8002d1a:	f44f 5316 	mov.w	r3, #9600	@ 0x2580
 8002d1e:	fbb7 f7f3 	udiv	r7, r7, r3
 8002d22:	2305      	movs	r3, #5
 8002d24:	f884 3035 	strb.w	r3, [r4, #53]	@ 0x35
 8002d28:	6813      	ldr	r3, [r2, #0]
 8002d2a:	f023 0301 	bic.w	r3, r3, #1
 8002d2e:	6013      	str	r3, [r2, #0]
 8002d30:	9b01      	ldr	r3, [sp, #4]
 8002d32:	3301      	adds	r3, #1
 8002d34:	42bb      	cmp	r3, r7
 8002d36:	9301      	str	r3, [sp, #4]
 8002d38:	d802      	bhi.n	8002d40 <HAL_DMA_IRQHandler+0x144>
 8002d3a:	6813      	ldr	r3, [r2, #0]
 8002d3c:	07db      	lsls	r3, r3, #31
 8002d3e:	d4f7      	bmi.n	8002d30 <HAL_DMA_IRQHandler+0x134>
 8002d40:	2301      	movs	r3, #1
 8002d42:	f884 3035 	strb.w	r3, [r4, #53]	@ 0x35
 8002d46:	2300      	movs	r3, #0
 8002d48:	f884 3034 	strb.w	r3, [r4, #52]	@ 0x34
 8002d4c:	6ce3      	ldr	r3, [r4, #76]	@ 0x4c
 8002d4e:	e7c6      	b.n	8002cde <HAL_DMA_IRQHandler+0xe2>
 8002d50:	681a      	ldr	r2, [r3, #0]
 8002d52:	f412 7280 	ands.w	r2, r2, #256	@ 0x100
 8002d56:	d108      	bne.n	8002d6a <HAL_DMA_IRQHandler+0x16e>
 8002d58:	6819      	ldr	r1, [r3, #0]
 8002d5a:	f021 0110 	bic.w	r1, r1, #16
 8002d5e:	6019      	str	r1, [r3, #0]
 8002d60:	2301      	movs	r3, #1
 8002d62:	f884 3035 	strb.w	r3, [r4, #53]	@ 0x35
 8002d66:	f884 2034 	strb.w	r2, [r4, #52]	@ 0x34
 8002d6a:	6be3      	ldr	r3, [r4, #60]	@ 0x3c
 8002d6c:	e7cc      	b.n	8002d08 <HAL_DMA_IRQHandler+0x10c>
 8002d6e:	b003      	add	sp, #12
 8002d70:	bdf0      	pop	{r4, r5, r6, r7, pc}
 8002d72:	bf00      	nop
 8002d74:	2000001c 	.word	0x2000001c

08002d78 <HAL_GPIO_Init>:
 8002d78:	e92d 4ff7 	stmdb	sp!, {r0, r1, r2, r4, r5, r6, r7, r8, r9, sl, fp, lr}
 8002d7c:	f8df 91bc 	ldr.w	r9, [pc, #444]	@ 8002f3c <HAL_GPIO_Init+0x1c4>
 8002d80:	4a6c      	ldr	r2, [pc, #432]	@ (8002f34 <HAL_GPIO_Init+0x1bc>)
 8002d82:	2300      	movs	r3, #0
 8002d84:	680d      	ldr	r5, [r1, #0]
 8002d86:	2401      	movs	r4, #1
 8002d88:	409c      	lsls	r4, r3
 8002d8a:	ea04 0605 	and.w	r6, r4, r5
 8002d8e:	43ac      	bics	r4, r5
 8002d90:	f040 80b7 	bne.w	8002f02 <HAL_GPIO_Init+0x18a>
 8002d94:	684d      	ldr	r5, [r1, #4]
 8002d96:	2703      	movs	r7, #3
 8002d98:	f005 0403 	and.w	r4, r5, #3
 8002d9c:	ea4f 0843 	mov.w	r8, r3, lsl #1
 8002da0:	fa07 fc08 	lsl.w	ip, r7, r8
 8002da4:	1e67      	subs	r7, r4, #1
 8002da6:	2f01      	cmp	r7, #1
 8002da8:	ea6f 0c0c 	mvn.w	ip, ip
 8002dac:	d834      	bhi.n	8002e18 <HAL_GPIO_Init+0xa0>
 8002dae:	6887      	ldr	r7, [r0, #8]
 8002db0:	ea07 0e0c 	and.w	lr, r7, ip
 8002db4:	68cf      	ldr	r7, [r1, #12]
 8002db6:	fa07 f708 	lsl.w	r7, r7, r8
 8002dba:	ea47 070e 	orr.w	r7, r7, lr
 8002dbe:	6087      	str	r7, [r0, #8]
 8002dc0:	6847      	ldr	r7, [r0, #4]
 8002dc2:	ea27 0e06 	bic.w	lr, r7, r6
 8002dc6:	f3c5 1700 	ubfx	r7, r5, #4, #1
 8002dca:	409f      	lsls	r7, r3
 8002dcc:	ea47 070e 	orr.w	r7, r7, lr
 8002dd0:	6047      	str	r7, [r0, #4]
 8002dd2:	68c7      	ldr	r7, [r0, #12]
 8002dd4:	ea07 0e0c 	and.w	lr, r7, ip
 8002dd8:	688f      	ldr	r7, [r1, #8]
 8002dda:	fa07 f708 	lsl.w	r7, r7, r8
 8002dde:	ea47 070e 	orr.w	r7, r7, lr
 8002de2:	2c02      	cmp	r4, #2
 8002de4:	60c7      	str	r7, [r0, #12]
 8002de6:	d119      	bne.n	8002e1c <HAL_GPIO_Init+0xa4>
 8002de8:	ea4f 0ad3 	mov.w	sl, r3, lsr #3
 8002dec:	eb00 0a8a 	add.w	sl, r0, sl, lsl #2
 8002df0:	f003 0b07 	and.w	fp, r3, #7
 8002df4:	f8da 7020 	ldr.w	r7, [sl, #32]
 8002df8:	ea4f 0b8b 	mov.w	fp, fp, lsl #2
 8002dfc:	f04f 0e0f 	mov.w	lr, #15
 8002e00:	fa0e fe0b 	lsl.w	lr, lr, fp
 8002e04:	ea27 0e0e 	bic.w	lr, r7, lr
 8002e08:	690f      	ldr	r7, [r1, #16]
 8002e0a:	fa07 f70b 	lsl.w	r7, r7, fp
 8002e0e:	ea47 070e 	orr.w	r7, r7, lr
 8002e12:	f8ca 7020 	str.w	r7, [sl, #32]
 8002e16:	e001      	b.n	8002e1c <HAL_GPIO_Init+0xa4>
 8002e18:	2c03      	cmp	r4, #3
 8002e1a:	d1da      	bne.n	8002dd2 <HAL_GPIO_Init+0x5a>
 8002e1c:	6807      	ldr	r7, [r0, #0]
 8002e1e:	fa04 f408 	lsl.w	r4, r4, r8
 8002e22:	ea07 070c 	and.w	r7, r7, ip
 8002e26:	433c      	orrs	r4, r7
 8002e28:	f415 3f40 	tst.w	r5, #196608	@ 0x30000
 8002e2c:	6004      	str	r4, [r0, #0]
 8002e2e:	d068      	beq.n	8002f02 <HAL_GPIO_Init+0x18a>
 8002e30:	2400      	movs	r4, #0
 8002e32:	9401      	str	r4, [sp, #4]
 8002e34:	f8d9 4044 	ldr.w	r4, [r9, #68]	@ 0x44
 8002e38:	f444 4480 	orr.w	r4, r4, #16384	@ 0x4000
 8002e3c:	f8c9 4044 	str.w	r4, [r9, #68]	@ 0x44
 8002e40:	f8d9 4044 	ldr.w	r4, [r9, #68]	@ 0x44
 8002e44:	f023 0703 	bic.w	r7, r3, #3
 8002e48:	f107 4780 	add.w	r7, r7, #1073741824	@ 0x40000000
 8002e4c:	f404 4480 	and.w	r4, r4, #16384	@ 0x4000
 8002e50:	f507 379c 	add.w	r7, r7, #79872	@ 0x13800
 8002e54:	9401      	str	r4, [sp, #4]
 8002e56:	f003 0c03 	and.w	ip, r3, #3
 8002e5a:	9c01      	ldr	r4, [sp, #4]
 8002e5c:	f8d7 e008 	ldr.w	lr, [r7, #8]
 8002e60:	ea4f 0c8c 	mov.w	ip, ip, lsl #2
 8002e64:	240f      	movs	r4, #15
 8002e66:	fa04 f40c 	lsl.w	r4, r4, ip
 8002e6a:	ea2e 0e04 	bic.w	lr, lr, r4
 8002e6e:	4c32      	ldr	r4, [pc, #200]	@ (8002f38 <HAL_GPIO_Init+0x1c0>)
 8002e70:	42a0      	cmp	r0, r4
 8002e72:	d04d      	beq.n	8002f10 <HAL_GPIO_Init+0x198>
 8002e74:	f504 6480 	add.w	r4, r4, #1024	@ 0x400
 8002e78:	42a0      	cmp	r0, r4
 8002e7a:	d04b      	beq.n	8002f14 <HAL_GPIO_Init+0x19c>
 8002e7c:	f504 6480 	add.w	r4, r4, #1024	@ 0x400
 8002e80:	42a0      	cmp	r0, r4
 8002e82:	d049      	beq.n	8002f18 <HAL_GPIO_Init+0x1a0>
 8002e84:	f504 6480 	add.w	r4, r4, #1024	@ 0x400
 8002e88:	42a0      	cmp	r0, r4
 8002e8a:	d047      	beq.n	8002f1c <HAL_GPIO_Init+0x1a4>
 8002e8c:	f504 6480 	add.w	r4, r4, #1024	@ 0x400
 8002e90:	42a0      	cmp	r0, r4
 8002e92:	d045      	beq.n	8002f20 <HAL_GPIO_Init+0x1a8>
 8002e94:	f504 6480 	add.w	r4, r4, #1024	@ 0x400
 8002e98:	42a0      	cmp	r0, r4
 8002e9a:	d043      	beq.n	8002f24 <HAL_GPIO_Init+0x1ac>
 8002e9c:	f504 6480 	add.w	r4, r4, #1024	@ 0x400
 8002ea0:	42a0      	cmp	r0, r4
 8002ea2:	d041      	beq.n	8002f28 <HAL_GPIO_Init+0x1b0>
 8002ea4:	f504 6480 	add.w	r4, r4, #1024	@ 0x400
 8002ea8:	42a0      	cmp	r0, r4
 8002eaa:	d03f      	beq.n	8002f2c <HAL_GPIO_Init+0x1b4>
 8002eac:	f504 6480 	add.w	r4, r4, #1024	@ 0x400
 8002eb0:	42a0      	cmp	r0, r4
 8002eb2:	d03d      	beq.n	8002f30 <HAL_GPIO_Init+0x1b8>
 8002eb4:	f504 6480 	add.w	r4, r4, #1024	@ 0x400
 8002eb8:	42a0      	cmp	r0, r4
 8002eba:	bf14      	ite	ne
 8002ebc:	240a      	movne	r4, #10
 8002ebe:	2409      	moveq	r4, #9
 8002ec0:	fa04 f40c 	lsl.w	r4, r4, ip
 8002ec4:	ea44 040e 	orr.w	r4, r4, lr
 8002ec8:	60bc      	str	r4, [r7, #8]
 8002eca:	6894      	ldr	r4, [r2, #8]
 8002ecc:	43f7      	mvns	r7, r6
 8002ece:	f415 1f80 	tst.w	r5, #1048576	@ 0x100000
 8002ed2:	bf0c      	ite	eq
 8002ed4:	403c      	andeq	r4, r7
 8002ed6:	4334      	orrne	r4, r6
 8002ed8:	6094      	str	r4, [r2, #8]
 8002eda:	68d4      	ldr	r4, [r2, #12]
 8002edc:	f415 1f00 	tst.w	r5, #2097152	@ 0x200000
 8002ee0:	bf0c      	ite	eq
 8002ee2:	403c      	andeq	r4, r7
 8002ee4:	4334      	orrne	r4, r6
 8002ee6:	60d4      	str	r4, [r2, #12]
 8002ee8:	6854      	ldr	r4, [r2, #4]
 8002eea:	f415 3f00 	tst.w	r5, #131072	@ 0x20000
 8002eee:	bf0c      	ite	eq
 8002ef0:	403c      	andeq	r4, r7
 8002ef2:	4334      	orrne	r4, r6
 8002ef4:	6054      	str	r4, [r2, #4]
 8002ef6:	6814      	ldr	r4, [r2, #0]
 8002ef8:	03ed      	lsls	r5, r5, #15
 8002efa:	bf54      	ite	pl
 8002efc:	403c      	andpl	r4, r7
 8002efe:	4334      	orrmi	r4, r6
 8002f00:	6014      	str	r4, [r2, #0]
 8002f02:	3301      	adds	r3, #1
 8002f04:	2b10      	cmp	r3, #16
 8002f06:	f47f af3d 	bne.w	8002d84 <HAL_GPIO_Init+0xc>
 8002f0a:	b003      	add	sp, #12
 8002f0c:	e8bd 8ff0 	ldmia.w	sp!, {r4, r5, r6, r7, r8, r9, sl, fp, pc}
 8002f10:	2400      	movs	r4, #0
 8002f12:	e7d5      	b.n	8002ec0 <HAL_GPIO_Init+0x148>
 8002f14:	2401      	movs	r4, #1
 8002f16:	e7d3      	b.n	8002ec0 <HAL_GPIO_Init+0x148>
 8002f18:	2402      	movs	r4, #2
 8002f1a:	e7d1      	b.n	8002ec0 <HAL_GPIO_Init+0x148>
 8002f1c:	2403      	movs	r4, #3
 8002f1e:	e7cf      	b.n	8002ec0 <HAL_GPIO_Init+0x148>
 8002f20:	2404      	movs	r4, #4
 8002f22:	e7cd      	b.n	8002ec0 <HAL_GPIO_Init+0x148>
 8002f24:	2405      	movs	r4, #5
 8002f26:	e7cb      	b.n	8002ec0 <HAL_GPIO_Init+0x148>
 8002f28:	2406      	movs	r4, #6
 8002f2a:	e7c9      	b.n	8002ec0 <HAL_GPIO_Init+0x148>
 8002f2c:	2407      	movs	r4, #7
 8002f2e:	e7c7      	b.n	8002ec0 <HAL_GPIO_Init+0x148>
 8002f30:	2408      	movs	r4, #8
 8002f32:	e7c5      	b.n	8002ec0 <HAL_GPIO_Init+0x148>
 8002f34:	40013c00 	.word	0x40013c00
 8002f38:	40020000 	.word	0x40020000
 8002f3c:	40023800 	.word	0x40023800

08002f40 <HAL_GPIO_ReadPin>:
 8002f40:	6903      	ldr	r3, [r0, #16]
 8002f42:	4219      	tst	r1, r3
 8002f44:	bf14      	ite	ne
 8002f46:	2001      	movne	r0, #1
 8002f48:	2000      	moveq	r0, #0
 8002f4a:	4770      	bx	lr

08002f4c <HAL_GPIO_WritePin>:
 8002f4c:	b10a      	cbz	r2, 8002f52 <HAL_GPIO_WritePin+0x6>
 8002f4e:	6181      	str	r1, [r0, #24]
 8002f50:	4770      	bx	lr
 8002f52:	0409      	lsls	r1, r1, #16
 8002f54:	e7fb      	b.n	8002f4e <HAL_GPIO_WritePin+0x2>

08002f56 <HAL_GPIO_TogglePin>:
 8002f56:	6943      	ldr	r3, [r0, #20]
 8002f58:	ea01 0203 	and.w	r2, r1, r3
 8002f5c:	ea21 0103 	bic.w	r1, r1, r3
 8002f60:	ea41 4102 	orr.w	r1, r1, r2, lsl #16
 8002f64:	6181      	str	r1, [r0, #24]
 8002f66:	4770      	bx	lr

08002f68 <HAL_GPIO_EXTI_IRQHandler>:
 8002f68:	4a04      	ldr	r2, [pc, #16]	@ (8002f7c <HAL_GPIO_EXTI_IRQHandler+0x14>)
 8002f6a:	6951      	ldr	r1, [r2, #20]
 8002f6c:	4201      	tst	r1, r0
 8002f6e:	b508      	push	{r3, lr}
 8002f70:	d002      	beq.n	8002f78 <HAL_GPIO_EXTI_IRQHandler+0x10>
 8002f72:	6150      	str	r0, [r2, #20]
 8002f74:	f7ff f8a2 	bl	80020bc <HAL_GPIO_EXTI_Callback>
 8002f78:	bd08      	pop	{r3, pc}
 8002f7a:	bf00      	nop
 8002f7c:	40013c00 	.word	0x40013c00

08002f80 <I2C_IsAcknowledgeFailed>:
 8002f80:	6801      	ldr	r1, [r0, #0]
 8002f82:	694b      	ldr	r3, [r1, #20]
 8002f84:	f413 6380 	ands.w	r3, r3, #1024	@ 0x400
 8002f88:	f04f 0200 	mov.w	r2, #0
 8002f8c:	d010      	beq.n	8002fb0 <I2C_IsAcknowledgeFailed+0x30>
 8002f8e:	f46f 6380 	mvn.w	r3, #1024	@ 0x400
 8002f92:	614b      	str	r3, [r1, #20]
 8002f94:	2320      	movs	r3, #32
 8002f96:	6302      	str	r2, [r0, #48]	@ 0x30
 8002f98:	f880 303d 	strb.w	r3, [r0, #61]	@ 0x3d
 8002f9c:	f880 203e 	strb.w	r2, [r0, #62]	@ 0x3e
 8002fa0:	6c03      	ldr	r3, [r0, #64]	@ 0x40
 8002fa2:	f880 203c 	strb.w	r2, [r0, #60]	@ 0x3c
 8002fa6:	f043 0304 	orr.w	r3, r3, #4
 8002faa:	6403      	str	r3, [r0, #64]	@ 0x40
 8002fac:	2001      	movs	r0, #1
 8002fae:	4770      	bx	lr
 8002fb0:	4618      	mov	r0, r3
 8002fb2:	4770      	bx	lr

08002fb4 <I2C_WaitOnFlagUntilTimeout>:
 8002fb4:	e92d 46f8 	stmdb	sp!, {r3, r4, r5, r6, r7, r9, sl, lr}
 8002fb8:	4606      	mov	r6, r0
 8002fba:	460f      	mov	r7, r1
 8002fbc:	4691      	mov	r9, r2
 8002fbe:	461d      	mov	r5, r3
 8002fc0:	ea4f 4a11 	mov.w	sl, r1, lsr #16
 8002fc4:	6833      	ldr	r3, [r6, #0]
 8002fc6:	f1ba 0f01 	cmp.w	sl, #1
 8002fca:	bf0c      	ite	eq
 8002fcc:	695c      	ldreq	r4, [r3, #20]
 8002fce:	699c      	ldrne	r4, [r3, #24]
 8002fd0:	ea27 0404 	bic.w	r4, r7, r4
 8002fd4:	b2a4      	uxth	r4, r4
 8002fd6:	fab4 f484 	clz	r4, r4
 8002fda:	0964      	lsrs	r4, r4, #5
 8002fdc:	45a1      	cmp	r9, r4
 8002fde:	d001      	beq.n	8002fe4 <I2C_WaitOnFlagUntilTimeout+0x30>
 8002fe0:	2000      	movs	r0, #0
 8002fe2:	e025      	b.n	8003030 <I2C_WaitOnFlagUntilTimeout+0x7c>
 8002fe4:	1c6a      	adds	r2, r5, #1
 8002fe6:	d0ee      	beq.n	8002fc6 <I2C_WaitOnFlagUntilTimeout+0x12>
 8002fe8:	f7ff f954 	bl	8002294 <HAL_GetTick>
 8002fec:	9b08      	ldr	r3, [sp, #32]
 8002fee:	1ac0      	subs	r0, r0, r3
 8002ff0:	42a8      	cmp	r0, r5
 8002ff2:	d801      	bhi.n	8002ff8 <I2C_WaitOnFlagUntilTimeout+0x44>
 8002ff4:	2d00      	cmp	r5, #0
 8002ff6:	d1e5      	bne.n	8002fc4 <I2C_WaitOnFlagUntilTimeout+0x10>
 8002ff8:	6833      	ldr	r3, [r6, #0]
 8002ffa:	f1ba 0f01 	cmp.w	sl, #1
 8002ffe:	bf0c      	ite	eq
 8003000:	695b      	ldreq	r3, [r3, #20]
 8003002:	699b      	ldrne	r3, [r3, #24]
 8003004:	ea27 0303 	bic.w	r3, r7, r3
 8003008:	b29b      	uxth	r3, r3
 800300a:	fab3 f383 	clz	r3, r3
 800300e:	095b      	lsrs	r3, r3, #5
 8003010:	4599      	cmp	r9, r3
 8003012:	d1d7      	bne.n	8002fc4 <I2C_WaitOnFlagUntilTimeout+0x10>
 8003014:	2300      	movs	r3, #0
 8003016:	2220      	movs	r2, #32
 8003018:	6333      	str	r3, [r6, #48]	@ 0x30
 800301a:	f886 203d 	strb.w	r2, [r6, #61]	@ 0x3d
 800301e:	f886 303e 	strb.w	r3, [r6, #62]	@ 0x3e
 8003022:	6c32      	ldr	r2, [r6, #64]	@ 0x40
 8003024:	f886 303c 	strb.w	r3, [r6, #60]	@ 0x3c
 8003028:	f042 0220 	orr.w	r2, r2, #32
 800302c:	6432      	str	r2, [r6, #64]	@ 0x40
 800302e:	2001      	movs	r0, #1
 8003030:	e8bd 86f8 	ldmia.w	sp!, {r3, r4, r5, r6, r7, r9, sl, pc}

08003034 <I2C_WaitOnMasterAddressFlagUntilTimeout>:
 8003034:	e92d 41f0 	stmdb	sp!, {r4, r5, r6, r7, r8, lr}
 8003038:	4604      	mov	r4, r0
 800303a:	460f      	mov	r7, r1
 800303c:	4616      	mov	r6, r2
 800303e:	4698      	mov	r8, r3
 8003040:	6825      	ldr	r5, [r4, #0]
 8003042:	6968      	ldr	r0, [r5, #20]
 8003044:	ea27 0000 	bic.w	r0, r7, r0
 8003048:	b280      	uxth	r0, r0
 800304a:	b1c0      	cbz	r0, 800307e <I2C_WaitOnMasterAddressFlagUntilTimeout+0x4a>
 800304c:	696b      	ldr	r3, [r5, #20]
 800304e:	055a      	lsls	r2, r3, #21
 8003050:	d517      	bpl.n	8003082 <I2C_WaitOnMasterAddressFlagUntilTimeout+0x4e>
 8003052:	682b      	ldr	r3, [r5, #0]
 8003054:	f443 7300 	orr.w	r3, r3, #512	@ 0x200
 8003058:	602b      	str	r3, [r5, #0]
 800305a:	f46f 6380 	mvn.w	r3, #1024	@ 0x400
 800305e:	616b      	str	r3, [r5, #20]
 8003060:	2220      	movs	r2, #32
 8003062:	2300      	movs	r3, #0
 8003064:	6323      	str	r3, [r4, #48]	@ 0x30
 8003066:	f884 203d 	strb.w	r2, [r4, #61]	@ 0x3d
 800306a:	f884 303e 	strb.w	r3, [r4, #62]	@ 0x3e
 800306e:	6c23      	ldr	r3, [r4, #64]	@ 0x40
 8003070:	f043 0304 	orr.w	r3, r3, #4
 8003074:	6423      	str	r3, [r4, #64]	@ 0x40
 8003076:	2300      	movs	r3, #0
 8003078:	f884 303c 	strb.w	r3, [r4, #60]	@ 0x3c
 800307c:	2001      	movs	r0, #1
 800307e:	e8bd 81f0 	ldmia.w	sp!, {r4, r5, r6, r7, r8, pc}
 8003082:	1c73      	adds	r3, r6, #1
 8003084:	d0dd      	beq.n	8003042 <I2C_WaitOnMasterAddressFlagUntilTimeout+0xe>
 8003086:	f7ff f905 	bl	8002294 <HAL_GetTick>
 800308a:	eba0 0008 	sub.w	r0, r0, r8
 800308e:	42b0      	cmp	r0, r6
 8003090:	d801      	bhi.n	8003096 <I2C_WaitOnMasterAddressFlagUntilTimeout+0x62>
 8003092:	2e00      	cmp	r6, #0
 8003094:	d1d4      	bne.n	8003040 <I2C_WaitOnMasterAddressFlagUntilTimeout+0xc>
 8003096:	6823      	ldr	r3, [r4, #0]
 8003098:	695a      	ldr	r2, [r3, #20]
 800309a:	ea27 0202 	bic.w	r2, r7, r2
 800309e:	b292      	uxth	r2, r2
 80030a0:	2a00      	cmp	r2, #0
 80030a2:	d0cd      	beq.n	8003040 <I2C_WaitOnMasterAddressFlagUntilTimeout+0xc>
 80030a4:	2300      	movs	r3, #0
 80030a6:	2220      	movs	r2, #32
 80030a8:	6323      	str	r3, [r4, #48]	@ 0x30
 80030aa:	f884 203d 	strb.w	r2, [r4, #61]	@ 0x3d
 80030ae:	f884 303e 	strb.w	r3, [r4, #62]	@ 0x3e
 80030b2:	6c23      	ldr	r3, [r4, #64]	@ 0x40
 80030b4:	4313      	orrs	r3, r2
 80030b6:	e7dd      	b.n	8003074 <I2C_WaitOnMasterAddressFlagUntilTimeout+0x40>

080030b8 <I2C_WaitOnTXEFlagUntilTimeout>:
 80030b8:	b570      	push	{r4, r5, r6, lr}
 80030ba:	4604      	mov	r4, r0
 80030bc:	460d      	mov	r5, r1
 80030be:	4616      	mov	r6, r2
 80030c0:	6823      	ldr	r3, [r4, #0]
 80030c2:	695b      	ldr	r3, [r3, #20]
 80030c4:	061b      	lsls	r3, r3, #24
 80030c6:	d501      	bpl.n	80030cc <I2C_WaitOnTXEFlagUntilTimeout+0x14>
 80030c8:	2000      	movs	r0, #0
 80030ca:	e01e      	b.n	800310a <I2C_WaitOnTXEFlagUntilTimeout+0x52>
 80030cc:	4620      	mov	r0, r4
 80030ce:	f7ff ff57 	bl	8002f80 <I2C_IsAcknowledgeFailed>
 80030d2:	b9c8      	cbnz	r0, 8003108 <I2C_WaitOnTXEFlagUntilTimeout+0x50>
 80030d4:	1c6a      	adds	r2, r5, #1
 80030d6:	d0f3      	beq.n	80030c0 <I2C_WaitOnTXEFlagUntilTimeout+0x8>
 80030d8:	f7ff f8dc 	bl	8002294 <HAL_GetTick>
 80030dc:	1b80      	subs	r0, r0, r6
 80030de:	42a8      	cmp	r0, r5
 80030e0:	d801      	bhi.n	80030e6 <I2C_WaitOnTXEFlagUntilTimeout+0x2e>
 80030e2:	2d00      	cmp	r5, #0
 80030e4:	d1ec      	bne.n	80030c0 <I2C_WaitOnTXEFlagUntilTimeout+0x8>
 80030e6:	6823      	ldr	r3, [r4, #0]
 80030e8:	695b      	ldr	r3, [r3, #20]
 80030ea:	f013 0380 	ands.w	r3, r3, #128	@ 0x80
 80030ee:	d1e7      	bne.n	80030c0 <I2C_WaitOnTXEFlagUntilTimeout+0x8>
 80030f0:	2220      	movs	r2, #32
 80030f2:	6323      	str	r3, [r4, #48]	@ 0x30
 80030f4:	f884 203d 	strb.w	r2, [r4, #61]	@ 0x3d
 80030f8:	f884 303e 	strb.w	r3, [r4, #62]	@ 0x3e
 80030fc:	6c22      	ldr	r2, [r4, #64]	@ 0x40
 80030fe:	f884 303c 	strb.w	r3, [r4, #60]	@ 0x3c
 8003102:	f042 0220 	orr.w	r2, r2, #32
 8003106:	6422      	str	r2, [r4, #64]	@ 0x40
 8003108:	2001      	movs	r0, #1
 800310a:	bd70      	pop	{r4, r5, r6, pc}

0800310c <I2C_WaitOnBTFFlagUntilTimeout>:
 800310c:	b570      	push	{r4, r5, r6, lr}
 800310e:	4604      	mov	r4, r0
 8003110:	460d      	mov	r5, r1
 8003112:	4616      	mov	r6, r2
 8003114:	6823      	ldr	r3, [r4, #0]
 8003116:	695b      	ldr	r3, [r3, #20]
 8003118:	075b      	lsls	r3, r3, #29
 800311a:	d501      	bpl.n	8003120 <I2C_WaitOnBTFFlagUntilTimeout+0x14>
 800311c:	2000      	movs	r0, #0
 800311e:	e01e      	b.n	800315e <I2C_WaitOnBTFFlagUntilTimeout+0x52>
 8003120:	4620      	mov	r0, r4
 8003122:	f7ff ff2d 	bl	8002f80 <I2C_IsAcknowledgeFailed>
 8003126:	b9c8      	cbnz	r0, 800315c <I2C_WaitOnBTFFlagUntilTimeout+0x50>
 8003128:	1c6a      	adds	r2, r5, #1
 800312a:	d0f3      	beq.n	8003114 <I2C_WaitOnBTFFlagUntilTimeout+0x8>
 800312c:	f7ff f8b2 	bl	8002294 <HAL_GetTick>
 8003130:	1b80      	subs	r0, r0, r6
 8003132:	42a8      	cmp	r0, r5
 8003134:	d801      	bhi.n	800313a <I2C_WaitOnBTFFlagUntilTimeout+0x2e>
 8003136:	2d00      	cmp	r5, #0
 8003138:	d1ec      	bne.n	8003114 <I2C_WaitOnBTFFlagUntilTimeout+0x8>
 800313a:	6823      	ldr	r3, [r4, #0]
 800313c:	695b      	ldr	r3, [r3, #20]
 800313e:	f013 0304 	ands.w	r3, r3, #4
 8003142:	d1e7      	bne.n	8003114 <I2C_WaitOnBTFFlagUntilTimeout+0x8>
 8003144:	2220      	movs	r2, #32
 8003146:	6323      	str	r3, [r4, #48]	@ 0x30
 8003148:	f884 203d 	strb.w	r2, [r4, #61]	@ 0x3d
 800314c:	f884 303e 	strb.w	r3, [r4, #62]	@ 0x3e
 8003150:	6c22      	ldr	r2, [r4, #64]	@ 0x40
 8003152:	f884 303c 	strb.w	r3, [r4, #60]	@ 0x3c
 8003156:	f042 0220 	orr.w	r2, r2, #32
 800315a:	6422      	str	r2, [r4, #64]	@ 0x40
 800315c:	2001      	movs	r0, #1
 800315e:	bd70      	pop	{r4, r5, r6, pc}

08003160 <I2C_WaitOnRXNEFlagUntilTimeout>:
 8003160:	b570      	push	{r4, r5, r6, lr}
 8003162:	4604      	mov	r4, r0
 8003164:	460d      	mov	r5, r1
 8003166:	4616      	mov	r6, r2
 8003168:	6821      	ldr	r1, [r4, #0]
 800316a:	694b      	ldr	r3, [r1, #20]
 800316c:	f013 0340 	ands.w	r3, r3, #64	@ 0x40
 8003170:	d001      	beq.n	8003176 <I2C_WaitOnRXNEFlagUntilTimeout+0x16>
 8003172:	2000      	movs	r0, #0
 8003174:	e011      	b.n	800319a <I2C_WaitOnRXNEFlagUntilTimeout+0x3a>
 8003176:	694a      	ldr	r2, [r1, #20]
 8003178:	06d2      	lsls	r2, r2, #27
 800317a:	d50f      	bpl.n	800319c <I2C_WaitOnRXNEFlagUntilTimeout+0x3c>
 800317c:	f06f 0210 	mvn.w	r2, #16
 8003180:	614a      	str	r2, [r1, #20]
 8003182:	2220      	movs	r2, #32
 8003184:	6323      	str	r3, [r4, #48]	@ 0x30
 8003186:	f884 203d 	strb.w	r2, [r4, #61]	@ 0x3d
 800318a:	f884 303e 	strb.w	r3, [r4, #62]	@ 0x3e
 800318e:	6c23      	ldr	r3, [r4, #64]	@ 0x40
 8003190:	6423      	str	r3, [r4, #64]	@ 0x40
 8003192:	2300      	movs	r3, #0
 8003194:	f884 303c 	strb.w	r3, [r4, #60]	@ 0x3c
 8003198:	2001      	movs	r0, #1
 800319a:	bd70      	pop	{r4, r5, r6, pc}
 800319c:	f7ff f87a 	bl	8002294 <HAL_GetTick>
 80031a0:	1b80      	subs	r0, r0, r6
 80031a2:	42a8      	cmp	r0, r5
 80031a4:	d801      	bhi.n	80031aa <I2C_WaitOnRXNEFlagUntilTimeout+0x4a>
 80031a6:	2d00      	cmp	r5, #0
 80031a8:	d1de      	bne.n	8003168 <I2C_WaitOnRXNEFlagUntilTimeout+0x8>
 80031aa:	6823      	ldr	r3, [r4, #0]
 80031ac:	695b      	ldr	r3, [r3, #20]
 80031ae:	f013 0340 	ands.w	r3, r3, #64	@ 0x40
 80031b2:	d1d9      	bne.n	8003168 <I2C_WaitOnRXNEFlagUntilTimeout+0x8>
 80031b4:	2220      	movs	r2, #32
 80031b6:	6323      	str	r3, [r4, #48]	@ 0x30
 80031b8:	f884 203d 	strb.w	r2, [r4, #61]	@ 0x3d
 80031bc:	f884 303e 	strb.w	r3, [r4, #62]	@ 0x3e
 80031c0:	6c23      	ldr	r3, [r4, #64]	@ 0x40
 80031c2:	4313      	orrs	r3, r2
 80031c4:	e7e4      	b.n	8003190 <I2C_WaitOnRXNEFlagUntilTimeout+0x30>
	...

080031c8 <HAL_I2C_Init>:
 80031c8:	b570      	push	{r4, r5, r6, lr}
 80031ca:	4604      	mov	r4, r0
 80031cc:	b908      	cbnz	r0, 80031d2 <HAL_I2C_Init+0xa>
 80031ce:	2001      	movs	r0, #1
 80031d0:	bd70      	pop	{r4, r5, r6, pc}
 80031d2:	f890 303d 	ldrb.w	r3, [r0, #61]	@ 0x3d
 80031d6:	f003 02ff 	and.w	r2, r3, #255	@ 0xff
 80031da:	b91b      	cbnz	r3, 80031e4 <HAL_I2C_Init+0x1c>
 80031dc:	f880 203c 	strb.w	r2, [r0, #60]	@ 0x3c
 80031e0:	f7fe fd5e 	bl	8001ca0 <HAL_I2C_MspInit>
 80031e4:	2324      	movs	r3, #36	@ 0x24
 80031e6:	f884 303d 	strb.w	r3, [r4, #61]	@ 0x3d
 80031ea:	6823      	ldr	r3, [r4, #0]
 80031ec:	681a      	ldr	r2, [r3, #0]
 80031ee:	f022 0201 	bic.w	r2, r2, #1
 80031f2:	601a      	str	r2, [r3, #0]
 80031f4:	681a      	ldr	r2, [r3, #0]
 80031f6:	f442 4200 	orr.w	r2, r2, #32768	@ 0x8000
 80031fa:	601a      	str	r2, [r3, #0]
 80031fc:	681a      	ldr	r2, [r3, #0]
 80031fe:	f422 4200 	bic.w	r2, r2, #32768	@ 0x8000
 8003202:	601a      	str	r2, [r3, #0]
 8003204:	f000 fdac 	bl	8003d60 <HAL_RCC_GetPCLK1Freq>
 8003208:	4b3f      	ldr	r3, [pc, #252]	@ (8003308 <HAL_I2C_Init+0x140>)
 800320a:	6865      	ldr	r5, [r4, #4]
 800320c:	429d      	cmp	r5, r3
 800320e:	bf94      	ite	ls
 8003210:	4b3e      	ldrls	r3, [pc, #248]	@ (800330c <HAL_I2C_Init+0x144>)
 8003212:	4b3f      	ldrhi	r3, [pc, #252]	@ (8003310 <HAL_I2C_Init+0x148>)
 8003214:	4298      	cmp	r0, r3
 8003216:	bf8c      	ite	hi
 8003218:	2300      	movhi	r3, #0
 800321a:	2301      	movls	r3, #1
 800321c:	2b00      	cmp	r3, #0
 800321e:	d1d6      	bne.n	80031ce <HAL_I2C_Init+0x6>
 8003220:	6822      	ldr	r2, [r4, #0]
 8003222:	4e39      	ldr	r6, [pc, #228]	@ (8003308 <HAL_I2C_Init+0x140>)
 8003224:	6851      	ldr	r1, [r2, #4]
 8003226:	4b3b      	ldr	r3, [pc, #236]	@ (8003314 <HAL_I2C_Init+0x14c>)
 8003228:	fbb0 f3f3 	udiv	r3, r0, r3
 800322c:	f021 013f 	bic.w	r1, r1, #63	@ 0x3f
 8003230:	4319      	orrs	r1, r3
 8003232:	42b5      	cmp	r5, r6
 8003234:	6051      	str	r1, [r2, #4]
 8003236:	bf88      	it	hi
 8003238:	f44f 7696 	movhi.w	r6, #300	@ 0x12c
 800323c:	6a11      	ldr	r1, [r2, #32]
 800323e:	bf88      	it	hi
 8003240:	4373      	mulhi	r3, r6
 8003242:	f021 013f 	bic.w	r1, r1, #63	@ 0x3f
 8003246:	bf84      	itt	hi
 8003248:	f44f 767a 	movhi.w	r6, #1000	@ 0x3e8
 800324c:	fbb3 f3f6 	udivhi	r3, r3, r6
 8003250:	3301      	adds	r3, #1
 8003252:	430b      	orrs	r3, r1
 8003254:	6213      	str	r3, [r2, #32]
 8003256:	69d1      	ldr	r1, [r2, #28]
 8003258:	1e43      	subs	r3, r0, #1
 800325a:	482b      	ldr	r0, [pc, #172]	@ (8003308 <HAL_I2C_Init+0x140>)
 800325c:	f421 414f 	bic.w	r1, r1, #52992	@ 0xcf00
 8003260:	4285      	cmp	r5, r0
 8003262:	f021 01ff 	bic.w	r1, r1, #255	@ 0xff
 8003266:	d832      	bhi.n	80032ce <HAL_I2C_Init+0x106>
 8003268:	006d      	lsls	r5, r5, #1
 800326a:	f640 70fc 	movw	r0, #4092	@ 0xffc
 800326e:	fbb3 f3f5 	udiv	r3, r3, r5
 8003272:	3301      	adds	r3, #1
 8003274:	4203      	tst	r3, r0
 8003276:	d042      	beq.n	80032fe <HAL_I2C_Init+0x136>
 8003278:	f3c3 030b 	ubfx	r3, r3, #0, #12
 800327c:	4319      	orrs	r1, r3
 800327e:	61d1      	str	r1, [r2, #28]
 8003280:	e9d4 3007 	ldrd	r3, r0, [r4, #28]
 8003284:	6811      	ldr	r1, [r2, #0]
 8003286:	4303      	orrs	r3, r0
 8003288:	f021 01c0 	bic.w	r1, r1, #192	@ 0xc0
 800328c:	430b      	orrs	r3, r1
 800328e:	6013      	str	r3, [r2, #0]
 8003290:	6891      	ldr	r1, [r2, #8]
 8003292:	e9d4 0303 	ldrd	r0, r3, [r4, #12]
 8003296:	f421 4103 	bic.w	r1, r1, #33536	@ 0x8300
 800329a:	4303      	orrs	r3, r0
 800329c:	f021 01ff 	bic.w	r1, r1, #255	@ 0xff
 80032a0:	430b      	orrs	r3, r1
 80032a2:	6093      	str	r3, [r2, #8]
 80032a4:	e9d4 3005 	ldrd	r3, r0, [r4, #20]
 80032a8:	68d1      	ldr	r1, [r2, #12]
 80032aa:	4303      	orrs	r3, r0
 80032ac:	f021 01ff 	bic.w	r1, r1, #255	@ 0xff
 80032b0:	430b      	orrs	r3, r1
 80032b2:	60d3      	str	r3, [r2, #12]
 80032b4:	6813      	ldr	r3, [r2, #0]
 80032b6:	f043 0301 	orr.w	r3, r3, #1
 80032ba:	6013      	str	r3, [r2, #0]
 80032bc:	2000      	movs	r0, #0
 80032be:	2320      	movs	r3, #32
 80032c0:	6420      	str	r0, [r4, #64]	@ 0x40
 80032c2:	f884 303d 	strb.w	r3, [r4, #61]	@ 0x3d
 80032c6:	6320      	str	r0, [r4, #48]	@ 0x30
 80032c8:	f884 003e 	strb.w	r0, [r4, #62]	@ 0x3e
 80032cc:	e780      	b.n	80031d0 <HAL_I2C_Init+0x8>
 80032ce:	68a0      	ldr	r0, [r4, #8]
 80032d0:	b950      	cbnz	r0, 80032e8 <HAL_I2C_Init+0x120>
 80032d2:	eb05 0545 	add.w	r5, r5, r5, lsl #1
 80032d6:	fbb3 f3f5 	udiv	r3, r3, r5
 80032da:	3301      	adds	r3, #1
 80032dc:	f3c3 030b 	ubfx	r3, r3, #0, #12
 80032e0:	b17b      	cbz	r3, 8003302 <HAL_I2C_Init+0x13a>
 80032e2:	f443 4300 	orr.w	r3, r3, #32768	@ 0x8000
 80032e6:	e7c9      	b.n	800327c <HAL_I2C_Init+0xb4>
 80032e8:	2019      	movs	r0, #25
 80032ea:	4368      	muls	r0, r5
 80032ec:	fbb3 f3f0 	udiv	r3, r3, r0
 80032f0:	3301      	adds	r3, #1
 80032f2:	f3c3 030b 	ubfx	r3, r3, #0, #12
 80032f6:	b123      	cbz	r3, 8003302 <HAL_I2C_Init+0x13a>
 80032f8:	f443 4340 	orr.w	r3, r3, #49152	@ 0xc000
 80032fc:	e7be      	b.n	800327c <HAL_I2C_Init+0xb4>
 80032fe:	2304      	movs	r3, #4
 8003300:	e7bc      	b.n	800327c <HAL_I2C_Init+0xb4>
 8003302:	2301      	movs	r3, #1
 8003304:	e7ba      	b.n	800327c <HAL_I2C_Init+0xb4>
 8003306:	bf00      	nop
 8003308:	000186a0 	.word	0x000186a0
 800330c:	001e847f 	.word	0x001e847f
 8003310:	003d08ff 	.word	0x003d08ff
 8003314:	000f4240 	.word	0x000f4240

08003318 <HAL_I2C_Master_Transmit>:
 8003318:	e92d 43f0 	stmdb	sp!, {r4, r5, r6, r7, r8, r9, lr}
 800331c:	4604      	mov	r4, r0
 800331e:	b085      	sub	sp, #20
 8003320:	4698      	mov	r8, r3
 8003322:	9f0c      	ldr	r7, [sp, #48]	@ 0x30
 8003324:	460d      	mov	r5, r1
 8003326:	4691      	mov	r9, r2
 8003328:	f7fe ffb4 	bl	8002294 <HAL_GetTick>
 800332c:	f894 303d 	ldrb.w	r3, [r4, #61]	@ 0x3d
 8003330:	2b20      	cmp	r3, #32
 8003332:	4606      	mov	r6, r0
 8003334:	d004      	beq.n	8003340 <HAL_I2C_Master_Transmit+0x28>
 8003336:	2502      	movs	r5, #2
 8003338:	4628      	mov	r0, r5
 800333a:	b005      	add	sp, #20
 800333c:	e8bd 83f0 	ldmia.w	sp!, {r4, r5, r6, r7, r8, r9, pc}
 8003340:	9000      	str	r0, [sp, #0]
 8003342:	495e      	ldr	r1, [pc, #376]	@ (80034bc <HAL_I2C_Master_Transmit+0x1a4>)
 8003344:	2319      	movs	r3, #25
 8003346:	2201      	movs	r2, #1
 8003348:	4620      	mov	r0, r4
 800334a:	f7ff fe33 	bl	8002fb4 <I2C_WaitOnFlagUntilTimeout>
 800334e:	2800      	cmp	r0, #0
 8003350:	d1f1      	bne.n	8003336 <HAL_I2C_Master_Transmit+0x1e>
 8003352:	f894 303c 	ldrb.w	r3, [r4, #60]	@ 0x3c
 8003356:	2b01      	cmp	r3, #1
 8003358:	d0ed      	beq.n	8003336 <HAL_I2C_Master_Transmit+0x1e>
 800335a:	6821      	ldr	r1, [r4, #0]
 800335c:	2301      	movs	r3, #1
 800335e:	f884 303c 	strb.w	r3, [r4, #60]	@ 0x3c
 8003362:	680b      	ldr	r3, [r1, #0]
 8003364:	07da      	lsls	r2, r3, #31
 8003366:	bf5e      	ittt	pl
 8003368:	680b      	ldrpl	r3, [r1, #0]
 800336a:	f043 0301 	orrpl.w	r3, r3, #1
 800336e:	600b      	strpl	r3, [r1, #0]
 8003370:	680b      	ldr	r3, [r1, #0]
 8003372:	f423 6300 	bic.w	r3, r3, #2048	@ 0x800
 8003376:	600b      	str	r3, [r1, #0]
 8003378:	2321      	movs	r3, #33	@ 0x21
 800337a:	f884 303d 	strb.w	r3, [r4, #61]	@ 0x3d
 800337e:	2310      	movs	r3, #16
 8003380:	f884 303e 	strb.w	r3, [r4, #62]	@ 0x3e
 8003384:	2300      	movs	r3, #0
 8003386:	6423      	str	r3, [r4, #64]	@ 0x40
 8003388:	f8a4 802a 	strh.w	r8, [r4, #42]	@ 0x2a
 800338c:	8d63      	ldrh	r3, [r4, #42]	@ 0x2a
 800338e:	8523      	strh	r3, [r4, #40]	@ 0x28
 8003390:	4b4b      	ldr	r3, [pc, #300]	@ (80034c0 <HAL_I2C_Master_Transmit+0x1a8>)
 8003392:	62e3      	str	r3, [r4, #44]	@ 0x2c
 8003394:	6ae3      	ldr	r3, [r4, #44]	@ 0x2c
 8003396:	f8c4 9024 	str.w	r9, [r4, #36]	@ 0x24
 800339a:	2b08      	cmp	r3, #8
 800339c:	d004      	beq.n	80033a8 <HAL_I2C_Master_Transmit+0x90>
 800339e:	2b01      	cmp	r3, #1
 80033a0:	d002      	beq.n	80033a8 <HAL_I2C_Master_Transmit+0x90>
 80033a2:	f513 3f80 	cmn.w	r3, #65536	@ 0x10000
 80033a6:	d104      	bne.n	80033b2 <HAL_I2C_Master_Transmit+0x9a>
 80033a8:	680b      	ldr	r3, [r1, #0]
 80033aa:	f443 7380 	orr.w	r3, r3, #256	@ 0x100
 80033ae:	600b      	str	r3, [r1, #0]
 80033b0:	e002      	b.n	80033b8 <HAL_I2C_Master_Transmit+0xa0>
 80033b2:	6b23      	ldr	r3, [r4, #48]	@ 0x30
 80033b4:	2b12      	cmp	r3, #18
 80033b6:	d0f7      	beq.n	80033a8 <HAL_I2C_Master_Transmit+0x90>
 80033b8:	2200      	movs	r2, #0
 80033ba:	9600      	str	r6, [sp, #0]
 80033bc:	463b      	mov	r3, r7
 80033be:	f04f 1101 	mov.w	r1, #65537	@ 0x10001
 80033c2:	4620      	mov	r0, r4
 80033c4:	f7ff fdf6 	bl	8002fb4 <I2C_WaitOnFlagUntilTimeout>
 80033c8:	6822      	ldr	r2, [r4, #0]
 80033ca:	b140      	cbz	r0, 80033de <HAL_I2C_Master_Transmit+0xc6>
 80033cc:	6813      	ldr	r3, [r2, #0]
 80033ce:	05db      	lsls	r3, r3, #23
 80033d0:	d401      	bmi.n	80033d6 <HAL_I2C_Master_Transmit+0xbe>
 80033d2:	2501      	movs	r5, #1
 80033d4:	e7b0      	b.n	8003338 <HAL_I2C_Master_Transmit+0x20>
 80033d6:	f44f 7300 	mov.w	r3, #512	@ 0x200
 80033da:	6423      	str	r3, [r4, #64]	@ 0x40
 80033dc:	e7f9      	b.n	80033d2 <HAL_I2C_Master_Transmit+0xba>
 80033de:	6923      	ldr	r3, [r4, #16]
 80033e0:	f5b3 4f80 	cmp.w	r3, #16384	@ 0x4000
 80033e4:	d121      	bne.n	800342a <HAL_I2C_Master_Transmit+0x112>
 80033e6:	f005 05fe 	and.w	r5, r5, #254	@ 0xfe
 80033ea:	6115      	str	r5, [r2, #16]
 80033ec:	4935      	ldr	r1, [pc, #212]	@ (80034c4 <HAL_I2C_Master_Transmit+0x1ac>)
 80033ee:	4633      	mov	r3, r6
 80033f0:	463a      	mov	r2, r7
 80033f2:	4620      	mov	r0, r4
 80033f4:	f7ff fe1e 	bl	8003034 <I2C_WaitOnMasterAddressFlagUntilTimeout>
 80033f8:	4605      	mov	r5, r0
 80033fa:	2800      	cmp	r0, #0
 80033fc:	d1e9      	bne.n	80033d2 <HAL_I2C_Master_Transmit+0xba>
 80033fe:	6823      	ldr	r3, [r4, #0]
 8003400:	9003      	str	r0, [sp, #12]
 8003402:	695a      	ldr	r2, [r3, #20]
 8003404:	9203      	str	r2, [sp, #12]
 8003406:	699b      	ldr	r3, [r3, #24]
 8003408:	9303      	str	r3, [sp, #12]
 800340a:	9b03      	ldr	r3, [sp, #12]
 800340c:	8d23      	ldrh	r3, [r4, #40]	@ 0x28
 800340e:	b9f3      	cbnz	r3, 800344e <HAL_I2C_Master_Transmit+0x136>
 8003410:	6821      	ldr	r1, [r4, #0]
 8003412:	680a      	ldr	r2, [r1, #0]
 8003414:	f442 7200 	orr.w	r2, r2, #512	@ 0x200
 8003418:	600a      	str	r2, [r1, #0]
 800341a:	2220      	movs	r2, #32
 800341c:	f884 203d 	strb.w	r2, [r4, #61]	@ 0x3d
 8003420:	f884 303c 	strb.w	r3, [r4, #60]	@ 0x3c
 8003424:	f884 303e 	strb.w	r3, [r4, #62]	@ 0x3e
 8003428:	e786      	b.n	8003338 <HAL_I2C_Master_Transmit+0x20>
 800342a:	11eb      	asrs	r3, r5, #7
 800342c:	f003 0306 	and.w	r3, r3, #6
 8003430:	f043 03f0 	orr.w	r3, r3, #240	@ 0xf0
 8003434:	6113      	str	r3, [r2, #16]
 8003436:	4924      	ldr	r1, [pc, #144]	@ (80034c8 <HAL_I2C_Master_Transmit+0x1b0>)
 8003438:	4633      	mov	r3, r6
 800343a:	463a      	mov	r2, r7
 800343c:	4620      	mov	r0, r4
 800343e:	f7ff fdf9 	bl	8003034 <I2C_WaitOnMasterAddressFlagUntilTimeout>
 8003442:	2800      	cmp	r0, #0
 8003444:	d1c5      	bne.n	80033d2 <HAL_I2C_Master_Transmit+0xba>
 8003446:	6823      	ldr	r3, [r4, #0]
 8003448:	b2ed      	uxtb	r5, r5
 800344a:	611d      	str	r5, [r3, #16]
 800344c:	e7ce      	b.n	80033ec <HAL_I2C_Master_Transmit+0xd4>
 800344e:	4632      	mov	r2, r6
 8003450:	4639      	mov	r1, r7
 8003452:	4620      	mov	r0, r4
 8003454:	f7ff fe30 	bl	80030b8 <I2C_WaitOnTXEFlagUntilTimeout>
 8003458:	b140      	cbz	r0, 800346c <HAL_I2C_Master_Transmit+0x154>
 800345a:	6c23      	ldr	r3, [r4, #64]	@ 0x40
 800345c:	2b04      	cmp	r3, #4
 800345e:	d1b8      	bne.n	80033d2 <HAL_I2C_Master_Transmit+0xba>
 8003460:	6822      	ldr	r2, [r4, #0]
 8003462:	6813      	ldr	r3, [r2, #0]
 8003464:	f443 7300 	orr.w	r3, r3, #512	@ 0x200
 8003468:	6013      	str	r3, [r2, #0]
 800346a:	e7b2      	b.n	80033d2 <HAL_I2C_Master_Transmit+0xba>
 800346c:	6a63      	ldr	r3, [r4, #36]	@ 0x24
 800346e:	6820      	ldr	r0, [r4, #0]
 8003470:	461a      	mov	r2, r3
 8003472:	f812 1b01 	ldrb.w	r1, [r2], #1
 8003476:	6101      	str	r1, [r0, #16]
 8003478:	6262      	str	r2, [r4, #36]	@ 0x24
 800347a:	8d62      	ldrh	r2, [r4, #42]	@ 0x2a
 800347c:	3a01      	subs	r2, #1
 800347e:	b292      	uxth	r2, r2
 8003480:	8562      	strh	r2, [r4, #42]	@ 0x2a
 8003482:	8d22      	ldrh	r2, [r4, #40]	@ 0x28
 8003484:	f8d0 c014 	ldr.w	ip, [r0, #20]
 8003488:	1e51      	subs	r1, r2, #1
 800348a:	b289      	uxth	r1, r1
 800348c:	f01c 0f04 	tst.w	ip, #4
 8003490:	8521      	strh	r1, [r4, #40]	@ 0x28
 8003492:	d00a      	beq.n	80034aa <HAL_I2C_Master_Transmit+0x192>
 8003494:	b149      	cbz	r1, 80034aa <HAL_I2C_Master_Transmit+0x192>
 8003496:	7859      	ldrb	r1, [r3, #1]
 8003498:	6101      	str	r1, [r0, #16]
 800349a:	3302      	adds	r3, #2
 800349c:	6263      	str	r3, [r4, #36]	@ 0x24
 800349e:	8d63      	ldrh	r3, [r4, #42]	@ 0x2a
 80034a0:	3b01      	subs	r3, #1
 80034a2:	b29b      	uxth	r3, r3
 80034a4:	3a02      	subs	r2, #2
 80034a6:	8563      	strh	r3, [r4, #42]	@ 0x2a
 80034a8:	8522      	strh	r2, [r4, #40]	@ 0x28
 80034aa:	4632      	mov	r2, r6
 80034ac:	4639      	mov	r1, r7
 80034ae:	4620      	mov	r0, r4
 80034b0:	f7ff fe2c 	bl	800310c <I2C_WaitOnBTFFlagUntilTimeout>
 80034b4:	2800      	cmp	r0, #0
 80034b6:	d0a9      	beq.n	800340c <HAL_I2C_Master_Transmit+0xf4>
 80034b8:	e7cf      	b.n	800345a <HAL_I2C_Master_Transmit+0x142>
 80034ba:	bf00      	nop
 80034bc:	00100002 	.word	0x00100002
 80034c0:	ffff0000 	.word	0xffff0000
 80034c4:	00010002 	.word	0x00010002
 80034c8:	00010008 	.word	0x00010008

080034cc <HAL_I2C_Master_Receive>:
 80034cc:	e92d 43f0 	stmdb	sp!, {r4, r5, r6, r7, r8, r9, lr}
 80034d0:	4604      	mov	r4, r0
 80034d2:	b089      	sub	sp, #36	@ 0x24
 80034d4:	4698      	mov	r8, r3
 80034d6:	9f10      	ldr	r7, [sp, #64]	@ 0x40
 80034d8:	460e      	mov	r6, r1
 80034da:	4691      	mov	r9, r2
 80034dc:	f7fe feda 	bl	8002294 <HAL_GetTick>
 80034e0:	f894 303d 	ldrb.w	r3, [r4, #61]	@ 0x3d
 80034e4:	2b20      	cmp	r3, #32
 80034e6:	4605      	mov	r5, r0
 80034e8:	d004      	beq.n	80034f4 <HAL_I2C_Master_Receive+0x28>
 80034ea:	2602      	movs	r6, #2
 80034ec:	4630      	mov	r0, r6
 80034ee:	b009      	add	sp, #36	@ 0x24
 80034f0:	e8bd 83f0 	ldmia.w	sp!, {r4, r5, r6, r7, r8, r9, pc}
 80034f4:	9000      	str	r0, [sp, #0]
 80034f6:	499a      	ldr	r1, [pc, #616]	@ (8003760 <HAL_I2C_Master_Receive+0x294>)
 80034f8:	2319      	movs	r3, #25
 80034fa:	2201      	movs	r2, #1
 80034fc:	4620      	mov	r0, r4
 80034fe:	f7ff fd59 	bl	8002fb4 <I2C_WaitOnFlagUntilTimeout>
 8003502:	2800      	cmp	r0, #0
 8003504:	d1f1      	bne.n	80034ea <HAL_I2C_Master_Receive+0x1e>
 8003506:	f894 303c 	ldrb.w	r3, [r4, #60]	@ 0x3c
 800350a:	2b01      	cmp	r3, #1
 800350c:	d0ed      	beq.n	80034ea <HAL_I2C_Master_Receive+0x1e>
 800350e:	6821      	ldr	r1, [r4, #0]
 8003510:	2301      	movs	r3, #1
 8003512:	f884 303c 	strb.w	r3, [r4, #60]	@ 0x3c
 8003516:	680b      	ldr	r3, [r1, #0]
 8003518:	07db      	lsls	r3, r3, #31
 800351a:	bf5e      	ittt	pl
 800351c:	680b      	ldrpl	r3, [r1, #0]
 800351e:	f043 0301 	orrpl.w	r3, r3, #1
 8003522:	600b      	strpl	r3, [r1, #0]
 8003524:	680b      	ldr	r3, [r1, #0]
 8003526:	f423 6300 	bic.w	r3, r3, #2048	@ 0x800
 800352a:	600b      	str	r3, [r1, #0]
 800352c:	2322      	movs	r3, #34	@ 0x22
 800352e:	f884 303d 	strb.w	r3, [r4, #61]	@ 0x3d
 8003532:	2310      	movs	r3, #16
 8003534:	f884 303e 	strb.w	r3, [r4, #62]	@ 0x3e
 8003538:	2300      	movs	r3, #0
 800353a:	6423      	str	r3, [r4, #64]	@ 0x40
 800353c:	f8a4 802a 	strh.w	r8, [r4, #42]	@ 0x2a
 8003540:	8d63      	ldrh	r3, [r4, #42]	@ 0x2a
 8003542:	8523      	strh	r3, [r4, #40]	@ 0x28
 8003544:	4b87      	ldr	r3, [pc, #540]	@ (8003764 <HAL_I2C_Master_Receive+0x298>)
 8003546:	62e3      	str	r3, [r4, #44]	@ 0x2c
 8003548:	6ae3      	ldr	r3, [r4, #44]	@ 0x2c
 800354a:	680a      	ldr	r2, [r1, #0]
 800354c:	f8c4 9024 	str.w	r9, [r4, #36]	@ 0x24
 8003550:	f442 6280 	orr.w	r2, r2, #1024	@ 0x400
 8003554:	2b08      	cmp	r3, #8
 8003556:	600a      	str	r2, [r1, #0]
 8003558:	d004      	beq.n	8003564 <HAL_I2C_Master_Receive+0x98>
 800355a:	2b01      	cmp	r3, #1
 800355c:	d002      	beq.n	8003564 <HAL_I2C_Master_Receive+0x98>
 800355e:	f513 3f80 	cmn.w	r3, #65536	@ 0x10000
 8003562:	d104      	bne.n	800356e <HAL_I2C_Master_Receive+0xa2>
 8003564:	680b      	ldr	r3, [r1, #0]
 8003566:	f443 7380 	orr.w	r3, r3, #256	@ 0x100
 800356a:	600b      	str	r3, [r1, #0]
 800356c:	e002      	b.n	8003574 <HAL_I2C_Master_Receive+0xa8>
 800356e:	6b23      	ldr	r3, [r4, #48]	@ 0x30
 8003570:	2b11      	cmp	r3, #17
 8003572:	d0f7      	beq.n	8003564 <HAL_I2C_Master_Receive+0x98>
 8003574:	463b      	mov	r3, r7
 8003576:	9500      	str	r5, [sp, #0]
 8003578:	2200      	movs	r2, #0
 800357a:	f04f 1101 	mov.w	r1, #65537	@ 0x10001
 800357e:	4620      	mov	r0, r4
 8003580:	f7ff fd18 	bl	8002fb4 <I2C_WaitOnFlagUntilTimeout>
 8003584:	6823      	ldr	r3, [r4, #0]
 8003586:	b138      	cbz	r0, 8003598 <HAL_I2C_Master_Receive+0xcc>
 8003588:	681b      	ldr	r3, [r3, #0]
 800358a:	05dd      	lsls	r5, r3, #23
 800358c:	bf44      	itt	mi
 800358e:	f44f 7300 	movmi.w	r3, #512	@ 0x200
 8003592:	6423      	strmi	r3, [r4, #64]	@ 0x40
 8003594:	2601      	movs	r6, #1
 8003596:	e7a9      	b.n	80034ec <HAL_I2C_Master_Receive+0x20>
 8003598:	6922      	ldr	r2, [r4, #16]
 800359a:	f5b2 4f80 	cmp.w	r2, #16384	@ 0x4000
 800359e:	d127      	bne.n	80035f0 <HAL_I2C_Master_Receive+0x124>
 80035a0:	f046 0601 	orr.w	r6, r6, #1
 80035a4:	b2f6      	uxtb	r6, r6
 80035a6:	611e      	str	r6, [r3, #16]
 80035a8:	496f      	ldr	r1, [pc, #444]	@ (8003768 <HAL_I2C_Master_Receive+0x29c>)
 80035aa:	462b      	mov	r3, r5
 80035ac:	463a      	mov	r2, r7
 80035ae:	4620      	mov	r0, r4
 80035b0:	f7ff fd40 	bl	8003034 <I2C_WaitOnMasterAddressFlagUntilTimeout>
 80035b4:	4606      	mov	r6, r0
 80035b6:	2800      	cmp	r0, #0
 80035b8:	d1ec      	bne.n	8003594 <HAL_I2C_Master_Receive+0xc8>
 80035ba:	8d23      	ldrh	r3, [r4, #40]	@ 0x28
 80035bc:	6821      	ldr	r1, [r4, #0]
 80035be:	2b00      	cmp	r3, #0
 80035c0:	d14b      	bne.n	800365a <HAL_I2C_Master_Receive+0x18e>
 80035c2:	9003      	str	r0, [sp, #12]
 80035c4:	694b      	ldr	r3, [r1, #20]
 80035c6:	9303      	str	r3, [sp, #12]
 80035c8:	698b      	ldr	r3, [r1, #24]
 80035ca:	9303      	str	r3, [sp, #12]
 80035cc:	9b03      	ldr	r3, [sp, #12]
 80035ce:	680b      	ldr	r3, [r1, #0]
 80035d0:	f443 7300 	orr.w	r3, r3, #512	@ 0x200
 80035d4:	600b      	str	r3, [r1, #0]
 80035d6:	f8df 8198 	ldr.w	r8, [pc, #408]	@ 8003770 <HAL_I2C_Master_Receive+0x2a4>
 80035da:	8d23      	ldrh	r3, [r4, #40]	@ 0x28
 80035dc:	2b00      	cmp	r3, #0
 80035de:	d164      	bne.n	80036aa <HAL_I2C_Master_Receive+0x1de>
 80035e0:	2220      	movs	r2, #32
 80035e2:	f884 203d 	strb.w	r2, [r4, #61]	@ 0x3d
 80035e6:	f884 303c 	strb.w	r3, [r4, #60]	@ 0x3c
 80035ea:	f884 303e 	strb.w	r3, [r4, #62]	@ 0x3e
 80035ee:	e77d      	b.n	80034ec <HAL_I2C_Master_Receive+0x20>
 80035f0:	ea4f 18e6 	mov.w	r8, r6, asr #7
 80035f4:	f008 0806 	and.w	r8, r8, #6
 80035f8:	f048 02f0 	orr.w	r2, r8, #240	@ 0xf0
 80035fc:	611a      	str	r2, [r3, #16]
 80035fe:	495b      	ldr	r1, [pc, #364]	@ (800376c <HAL_I2C_Master_Receive+0x2a0>)
 8003600:	462b      	mov	r3, r5
 8003602:	463a      	mov	r2, r7
 8003604:	4620      	mov	r0, r4
 8003606:	f7ff fd15 	bl	8003034 <I2C_WaitOnMasterAddressFlagUntilTimeout>
 800360a:	2800      	cmp	r0, #0
 800360c:	d1c2      	bne.n	8003594 <HAL_I2C_Master_Receive+0xc8>
 800360e:	6823      	ldr	r3, [r4, #0]
 8003610:	4955      	ldr	r1, [pc, #340]	@ (8003768 <HAL_I2C_Master_Receive+0x29c>)
 8003612:	b2f6      	uxtb	r6, r6
 8003614:	611e      	str	r6, [r3, #16]
 8003616:	463a      	mov	r2, r7
 8003618:	462b      	mov	r3, r5
 800361a:	4620      	mov	r0, r4
 800361c:	f7ff fd0a 	bl	8003034 <I2C_WaitOnMasterAddressFlagUntilTimeout>
 8003620:	4602      	mov	r2, r0
 8003622:	2800      	cmp	r0, #0
 8003624:	d1b6      	bne.n	8003594 <HAL_I2C_Master_Receive+0xc8>
 8003626:	6823      	ldr	r3, [r4, #0]
 8003628:	9007      	str	r0, [sp, #28]
 800362a:	6959      	ldr	r1, [r3, #20]
 800362c:	9107      	str	r1, [sp, #28]
 800362e:	6999      	ldr	r1, [r3, #24]
 8003630:	9107      	str	r1, [sp, #28]
 8003632:	9907      	ldr	r1, [sp, #28]
 8003634:	6819      	ldr	r1, [r3, #0]
 8003636:	f441 7180 	orr.w	r1, r1, #256	@ 0x100
 800363a:	6019      	str	r1, [r3, #0]
 800363c:	4620      	mov	r0, r4
 800363e:	9500      	str	r5, [sp, #0]
 8003640:	463b      	mov	r3, r7
 8003642:	f04f 1101 	mov.w	r1, #65537	@ 0x10001
 8003646:	f7ff fcb5 	bl	8002fb4 <I2C_WaitOnFlagUntilTimeout>
 800364a:	6822      	ldr	r2, [r4, #0]
 800364c:	b108      	cbz	r0, 8003652 <HAL_I2C_Master_Receive+0x186>
 800364e:	6813      	ldr	r3, [r2, #0]
 8003650:	e79b      	b.n	800358a <HAL_I2C_Master_Receive+0xbe>
 8003652:	f048 03f1 	orr.w	r3, r8, #241	@ 0xf1
 8003656:	6113      	str	r3, [r2, #16]
 8003658:	e7a6      	b.n	80035a8 <HAL_I2C_Master_Receive+0xdc>
 800365a:	2b01      	cmp	r3, #1
 800365c:	d10a      	bne.n	8003674 <HAL_I2C_Master_Receive+0x1a8>
 800365e:	680b      	ldr	r3, [r1, #0]
 8003660:	f423 6380 	bic.w	r3, r3, #1024	@ 0x400
 8003664:	600b      	str	r3, [r1, #0]
 8003666:	9004      	str	r0, [sp, #16]
 8003668:	694b      	ldr	r3, [r1, #20]
 800366a:	9304      	str	r3, [sp, #16]
 800366c:	698b      	ldr	r3, [r1, #24]
 800366e:	9304      	str	r3, [sp, #16]
 8003670:	9b04      	ldr	r3, [sp, #16]
 8003672:	e7ac      	b.n	80035ce <HAL_I2C_Master_Receive+0x102>
 8003674:	2b02      	cmp	r3, #2
 8003676:	680b      	ldr	r3, [r1, #0]
 8003678:	d10d      	bne.n	8003696 <HAL_I2C_Master_Receive+0x1ca>
 800367a:	f423 6380 	bic.w	r3, r3, #1024	@ 0x400
 800367e:	600b      	str	r3, [r1, #0]
 8003680:	680b      	ldr	r3, [r1, #0]
 8003682:	f443 6300 	orr.w	r3, r3, #2048	@ 0x800
 8003686:	600b      	str	r3, [r1, #0]
 8003688:	9005      	str	r0, [sp, #20]
 800368a:	694b      	ldr	r3, [r1, #20]
 800368c:	9305      	str	r3, [sp, #20]
 800368e:	698b      	ldr	r3, [r1, #24]
 8003690:	9305      	str	r3, [sp, #20]
 8003692:	9b05      	ldr	r3, [sp, #20]
 8003694:	e79f      	b.n	80035d6 <HAL_I2C_Master_Receive+0x10a>
 8003696:	f443 6380 	orr.w	r3, r3, #1024	@ 0x400
 800369a:	600b      	str	r3, [r1, #0]
 800369c:	9006      	str	r0, [sp, #24]
 800369e:	694b      	ldr	r3, [r1, #20]
 80036a0:	9306      	str	r3, [sp, #24]
 80036a2:	698b      	ldr	r3, [r1, #24]
 80036a4:	9306      	str	r3, [sp, #24]
 80036a6:	9b06      	ldr	r3, [sp, #24]
 80036a8:	e795      	b.n	80035d6 <HAL_I2C_Master_Receive+0x10a>
 80036aa:	2b03      	cmp	r3, #3
 80036ac:	d862      	bhi.n	8003774 <HAL_I2C_Master_Receive+0x2a8>
 80036ae:	2b01      	cmp	r3, #1
 80036b0:	d116      	bne.n	80036e0 <HAL_I2C_Master_Receive+0x214>
 80036b2:	462a      	mov	r2, r5
 80036b4:	4639      	mov	r1, r7
 80036b6:	4620      	mov	r0, r4
 80036b8:	f7ff fd52 	bl	8003160 <I2C_WaitOnRXNEFlagUntilTimeout>
 80036bc:	2800      	cmp	r0, #0
 80036be:	f47f af69 	bne.w	8003594 <HAL_I2C_Master_Receive+0xc8>
 80036c2:	6823      	ldr	r3, [r4, #0]
 80036c4:	691a      	ldr	r2, [r3, #16]
 80036c6:	6a63      	ldr	r3, [r4, #36]	@ 0x24
 80036c8:	701a      	strb	r2, [r3, #0]
 80036ca:	6a63      	ldr	r3, [r4, #36]	@ 0x24
 80036cc:	3301      	adds	r3, #1
 80036ce:	6263      	str	r3, [r4, #36]	@ 0x24
 80036d0:	8d23      	ldrh	r3, [r4, #40]	@ 0x28
 80036d2:	3b01      	subs	r3, #1
 80036d4:	8523      	strh	r3, [r4, #40]	@ 0x28
 80036d6:	8d63      	ldrh	r3, [r4, #42]	@ 0x2a
 80036d8:	3b01      	subs	r3, #1
 80036da:	b29b      	uxth	r3, r3
 80036dc:	8563      	strh	r3, [r4, #42]	@ 0x2a
 80036de:	e77c      	b.n	80035da <HAL_I2C_Master_Receive+0x10e>
 80036e0:	2b02      	cmp	r3, #2
 80036e2:	9500      	str	r5, [sp, #0]
 80036e4:	463b      	mov	r3, r7
 80036e6:	f04f 0200 	mov.w	r2, #0
 80036ea:	4641      	mov	r1, r8
 80036ec:	4620      	mov	r0, r4
 80036ee:	d11a      	bne.n	8003726 <HAL_I2C_Master_Receive+0x25a>
 80036f0:	f7ff fc60 	bl	8002fb4 <I2C_WaitOnFlagUntilTimeout>
 80036f4:	2800      	cmp	r0, #0
 80036f6:	f47f af4d 	bne.w	8003594 <HAL_I2C_Master_Receive+0xc8>
 80036fa:	6823      	ldr	r3, [r4, #0]
 80036fc:	681a      	ldr	r2, [r3, #0]
 80036fe:	f442 7200 	orr.w	r2, r2, #512	@ 0x200
 8003702:	601a      	str	r2, [r3, #0]
 8003704:	691a      	ldr	r2, [r3, #16]
 8003706:	6a63      	ldr	r3, [r4, #36]	@ 0x24
 8003708:	701a      	strb	r2, [r3, #0]
 800370a:	6a62      	ldr	r2, [r4, #36]	@ 0x24
 800370c:	1c53      	adds	r3, r2, #1
 800370e:	6263      	str	r3, [r4, #36]	@ 0x24
 8003710:	8d23      	ldrh	r3, [r4, #40]	@ 0x28
 8003712:	3b01      	subs	r3, #1
 8003714:	8523      	strh	r3, [r4, #40]	@ 0x28
 8003716:	8d63      	ldrh	r3, [r4, #42]	@ 0x2a
 8003718:	3b01      	subs	r3, #1
 800371a:	b29b      	uxth	r3, r3
 800371c:	8563      	strh	r3, [r4, #42]	@ 0x2a
 800371e:	6823      	ldr	r3, [r4, #0]
 8003720:	691b      	ldr	r3, [r3, #16]
 8003722:	7053      	strb	r3, [r2, #1]
 8003724:	e7d1      	b.n	80036ca <HAL_I2C_Master_Receive+0x1fe>
 8003726:	f7ff fc45 	bl	8002fb4 <I2C_WaitOnFlagUntilTimeout>
 800372a:	4602      	mov	r2, r0
 800372c:	2800      	cmp	r0, #0
 800372e:	f47f af31 	bne.w	8003594 <HAL_I2C_Master_Receive+0xc8>
 8003732:	6823      	ldr	r3, [r4, #0]
 8003734:	6819      	ldr	r1, [r3, #0]
 8003736:	f421 6180 	bic.w	r1, r1, #1024	@ 0x400
 800373a:	6019      	str	r1, [r3, #0]
 800373c:	6919      	ldr	r1, [r3, #16]
 800373e:	6a63      	ldr	r3, [r4, #36]	@ 0x24
 8003740:	7019      	strb	r1, [r3, #0]
 8003742:	6a63      	ldr	r3, [r4, #36]	@ 0x24
 8003744:	3301      	adds	r3, #1
 8003746:	6263      	str	r3, [r4, #36]	@ 0x24
 8003748:	8d23      	ldrh	r3, [r4, #40]	@ 0x28
 800374a:	3b01      	subs	r3, #1
 800374c:	8523      	strh	r3, [r4, #40]	@ 0x28
 800374e:	8d63      	ldrh	r3, [r4, #42]	@ 0x2a
 8003750:	3b01      	subs	r3, #1
 8003752:	b29b      	uxth	r3, r3
 8003754:	8563      	strh	r3, [r4, #42]	@ 0x2a
 8003756:	4641      	mov	r1, r8
 8003758:	9500      	str	r5, [sp, #0]
 800375a:	463b      	mov	r3, r7
 800375c:	4620      	mov	r0, r4
 800375e:	e7c7      	b.n	80036f0 <HAL_I2C_Master_Receive+0x224>
 8003760:	00100002 	.word	0x00100002
 8003764:	ffff0000 	.word	0xffff0000
 8003768:	00010002 	.word	0x00010002
 800376c:	00010008 	.word	0x00010008
 8003770:	00010004 	.word	0x00010004
 8003774:	462a      	mov	r2, r5
 8003776:	4639      	mov	r1, r7
 8003778:	4620      	mov	r0, r4
 800377a:	f7ff fcf1 	bl	8003160 <I2C_WaitOnRXNEFlagUntilTimeout>
 800377e:	2800      	cmp	r0, #0
 8003780:	f47f af08 	bne.w	8003594 <HAL_I2C_Master_Receive+0xc8>
 8003784:	6823      	ldr	r3, [r4, #0]
 8003786:	691a      	ldr	r2, [r3, #16]
 8003788:	6a63      	ldr	r3, [r4, #36]	@ 0x24
 800378a:	701a      	strb	r2, [r3, #0]
 800378c:	8d62      	ldrh	r2, [r4, #42]	@ 0x2a
 800378e:	6a61      	ldr	r1, [r4, #36]	@ 0x24
 8003790:	3a01      	subs	r2, #1
 8003792:	b292      	uxth	r2, r2
 8003794:	1c4b      	adds	r3, r1, #1
 8003796:	8562      	strh	r2, [r4, #42]	@ 0x2a
 8003798:	6822      	ldr	r2, [r4, #0]
 800379a:	6263      	str	r3, [r4, #36]	@ 0x24
 800379c:	8d23      	ldrh	r3, [r4, #40]	@ 0x28
 800379e:	6950      	ldr	r0, [r2, #20]
 80037a0:	3b01      	subs	r3, #1
 80037a2:	b29b      	uxth	r3, r3
 80037a4:	0740      	lsls	r0, r0, #29
 80037a6:	8523      	strh	r3, [r4, #40]	@ 0x28
 80037a8:	f57f af17 	bpl.w	80035da <HAL_I2C_Master_Receive+0x10e>
 80037ac:	2b03      	cmp	r3, #3
 80037ae:	bf02      	ittt	eq
 80037b0:	6813      	ldreq	r3, [r2, #0]
 80037b2:	f423 6380 	biceq.w	r3, r3, #1024	@ 0x400
 80037b6:	6013      	streq	r3, [r2, #0]
 80037b8:	6913      	ldr	r3, [r2, #16]
 80037ba:	704b      	strb	r3, [r1, #1]
 80037bc:	e785      	b.n	80036ca <HAL_I2C_Master_Receive+0x1fe>
 80037be:	bf00      	nop

080037c0 <HAL_I2CEx_ConfigAnalogFilter>:
 80037c0:	b510      	push	{r4, lr}
 80037c2:	f890 303d 	ldrb.w	r3, [r0, #61]	@ 0x3d
 80037c6:	2b20      	cmp	r3, #32
 80037c8:	b2dc      	uxtb	r4, r3
 80037ca:	d116      	bne.n	80037fa <HAL_I2CEx_ConfigAnalogFilter+0x3a>
 80037cc:	2324      	movs	r3, #36	@ 0x24
 80037ce:	f880 303d 	strb.w	r3, [r0, #61]	@ 0x3d
 80037d2:	6803      	ldr	r3, [r0, #0]
 80037d4:	681a      	ldr	r2, [r3, #0]
 80037d6:	f022 0201 	bic.w	r2, r2, #1
 80037da:	601a      	str	r2, [r3, #0]
 80037dc:	6a5a      	ldr	r2, [r3, #36]	@ 0x24
 80037de:	f022 0210 	bic.w	r2, r2, #16
 80037e2:	625a      	str	r2, [r3, #36]	@ 0x24
 80037e4:	6a5a      	ldr	r2, [r3, #36]	@ 0x24
 80037e6:	4311      	orrs	r1, r2
 80037e8:	6259      	str	r1, [r3, #36]	@ 0x24
 80037ea:	681a      	ldr	r2, [r3, #0]
 80037ec:	f042 0201 	orr.w	r2, r2, #1
 80037f0:	601a      	str	r2, [r3, #0]
 80037f2:	f880 403d 	strb.w	r4, [r0, #61]	@ 0x3d
 80037f6:	2000      	movs	r0, #0
 80037f8:	bd10      	pop	{r4, pc}
 80037fa:	2002      	movs	r0, #2
 80037fc:	e7fc      	b.n	80037f8 <HAL_I2CEx_ConfigAnalogFilter+0x38>

080037fe <HAL_I2CEx_ConfigDigitalFilter>:
 80037fe:	b530      	push	{r4, r5, lr}
 8003800:	f890 303d 	ldrb.w	r3, [r0, #61]	@ 0x3d
 8003804:	2b20      	cmp	r3, #32
 8003806:	b2dc      	uxtb	r4, r3
 8003808:	d116      	bne.n	8003838 <HAL_I2CEx_ConfigDigitalFilter+0x3a>
 800380a:	6802      	ldr	r2, [r0, #0]
 800380c:	2324      	movs	r3, #36	@ 0x24
 800380e:	f880 303d 	strb.w	r3, [r0, #61]	@ 0x3d
 8003812:	6813      	ldr	r3, [r2, #0]
 8003814:	f023 0301 	bic.w	r3, r3, #1
 8003818:	6013      	str	r3, [r2, #0]
 800381a:	6a55      	ldr	r5, [r2, #36]	@ 0x24
 800381c:	f64f 73f0 	movw	r3, #65520	@ 0xfff0
 8003820:	402b      	ands	r3, r5
 8003822:	430b      	orrs	r3, r1
 8003824:	b29b      	uxth	r3, r3
 8003826:	6253      	str	r3, [r2, #36]	@ 0x24
 8003828:	6813      	ldr	r3, [r2, #0]
 800382a:	f043 0301 	orr.w	r3, r3, #1
 800382e:	6013      	str	r3, [r2, #0]
 8003830:	f880 403d 	strb.w	r4, [r0, #61]	@ 0x3d
 8003834:	2000      	movs	r0, #0
 8003836:	bd30      	pop	{r4, r5, pc}
 8003838:	2002      	movs	r0, #2
 800383a:	e7fc      	b.n	8003836 <HAL_I2CEx_ConfigDigitalFilter+0x38>

0800383c <HAL_PWR_EnableBkUpAccess>:
 800383c:	4b04      	ldr	r3, [pc, #16]	@ (8003850 <HAL_PWR_EnableBkUpAccess+0x14>)
 800383e:	2201      	movs	r2, #1
 8003840:	621a      	str	r2, [r3, #32]
 8003842:	4b04      	ldr	r3, [pc, #16]	@ (8003854 <HAL_PWR_EnableBkUpAccess+0x18>)
 8003844:	b082      	sub	sp, #8
 8003846:	681b      	ldr	r3, [r3, #0]
 8003848:	9301      	str	r3, [sp, #4]
 800384a:	9b01      	ldr	r3, [sp, #4]
 800384c:	b002      	add	sp, #8
 800384e:	4770      	bx	lr
 8003850:	420e0000 	.word	0x420e0000
 8003854:	40007000 	.word	0x40007000

08003858 <HAL_PWR_DisableBkUpAccess>:
 8003858:	4b04      	ldr	r3, [pc, #16]	@ (800386c <HAL_PWR_DisableBkUpAccess+0x14>)
 800385a:	2200      	movs	r2, #0
 800385c:	621a      	str	r2, [r3, #32]
 800385e:	4b04      	ldr	r3, [pc, #16]	@ (8003870 <HAL_PWR_DisableBkUpAccess+0x18>)
 8003860:	b082      	sub	sp, #8
 8003862:	681b      	ldr	r3, [r3, #0]
 8003864:	9301      	str	r3, [sp, #4]
 8003866:	9b01      	ldr	r3, [sp, #4]
 8003868:	b002      	add	sp, #8
 800386a:	4770      	bx	lr
 800386c:	420e0000 	.word	0x420e0000
 8003870:	40007000 	.word	0x40007000

08003874 <HAL_RCC_OscConfig>:
 8003874:	e92d 41f3 	stmdb	sp!, {r0, r1, r4, r5, r6, r7, r8, lr}
 8003878:	4604      	mov	r4, r0
 800387a:	b340      	cbz	r0, 80038ce <HAL_RCC_OscConfig+0x5a>
 800387c:	6803      	ldr	r3, [r0, #0]
 800387e:	07de      	lsls	r6, r3, #31
 8003880:	d410      	bmi.n	80038a4 <HAL_RCC_OscConfig+0x30>
 8003882:	6823      	ldr	r3, [r4, #0]
 8003884:	079d      	lsls	r5, r3, #30
 8003886:	d45b      	bmi.n	8003940 <HAL_RCC_OscConfig+0xcc>
 8003888:	6823      	ldr	r3, [r4, #0]
 800388a:	0719      	lsls	r1, r3, #28
 800388c:	f100 809d 	bmi.w	80039ca <HAL_RCC_OscConfig+0x156>
 8003890:	6823      	ldr	r3, [r4, #0]
 8003892:	075a      	lsls	r2, r3, #29
 8003894:	f100 80bd 	bmi.w	8003a12 <HAL_RCC_OscConfig+0x19e>
 8003898:	69a3      	ldr	r3, [r4, #24]
 800389a:	2b00      	cmp	r3, #0
 800389c:	f040 8124 	bne.w	8003ae8 <HAL_RCC_OscConfig+0x274>
 80038a0:	2000      	movs	r0, #0
 80038a2:	e02c      	b.n	80038fe <HAL_RCC_OscConfig+0x8a>
 80038a4:	4b8d      	ldr	r3, [pc, #564]	@ (8003adc <HAL_RCC_OscConfig+0x268>)
 80038a6:	689a      	ldr	r2, [r3, #8]
 80038a8:	f002 020c 	and.w	r2, r2, #12
 80038ac:	2a04      	cmp	r2, #4
 80038ae:	d007      	beq.n	80038c0 <HAL_RCC_OscConfig+0x4c>
 80038b0:	689a      	ldr	r2, [r3, #8]
 80038b2:	f002 020c 	and.w	r2, r2, #12
 80038b6:	2a08      	cmp	r2, #8
 80038b8:	d10b      	bne.n	80038d2 <HAL_RCC_OscConfig+0x5e>
 80038ba:	685b      	ldr	r3, [r3, #4]
 80038bc:	0259      	lsls	r1, r3, #9
 80038be:	d508      	bpl.n	80038d2 <HAL_RCC_OscConfig+0x5e>
 80038c0:	4b86      	ldr	r3, [pc, #536]	@ (8003adc <HAL_RCC_OscConfig+0x268>)
 80038c2:	681b      	ldr	r3, [r3, #0]
 80038c4:	039a      	lsls	r2, r3, #14
 80038c6:	d5dc      	bpl.n	8003882 <HAL_RCC_OscConfig+0xe>
 80038c8:	6863      	ldr	r3, [r4, #4]
 80038ca:	2b00      	cmp	r3, #0
 80038cc:	d1d9      	bne.n	8003882 <HAL_RCC_OscConfig+0xe>
 80038ce:	2001      	movs	r0, #1
 80038d0:	e015      	b.n	80038fe <HAL_RCC_OscConfig+0x8a>
 80038d2:	6863      	ldr	r3, [r4, #4]
 80038d4:	4d81      	ldr	r5, [pc, #516]	@ (8003adc <HAL_RCC_OscConfig+0x268>)
 80038d6:	f5b3 3f80 	cmp.w	r3, #65536	@ 0x10000
 80038da:	d113      	bne.n	8003904 <HAL_RCC_OscConfig+0x90>
 80038dc:	682b      	ldr	r3, [r5, #0]
 80038de:	f443 3380 	orr.w	r3, r3, #65536	@ 0x10000
 80038e2:	602b      	str	r3, [r5, #0]
 80038e4:	f7fe fcd6 	bl	8002294 <HAL_GetTick>
 80038e8:	4e7c      	ldr	r6, [pc, #496]	@ (8003adc <HAL_RCC_OscConfig+0x268>)
 80038ea:	4605      	mov	r5, r0
 80038ec:	6833      	ldr	r3, [r6, #0]
 80038ee:	039b      	lsls	r3, r3, #14
 80038f0:	d4c7      	bmi.n	8003882 <HAL_RCC_OscConfig+0xe>
 80038f2:	f7fe fccf 	bl	8002294 <HAL_GetTick>
 80038f6:	1b40      	subs	r0, r0, r5
 80038f8:	2864      	cmp	r0, #100	@ 0x64
 80038fa:	d9f7      	bls.n	80038ec <HAL_RCC_OscConfig+0x78>
 80038fc:	2003      	movs	r0, #3
 80038fe:	b002      	add	sp, #8
 8003900:	e8bd 81f0 	ldmia.w	sp!, {r4, r5, r6, r7, r8, pc}
 8003904:	f5b3 2fa0 	cmp.w	r3, #327680	@ 0x50000
 8003908:	d104      	bne.n	8003914 <HAL_RCC_OscConfig+0xa0>
 800390a:	682b      	ldr	r3, [r5, #0]
 800390c:	f443 2380 	orr.w	r3, r3, #262144	@ 0x40000
 8003910:	602b      	str	r3, [r5, #0]
 8003912:	e7e3      	b.n	80038dc <HAL_RCC_OscConfig+0x68>
 8003914:	682a      	ldr	r2, [r5, #0]
 8003916:	f422 3280 	bic.w	r2, r2, #65536	@ 0x10000
 800391a:	602a      	str	r2, [r5, #0]
 800391c:	682a      	ldr	r2, [r5, #0]
 800391e:	f422 2280 	bic.w	r2, r2, #262144	@ 0x40000
 8003922:	602a      	str	r2, [r5, #0]
 8003924:	2b00      	cmp	r3, #0
 8003926:	d1dd      	bne.n	80038e4 <HAL_RCC_OscConfig+0x70>
 8003928:	f7fe fcb4 	bl	8002294 <HAL_GetTick>
 800392c:	4606      	mov	r6, r0
 800392e:	682b      	ldr	r3, [r5, #0]
 8003930:	039f      	lsls	r7, r3, #14
 8003932:	d5a6      	bpl.n	8003882 <HAL_RCC_OscConfig+0xe>
 8003934:	f7fe fcae 	bl	8002294 <HAL_GetTick>
 8003938:	1b80      	subs	r0, r0, r6
 800393a:	2864      	cmp	r0, #100	@ 0x64
 800393c:	d9f7      	bls.n	800392e <HAL_RCC_OscConfig+0xba>
 800393e:	e7dd      	b.n	80038fc <HAL_RCC_OscConfig+0x88>
 8003940:	4b66      	ldr	r3, [pc, #408]	@ (8003adc <HAL_RCC_OscConfig+0x268>)
 8003942:	689a      	ldr	r2, [r3, #8]
 8003944:	f012 0f0c 	tst.w	r2, #12
 8003948:	d007      	beq.n	800395a <HAL_RCC_OscConfig+0xe6>
 800394a:	689a      	ldr	r2, [r3, #8]
 800394c:	f002 020c 	and.w	r2, r2, #12
 8003950:	2a08      	cmp	r2, #8
 8003952:	d111      	bne.n	8003978 <HAL_RCC_OscConfig+0x104>
 8003954:	685b      	ldr	r3, [r3, #4]
 8003956:	025d      	lsls	r5, r3, #9
 8003958:	d40e      	bmi.n	8003978 <HAL_RCC_OscConfig+0x104>
 800395a:	4a60      	ldr	r2, [pc, #384]	@ (8003adc <HAL_RCC_OscConfig+0x268>)
 800395c:	6813      	ldr	r3, [r2, #0]
 800395e:	0799      	lsls	r1, r3, #30
 8003960:	d502      	bpl.n	8003968 <HAL_RCC_OscConfig+0xf4>
 8003962:	68e3      	ldr	r3, [r4, #12]
 8003964:	2b01      	cmp	r3, #1
 8003966:	d1b2      	bne.n	80038ce <HAL_RCC_OscConfig+0x5a>
 8003968:	6813      	ldr	r3, [r2, #0]
 800396a:	6921      	ldr	r1, [r4, #16]
 800396c:	f023 03f8 	bic.w	r3, r3, #248	@ 0xf8
 8003970:	ea43 03c1 	orr.w	r3, r3, r1, lsl #3
 8003974:	6013      	str	r3, [r2, #0]
 8003976:	e787      	b.n	8003888 <HAL_RCC_OscConfig+0x14>
 8003978:	68e2      	ldr	r2, [r4, #12]
 800397a:	4b59      	ldr	r3, [pc, #356]	@ (8003ae0 <HAL_RCC_OscConfig+0x26c>)
 800397c:	b1b2      	cbz	r2, 80039ac <HAL_RCC_OscConfig+0x138>
 800397e:	2201      	movs	r2, #1
 8003980:	601a      	str	r2, [r3, #0]
 8003982:	f7fe fc87 	bl	8002294 <HAL_GetTick>
 8003986:	4d55      	ldr	r5, [pc, #340]	@ (8003adc <HAL_RCC_OscConfig+0x268>)
 8003988:	4606      	mov	r6, r0
 800398a:	682b      	ldr	r3, [r5, #0]
 800398c:	079b      	lsls	r3, r3, #30
 800398e:	d507      	bpl.n	80039a0 <HAL_RCC_OscConfig+0x12c>
 8003990:	682b      	ldr	r3, [r5, #0]
 8003992:	6922      	ldr	r2, [r4, #16]
 8003994:	f023 03f8 	bic.w	r3, r3, #248	@ 0xf8
 8003998:	ea43 03c2 	orr.w	r3, r3, r2, lsl #3
 800399c:	602b      	str	r3, [r5, #0]
 800399e:	e773      	b.n	8003888 <HAL_RCC_OscConfig+0x14>
 80039a0:	f7fe fc78 	bl	8002294 <HAL_GetTick>
 80039a4:	1b80      	subs	r0, r0, r6
 80039a6:	2802      	cmp	r0, #2
 80039a8:	d9ef      	bls.n	800398a <HAL_RCC_OscConfig+0x116>
 80039aa:	e7a7      	b.n	80038fc <HAL_RCC_OscConfig+0x88>
 80039ac:	601a      	str	r2, [r3, #0]
 80039ae:	f7fe fc71 	bl	8002294 <HAL_GetTick>
 80039b2:	4e4a      	ldr	r6, [pc, #296]	@ (8003adc <HAL_RCC_OscConfig+0x268>)
 80039b4:	4605      	mov	r5, r0
 80039b6:	6833      	ldr	r3, [r6, #0]
 80039b8:	079f      	lsls	r7, r3, #30
 80039ba:	f57f af65 	bpl.w	8003888 <HAL_RCC_OscConfig+0x14>
 80039be:	f7fe fc69 	bl	8002294 <HAL_GetTick>
 80039c2:	1b40      	subs	r0, r0, r5
 80039c4:	2802      	cmp	r0, #2
 80039c6:	d9f6      	bls.n	80039b6 <HAL_RCC_OscConfig+0x142>
 80039c8:	e798      	b.n	80038fc <HAL_RCC_OscConfig+0x88>
 80039ca:	6962      	ldr	r2, [r4, #20]
 80039cc:	4b44      	ldr	r3, [pc, #272]	@ (8003ae0 <HAL_RCC_OscConfig+0x26c>)
 80039ce:	b182      	cbz	r2, 80039f2 <HAL_RCC_OscConfig+0x17e>
 80039d0:	2201      	movs	r2, #1
 80039d2:	f8c3 2e80 	str.w	r2, [r3, #3712]	@ 0xe80
 80039d6:	f7fe fc5d 	bl	8002294 <HAL_GetTick>
 80039da:	4e40      	ldr	r6, [pc, #256]	@ (8003adc <HAL_RCC_OscConfig+0x268>)
 80039dc:	4605      	mov	r5, r0
 80039de:	6f73      	ldr	r3, [r6, #116]	@ 0x74
 80039e0:	079b      	lsls	r3, r3, #30
 80039e2:	f53f af55 	bmi.w	8003890 <HAL_RCC_OscConfig+0x1c>
 80039e6:	f7fe fc55 	bl	8002294 <HAL_GetTick>
 80039ea:	1b40      	subs	r0, r0, r5
 80039ec:	2802      	cmp	r0, #2
 80039ee:	d9f6      	bls.n	80039de <HAL_RCC_OscConfig+0x16a>
 80039f0:	e784      	b.n	80038fc <HAL_RCC_OscConfig+0x88>
 80039f2:	f8c3 2e80 	str.w	r2, [r3, #3712]	@ 0xe80
 80039f6:	f7fe fc4d 	bl	8002294 <HAL_GetTick>
 80039fa:	4e38      	ldr	r6, [pc, #224]	@ (8003adc <HAL_RCC_OscConfig+0x268>)
 80039fc:	4605      	mov	r5, r0
 80039fe:	6f73      	ldr	r3, [r6, #116]	@ 0x74
 8003a00:	079f      	lsls	r7, r3, #30
 8003a02:	f57f af45 	bpl.w	8003890 <HAL_RCC_OscConfig+0x1c>
 8003a06:	f7fe fc45 	bl	8002294 <HAL_GetTick>
 8003a0a:	1b40      	subs	r0, r0, r5
 8003a0c:	2802      	cmp	r0, #2
 8003a0e:	d9f6      	bls.n	80039fe <HAL_RCC_OscConfig+0x18a>
 8003a10:	e774      	b.n	80038fc <HAL_RCC_OscConfig+0x88>
 8003a12:	4b32      	ldr	r3, [pc, #200]	@ (8003adc <HAL_RCC_OscConfig+0x268>)
 8003a14:	6c1a      	ldr	r2, [r3, #64]	@ 0x40
 8003a16:	f012 5280 	ands.w	r2, r2, #268435456	@ 0x10000000
 8003a1a:	d128      	bne.n	8003a6e <HAL_RCC_OscConfig+0x1fa>
 8003a1c:	9201      	str	r2, [sp, #4]
 8003a1e:	6c1a      	ldr	r2, [r3, #64]	@ 0x40
 8003a20:	f042 5280 	orr.w	r2, r2, #268435456	@ 0x10000000
 8003a24:	641a      	str	r2, [r3, #64]	@ 0x40
 8003a26:	6c1b      	ldr	r3, [r3, #64]	@ 0x40
 8003a28:	f003 5380 	and.w	r3, r3, #268435456	@ 0x10000000
 8003a2c:	9301      	str	r3, [sp, #4]
 8003a2e:	9b01      	ldr	r3, [sp, #4]
 8003a30:	2701      	movs	r7, #1
 8003a32:	4d2c      	ldr	r5, [pc, #176]	@ (8003ae4 <HAL_RCC_OscConfig+0x270>)
 8003a34:	682b      	ldr	r3, [r5, #0]
 8003a36:	05d8      	lsls	r0, r3, #23
 8003a38:	d51b      	bpl.n	8003a72 <HAL_RCC_OscConfig+0x1fe>
 8003a3a:	68a3      	ldr	r3, [r4, #8]
 8003a3c:	4d27      	ldr	r5, [pc, #156]	@ (8003adc <HAL_RCC_OscConfig+0x268>)
 8003a3e:	2b01      	cmp	r3, #1
 8003a40:	d127      	bne.n	8003a92 <HAL_RCC_OscConfig+0x21e>
 8003a42:	6f2b      	ldr	r3, [r5, #112]	@ 0x70
 8003a44:	f043 0301 	orr.w	r3, r3, #1
 8003a48:	672b      	str	r3, [r5, #112]	@ 0x70
 8003a4a:	f7fe fc23 	bl	8002294 <HAL_GetTick>
 8003a4e:	4e23      	ldr	r6, [pc, #140]	@ (8003adc <HAL_RCC_OscConfig+0x268>)
 8003a50:	4605      	mov	r5, r0
 8003a52:	f241 3888 	movw	r8, #5000	@ 0x1388
 8003a56:	6f33      	ldr	r3, [r6, #112]	@ 0x70
 8003a58:	079a      	lsls	r2, r3, #30
 8003a5a:	d539      	bpl.n	8003ad0 <HAL_RCC_OscConfig+0x25c>
 8003a5c:	2f00      	cmp	r7, #0
 8003a5e:	f43f af1b 	beq.w	8003898 <HAL_RCC_OscConfig+0x24>
 8003a62:	4a1e      	ldr	r2, [pc, #120]	@ (8003adc <HAL_RCC_OscConfig+0x268>)
 8003a64:	6c13      	ldr	r3, [r2, #64]	@ 0x40
 8003a66:	f023 5380 	bic.w	r3, r3, #268435456	@ 0x10000000
 8003a6a:	6413      	str	r3, [r2, #64]	@ 0x40
 8003a6c:	e714      	b.n	8003898 <HAL_RCC_OscConfig+0x24>
 8003a6e:	2700      	movs	r7, #0
 8003a70:	e7df      	b.n	8003a32 <HAL_RCC_OscConfig+0x1be>
 8003a72:	682b      	ldr	r3, [r5, #0]
 8003a74:	f443 7380 	orr.w	r3, r3, #256	@ 0x100
 8003a78:	602b      	str	r3, [r5, #0]
 8003a7a:	f7fe fc0b 	bl	8002294 <HAL_GetTick>
 8003a7e:	4606      	mov	r6, r0
 8003a80:	682b      	ldr	r3, [r5, #0]
 8003a82:	05d9      	lsls	r1, r3, #23
 8003a84:	d4d9      	bmi.n	8003a3a <HAL_RCC_OscConfig+0x1c6>
 8003a86:	f7fe fc05 	bl	8002294 <HAL_GetTick>
 8003a8a:	1b80      	subs	r0, r0, r6
 8003a8c:	2802      	cmp	r0, #2
 8003a8e:	d9f7      	bls.n	8003a80 <HAL_RCC_OscConfig+0x20c>
 8003a90:	e734      	b.n	80038fc <HAL_RCC_OscConfig+0x88>
 8003a92:	2b05      	cmp	r3, #5
 8003a94:	d104      	bne.n	8003aa0 <HAL_RCC_OscConfig+0x22c>
 8003a96:	6f2b      	ldr	r3, [r5, #112]	@ 0x70
 8003a98:	f043 0304 	orr.w	r3, r3, #4
 8003a9c:	672b      	str	r3, [r5, #112]	@ 0x70
 8003a9e:	e7d0      	b.n	8003a42 <HAL_RCC_OscConfig+0x1ce>
 8003aa0:	6f2a      	ldr	r2, [r5, #112]	@ 0x70
 8003aa2:	f022 0201 	bic.w	r2, r2, #1
 8003aa6:	672a      	str	r2, [r5, #112]	@ 0x70
 8003aa8:	6f2a      	ldr	r2, [r5, #112]	@ 0x70
 8003aaa:	f022 0204 	bic.w	r2, r2, #4
 8003aae:	672a      	str	r2, [r5, #112]	@ 0x70
 8003ab0:	2b00      	cmp	r3, #0
 8003ab2:	d1ca      	bne.n	8003a4a <HAL_RCC_OscConfig+0x1d6>
 8003ab4:	f7fe fbee 	bl	8002294 <HAL_GetTick>
 8003ab8:	f241 3888 	movw	r8, #5000	@ 0x1388
 8003abc:	4606      	mov	r6, r0
 8003abe:	6f2b      	ldr	r3, [r5, #112]	@ 0x70
 8003ac0:	079b      	lsls	r3, r3, #30
 8003ac2:	d5cb      	bpl.n	8003a5c <HAL_RCC_OscConfig+0x1e8>
 8003ac4:	f7fe fbe6 	bl	8002294 <HAL_GetTick>
 8003ac8:	1b80      	subs	r0, r0, r6
 8003aca:	4540      	cmp	r0, r8
 8003acc:	d9f7      	bls.n	8003abe <HAL_RCC_OscConfig+0x24a>
 8003ace:	e715      	b.n	80038fc <HAL_RCC_OscConfig+0x88>
 8003ad0:	f7fe fbe0 	bl	8002294 <HAL_GetTick>
 8003ad4:	1b40      	subs	r0, r0, r5
 8003ad6:	4540      	cmp	r0, r8
 8003ad8:	d9bd      	bls.n	8003a56 <HAL_RCC_OscConfig+0x1e2>
 8003ada:	e70f      	b.n	80038fc <HAL_RCC_OscConfig+0x88>
 8003adc:	40023800 	.word	0x40023800
 8003ae0:	42470000 	.word	0x42470000
 8003ae4:	40007000 	.word	0x40007000
 8003ae8:	4d37      	ldr	r5, [pc, #220]	@ (8003bc8 <HAL_RCC_OscConfig+0x354>)
 8003aea:	68aa      	ldr	r2, [r5, #8]
 8003aec:	f002 020c 	and.w	r2, r2, #12
 8003af0:	2a08      	cmp	r2, #8
 8003af2:	d03e      	beq.n	8003b72 <HAL_RCC_OscConfig+0x2fe>
 8003af4:	2b02      	cmp	r3, #2
 8003af6:	4b35      	ldr	r3, [pc, #212]	@ (8003bcc <HAL_RCC_OscConfig+0x358>)
 8003af8:	f04f 0200 	mov.w	r2, #0
 8003afc:	661a      	str	r2, [r3, #96]	@ 0x60
 8003afe:	d12b      	bne.n	8003b58 <HAL_RCC_OscConfig+0x2e4>
 8003b00:	f7fe fbc8 	bl	8002294 <HAL_GetTick>
 8003b04:	4606      	mov	r6, r0
 8003b06:	682b      	ldr	r3, [r5, #0]
 8003b08:	0199      	lsls	r1, r3, #6
 8003b0a:	d41f      	bmi.n	8003b4c <HAL_RCC_OscConfig+0x2d8>
 8003b0c:	e9d4 3207 	ldrd	r3, r2, [r4, #28]
 8003b10:	4313      	orrs	r3, r2
 8003b12:	6a62      	ldr	r2, [r4, #36]	@ 0x24
 8003b14:	ea43 1382 	orr.w	r3, r3, r2, lsl #6
 8003b18:	6ae2      	ldr	r2, [r4, #44]	@ 0x2c
 8003b1a:	ea43 6302 	orr.w	r3, r3, r2, lsl #24
 8003b1e:	6aa2      	ldr	r2, [r4, #40]	@ 0x28
 8003b20:	0852      	lsrs	r2, r2, #1
 8003b22:	3a01      	subs	r2, #1
 8003b24:	ea43 4302 	orr.w	r3, r3, r2, lsl #16
 8003b28:	606b      	str	r3, [r5, #4]
 8003b2a:	4b28      	ldr	r3, [pc, #160]	@ (8003bcc <HAL_RCC_OscConfig+0x358>)
 8003b2c:	4d26      	ldr	r5, [pc, #152]	@ (8003bc8 <HAL_RCC_OscConfig+0x354>)
 8003b2e:	2201      	movs	r2, #1
 8003b30:	661a      	str	r2, [r3, #96]	@ 0x60
 8003b32:	f7fe fbaf 	bl	8002294 <HAL_GetTick>
 8003b36:	4604      	mov	r4, r0
 8003b38:	682b      	ldr	r3, [r5, #0]
 8003b3a:	019a      	lsls	r2, r3, #6
 8003b3c:	f53f aeb0 	bmi.w	80038a0 <HAL_RCC_OscConfig+0x2c>
 8003b40:	f7fe fba8 	bl	8002294 <HAL_GetTick>
 8003b44:	1b00      	subs	r0, r0, r4
 8003b46:	2802      	cmp	r0, #2
 8003b48:	d9f6      	bls.n	8003b38 <HAL_RCC_OscConfig+0x2c4>
 8003b4a:	e6d7      	b.n	80038fc <HAL_RCC_OscConfig+0x88>
 8003b4c:	f7fe fba2 	bl	8002294 <HAL_GetTick>
 8003b50:	1b80      	subs	r0, r0, r6
 8003b52:	2802      	cmp	r0, #2
 8003b54:	d9d7      	bls.n	8003b06 <HAL_RCC_OscConfig+0x292>
 8003b56:	e6d1      	b.n	80038fc <HAL_RCC_OscConfig+0x88>
 8003b58:	f7fe fb9c 	bl	8002294 <HAL_GetTick>
 8003b5c:	4604      	mov	r4, r0
 8003b5e:	682b      	ldr	r3, [r5, #0]
 8003b60:	019b      	lsls	r3, r3, #6
 8003b62:	f57f ae9d 	bpl.w	80038a0 <HAL_RCC_OscConfig+0x2c>
 8003b66:	f7fe fb95 	bl	8002294 <HAL_GetTick>
 8003b6a:	1b00      	subs	r0, r0, r4
 8003b6c:	2802      	cmp	r0, #2
 8003b6e:	d9f6      	bls.n	8003b5e <HAL_RCC_OscConfig+0x2ea>
 8003b70:	e6c4      	b.n	80038fc <HAL_RCC_OscConfig+0x88>
 8003b72:	2b01      	cmp	r3, #1
 8003b74:	f43f aeab 	beq.w	80038ce <HAL_RCC_OscConfig+0x5a>
 8003b78:	686b      	ldr	r3, [r5, #4]
 8003b7a:	69e2      	ldr	r2, [r4, #28]
 8003b7c:	f403 0180 	and.w	r1, r3, #4194304	@ 0x400000
 8003b80:	4291      	cmp	r1, r2
 8003b82:	f47f aea4 	bne.w	80038ce <HAL_RCC_OscConfig+0x5a>
 8003b86:	6a21      	ldr	r1, [r4, #32]
 8003b88:	f003 023f 	and.w	r2, r3, #63	@ 0x3f
 8003b8c:	428a      	cmp	r2, r1
 8003b8e:	f47f ae9e 	bne.w	80038ce <HAL_RCC_OscConfig+0x5a>
 8003b92:	6a61      	ldr	r1, [r4, #36]	@ 0x24
 8003b94:	f647 72c0 	movw	r2, #32704	@ 0x7fc0
 8003b98:	401a      	ands	r2, r3
 8003b9a:	ebb2 1f81 	cmp.w	r2, r1, lsl #6
 8003b9e:	f47f ae96 	bne.w	80038ce <HAL_RCC_OscConfig+0x5a>
 8003ba2:	6aa2      	ldr	r2, [r4, #40]	@ 0x28
 8003ba4:	0852      	lsrs	r2, r2, #1
 8003ba6:	f403 3140 	and.w	r1, r3, #196608	@ 0x30000
 8003baa:	3a01      	subs	r2, #1
 8003bac:	ebb1 4f02 	cmp.w	r1, r2, lsl #16
 8003bb0:	f47f ae8d 	bne.w	80038ce <HAL_RCC_OscConfig+0x5a>
 8003bb4:	6ae2      	ldr	r2, [r4, #44]	@ 0x2c
 8003bb6:	f003 6370 	and.w	r3, r3, #251658240	@ 0xf000000
 8003bba:	ebb3 6f02 	cmp.w	r3, r2, lsl #24
 8003bbe:	bf14      	ite	ne
 8003bc0:	2001      	movne	r0, #1
 8003bc2:	2000      	moveq	r0, #0
 8003bc4:	e69b      	b.n	80038fe <HAL_RCC_OscConfig+0x8a>
 8003bc6:	bf00      	nop
 8003bc8:	40023800 	.word	0x40023800
 8003bcc:	42470000 	.word	0x42470000

08003bd0 <HAL_RCC_GetSysClockFreq>:
 8003bd0:	4913      	ldr	r1, [pc, #76]	@ (8003c20 <HAL_RCC_GetSysClockFreq+0x50>)
 8003bd2:	b508      	push	{r3, lr}
 8003bd4:	688b      	ldr	r3, [r1, #8]
 8003bd6:	f003 030c 	and.w	r3, r3, #12
 8003bda:	2b04      	cmp	r3, #4
 8003bdc:	d01c      	beq.n	8003c18 <HAL_RCC_GetSysClockFreq+0x48>
 8003bde:	2b08      	cmp	r3, #8
 8003be0:	d11c      	bne.n	8003c1c <HAL_RCC_GetSysClockFreq+0x4c>
 8003be2:	684a      	ldr	r2, [r1, #4]
 8003be4:	684b      	ldr	r3, [r1, #4]
 8003be6:	6849      	ldr	r1, [r1, #4]
 8003be8:	f413 0380 	ands.w	r3, r3, #4194304	@ 0x400000
 8003bec:	bf14      	ite	ne
 8003bee:	480d      	ldrne	r0, [pc, #52]	@ (8003c24 <HAL_RCC_GetSysClockFreq+0x54>)
 8003bf0:	480d      	ldreq	r0, [pc, #52]	@ (8003c28 <HAL_RCC_GetSysClockFreq+0x58>)
 8003bf2:	f3c1 1188 	ubfx	r1, r1, #6, #9
 8003bf6:	bf18      	it	ne
 8003bf8:	2300      	movne	r3, #0
 8003bfa:	f002 023f 	and.w	r2, r2, #63	@ 0x3f
 8003bfe:	fba1 0100 	umull	r0, r1, r1, r0
 8003c02:	f7fc fafb 	bl	80001fc <__aeabi_uldivmod>
 8003c06:	4b06      	ldr	r3, [pc, #24]	@ (8003c20 <HAL_RCC_GetSysClockFreq+0x50>)
 8003c08:	685b      	ldr	r3, [r3, #4]
 8003c0a:	f3c3 4301 	ubfx	r3, r3, #16, #2
 8003c0e:	3301      	adds	r3, #1
 8003c10:	005b      	lsls	r3, r3, #1
 8003c12:	fbb0 f0f3 	udiv	r0, r0, r3
 8003c16:	bd08      	pop	{r3, pc}
 8003c18:	4802      	ldr	r0, [pc, #8]	@ (8003c24 <HAL_RCC_GetSysClockFreq+0x54>)
 8003c1a:	e7fc      	b.n	8003c16 <HAL_RCC_GetSysClockFreq+0x46>
 8003c1c:	4802      	ldr	r0, [pc, #8]	@ (8003c28 <HAL_RCC_GetSysClockFreq+0x58>)
 8003c1e:	e7fa      	b.n	8003c16 <HAL_RCC_GetSysClockFreq+0x46>
 8003c20:	40023800 	.word	0x40023800
 8003c24:	017d7840 	.word	0x017d7840
 8003c28:	00f42400 	.word	0x00f42400

08003c2c <HAL_RCC_ClockConfig>:
 8003c2c:	e92d 41f0 	stmdb	sp!, {r4, r5, r6, r7, r8, lr}
 8003c30:	460d      	mov	r5, r1
 8003c32:	4604      	mov	r4, r0
 8003c34:	b910      	cbnz	r0, 8003c3c <HAL_RCC_ClockConfig+0x10>
 8003c36:	2001      	movs	r0, #1
 8003c38:	e8bd 81f0 	ldmia.w	sp!, {r4, r5, r6, r7, r8, pc}
 8003c3c:	4b43      	ldr	r3, [pc, #268]	@ (8003d4c <HAL_RCC_ClockConfig+0x120>)
 8003c3e:	681a      	ldr	r2, [r3, #0]
 8003c40:	f002 020f 	and.w	r2, r2, #15
 8003c44:	428a      	cmp	r2, r1
 8003c46:	d328      	bcc.n	8003c9a <HAL_RCC_ClockConfig+0x6e>
 8003c48:	6821      	ldr	r1, [r4, #0]
 8003c4a:	078f      	lsls	r7, r1, #30
 8003c4c:	d42d      	bmi.n	8003caa <HAL_RCC_ClockConfig+0x7e>
 8003c4e:	07c8      	lsls	r0, r1, #31
 8003c50:	d440      	bmi.n	8003cd4 <HAL_RCC_ClockConfig+0xa8>
 8003c52:	4b3e      	ldr	r3, [pc, #248]	@ (8003d4c <HAL_RCC_ClockConfig+0x120>)
 8003c54:	681a      	ldr	r2, [r3, #0]
 8003c56:	f002 020f 	and.w	r2, r2, #15
 8003c5a:	42aa      	cmp	r2, r5
 8003c5c:	d865      	bhi.n	8003d2a <HAL_RCC_ClockConfig+0xfe>
 8003c5e:	6822      	ldr	r2, [r4, #0]
 8003c60:	0751      	lsls	r1, r2, #29
 8003c62:	d46b      	bmi.n	8003d3c <HAL_RCC_ClockConfig+0x110>
 8003c64:	0713      	lsls	r3, r2, #28
 8003c66:	d507      	bpl.n	8003c78 <HAL_RCC_ClockConfig+0x4c>
 8003c68:	4a39      	ldr	r2, [pc, #228]	@ (8003d50 <HAL_RCC_ClockConfig+0x124>)
 8003c6a:	6921      	ldr	r1, [r4, #16]
 8003c6c:	6893      	ldr	r3, [r2, #8]
 8003c6e:	f423 4360 	bic.w	r3, r3, #57344	@ 0xe000
 8003c72:	ea43 03c1 	orr.w	r3, r3, r1, lsl #3
 8003c76:	6093      	str	r3, [r2, #8]
 8003c78:	f7ff ffaa 	bl	8003bd0 <HAL_RCC_GetSysClockFreq>
 8003c7c:	4b34      	ldr	r3, [pc, #208]	@ (8003d50 <HAL_RCC_ClockConfig+0x124>)
 8003c7e:	4a35      	ldr	r2, [pc, #212]	@ (8003d54 <HAL_RCC_ClockConfig+0x128>)
 8003c80:	689b      	ldr	r3, [r3, #8]
 8003c82:	f3c3 1303 	ubfx	r3, r3, #4, #4
 8003c86:	5cd3      	ldrb	r3, [r2, r3]
 8003c88:	40d8      	lsrs	r0, r3
 8003c8a:	4b33      	ldr	r3, [pc, #204]	@ (8003d58 <HAL_RCC_ClockConfig+0x12c>)
 8003c8c:	6018      	str	r0, [r3, #0]
 8003c8e:	4b33      	ldr	r3, [pc, #204]	@ (8003d5c <HAL_RCC_ClockConfig+0x130>)
 8003c90:	6818      	ldr	r0, [r3, #0]
 8003c92:	f7fe fab5 	bl	8002200 <HAL_InitTick>
 8003c96:	2000      	movs	r0, #0
 8003c98:	e7ce      	b.n	8003c38 <HAL_RCC_ClockConfig+0xc>
 8003c9a:	b2ca      	uxtb	r2, r1
 8003c9c:	701a      	strb	r2, [r3, #0]
 8003c9e:	681b      	ldr	r3, [r3, #0]
 8003ca0:	f003 030f 	and.w	r3, r3, #15
 8003ca4:	428b      	cmp	r3, r1
 8003ca6:	d1c6      	bne.n	8003c36 <HAL_RCC_ClockConfig+0xa>
 8003ca8:	e7ce      	b.n	8003c48 <HAL_RCC_ClockConfig+0x1c>
 8003caa:	4b29      	ldr	r3, [pc, #164]	@ (8003d50 <HAL_RCC_ClockConfig+0x124>)
 8003cac:	f011 0f04 	tst.w	r1, #4
 8003cb0:	bf1e      	ittt	ne
 8003cb2:	689a      	ldrne	r2, [r3, #8]
 8003cb4:	f442 52e0 	orrne.w	r2, r2, #7168	@ 0x1c00
 8003cb8:	609a      	strne	r2, [r3, #8]
 8003cba:	070e      	lsls	r6, r1, #28
 8003cbc:	bf42      	ittt	mi
 8003cbe:	689a      	ldrmi	r2, [r3, #8]
 8003cc0:	f442 4260 	orrmi.w	r2, r2, #57344	@ 0xe000
 8003cc4:	609a      	strmi	r2, [r3, #8]
 8003cc6:	689a      	ldr	r2, [r3, #8]
 8003cc8:	68a0      	ldr	r0, [r4, #8]
 8003cca:	f022 02f0 	bic.w	r2, r2, #240	@ 0xf0
 8003cce:	4302      	orrs	r2, r0
 8003cd0:	609a      	str	r2, [r3, #8]
 8003cd2:	e7bc      	b.n	8003c4e <HAL_RCC_ClockConfig+0x22>
 8003cd4:	6862      	ldr	r2, [r4, #4]
 8003cd6:	4b1e      	ldr	r3, [pc, #120]	@ (8003d50 <HAL_RCC_ClockConfig+0x124>)
 8003cd8:	2a01      	cmp	r2, #1
 8003cda:	d11c      	bne.n	8003d16 <HAL_RCC_ClockConfig+0xea>
 8003cdc:	681b      	ldr	r3, [r3, #0]
 8003cde:	f413 3f00 	tst.w	r3, #131072	@ 0x20000
 8003ce2:	d0a8      	beq.n	8003c36 <HAL_RCC_ClockConfig+0xa>
 8003ce4:	4e1a      	ldr	r6, [pc, #104]	@ (8003d50 <HAL_RCC_ClockConfig+0x124>)
 8003ce6:	68b3      	ldr	r3, [r6, #8]
 8003ce8:	f023 0303 	bic.w	r3, r3, #3
 8003cec:	4313      	orrs	r3, r2
 8003cee:	60b3      	str	r3, [r6, #8]
 8003cf0:	f7fe fad0 	bl	8002294 <HAL_GetTick>
 8003cf4:	f241 3888 	movw	r8, #5000	@ 0x1388
 8003cf8:	4607      	mov	r7, r0
 8003cfa:	68b3      	ldr	r3, [r6, #8]
 8003cfc:	6862      	ldr	r2, [r4, #4]
 8003cfe:	f003 030c 	and.w	r3, r3, #12
 8003d02:	ebb3 0f82 	cmp.w	r3, r2, lsl #2
 8003d06:	d0a4      	beq.n	8003c52 <HAL_RCC_ClockConfig+0x26>
 8003d08:	f7fe fac4 	bl	8002294 <HAL_GetTick>
 8003d0c:	1bc0      	subs	r0, r0, r7
 8003d0e:	4540      	cmp	r0, r8
 8003d10:	d9f3      	bls.n	8003cfa <HAL_RCC_ClockConfig+0xce>
 8003d12:	2003      	movs	r0, #3
 8003d14:	e790      	b.n	8003c38 <HAL_RCC_ClockConfig+0xc>
 8003d16:	1e91      	subs	r1, r2, #2
 8003d18:	2901      	cmp	r1, #1
 8003d1a:	681b      	ldr	r3, [r3, #0]
 8003d1c:	d802      	bhi.n	8003d24 <HAL_RCC_ClockConfig+0xf8>
 8003d1e:	f013 7f00 	tst.w	r3, #33554432	@ 0x2000000
 8003d22:	e7de      	b.n	8003ce2 <HAL_RCC_ClockConfig+0xb6>
 8003d24:	f013 0f02 	tst.w	r3, #2
 8003d28:	e7db      	b.n	8003ce2 <HAL_RCC_ClockConfig+0xb6>
 8003d2a:	b2ea      	uxtb	r2, r5
 8003d2c:	701a      	strb	r2, [r3, #0]
 8003d2e:	681b      	ldr	r3, [r3, #0]
 8003d30:	f003 030f 	and.w	r3, r3, #15
 8003d34:	42ab      	cmp	r3, r5
 8003d36:	f47f af7e 	bne.w	8003c36 <HAL_RCC_ClockConfig+0xa>
 8003d3a:	e790      	b.n	8003c5e <HAL_RCC_ClockConfig+0x32>
 8003d3c:	4904      	ldr	r1, [pc, #16]	@ (8003d50 <HAL_RCC_ClockConfig+0x124>)
 8003d3e:	68e0      	ldr	r0, [r4, #12]
 8003d40:	688b      	ldr	r3, [r1, #8]
 8003d42:	f423 53e0 	bic.w	r3, r3, #7168	@ 0x1c00
 8003d46:	4303      	orrs	r3, r0
 8003d48:	608b      	str	r3, [r1, #8]
 8003d4a:	e78b      	b.n	8003c64 <HAL_RCC_ClockConfig+0x38>
 8003d4c:	40023c00 	.word	0x40023c00
 8003d50:	40023800 	.word	0x40023800
 8003d54:	080055db 	.word	0x080055db
 8003d58:	2000001c 	.word	0x2000001c
 8003d5c:	20000024 	.word	0x20000024

08003d60 <HAL_RCC_GetPCLK1Freq>:
 8003d60:	4b04      	ldr	r3, [pc, #16]	@ (8003d74 <HAL_RCC_GetPCLK1Freq+0x14>)
 8003d62:	4a05      	ldr	r2, [pc, #20]	@ (8003d78 <HAL_RCC_GetPCLK1Freq+0x18>)
 8003d64:	689b      	ldr	r3, [r3, #8]
 8003d66:	f3c3 2382 	ubfx	r3, r3, #10, #3
 8003d6a:	5cd3      	ldrb	r3, [r2, r3]
 8003d6c:	4a03      	ldr	r2, [pc, #12]	@ (8003d7c <HAL_RCC_GetPCLK1Freq+0x1c>)
 8003d6e:	6810      	ldr	r0, [r2, #0]
 8003d70:	40d8      	lsrs	r0, r3
 8003d72:	4770      	bx	lr
 8003d74:	40023800 	.word	0x40023800
 8003d78:	080055d3 	.word	0x080055d3
 8003d7c:	2000001c 	.word	0x2000001c

08003d80 <HAL_RCC_GetPCLK2Freq>:
 8003d80:	4b04      	ldr	r3, [pc, #16]	@ (8003d94 <HAL_RCC_GetPCLK2Freq+0x14>)
 8003d82:	4a05      	ldr	r2, [pc, #20]	@ (8003d98 <HAL_RCC_GetPCLK2Freq+0x18>)
 8003d84:	689b      	ldr	r3, [r3, #8]
 8003d86:	f3c3 3342 	ubfx	r3, r3, #13, #3
 8003d8a:	5cd3      	ldrb	r3, [r2, r3]
 8003d8c:	4a03      	ldr	r2, [pc, #12]	@ (8003d9c <HAL_RCC_GetPCLK2Freq+0x1c>)
 8003d8e:	6810      	ldr	r0, [r2, #0]
 8003d90:	40d8      	lsrs	r0, r3
 8003d92:	4770      	bx	lr
 8003d94:	40023800 	.word	0x40023800
 8003d98:	080055d3 	.word	0x080055d3
 8003d9c:	2000001c 	.word	0x2000001c

08003da0 <HAL_RCCEx_PeriphCLKConfig>:
 8003da0:	6803      	ldr	r3, [r0, #0]
 8003da2:	f013 0f43 	tst.w	r3, #67	@ 0x43
 8003da6:	b5f7      	push	{r0, r1, r2, r4, r5, r6, r7, lr}
 8003da8:	4604      	mov	r4, r0
 8003daa:	f040 8088 	bne.w	8003ebe <HAL_RCCEx_PeriphCLKConfig+0x11e>
 8003dae:	6823      	ldr	r3, [r4, #0]
 8003db0:	f013 0f0c 	tst.w	r3, #12
 8003db4:	d045      	beq.n	8003e42 <HAL_RCCEx_PeriphCLKConfig+0xa2>
 8003db6:	4b8c      	ldr	r3, [pc, #560]	@ (8003fe8 <HAL_RCCEx_PeriphCLKConfig+0x248>)
 8003db8:	4d8c      	ldr	r5, [pc, #560]	@ (8003fec <HAL_RCCEx_PeriphCLKConfig+0x24c>)
 8003dba:	2200      	movs	r2, #0
 8003dbc:	671a      	str	r2, [r3, #112]	@ 0x70
 8003dbe:	f7fe fa69 	bl	8002294 <HAL_GetTick>
 8003dc2:	4606      	mov	r6, r0
 8003dc4:	682b      	ldr	r3, [r5, #0]
 8003dc6:	0099      	lsls	r1, r3, #2
 8003dc8:	f100 80cb 	bmi.w	8003f62 <HAL_RCCEx_PeriphCLKConfig+0x1c2>
 8003dcc:	6821      	ldr	r1, [r4, #0]
 8003dce:	074a      	lsls	r2, r1, #29
 8003dd0:	d515      	bpl.n	8003dfe <HAL_RCCEx_PeriphCLKConfig+0x5e>
 8003dd2:	e9d4 0304 	ldrd	r0, r3, [r4, #16]
 8003dd6:	f8d5 2088 	ldr.w	r2, [r5, #136]	@ 0x88
 8003dda:	061b      	lsls	r3, r3, #24
 8003ddc:	f002 42e0 	and.w	r2, r2, #1879048192	@ 0x70000000
 8003de0:	ea43 1380 	orr.w	r3, r3, r0, lsl #6
 8003de4:	4313      	orrs	r3, r2
 8003de6:	f8c5 3088 	str.w	r3, [r5, #136]	@ 0x88
 8003dea:	f8d5 308c 	ldr.w	r3, [r5, #140]	@ 0x8c
 8003dee:	6a22      	ldr	r2, [r4, #32]
 8003df0:	f423 53f8 	bic.w	r3, r3, #7936	@ 0x1f00
 8003df4:	3a01      	subs	r2, #1
 8003df6:	ea43 2302 	orr.w	r3, r3, r2, lsl #8
 8003dfa:	f8c5 308c 	str.w	r3, [r5, #140]	@ 0x8c
 8003dfe:	070b      	lsls	r3, r1, #28
 8003e00:	d514      	bpl.n	8003e2c <HAL_RCCEx_PeriphCLKConfig+0x8c>
 8003e02:	4a7a      	ldr	r2, [pc, #488]	@ (8003fec <HAL_RCCEx_PeriphCLKConfig+0x24c>)
 8003e04:	69a3      	ldr	r3, [r4, #24]
 8003e06:	f8d2 1088 	ldr.w	r1, [r2, #136]	@ 0x88
 8003e0a:	6920      	ldr	r0, [r4, #16]
 8003e0c:	071b      	lsls	r3, r3, #28
 8003e0e:	f001 6170 	and.w	r1, r1, #251658240	@ 0xf000000
 8003e12:	ea43 1380 	orr.w	r3, r3, r0, lsl #6
 8003e16:	430b      	orrs	r3, r1
 8003e18:	f8c2 3088 	str.w	r3, [r2, #136]	@ 0x88
 8003e1c:	f8d2 308c 	ldr.w	r3, [r2, #140]	@ 0x8c
 8003e20:	6a61      	ldr	r1, [r4, #36]	@ 0x24
 8003e22:	f423 3340 	bic.w	r3, r3, #196608	@ 0x30000
 8003e26:	430b      	orrs	r3, r1
 8003e28:	f8c2 308c 	str.w	r3, [r2, #140]	@ 0x8c
 8003e2c:	4b6e      	ldr	r3, [pc, #440]	@ (8003fe8 <HAL_RCCEx_PeriphCLKConfig+0x248>)
 8003e2e:	4e6f      	ldr	r6, [pc, #444]	@ (8003fec <HAL_RCCEx_PeriphCLKConfig+0x24c>)
 8003e30:	2201      	movs	r2, #1
 8003e32:	671a      	str	r2, [r3, #112]	@ 0x70
 8003e34:	f7fe fa2e 	bl	8002294 <HAL_GetTick>
 8003e38:	4605      	mov	r5, r0
 8003e3a:	6833      	ldr	r3, [r6, #0]
 8003e3c:	009f      	lsls	r7, r3, #2
 8003e3e:	f140 8097 	bpl.w	8003f70 <HAL_RCCEx_PeriphCLKConfig+0x1d0>
 8003e42:	6823      	ldr	r3, [r4, #0]
 8003e44:	0698      	lsls	r0, r3, #26
 8003e46:	d534      	bpl.n	8003eb2 <HAL_RCCEx_PeriphCLKConfig+0x112>
 8003e48:	2300      	movs	r3, #0
 8003e4a:	9301      	str	r3, [sp, #4]
 8003e4c:	4b67      	ldr	r3, [pc, #412]	@ (8003fec <HAL_RCCEx_PeriphCLKConfig+0x24c>)
 8003e4e:	4d68      	ldr	r5, [pc, #416]	@ (8003ff0 <HAL_RCCEx_PeriphCLKConfig+0x250>)
 8003e50:	6c1a      	ldr	r2, [r3, #64]	@ 0x40
 8003e52:	f042 5280 	orr.w	r2, r2, #268435456	@ 0x10000000
 8003e56:	641a      	str	r2, [r3, #64]	@ 0x40
 8003e58:	6c1b      	ldr	r3, [r3, #64]	@ 0x40
 8003e5a:	f003 5380 	and.w	r3, r3, #268435456	@ 0x10000000
 8003e5e:	9301      	str	r3, [sp, #4]
 8003e60:	9b01      	ldr	r3, [sp, #4]
 8003e62:	682b      	ldr	r3, [r5, #0]
 8003e64:	f443 7380 	orr.w	r3, r3, #256	@ 0x100
 8003e68:	602b      	str	r3, [r5, #0]
 8003e6a:	f7fe fa13 	bl	8002294 <HAL_GetTick>
 8003e6e:	4606      	mov	r6, r0
 8003e70:	682b      	ldr	r3, [r5, #0]
 8003e72:	05d8      	lsls	r0, r3, #23
 8003e74:	f140 8083 	bpl.w	8003f7e <HAL_RCCEx_PeriphCLKConfig+0x1de>
 8003e78:	4d5c      	ldr	r5, [pc, #368]	@ (8003fec <HAL_RCCEx_PeriphCLKConfig+0x24c>)
 8003e7a:	6aa2      	ldr	r2, [r4, #40]	@ 0x28
 8003e7c:	6f2b      	ldr	r3, [r5, #112]	@ 0x70
 8003e7e:	f413 7340 	ands.w	r3, r3, #768	@ 0x300
 8003e82:	f040 8083 	bne.w	8003f8c <HAL_RCCEx_PeriphCLKConfig+0x1ec>
 8003e86:	6aa3      	ldr	r3, [r4, #40]	@ 0x28
 8003e88:	f403 7240 	and.w	r2, r3, #768	@ 0x300
 8003e8c:	f5b2 7f40 	cmp.w	r2, #768	@ 0x300
 8003e90:	4a56      	ldr	r2, [pc, #344]	@ (8003fec <HAL_RCCEx_PeriphCLKConfig+0x24c>)
 8003e92:	f040 809e 	bne.w	8003fd2 <HAL_RCCEx_PeriphCLKConfig+0x232>
 8003e96:	6891      	ldr	r1, [r2, #8]
 8003e98:	f023 4070 	bic.w	r0, r3, #4026531840	@ 0xf0000000
 8003e9c:	f421 11f8 	bic.w	r1, r1, #2031616	@ 0x1f0000
 8003ea0:	f420 7040 	bic.w	r0, r0, #768	@ 0x300
 8003ea4:	4301      	orrs	r1, r0
 8003ea6:	6091      	str	r1, [r2, #8]
 8003ea8:	6f11      	ldr	r1, [r2, #112]	@ 0x70
 8003eaa:	f3c3 030b 	ubfx	r3, r3, #0, #12
 8003eae:	430b      	orrs	r3, r1
 8003eb0:	6713      	str	r3, [r2, #112]	@ 0x70
 8003eb2:	6823      	ldr	r3, [r4, #0]
 8003eb4:	06db      	lsls	r3, r3, #27
 8003eb6:	f100 8090 	bmi.w	8003fda <HAL_RCCEx_PeriphCLKConfig+0x23a>
 8003eba:	2000      	movs	r0, #0
 8003ebc:	e04f      	b.n	8003f5e <HAL_RCCEx_PeriphCLKConfig+0x1be>
 8003ebe:	4b4a      	ldr	r3, [pc, #296]	@ (8003fe8 <HAL_RCCEx_PeriphCLKConfig+0x248>)
 8003ec0:	4e4a      	ldr	r6, [pc, #296]	@ (8003fec <HAL_RCCEx_PeriphCLKConfig+0x24c>)
 8003ec2:	2200      	movs	r2, #0
 8003ec4:	669a      	str	r2, [r3, #104]	@ 0x68
 8003ec6:	f7fe f9e5 	bl	8002294 <HAL_GetTick>
 8003eca:	4605      	mov	r5, r0
 8003ecc:	6833      	ldr	r3, [r6, #0]
 8003ece:	011f      	lsls	r7, r3, #4
 8003ed0:	d43f      	bmi.n	8003f52 <HAL_RCCEx_PeriphCLKConfig+0x1b2>
 8003ed2:	6821      	ldr	r1, [r4, #0]
 8003ed4:	07c8      	lsls	r0, r1, #31
 8003ed6:	bf41      	itttt	mi
 8003ed8:	e9d4 2301 	ldrdmi	r2, r3, [r4, #4]
 8003edc:	071b      	lslmi	r3, r3, #28
 8003ede:	ea43 1382 	orrmi.w	r3, r3, r2, lsl #6
 8003ee2:	f8c6 3084 	strmi.w	r3, [r6, #132]	@ 0x84
 8003ee6:	078a      	lsls	r2, r1, #30
 8003ee8:	d515      	bpl.n	8003f16 <HAL_RCCEx_PeriphCLKConfig+0x176>
 8003eea:	4a40      	ldr	r2, [pc, #256]	@ (8003fec <HAL_RCCEx_PeriphCLKConfig+0x24c>)
 8003eec:	68e3      	ldr	r3, [r4, #12]
 8003eee:	f8d2 0084 	ldr.w	r0, [r2, #132]	@ 0x84
 8003ef2:	6865      	ldr	r5, [r4, #4]
 8003ef4:	061b      	lsls	r3, r3, #24
 8003ef6:	f000 40e0 	and.w	r0, r0, #1879048192	@ 0x70000000
 8003efa:	ea43 1385 	orr.w	r3, r3, r5, lsl #6
 8003efe:	4303      	orrs	r3, r0
 8003f00:	f8c2 3084 	str.w	r3, [r2, #132]	@ 0x84
 8003f04:	f8d2 008c 	ldr.w	r0, [r2, #140]	@ 0x8c
 8003f08:	69e3      	ldr	r3, [r4, #28]
 8003f0a:	f020 001f 	bic.w	r0, r0, #31
 8003f0e:	3b01      	subs	r3, #1
 8003f10:	4303      	orrs	r3, r0
 8003f12:	f8c2 308c 	str.w	r3, [r2, #140]	@ 0x8c
 8003f16:	064b      	lsls	r3, r1, #25
 8003f18:	d50a      	bpl.n	8003f30 <HAL_RCCEx_PeriphCLKConfig+0x190>
 8003f1a:	68e3      	ldr	r3, [r4, #12]
 8003f1c:	6862      	ldr	r2, [r4, #4]
 8003f1e:	061b      	lsls	r3, r3, #24
 8003f20:	ea43 1382 	orr.w	r3, r3, r2, lsl #6
 8003f24:	68a2      	ldr	r2, [r4, #8]
 8003f26:	ea43 7302 	orr.w	r3, r3, r2, lsl #28
 8003f2a:	4a30      	ldr	r2, [pc, #192]	@ (8003fec <HAL_RCCEx_PeriphCLKConfig+0x24c>)
 8003f2c:	f8c2 3084 	str.w	r3, [r2, #132]	@ 0x84
 8003f30:	4b2d      	ldr	r3, [pc, #180]	@ (8003fe8 <HAL_RCCEx_PeriphCLKConfig+0x248>)
 8003f32:	4e2e      	ldr	r6, [pc, #184]	@ (8003fec <HAL_RCCEx_PeriphCLKConfig+0x24c>)
 8003f34:	2201      	movs	r2, #1
 8003f36:	669a      	str	r2, [r3, #104]	@ 0x68
 8003f38:	f7fe f9ac 	bl	8002294 <HAL_GetTick>
 8003f3c:	4605      	mov	r5, r0
 8003f3e:	6833      	ldr	r3, [r6, #0]
 8003f40:	011f      	lsls	r7, r3, #4
 8003f42:	f53f af34 	bmi.w	8003dae <HAL_RCCEx_PeriphCLKConfig+0xe>
 8003f46:	f7fe f9a5 	bl	8002294 <HAL_GetTick>
 8003f4a:	1b40      	subs	r0, r0, r5
 8003f4c:	2802      	cmp	r0, #2
 8003f4e:	d9f6      	bls.n	8003f3e <HAL_RCCEx_PeriphCLKConfig+0x19e>
 8003f50:	e004      	b.n	8003f5c <HAL_RCCEx_PeriphCLKConfig+0x1bc>
 8003f52:	f7fe f99f 	bl	8002294 <HAL_GetTick>
 8003f56:	1b40      	subs	r0, r0, r5
 8003f58:	2802      	cmp	r0, #2
 8003f5a:	d9b7      	bls.n	8003ecc <HAL_RCCEx_PeriphCLKConfig+0x12c>
 8003f5c:	2003      	movs	r0, #3
 8003f5e:	b003      	add	sp, #12
 8003f60:	bdf0      	pop	{r4, r5, r6, r7, pc}
 8003f62:	f7fe f997 	bl	8002294 <HAL_GetTick>
 8003f66:	1b80      	subs	r0, r0, r6
 8003f68:	2802      	cmp	r0, #2
 8003f6a:	f67f af2b 	bls.w	8003dc4 <HAL_RCCEx_PeriphCLKConfig+0x24>
 8003f6e:	e7f5      	b.n	8003f5c <HAL_RCCEx_PeriphCLKConfig+0x1bc>
 8003f70:	f7fe f990 	bl	8002294 <HAL_GetTick>
 8003f74:	1b40      	subs	r0, r0, r5
 8003f76:	2802      	cmp	r0, #2
 8003f78:	f67f af5f 	bls.w	8003e3a <HAL_RCCEx_PeriphCLKConfig+0x9a>
 8003f7c:	e7ee      	b.n	8003f5c <HAL_RCCEx_PeriphCLKConfig+0x1bc>
 8003f7e:	f7fe f989 	bl	8002294 <HAL_GetTick>
 8003f82:	1b80      	subs	r0, r0, r6
 8003f84:	2802      	cmp	r0, #2
 8003f86:	f67f af73 	bls.w	8003e70 <HAL_RCCEx_PeriphCLKConfig+0xd0>
 8003f8a:	e7e7      	b.n	8003f5c <HAL_RCCEx_PeriphCLKConfig+0x1bc>
 8003f8c:	f402 7240 	and.w	r2, r2, #768	@ 0x300
 8003f90:	4293      	cmp	r3, r2
 8003f92:	f43f af78 	beq.w	8003e86 <HAL_RCCEx_PeriphCLKConfig+0xe6>
 8003f96:	6f2b      	ldr	r3, [r5, #112]	@ 0x70
 8003f98:	4a13      	ldr	r2, [pc, #76]	@ (8003fe8 <HAL_RCCEx_PeriphCLKConfig+0x248>)
 8003f9a:	2101      	movs	r1, #1
 8003f9c:	f8c2 1e40 	str.w	r1, [r2, #3648]	@ 0xe40
 8003fa0:	f423 7340 	bic.w	r3, r3, #768	@ 0x300
 8003fa4:	2100      	movs	r1, #0
 8003fa6:	f8c2 1e40 	str.w	r1, [r2, #3648]	@ 0xe40
 8003faa:	672b      	str	r3, [r5, #112]	@ 0x70
 8003fac:	6f2b      	ldr	r3, [r5, #112]	@ 0x70
 8003fae:	07d9      	lsls	r1, r3, #31
 8003fb0:	f57f af69 	bpl.w	8003e86 <HAL_RCCEx_PeriphCLKConfig+0xe6>
 8003fb4:	f7fe f96e 	bl	8002294 <HAL_GetTick>
 8003fb8:	f241 3788 	movw	r7, #5000	@ 0x1388
 8003fbc:	4606      	mov	r6, r0
 8003fbe:	6f2b      	ldr	r3, [r5, #112]	@ 0x70
 8003fc0:	079a      	lsls	r2, r3, #30
 8003fc2:	f53f af60 	bmi.w	8003e86 <HAL_RCCEx_PeriphCLKConfig+0xe6>
 8003fc6:	f7fe f965 	bl	8002294 <HAL_GetTick>
 8003fca:	1b80      	subs	r0, r0, r6
 8003fcc:	42b8      	cmp	r0, r7
 8003fce:	d9f6      	bls.n	8003fbe <HAL_RCCEx_PeriphCLKConfig+0x21e>
 8003fd0:	e7c4      	b.n	8003f5c <HAL_RCCEx_PeriphCLKConfig+0x1bc>
 8003fd2:	6891      	ldr	r1, [r2, #8]
 8003fd4:	f421 11f8 	bic.w	r1, r1, #2031616	@ 0x1f0000
 8003fd8:	e765      	b.n	8003ea6 <HAL_RCCEx_PeriphCLKConfig+0x106>
 8003fda:	4b06      	ldr	r3, [pc, #24]	@ (8003ff4 <HAL_RCCEx_PeriphCLKConfig+0x254>)
 8003fdc:	f894 202c 	ldrb.w	r2, [r4, #44]	@ 0x2c
 8003fe0:	f8c3 21e0 	str.w	r2, [r3, #480]	@ 0x1e0
 8003fe4:	e769      	b.n	8003eba <HAL_RCCEx_PeriphCLKConfig+0x11a>
 8003fe6:	bf00      	nop
 8003fe8:	42470000 	.word	0x42470000
 8003fec:	40023800 	.word	0x40023800
 8003ff0:	40007000 	.word	0x40007000
 8003ff4:	42471000 	.word	0x42471000

08003ff8 <HAL_RTC_WaitForSynchro>:
 8003ff8:	b538      	push	{r3, r4, r5, lr}
 8003ffa:	6803      	ldr	r3, [r0, #0]
 8003ffc:	4a09      	ldr	r2, [pc, #36]	@ (8004024 <HAL_RTC_WaitForSynchro+0x2c>)
 8003ffe:	60da      	str	r2, [r3, #12]
 8004000:	4604      	mov	r4, r0
 8004002:	f7fe f947 	bl	8002294 <HAL_GetTick>
 8004006:	4605      	mov	r5, r0
 8004008:	6823      	ldr	r3, [r4, #0]
 800400a:	68db      	ldr	r3, [r3, #12]
 800400c:	069b      	lsls	r3, r3, #26
 800400e:	d501      	bpl.n	8004014 <HAL_RTC_WaitForSynchro+0x1c>
 8004010:	2000      	movs	r0, #0
 8004012:	bd38      	pop	{r3, r4, r5, pc}
 8004014:	f7fe f93e 	bl	8002294 <HAL_GetTick>
 8004018:	1b40      	subs	r0, r0, r5
 800401a:	f5b0 7f7a 	cmp.w	r0, #1000	@ 0x3e8
 800401e:	d9f3      	bls.n	8004008 <HAL_RTC_WaitForSynchro+0x10>
 8004020:	2003      	movs	r0, #3
 8004022:	e7f6      	b.n	8004012 <HAL_RTC_WaitForSynchro+0x1a>
 8004024:	00017f5f 	.word	0x00017f5f

08004028 <RTC_EnterInitMode>:
 8004028:	6803      	ldr	r3, [r0, #0]
 800402a:	b570      	push	{r4, r5, r6, lr}
 800402c:	68dc      	ldr	r4, [r3, #12]
 800402e:	f014 0440 	ands.w	r4, r4, #64	@ 0x40
 8004032:	4605      	mov	r5, r0
 8004034:	d117      	bne.n	8004066 <RTC_EnterInitMode+0x3e>
 8004036:	68da      	ldr	r2, [r3, #12]
 8004038:	f042 0280 	orr.w	r2, r2, #128	@ 0x80
 800403c:	60da      	str	r2, [r3, #12]
 800403e:	f7fe f929 	bl	8002294 <HAL_GetTick>
 8004042:	4606      	mov	r6, r0
 8004044:	682b      	ldr	r3, [r5, #0]
 8004046:	68db      	ldr	r3, [r3, #12]
 8004048:	065b      	lsls	r3, r3, #25
 800404a:	d400      	bmi.n	800404e <RTC_EnterInitMode+0x26>
 800404c:	b10c      	cbz	r4, 8004052 <RTC_EnterInitMode+0x2a>
 800404e:	4620      	mov	r0, r4
 8004050:	bd70      	pop	{r4, r5, r6, pc}
 8004052:	f7fe f91f 	bl	8002294 <HAL_GetTick>
 8004056:	1b80      	subs	r0, r0, r6
 8004058:	f5b0 7f7a 	cmp.w	r0, #1000	@ 0x3e8
 800405c:	bf82      	ittt	hi
 800405e:	2304      	movhi	r3, #4
 8004060:	776b      	strbhi	r3, [r5, #29]
 8004062:	2401      	movhi	r4, #1
 8004064:	e7ee      	b.n	8004044 <RTC_EnterInitMode+0x1c>
 8004066:	2400      	movs	r4, #0
 8004068:	e7f1      	b.n	800404e <RTC_EnterInitMode+0x26>

0800406a <RTC_ExitInitMode>:
 800406a:	6803      	ldr	r3, [r0, #0]
 800406c:	68da      	ldr	r2, [r3, #12]
 800406e:	f022 0280 	bic.w	r2, r2, #128	@ 0x80
 8004072:	b510      	push	{r4, lr}
 8004074:	60da      	str	r2, [r3, #12]
 8004076:	689b      	ldr	r3, [r3, #8]
 8004078:	069b      	lsls	r3, r3, #26
 800407a:	4604      	mov	r4, r0
 800407c:	d501      	bpl.n	8004082 <RTC_ExitInitMode+0x18>
 800407e:	2000      	movs	r0, #0
 8004080:	bd10      	pop	{r4, pc}
 8004082:	f7ff ffb9 	bl	8003ff8 <HAL_RTC_WaitForSynchro>
 8004086:	2800      	cmp	r0, #0
 8004088:	d0f9      	beq.n	800407e <RTC_ExitInitMode+0x14>
 800408a:	2304      	movs	r3, #4
 800408c:	7763      	strb	r3, [r4, #29]
 800408e:	2001      	movs	r0, #1
 8004090:	e7f6      	b.n	8004080 <RTC_ExitInitMode+0x16>

08004092 <HAL_RTC_Init>:
 8004092:	b510      	push	{r4, lr}
 8004094:	4604      	mov	r4, r0
 8004096:	2800      	cmp	r0, #0
 8004098:	d041      	beq.n	800411e <HAL_RTC_Init+0x8c>
 800409a:	7f43      	ldrb	r3, [r0, #29]
 800409c:	f003 02ff 	and.w	r2, r3, #255	@ 0xff
 80040a0:	b913      	cbnz	r3, 80040a8 <HAL_RTC_Init+0x16>
 80040a2:	7702      	strb	r2, [r0, #28]
 80040a4:	f7fd fe7a 	bl	8001d9c <HAL_RTC_MspInit>
 80040a8:	2302      	movs	r3, #2
 80040aa:	7763      	strb	r3, [r4, #29]
 80040ac:	6823      	ldr	r3, [r4, #0]
 80040ae:	68da      	ldr	r2, [r3, #12]
 80040b0:	06d2      	lsls	r2, r2, #27
 80040b2:	d503      	bpl.n	80040bc <HAL_RTC_Init+0x2a>
 80040b4:	2301      	movs	r3, #1
 80040b6:	7763      	strb	r3, [r4, #29]
 80040b8:	2000      	movs	r0, #0
 80040ba:	bd10      	pop	{r4, pc}
 80040bc:	22ca      	movs	r2, #202	@ 0xca
 80040be:	625a      	str	r2, [r3, #36]	@ 0x24
 80040c0:	2253      	movs	r2, #83	@ 0x53
 80040c2:	625a      	str	r2, [r3, #36]	@ 0x24
 80040c4:	4620      	mov	r0, r4
 80040c6:	f7ff ffaf 	bl	8004028 <RTC_EnterInitMode>
 80040ca:	bb10      	cbnz	r0, 8004112 <HAL_RTC_Init+0x80>
 80040cc:	6823      	ldr	r3, [r4, #0]
 80040ce:	6920      	ldr	r0, [r4, #16]
 80040d0:	689a      	ldr	r2, [r3, #8]
 80040d2:	f422 02e0 	bic.w	r2, r2, #7340032	@ 0x700000
 80040d6:	f022 0240 	bic.w	r2, r2, #64	@ 0x40
 80040da:	609a      	str	r2, [r3, #8]
 80040dc:	6862      	ldr	r2, [r4, #4]
 80040de:	6899      	ldr	r1, [r3, #8]
 80040e0:	4302      	orrs	r2, r0
 80040e2:	6960      	ldr	r0, [r4, #20]
 80040e4:	4302      	orrs	r2, r0
 80040e6:	430a      	orrs	r2, r1
 80040e8:	609a      	str	r2, [r3, #8]
 80040ea:	68e2      	ldr	r2, [r4, #12]
 80040ec:	611a      	str	r2, [r3, #16]
 80040ee:	691a      	ldr	r2, [r3, #16]
 80040f0:	68a1      	ldr	r1, [r4, #8]
 80040f2:	ea42 4201 	orr.w	r2, r2, r1, lsl #16
 80040f6:	611a      	str	r2, [r3, #16]
 80040f8:	4620      	mov	r0, r4
 80040fa:	f7ff ffb6 	bl	800406a <RTC_ExitInitMode>
 80040fe:	b940      	cbnz	r0, 8004112 <HAL_RTC_Init+0x80>
 8004100:	6823      	ldr	r3, [r4, #0]
 8004102:	69a1      	ldr	r1, [r4, #24]
 8004104:	6c1a      	ldr	r2, [r3, #64]	@ 0x40
 8004106:	f422 2280 	bic.w	r2, r2, #262144	@ 0x40000
 800410a:	641a      	str	r2, [r3, #64]	@ 0x40
 800410c:	6c1a      	ldr	r2, [r3, #64]	@ 0x40
 800410e:	430a      	orrs	r2, r1
 8004110:	641a      	str	r2, [r3, #64]	@ 0x40
 8004112:	6823      	ldr	r3, [r4, #0]
 8004114:	22ff      	movs	r2, #255	@ 0xff
 8004116:	625a      	str	r2, [r3, #36]	@ 0x24
 8004118:	2800      	cmp	r0, #0
 800411a:	d0cb      	beq.n	80040b4 <HAL_RTC_Init+0x22>
 800411c:	e7cd      	b.n	80040ba <HAL_RTC_Init+0x28>
 800411e:	2001      	movs	r0, #1
 8004120:	e7cb      	b.n	80040ba <HAL_RTC_Init+0x28>

08004122 <RTC_ByteToBcd2>:
 8004122:	2300      	movs	r3, #0
 8004124:	2809      	cmp	r0, #9
 8004126:	d803      	bhi.n	8004130 <RTC_ByteToBcd2+0xe>
 8004128:	ea40 1003 	orr.w	r0, r0, r3, lsl #4
 800412c:	b2c0      	uxtb	r0, r0
 800412e:	4770      	bx	lr
 8004130:	380a      	subs	r0, #10
 8004132:	3301      	adds	r3, #1
 8004134:	b2c0      	uxtb	r0, r0
 8004136:	e7f5      	b.n	8004124 <RTC_ByteToBcd2+0x2>

08004138 <HAL_RTC_SetTime>:
 8004138:	e92d 41f0 	stmdb	sp!, {r4, r5, r6, r7, r8, lr}
 800413c:	7f03      	ldrb	r3, [r0, #28]
 800413e:	2b01      	cmp	r3, #1
 8004140:	4606      	mov	r6, r0
 8004142:	460f      	mov	r7, r1
 8004144:	f04f 0002 	mov.w	r0, #2
 8004148:	d041      	beq.n	80041ce <HAL_RTC_SetTime+0x96>
 800414a:	2301      	movs	r3, #1
 800414c:	6831      	ldr	r1, [r6, #0]
 800414e:	7733      	strb	r3, [r6, #28]
 8004150:	7770      	strb	r0, [r6, #29]
 8004152:	7838      	ldrb	r0, [r7, #0]
 8004154:	787d      	ldrb	r5, [r7, #1]
 8004156:	78bc      	ldrb	r4, [r7, #2]
 8004158:	688b      	ldr	r3, [r1, #8]
 800415a:	2a00      	cmp	r2, #0
 800415c:	d139      	bne.n	80041d2 <HAL_RTC_SetTime+0x9a>
 800415e:	f013 0340 	ands.w	r3, r3, #64	@ 0x40
 8004162:	bf08      	it	eq
 8004164:	70fb      	strbeq	r3, [r7, #3]
 8004166:	f7ff ffdc 	bl	8004122 <RTC_ByteToBcd2>
 800416a:	4680      	mov	r8, r0
 800416c:	4628      	mov	r0, r5
 800416e:	f7ff ffd8 	bl	8004122 <RTC_ByteToBcd2>
 8004172:	4602      	mov	r2, r0
 8004174:	4620      	mov	r0, r4
 8004176:	f7ff ffd4 	bl	8004122 <RTC_ByteToBcd2>
 800417a:	78fb      	ldrb	r3, [r7, #3]
 800417c:	ea40 5383 	orr.w	r3, r0, r3, lsl #22
 8004180:	ea43 4308 	orr.w	r3, r3, r8, lsl #16
 8004184:	ea43 2402 	orr.w	r4, r3, r2, lsl #8
 8004188:	23ca      	movs	r3, #202	@ 0xca
 800418a:	624b      	str	r3, [r1, #36]	@ 0x24
 800418c:	2353      	movs	r3, #83	@ 0x53
 800418e:	624b      	str	r3, [r1, #36]	@ 0x24
 8004190:	4630      	mov	r0, r6
 8004192:	f7ff ff49 	bl	8004028 <RTC_EnterInitMode>
 8004196:	b9a8      	cbnz	r0, 80041c4 <HAL_RTC_SetTime+0x8c>
 8004198:	6832      	ldr	r2, [r6, #0]
 800419a:	f004 347f 	and.w	r4, r4, #2139062143	@ 0x7f7f7f7f
 800419e:	f024 44fe 	bic.w	r4, r4, #2130706432	@ 0x7f000000
 80041a2:	6014      	str	r4, [r2, #0]
 80041a4:	6893      	ldr	r3, [r2, #8]
 80041a6:	f423 2380 	bic.w	r3, r3, #262144	@ 0x40000
 80041aa:	6093      	str	r3, [r2, #8]
 80041ac:	e9d7 3003 	ldrd	r3, r0, [r7, #12]
 80041b0:	6891      	ldr	r1, [r2, #8]
 80041b2:	4303      	orrs	r3, r0
 80041b4:	430b      	orrs	r3, r1
 80041b6:	6093      	str	r3, [r2, #8]
 80041b8:	4630      	mov	r0, r6
 80041ba:	f7ff ff56 	bl	800406a <RTC_ExitInitMode>
 80041be:	b908      	cbnz	r0, 80041c4 <HAL_RTC_SetTime+0x8c>
 80041c0:	2301      	movs	r3, #1
 80041c2:	7773      	strb	r3, [r6, #29]
 80041c4:	6833      	ldr	r3, [r6, #0]
 80041c6:	22ff      	movs	r2, #255	@ 0xff
 80041c8:	625a      	str	r2, [r3, #36]	@ 0x24
 80041ca:	2300      	movs	r3, #0
 80041cc:	7733      	strb	r3, [r6, #28]
 80041ce:	e8bd 81f0 	ldmia.w	sp!, {r4, r5, r6, r7, r8, pc}
 80041d2:	f013 0340 	ands.w	r3, r3, #64	@ 0x40
 80041d6:	bf08      	it	eq
 80041d8:	70fb      	strbeq	r3, [r7, #3]
 80041da:	022d      	lsls	r5, r5, #8
 80041dc:	78fa      	ldrb	r2, [r7, #3]
 80041de:	ea45 4500 	orr.w	r5, r5, r0, lsl #16
 80041e2:	ea45 0304 	orr.w	r3, r5, r4
 80041e6:	ea43 5482 	orr.w	r4, r3, r2, lsl #22
 80041ea:	e7cd      	b.n	8004188 <HAL_RTC_SetTime+0x50>

080041ec <HAL_RTC_SetDate>:
 80041ec:	b5f8      	push	{r3, r4, r5, r6, r7, lr}
 80041ee:	7f03      	ldrb	r3, [r0, #28]
 80041f0:	2b01      	cmp	r3, #1
 80041f2:	4605      	mov	r5, r0
 80041f4:	f04f 0002 	mov.w	r0, #2
 80041f8:	d027      	beq.n	800424a <HAL_RTC_SetDate+0x5e>
 80041fa:	2301      	movs	r3, #1
 80041fc:	772b      	strb	r3, [r5, #28]
 80041fe:	7768      	strb	r0, [r5, #29]
 8004200:	780e      	ldrb	r6, [r1, #0]
 8004202:	78c8      	ldrb	r0, [r1, #3]
 8004204:	784c      	ldrb	r4, [r1, #1]
 8004206:	788f      	ldrb	r7, [r1, #2]
 8004208:	0376      	lsls	r6, r6, #13
 800420a:	b1fa      	cbz	r2, 800424c <HAL_RTC_SetDate+0x60>
 800420c:	ea46 4300 	orr.w	r3, r6, r0, lsl #16
 8004210:	433b      	orrs	r3, r7
 8004212:	ea43 2404 	orr.w	r4, r3, r4, lsl #8
 8004216:	682b      	ldr	r3, [r5, #0]
 8004218:	22ca      	movs	r2, #202	@ 0xca
 800421a:	625a      	str	r2, [r3, #36]	@ 0x24
 800421c:	2253      	movs	r2, #83	@ 0x53
 800421e:	625a      	str	r2, [r3, #36]	@ 0x24
 8004220:	4628      	mov	r0, r5
 8004222:	f7ff ff01 	bl	8004028 <RTC_EnterInitMode>
 8004226:	b958      	cbnz	r0, 8004240 <HAL_RTC_SetDate+0x54>
 8004228:	682a      	ldr	r2, [r5, #0]
 800422a:	f024 447f 	bic.w	r4, r4, #4278190080	@ 0xff000000
 800422e:	f024 04c0 	bic.w	r4, r4, #192	@ 0xc0
 8004232:	6054      	str	r4, [r2, #4]
 8004234:	4628      	mov	r0, r5
 8004236:	f7ff ff18 	bl	800406a <RTC_ExitInitMode>
 800423a:	b908      	cbnz	r0, 8004240 <HAL_RTC_SetDate+0x54>
 800423c:	2301      	movs	r3, #1
 800423e:	776b      	strb	r3, [r5, #29]
 8004240:	682b      	ldr	r3, [r5, #0]
 8004242:	22ff      	movs	r2, #255	@ 0xff
 8004244:	625a      	str	r2, [r3, #36]	@ 0x24
 8004246:	2300      	movs	r3, #0
 8004248:	772b      	strb	r3, [r5, #28]
 800424a:	bdf8      	pop	{r3, r4, r5, r6, r7, pc}
 800424c:	06e3      	lsls	r3, r4, #27
 800424e:	bf42      	ittt	mi
 8004250:	f024 0410 	bicmi.w	r4, r4, #16
 8004254:	340a      	addmi	r4, #10
 8004256:	704c      	strbmi	r4, [r1, #1]
 8004258:	f7ff ff63 	bl	8004122 <RTC_ByteToBcd2>
 800425c:	4604      	mov	r4, r0
 800425e:	7848      	ldrb	r0, [r1, #1]
 8004260:	f7ff ff5f 	bl	8004122 <RTC_ByteToBcd2>
 8004264:	4602      	mov	r2, r0
 8004266:	4638      	mov	r0, r7
 8004268:	f7ff ff5b 	bl	8004122 <RTC_ByteToBcd2>
 800426c:	ea40 0306 	orr.w	r3, r0, r6
 8004270:	ea43 4304 	orr.w	r3, r3, r4, lsl #16
 8004274:	ea43 2402 	orr.w	r4, r3, r2, lsl #8
 8004278:	e7cd      	b.n	8004216 <HAL_RTC_SetDate+0x2a>

0800427a <RTC_Bcd2ToByte>:
 800427a:	0903      	lsrs	r3, r0, #4
 800427c:	eb03 0383 	add.w	r3, r3, r3, lsl #2
 8004280:	f000 000f 	and.w	r0, r0, #15
 8004284:	eb00 0043 	add.w	r0, r0, r3, lsl #1
 8004288:	b2c0      	uxtb	r0, r0
 800428a:	4770      	bx	lr

0800428c <HAL_RTC_GetTime>:
 800428c:	b538      	push	{r3, r4, r5, lr}
 800428e:	6803      	ldr	r3, [r0, #0]
 8004290:	6a98      	ldr	r0, [r3, #40]	@ 0x28
 8004292:	6048      	str	r0, [r1, #4]
 8004294:	6918      	ldr	r0, [r3, #16]
 8004296:	681b      	ldr	r3, [r3, #0]
 8004298:	f3c0 000e 	ubfx	r0, r0, #0, #15
 800429c:	f3c3 2506 	ubfx	r5, r3, #8, #7
 80042a0:	f003 047f 	and.w	r4, r3, #127	@ 0x7f
 80042a4:	6088      	str	r0, [r1, #8]
 80042a6:	f3c3 4005 	ubfx	r0, r3, #16, #6
 80042aa:	f3c3 5380 	ubfx	r3, r3, #22, #1
 80042ae:	7008      	strb	r0, [r1, #0]
 80042b0:	704d      	strb	r5, [r1, #1]
 80042b2:	708c      	strb	r4, [r1, #2]
 80042b4:	70cb      	strb	r3, [r1, #3]
 80042b6:	b952      	cbnz	r2, 80042ce <HAL_RTC_GetTime+0x42>
 80042b8:	f7ff ffdf 	bl	800427a <RTC_Bcd2ToByte>
 80042bc:	7008      	strb	r0, [r1, #0]
 80042be:	4628      	mov	r0, r5
 80042c0:	f7ff ffdb 	bl	800427a <RTC_Bcd2ToByte>
 80042c4:	7048      	strb	r0, [r1, #1]
 80042c6:	4620      	mov	r0, r4
 80042c8:	f7ff ffd7 	bl	800427a <RTC_Bcd2ToByte>
 80042cc:	7088      	strb	r0, [r1, #2]
 80042ce:	2000      	movs	r0, #0
 80042d0:	bd38      	pop	{r3, r4, r5, pc}

080042d2 <HAL_RTC_GetDate>:
 80042d2:	b538      	push	{r3, r4, r5, lr}
 80042d4:	6803      	ldr	r3, [r0, #0]
 80042d6:	685b      	ldr	r3, [r3, #4]
 80042d8:	f3c3 4007 	ubfx	r0, r3, #16, #8
 80042dc:	f3c3 2504 	ubfx	r5, r3, #8, #5
 80042e0:	f003 043f 	and.w	r4, r3, #63	@ 0x3f
 80042e4:	f3c3 3342 	ubfx	r3, r3, #13, #3
 80042e8:	70c8      	strb	r0, [r1, #3]
 80042ea:	704d      	strb	r5, [r1, #1]
 80042ec:	708c      	strb	r4, [r1, #2]
 80042ee:	700b      	strb	r3, [r1, #0]
 80042f0:	b952      	cbnz	r2, 8004308 <HAL_RTC_GetDate+0x36>
 80042f2:	f7ff ffc2 	bl	800427a <RTC_Bcd2ToByte>
 80042f6:	70c8      	strb	r0, [r1, #3]
 80042f8:	4628      	mov	r0, r5
 80042fa:	f7ff ffbe 	bl	800427a <RTC_Bcd2ToByte>
 80042fe:	7048      	strb	r0, [r1, #1]
 8004300:	4620      	mov	r0, r4
 8004302:	f7ff ffba 	bl	800427a <RTC_Bcd2ToByte>
 8004306:	7088      	strb	r0, [r1, #2]
 8004308:	2000      	movs	r0, #0
 800430a:	bd38      	pop	{r3, r4, r5, pc}

0800430c <SPI_WaitFlagStateUntilTimeout>:
 800430c:	e92d 47f3 	stmdb	sp!, {r0, r1, r4, r5, r6, r7, r8, r9, sl, lr}
 8004310:	461f      	mov	r7, r3
 8004312:	4689      	mov	r9, r1
 8004314:	4690      	mov	r8, r2
 8004316:	4604      	mov	r4, r0
 8004318:	f7fd ffbc 	bl	8002294 <HAL_GetTick>
 800431c:	9d0a      	ldr	r5, [sp, #40]	@ 0x28
 800431e:	443d      	add	r5, r7
 8004320:	1a2d      	subs	r5, r5, r0
 8004322:	f7fd ffb7 	bl	8002294 <HAL_GetTick>
 8004326:	4b26      	ldr	r3, [pc, #152]	@ (80043c0 <SPI_WaitFlagStateUntilTimeout+0xb4>)
 8004328:	681e      	ldr	r6, [r3, #0]
 800432a:	f3c6 36cb 	ubfx	r6, r6, #15, #12
 800432e:	436e      	muls	r6, r5
 8004330:	4682      	mov	sl, r0
 8004332:	9601      	str	r6, [sp, #4]
 8004334:	6822      	ldr	r2, [r4, #0]
 8004336:	6893      	ldr	r3, [r2, #8]
 8004338:	ea39 0303 	bics.w	r3, r9, r3
 800433c:	bf0c      	ite	eq
 800433e:	2301      	moveq	r3, #1
 8004340:	2300      	movne	r3, #0
 8004342:	4543      	cmp	r3, r8
 8004344:	d101      	bne.n	800434a <SPI_WaitFlagStateUntilTimeout+0x3e>
 8004346:	2000      	movs	r0, #0
 8004348:	e02e      	b.n	80043a8 <SPI_WaitFlagStateUntilTimeout+0x9c>
 800434a:	1c7b      	adds	r3, r7, #1
 800434c:	d0f3      	beq.n	8004336 <SPI_WaitFlagStateUntilTimeout+0x2a>
 800434e:	f7fd ffa1 	bl	8002294 <HAL_GetTick>
 8004352:	eba0 000a 	sub.w	r0, r0, sl
 8004356:	42a8      	cmp	r0, r5
 8004358:	d329      	bcc.n	80043ae <SPI_WaitFlagStateUntilTimeout+0xa2>
 800435a:	6823      	ldr	r3, [r4, #0]
 800435c:	685a      	ldr	r2, [r3, #4]
 800435e:	f022 02e0 	bic.w	r2, r2, #224	@ 0xe0
 8004362:	605a      	str	r2, [r3, #4]
 8004364:	6862      	ldr	r2, [r4, #4]
 8004366:	f5b2 7f82 	cmp.w	r2, #260	@ 0x104
 800436a:	d10a      	bne.n	8004382 <SPI_WaitFlagStateUntilTimeout+0x76>
 800436c:	68a2      	ldr	r2, [r4, #8]
 800436e:	f5b2 4f00 	cmp.w	r2, #32768	@ 0x8000
 8004372:	d002      	beq.n	800437a <SPI_WaitFlagStateUntilTimeout+0x6e>
 8004374:	f5b2 6f80 	cmp.w	r2, #1024	@ 0x400
 8004378:	d103      	bne.n	8004382 <SPI_WaitFlagStateUntilTimeout+0x76>
 800437a:	681a      	ldr	r2, [r3, #0]
 800437c:	f022 0240 	bic.w	r2, r2, #64	@ 0x40
 8004380:	601a      	str	r2, [r3, #0]
 8004382:	6aa2      	ldr	r2, [r4, #40]	@ 0x28
 8004384:	f5b2 5f00 	cmp.w	r2, #8192	@ 0x2000
 8004388:	d107      	bne.n	800439a <SPI_WaitFlagStateUntilTimeout+0x8e>
 800438a:	681a      	ldr	r2, [r3, #0]
 800438c:	f422 5200 	bic.w	r2, r2, #8192	@ 0x2000
 8004390:	601a      	str	r2, [r3, #0]
 8004392:	681a      	ldr	r2, [r3, #0]
 8004394:	f442 5200 	orr.w	r2, r2, #8192	@ 0x2000
 8004398:	601a      	str	r2, [r3, #0]
 800439a:	2301      	movs	r3, #1
 800439c:	f884 3051 	strb.w	r3, [r4, #81]	@ 0x51
 80043a0:	2300      	movs	r3, #0
 80043a2:	f884 3050 	strb.w	r3, [r4, #80]	@ 0x50
 80043a6:	2003      	movs	r0, #3
 80043a8:	b002      	add	sp, #8
 80043aa:	e8bd 87f0 	ldmia.w	sp!, {r4, r5, r6, r7, r8, r9, sl, pc}
 80043ae:	9a01      	ldr	r2, [sp, #4]
 80043b0:	9b01      	ldr	r3, [sp, #4]
 80043b2:	2a00      	cmp	r2, #0
 80043b4:	f103 33ff 	add.w	r3, r3, #4294967295	@ 0xffffffff
 80043b8:	9301      	str	r3, [sp, #4]
 80043ba:	bf08      	it	eq
 80043bc:	4615      	moveq	r5, r2
 80043be:	e7b9      	b.n	8004334 <SPI_WaitFlagStateUntilTimeout+0x28>
 80043c0:	2000001c 	.word	0x2000001c

080043c4 <SPI_EndRxTxTransaction>:
 80043c4:	b5f0      	push	{r4, r5, r6, r7, lr}
 80043c6:	b085      	sub	sp, #20
 80043c8:	460b      	mov	r3, r1
 80043ca:	9200      	str	r2, [sp, #0]
 80043cc:	460e      	mov	r6, r1
 80043ce:	4617      	mov	r7, r2
 80043d0:	2102      	movs	r1, #2
 80043d2:	2201      	movs	r2, #1
 80043d4:	4604      	mov	r4, r0
 80043d6:	f7ff ff99 	bl	800430c <SPI_WaitFlagStateUntilTimeout>
 80043da:	4605      	mov	r5, r0
 80043dc:	b128      	cbz	r0, 80043ea <SPI_EndRxTxTransaction+0x26>
 80043de:	6d63      	ldr	r3, [r4, #84]	@ 0x54
 80043e0:	f043 0320 	orr.w	r3, r3, #32
 80043e4:	6563      	str	r3, [r4, #84]	@ 0x54
 80043e6:	2503      	movs	r5, #3
 80043e8:	e015      	b.n	8004416 <SPI_EndRxTxTransaction+0x52>
 80043ea:	4b12      	ldr	r3, [pc, #72]	@ (8004434 <SPI_EndRxTxTransaction+0x70>)
 80043ec:	6818      	ldr	r0, [r3, #0]
 80043ee:	4b12      	ldr	r3, [pc, #72]	@ (8004438 <SPI_EndRxTxTransaction+0x74>)
 80043f0:	fbb0 f0f3 	udiv	r0, r0, r3
 80043f4:	f44f 737a 	mov.w	r3, #1000	@ 0x3e8
 80043f8:	4358      	muls	r0, r3
 80043fa:	6863      	ldr	r3, [r4, #4]
 80043fc:	9003      	str	r0, [sp, #12]
 80043fe:	f5b3 7f82 	cmp.w	r3, #260	@ 0x104
 8004402:	d10b      	bne.n	800441c <SPI_EndRxTxTransaction+0x58>
 8004404:	9700      	str	r7, [sp, #0]
 8004406:	4633      	mov	r3, r6
 8004408:	462a      	mov	r2, r5
 800440a:	2180      	movs	r1, #128	@ 0x80
 800440c:	4620      	mov	r0, r4
 800440e:	f7ff ff7d 	bl	800430c <SPI_WaitFlagStateUntilTimeout>
 8004412:	2800      	cmp	r0, #0
 8004414:	d1e3      	bne.n	80043de <SPI_EndRxTxTransaction+0x1a>
 8004416:	4628      	mov	r0, r5
 8004418:	b005      	add	sp, #20
 800441a:	bdf0      	pop	{r4, r5, r6, r7, pc}
 800441c:	9b03      	ldr	r3, [sp, #12]
 800441e:	2b00      	cmp	r3, #0
 8004420:	d0f9      	beq.n	8004416 <SPI_EndRxTxTransaction+0x52>
 8004422:	9b03      	ldr	r3, [sp, #12]
 8004424:	3b01      	subs	r3, #1
 8004426:	9303      	str	r3, [sp, #12]
 8004428:	6823      	ldr	r3, [r4, #0]
 800442a:	689b      	ldr	r3, [r3, #8]
 800442c:	061b      	lsls	r3, r3, #24
 800442e:	d4f5      	bmi.n	800441c <SPI_EndRxTxTransaction+0x58>
 8004430:	e7f1      	b.n	8004416 <SPI_EndRxTxTransaction+0x52>
 8004432:	bf00      	nop
 8004434:	2000001c 	.word	0x2000001c
 8004438:	016e3600 	.word	0x016e3600

0800443c <SPI_EndRxTransaction>:
 800443c:	b537      	push	{r0, r1, r2, r4, r5, lr}
 800443e:	460b      	mov	r3, r1
 8004440:	6841      	ldr	r1, [r0, #4]
 8004442:	f5b1 7f82 	cmp.w	r1, #260	@ 0x104
 8004446:	4604      	mov	r4, r0
 8004448:	d008      	beq.n	800445c <SPI_EndRxTransaction+0x20>
 800444a:	9200      	str	r2, [sp, #0]
 800444c:	2101      	movs	r1, #1
 800444e:	2200      	movs	r2, #0
 8004450:	f7ff ff5c 	bl	800430c <SPI_WaitFlagStateUntilTimeout>
 8004454:	b9d0      	cbnz	r0, 800448c <SPI_EndRxTransaction+0x50>
 8004456:	2000      	movs	r0, #0
 8004458:	b003      	add	sp, #12
 800445a:	bd30      	pop	{r4, r5, pc}
 800445c:	6881      	ldr	r1, [r0, #8]
 800445e:	f5b1 4f00 	cmp.w	r1, #32768	@ 0x8000
 8004462:	d002      	beq.n	800446a <SPI_EndRxTransaction+0x2e>
 8004464:	f5b1 6f80 	cmp.w	r1, #1024	@ 0x400
 8004468:	d107      	bne.n	800447a <SPI_EndRxTransaction+0x3e>
 800446a:	6825      	ldr	r5, [r4, #0]
 800446c:	6828      	ldr	r0, [r5, #0]
 800446e:	f5b1 6f80 	cmp.w	r1, #1024	@ 0x400
 8004472:	f020 0040 	bic.w	r0, r0, #64	@ 0x40
 8004476:	6028      	str	r0, [r5, #0]
 8004478:	d004      	beq.n	8004484 <SPI_EndRxTransaction+0x48>
 800447a:	9200      	str	r2, [sp, #0]
 800447c:	2180      	movs	r1, #128	@ 0x80
 800447e:	2200      	movs	r2, #0
 8004480:	4620      	mov	r0, r4
 8004482:	e7e5      	b.n	8004450 <SPI_EndRxTransaction+0x14>
 8004484:	9200      	str	r2, [sp, #0]
 8004486:	2101      	movs	r1, #1
 8004488:	2200      	movs	r2, #0
 800448a:	e7f9      	b.n	8004480 <SPI_EndRxTransaction+0x44>
 800448c:	6d63      	ldr	r3, [r4, #84]	@ 0x54
 800448e:	f043 0320 	orr.w	r3, r3, #32
 8004492:	6563      	str	r3, [r4, #84]	@ 0x54
 8004494:	2003      	movs	r0, #3
 8004496:	e7df      	b.n	8004458 <SPI_EndRxTransaction+0x1c>

08004498 <HAL_SPI_Init>:
 8004498:	b510      	push	{r4, lr}
 800449a:	4604      	mov	r4, r0
 800449c:	2800      	cmp	r0, #0
 800449e:	d055      	beq.n	800454c <HAL_SPI_Init+0xb4>
 80044a0:	6a43      	ldr	r3, [r0, #36]	@ 0x24
 80044a2:	2b00      	cmp	r3, #0
 80044a4:	d14e      	bne.n	8004544 <HAL_SPI_Init+0xac>
 80044a6:	6842      	ldr	r2, [r0, #4]
 80044a8:	f5b2 7f82 	cmp.w	r2, #260	@ 0x104
 80044ac:	d000      	beq.n	80044b0 <HAL_SPI_Init+0x18>
 80044ae:	61c3      	str	r3, [r0, #28]
 80044b0:	2300      	movs	r3, #0
 80044b2:	62a3      	str	r3, [r4, #40]	@ 0x28
 80044b4:	f894 3051 	ldrb.w	r3, [r4, #81]	@ 0x51
 80044b8:	f003 02ff 	and.w	r2, r3, #255	@ 0xff
 80044bc:	b923      	cbnz	r3, 80044c8 <HAL_SPI_Init+0x30>
 80044be:	f884 2050 	strb.w	r2, [r4, #80]	@ 0x50
 80044c2:	4620      	mov	r0, r4
 80044c4:	f7fd fc8c 	bl	8001de0 <HAL_SPI_MspInit>
 80044c8:	6821      	ldr	r1, [r4, #0]
 80044ca:	68a0      	ldr	r0, [r4, #8]
 80044cc:	69a2      	ldr	r2, [r4, #24]
 80044ce:	2302      	movs	r3, #2
 80044d0:	f884 3051 	strb.w	r3, [r4, #81]	@ 0x51
 80044d4:	680b      	ldr	r3, [r1, #0]
 80044d6:	f023 0340 	bic.w	r3, r3, #64	@ 0x40
 80044da:	600b      	str	r3, [r1, #0]
 80044dc:	6863      	ldr	r3, [r4, #4]
 80044de:	f400 4004 	and.w	r0, r0, #33792	@ 0x8400
 80044e2:	f403 7382 	and.w	r3, r3, #260	@ 0x104
 80044e6:	4303      	orrs	r3, r0
 80044e8:	68e0      	ldr	r0, [r4, #12]
 80044ea:	f400 6000 	and.w	r0, r0, #2048	@ 0x800
 80044ee:	4303      	orrs	r3, r0
 80044f0:	6920      	ldr	r0, [r4, #16]
 80044f2:	f000 0002 	and.w	r0, r0, #2
 80044f6:	4303      	orrs	r3, r0
 80044f8:	6960      	ldr	r0, [r4, #20]
 80044fa:	f000 0001 	and.w	r0, r0, #1
 80044fe:	4303      	orrs	r3, r0
 8004500:	f402 7000 	and.w	r0, r2, #512	@ 0x200
 8004504:	4303      	orrs	r3, r0
 8004506:	69e0      	ldr	r0, [r4, #28]
 8004508:	f000 0038 	and.w	r0, r0, #56	@ 0x38
 800450c:	4303      	orrs	r3, r0
 800450e:	6a20      	ldr	r0, [r4, #32]
 8004510:	f000 0080 	and.w	r0, r0, #128	@ 0x80
 8004514:	4303      	orrs	r3, r0
 8004516:	6aa0      	ldr	r0, [r4, #40]	@ 0x28
 8004518:	f400 5000 	and.w	r0, r0, #8192	@ 0x2000
 800451c:	4303      	orrs	r3, r0
 800451e:	600b      	str	r3, [r1, #0]
 8004520:	6a63      	ldr	r3, [r4, #36]	@ 0x24
 8004522:	0c12      	lsrs	r2, r2, #16
 8004524:	f003 0310 	and.w	r3, r3, #16
 8004528:	f002 0204 	and.w	r2, r2, #4
 800452c:	431a      	orrs	r2, r3
 800452e:	604a      	str	r2, [r1, #4]
 8004530:	69cb      	ldr	r3, [r1, #28]
 8004532:	f423 6300 	bic.w	r3, r3, #2048	@ 0x800
 8004536:	61cb      	str	r3, [r1, #28]
 8004538:	2000      	movs	r0, #0
 800453a:	2301      	movs	r3, #1
 800453c:	6560      	str	r0, [r4, #84]	@ 0x54
 800453e:	f884 3051 	strb.w	r3, [r4, #81]	@ 0x51
 8004542:	bd10      	pop	{r4, pc}
 8004544:	2300      	movs	r3, #0
 8004546:	e9c0 3304 	strd	r3, r3, [r0, #16]
 800454a:	e7b1      	b.n	80044b0 <HAL_SPI_Init+0x18>
 800454c:	2001      	movs	r0, #1
 800454e:	e7f8      	b.n	8004542 <HAL_SPI_Init+0xaa>

08004550 <HAL_SPI_Transmit>:
 8004550:	e92d 47f3 	stmdb	sp!, {r0, r1, r4, r5, r6, r7, r8, r9, sl, lr}
 8004554:	461f      	mov	r7, r3
 8004556:	f890 3050 	ldrb.w	r3, [r0, #80]	@ 0x50
 800455a:	2b01      	cmp	r3, #1
 800455c:	4604      	mov	r4, r0
 800455e:	460d      	mov	r5, r1
 8004560:	4690      	mov	r8, r2
 8004562:	f000 80a6 	beq.w	80046b2 <HAL_SPI_Transmit+0x162>
 8004566:	2301      	movs	r3, #1
 8004568:	f880 3050 	strb.w	r3, [r0, #80]	@ 0x50
 800456c:	f7fd fe92 	bl	8002294 <HAL_GetTick>
 8004570:	f894 3051 	ldrb.w	r3, [r4, #81]	@ 0x51
 8004574:	2b01      	cmp	r3, #1
 8004576:	4682      	mov	sl, r0
 8004578:	fa5f f983 	uxtb.w	r9, r3
 800457c:	f040 8096 	bne.w	80046ac <HAL_SPI_Transmit+0x15c>
 8004580:	2d00      	cmp	r5, #0
 8004582:	d067      	beq.n	8004654 <HAL_SPI_Transmit+0x104>
 8004584:	f1b8 0f00 	cmp.w	r8, #0
 8004588:	d064      	beq.n	8004654 <HAL_SPI_Transmit+0x104>
 800458a:	2303      	movs	r3, #3
 800458c:	f884 3051 	strb.w	r3, [r4, #81]	@ 0x51
 8004590:	2300      	movs	r3, #0
 8004592:	6563      	str	r3, [r4, #84]	@ 0x54
 8004594:	e9c4 3310 	strd	r3, r3, [r4, #64]	@ 0x40
 8004598:	f8a4 8036 	strh.w	r8, [r4, #54]	@ 0x36
 800459c:	63a3      	str	r3, [r4, #56]	@ 0x38
 800459e:	87a3      	strh	r3, [r4, #60]	@ 0x3c
 80045a0:	87e3      	strh	r3, [r4, #62]	@ 0x3e
 80045a2:	68a3      	ldr	r3, [r4, #8]
 80045a4:	6826      	ldr	r6, [r4, #0]
 80045a6:	6325      	str	r5, [r4, #48]	@ 0x30
 80045a8:	f5b3 4f00 	cmp.w	r3, #32768	@ 0x8000
 80045ac:	f8a4 8034 	strh.w	r8, [r4, #52]	@ 0x34
 80045b0:	d107      	bne.n	80045c2 <HAL_SPI_Transmit+0x72>
 80045b2:	6833      	ldr	r3, [r6, #0]
 80045b4:	f023 0340 	bic.w	r3, r3, #64	@ 0x40
 80045b8:	6033      	str	r3, [r6, #0]
 80045ba:	6833      	ldr	r3, [r6, #0]
 80045bc:	f443 4380 	orr.w	r3, r3, #16384	@ 0x4000
 80045c0:	6033      	str	r3, [r6, #0]
 80045c2:	6833      	ldr	r3, [r6, #0]
 80045c4:	6862      	ldr	r2, [r4, #4]
 80045c6:	065b      	lsls	r3, r3, #25
 80045c8:	bf5e      	ittt	pl
 80045ca:	6833      	ldrpl	r3, [r6, #0]
 80045cc:	f043 0340 	orrpl.w	r3, r3, #64	@ 0x40
 80045d0:	6033      	strpl	r3, [r6, #0]
 80045d2:	68e3      	ldr	r3, [r4, #12]
 80045d4:	f5b3 6f00 	cmp.w	r3, #2048	@ 0x800
 80045d8:	d143      	bne.n	8004662 <HAL_SPI_Transmit+0x112>
 80045da:	b112      	cbz	r2, 80045e2 <HAL_SPI_Transmit+0x92>
 80045dc:	f1b8 0f01 	cmp.w	r8, #1
 80045e0:	d107      	bne.n	80045f2 <HAL_SPI_Transmit+0xa2>
 80045e2:	f835 3b02 	ldrh.w	r3, [r5], #2
 80045e6:	60f3      	str	r3, [r6, #12]
 80045e8:	6325      	str	r5, [r4, #48]	@ 0x30
 80045ea:	8ee3      	ldrh	r3, [r4, #54]	@ 0x36
 80045ec:	3b01      	subs	r3, #1
 80045ee:	b29b      	uxth	r3, r3
 80045f0:	86e3      	strh	r3, [r4, #54]	@ 0x36
 80045f2:	8ee3      	ldrh	r3, [r4, #54]	@ 0x36
 80045f4:	b29b      	uxth	r3, r3
 80045f6:	b9b3      	cbnz	r3, 8004626 <HAL_SPI_Transmit+0xd6>
 80045f8:	4652      	mov	r2, sl
 80045fa:	4639      	mov	r1, r7
 80045fc:	4620      	mov	r0, r4
 80045fe:	f7ff fee1 	bl	80043c4 <SPI_EndRxTxTransaction>
 8004602:	2800      	cmp	r0, #0
 8004604:	d14f      	bne.n	80046a6 <HAL_SPI_Transmit+0x156>
 8004606:	68a3      	ldr	r3, [r4, #8]
 8004608:	b933      	cbnz	r3, 8004618 <HAL_SPI_Transmit+0xc8>
 800460a:	9301      	str	r3, [sp, #4]
 800460c:	6823      	ldr	r3, [r4, #0]
 800460e:	68da      	ldr	r2, [r3, #12]
 8004610:	9201      	str	r2, [sp, #4]
 8004612:	689b      	ldr	r3, [r3, #8]
 8004614:	9301      	str	r3, [sp, #4]
 8004616:	9b01      	ldr	r3, [sp, #4]
 8004618:	6d63      	ldr	r3, [r4, #84]	@ 0x54
 800461a:	b9db      	cbnz	r3, 8004654 <HAL_SPI_Transmit+0x104>
 800461c:	2201      	movs	r2, #1
 800461e:	f884 2051 	strb.w	r2, [r4, #81]	@ 0x51
 8004622:	4699      	mov	r9, r3
 8004624:	e016      	b.n	8004654 <HAL_SPI_Transmit+0x104>
 8004626:	6822      	ldr	r2, [r4, #0]
 8004628:	6893      	ldr	r3, [r2, #8]
 800462a:	0798      	lsls	r0, r3, #30
 800462c:	d505      	bpl.n	800463a <HAL_SPI_Transmit+0xea>
 800462e:	6b23      	ldr	r3, [r4, #48]	@ 0x30
 8004630:	f833 1b02 	ldrh.w	r1, [r3], #2
 8004634:	60d1      	str	r1, [r2, #12]
 8004636:	6323      	str	r3, [r4, #48]	@ 0x30
 8004638:	e7d7      	b.n	80045ea <HAL_SPI_Transmit+0x9a>
 800463a:	f7fd fe2b 	bl	8002294 <HAL_GetTick>
 800463e:	eba0 000a 	sub.w	r0, r0, sl
 8004642:	42b8      	cmp	r0, r7
 8004644:	d3d5      	bcc.n	80045f2 <HAL_SPI_Transmit+0xa2>
 8004646:	1c79      	adds	r1, r7, #1
 8004648:	d0d3      	beq.n	80045f2 <HAL_SPI_Transmit+0xa2>
 800464a:	2301      	movs	r3, #1
 800464c:	f884 3051 	strb.w	r3, [r4, #81]	@ 0x51
 8004650:	f04f 0903 	mov.w	r9, #3
 8004654:	2300      	movs	r3, #0
 8004656:	f884 3050 	strb.w	r3, [r4, #80]	@ 0x50
 800465a:	4648      	mov	r0, r9
 800465c:	b002      	add	sp, #8
 800465e:	e8bd 87f0 	ldmia.w	sp!, {r4, r5, r6, r7, r8, r9, sl, pc}
 8004662:	b112      	cbz	r2, 800466a <HAL_SPI_Transmit+0x11a>
 8004664:	f1b8 0f01 	cmp.w	r8, #1
 8004668:	d108      	bne.n	800467c <HAL_SPI_Transmit+0x12c>
 800466a:	782b      	ldrb	r3, [r5, #0]
 800466c:	7333      	strb	r3, [r6, #12]
 800466e:	6b23      	ldr	r3, [r4, #48]	@ 0x30
 8004670:	3301      	adds	r3, #1
 8004672:	6323      	str	r3, [r4, #48]	@ 0x30
 8004674:	8ee3      	ldrh	r3, [r4, #54]	@ 0x36
 8004676:	3b01      	subs	r3, #1
 8004678:	b29b      	uxth	r3, r3
 800467a:	86e3      	strh	r3, [r4, #54]	@ 0x36
 800467c:	8ee3      	ldrh	r3, [r4, #54]	@ 0x36
 800467e:	b29b      	uxth	r3, r3
 8004680:	2b00      	cmp	r3, #0
 8004682:	d0b9      	beq.n	80045f8 <HAL_SPI_Transmit+0xa8>
 8004684:	6823      	ldr	r3, [r4, #0]
 8004686:	689a      	ldr	r2, [r3, #8]
 8004688:	0792      	lsls	r2, r2, #30
 800468a:	d503      	bpl.n	8004694 <HAL_SPI_Transmit+0x144>
 800468c:	6b22      	ldr	r2, [r4, #48]	@ 0x30
 800468e:	7812      	ldrb	r2, [r2, #0]
 8004690:	731a      	strb	r2, [r3, #12]
 8004692:	e7ec      	b.n	800466e <HAL_SPI_Transmit+0x11e>
 8004694:	f7fd fdfe 	bl	8002294 <HAL_GetTick>
 8004698:	eba0 000a 	sub.w	r0, r0, sl
 800469c:	42b8      	cmp	r0, r7
 800469e:	d3ed      	bcc.n	800467c <HAL_SPI_Transmit+0x12c>
 80046a0:	1c7b      	adds	r3, r7, #1
 80046a2:	d0eb      	beq.n	800467c <HAL_SPI_Transmit+0x12c>
 80046a4:	e7d1      	b.n	800464a <HAL_SPI_Transmit+0xfa>
 80046a6:	2320      	movs	r3, #32
 80046a8:	6563      	str	r3, [r4, #84]	@ 0x54
 80046aa:	e7ac      	b.n	8004606 <HAL_SPI_Transmit+0xb6>
 80046ac:	f04f 0902 	mov.w	r9, #2
 80046b0:	e7d0      	b.n	8004654 <HAL_SPI_Transmit+0x104>
 80046b2:	f04f 0902 	mov.w	r9, #2
 80046b6:	e7d0      	b.n	800465a <HAL_SPI_Transmit+0x10a>

080046b8 <HAL_SPI_TransmitReceive>:
 80046b8:	e92d 43f7 	stmdb	sp!, {r0, r1, r2, r4, r5, r6, r7, r8, r9, lr}
 80046bc:	461e      	mov	r6, r3
 80046be:	f890 3050 	ldrb.w	r3, [r0, #80]	@ 0x50
 80046c2:	f8dd 8028 	ldr.w	r8, [sp, #40]	@ 0x28
 80046c6:	2b01      	cmp	r3, #1
 80046c8:	4604      	mov	r4, r0
 80046ca:	460d      	mov	r5, r1
 80046cc:	4691      	mov	r9, r2
 80046ce:	f000 80e8 	beq.w	80048a2 <HAL_SPI_TransmitReceive+0x1ea>
 80046d2:	2301      	movs	r3, #1
 80046d4:	f880 3050 	strb.w	r3, [r0, #80]	@ 0x50
 80046d8:	f7fd fddc 	bl	8002294 <HAL_GetTick>
 80046dc:	f894 3051 	ldrb.w	r3, [r4, #81]	@ 0x51
 80046e0:	6862      	ldr	r2, [r4, #4]
 80046e2:	2b01      	cmp	r3, #1
 80046e4:	4607      	mov	r7, r0
 80046e6:	b2d9      	uxtb	r1, r3
 80046e8:	d00a      	beq.n	8004700 <HAL_SPI_TransmitReceive+0x48>
 80046ea:	f5b2 7f82 	cmp.w	r2, #260	@ 0x104
 80046ee:	f040 80d6 	bne.w	800489e <HAL_SPI_TransmitReceive+0x1e6>
 80046f2:	68a3      	ldr	r3, [r4, #8]
 80046f4:	2b00      	cmp	r3, #0
 80046f6:	f040 80d2 	bne.w	800489e <HAL_SPI_TransmitReceive+0x1e6>
 80046fa:	2904      	cmp	r1, #4
 80046fc:	f040 80cf 	bne.w	800489e <HAL_SPI_TransmitReceive+0x1e6>
 8004700:	2d00      	cmp	r5, #0
 8004702:	d03f      	beq.n	8004784 <HAL_SPI_TransmitReceive+0xcc>
 8004704:	f1b9 0f00 	cmp.w	r9, #0
 8004708:	d03c      	beq.n	8004784 <HAL_SPI_TransmitReceive+0xcc>
 800470a:	2e00      	cmp	r6, #0
 800470c:	d03a      	beq.n	8004784 <HAL_SPI_TransmitReceive+0xcc>
 800470e:	f894 3051 	ldrb.w	r3, [r4, #81]	@ 0x51
 8004712:	f8c4 9038 	str.w	r9, [r4, #56]	@ 0x38
 8004716:	2b04      	cmp	r3, #4
 8004718:	bf1c      	itt	ne
 800471a:	2305      	movne	r3, #5
 800471c:	f884 3051 	strbne.w	r3, [r4, #81]	@ 0x51
 8004720:	2300      	movs	r3, #0
 8004722:	6563      	str	r3, [r4, #84]	@ 0x54
 8004724:	e9c4 3310 	strd	r3, r3, [r4, #64]	@ 0x40
 8004728:	6823      	ldr	r3, [r4, #0]
 800472a:	87e6      	strh	r6, [r4, #62]	@ 0x3e
 800472c:	86e6      	strh	r6, [r4, #54]	@ 0x36
 800472e:	6819      	ldr	r1, [r3, #0]
 8004730:	87a6      	strh	r6, [r4, #60]	@ 0x3c
 8004732:	0649      	lsls	r1, r1, #25
 8004734:	bf58      	it	pl
 8004736:	6819      	ldrpl	r1, [r3, #0]
 8004738:	6325      	str	r5, [r4, #48]	@ 0x30
 800473a:	bf58      	it	pl
 800473c:	f041 0140 	orrpl.w	r1, r1, #64	@ 0x40
 8004740:	86a6      	strh	r6, [r4, #52]	@ 0x34
 8004742:	bf58      	it	pl
 8004744:	6019      	strpl	r1, [r3, #0]
 8004746:	68e1      	ldr	r1, [r4, #12]
 8004748:	f5b1 6f00 	cmp.w	r1, #2048	@ 0x800
 800474c:	d151      	bne.n	80047f2 <HAL_SPI_TransmitReceive+0x13a>
 800474e:	b10a      	cbz	r2, 8004754 <HAL_SPI_TransmitReceive+0x9c>
 8004750:	2e01      	cmp	r6, #1
 8004752:	d107      	bne.n	8004764 <HAL_SPI_TransmitReceive+0xac>
 8004754:	f835 2b02 	ldrh.w	r2, [r5], #2
 8004758:	60da      	str	r2, [r3, #12]
 800475a:	8ee3      	ldrh	r3, [r4, #54]	@ 0x36
 800475c:	6325      	str	r5, [r4, #48]	@ 0x30
 800475e:	3b01      	subs	r3, #1
 8004760:	b29b      	uxth	r3, r3
 8004762:	86e3      	strh	r3, [r4, #54]	@ 0x36
 8004764:	2501      	movs	r5, #1
 8004766:	8ee3      	ldrh	r3, [r4, #54]	@ 0x36
 8004768:	b29b      	uxth	r3, r3
 800476a:	b96b      	cbnz	r3, 8004788 <HAL_SPI_TransmitReceive+0xd0>
 800476c:	8fe3      	ldrh	r3, [r4, #62]	@ 0x3e
 800476e:	b29b      	uxth	r3, r3
 8004770:	b953      	cbnz	r3, 8004788 <HAL_SPI_TransmitReceive+0xd0>
 8004772:	463a      	mov	r2, r7
 8004774:	4641      	mov	r1, r8
 8004776:	4620      	mov	r0, r4
 8004778:	f7ff fe24 	bl	80043c4 <SPI_EndRxTxTransaction>
 800477c:	2800      	cmp	r0, #0
 800477e:	d07d      	beq.n	800487c <HAL_SPI_TransmitReceive+0x1c4>
 8004780:	2320      	movs	r3, #32
 8004782:	6563      	str	r3, [r4, #84]	@ 0x54
 8004784:	2001      	movs	r0, #1
 8004786:	e02e      	b.n	80047e6 <HAL_SPI_TransmitReceive+0x12e>
 8004788:	6821      	ldr	r1, [r4, #0]
 800478a:	688b      	ldr	r3, [r1, #8]
 800478c:	079a      	lsls	r2, r3, #30
 800478e:	d50d      	bpl.n	80047ac <HAL_SPI_TransmitReceive+0xf4>
 8004790:	8ee3      	ldrh	r3, [r4, #54]	@ 0x36
 8004792:	b29b      	uxth	r3, r3
 8004794:	b153      	cbz	r3, 80047ac <HAL_SPI_TransmitReceive+0xf4>
 8004796:	b145      	cbz	r5, 80047aa <HAL_SPI_TransmitReceive+0xf2>
 8004798:	6b23      	ldr	r3, [r4, #48]	@ 0x30
 800479a:	f833 2b02 	ldrh.w	r2, [r3], #2
 800479e:	60ca      	str	r2, [r1, #12]
 80047a0:	6323      	str	r3, [r4, #48]	@ 0x30
 80047a2:	8ee3      	ldrh	r3, [r4, #54]	@ 0x36
 80047a4:	3b01      	subs	r3, #1
 80047a6:	b29b      	uxth	r3, r3
 80047a8:	86e3      	strh	r3, [r4, #54]	@ 0x36
 80047aa:	2500      	movs	r5, #0
 80047ac:	688a      	ldr	r2, [r1, #8]
 80047ae:	f012 0201 	ands.w	r2, r2, #1
 80047b2:	d00c      	beq.n	80047ce <HAL_SPI_TransmitReceive+0x116>
 80047b4:	8fe3      	ldrh	r3, [r4, #62]	@ 0x3e
 80047b6:	b29b      	uxth	r3, r3
 80047b8:	b14b      	cbz	r3, 80047ce <HAL_SPI_TransmitReceive+0x116>
 80047ba:	6ba3      	ldr	r3, [r4, #56]	@ 0x38
 80047bc:	68c9      	ldr	r1, [r1, #12]
 80047be:	f823 1b02 	strh.w	r1, [r3], #2
 80047c2:	63a3      	str	r3, [r4, #56]	@ 0x38
 80047c4:	8fe3      	ldrh	r3, [r4, #62]	@ 0x3e
 80047c6:	3b01      	subs	r3, #1
 80047c8:	b29b      	uxth	r3, r3
 80047ca:	87e3      	strh	r3, [r4, #62]	@ 0x3e
 80047cc:	4615      	mov	r5, r2
 80047ce:	f7fd fd61 	bl	8002294 <HAL_GetTick>
 80047d2:	1bc0      	subs	r0, r0, r7
 80047d4:	4540      	cmp	r0, r8
 80047d6:	d3c6      	bcc.n	8004766 <HAL_SPI_TransmitReceive+0xae>
 80047d8:	f1b8 3fff 	cmp.w	r8, #4294967295	@ 0xffffffff
 80047dc:	d0c3      	beq.n	8004766 <HAL_SPI_TransmitReceive+0xae>
 80047de:	2301      	movs	r3, #1
 80047e0:	f884 3051 	strb.w	r3, [r4, #81]	@ 0x51
 80047e4:	2003      	movs	r0, #3
 80047e6:	2300      	movs	r3, #0
 80047e8:	f884 3050 	strb.w	r3, [r4, #80]	@ 0x50
 80047ec:	b003      	add	sp, #12
 80047ee:	e8bd 83f0 	ldmia.w	sp!, {r4, r5, r6, r7, r8, r9, pc}
 80047f2:	b10a      	cbz	r2, 80047f8 <HAL_SPI_TransmitReceive+0x140>
 80047f4:	2e01      	cmp	r6, #1
 80047f6:	d108      	bne.n	800480a <HAL_SPI_TransmitReceive+0x152>
 80047f8:	782a      	ldrb	r2, [r5, #0]
 80047fa:	731a      	strb	r2, [r3, #12]
 80047fc:	6b23      	ldr	r3, [r4, #48]	@ 0x30
 80047fe:	3301      	adds	r3, #1
 8004800:	6323      	str	r3, [r4, #48]	@ 0x30
 8004802:	8ee3      	ldrh	r3, [r4, #54]	@ 0x36
 8004804:	3b01      	subs	r3, #1
 8004806:	b29b      	uxth	r3, r3
 8004808:	86e3      	strh	r3, [r4, #54]	@ 0x36
 800480a:	2501      	movs	r5, #1
 800480c:	e02d      	b.n	800486a <HAL_SPI_TransmitReceive+0x1b2>
 800480e:	6822      	ldr	r2, [r4, #0]
 8004810:	6893      	ldr	r3, [r2, #8]
 8004812:	079b      	lsls	r3, r3, #30
 8004814:	d50e      	bpl.n	8004834 <HAL_SPI_TransmitReceive+0x17c>
 8004816:	8ee3      	ldrh	r3, [r4, #54]	@ 0x36
 8004818:	b29b      	uxth	r3, r3
 800481a:	b15b      	cbz	r3, 8004834 <HAL_SPI_TransmitReceive+0x17c>
 800481c:	b14d      	cbz	r5, 8004832 <HAL_SPI_TransmitReceive+0x17a>
 800481e:	6b23      	ldr	r3, [r4, #48]	@ 0x30
 8004820:	781b      	ldrb	r3, [r3, #0]
 8004822:	7313      	strb	r3, [r2, #12]
 8004824:	6b23      	ldr	r3, [r4, #48]	@ 0x30
 8004826:	3301      	adds	r3, #1
 8004828:	6323      	str	r3, [r4, #48]	@ 0x30
 800482a:	8ee3      	ldrh	r3, [r4, #54]	@ 0x36
 800482c:	3b01      	subs	r3, #1
 800482e:	b29b      	uxth	r3, r3
 8004830:	86e3      	strh	r3, [r4, #54]	@ 0x36
 8004832:	2500      	movs	r5, #0
 8004834:	6822      	ldr	r2, [r4, #0]
 8004836:	6891      	ldr	r1, [r2, #8]
 8004838:	f011 0101 	ands.w	r1, r1, #1
 800483c:	d00d      	beq.n	800485a <HAL_SPI_TransmitReceive+0x1a2>
 800483e:	8fe3      	ldrh	r3, [r4, #62]	@ 0x3e
 8004840:	b29b      	uxth	r3, r3
 8004842:	b153      	cbz	r3, 800485a <HAL_SPI_TransmitReceive+0x1a2>
 8004844:	6ba3      	ldr	r3, [r4, #56]	@ 0x38
 8004846:	68d2      	ldr	r2, [r2, #12]
 8004848:	701a      	strb	r2, [r3, #0]
 800484a:	6ba3      	ldr	r3, [r4, #56]	@ 0x38
 800484c:	3301      	adds	r3, #1
 800484e:	63a3      	str	r3, [r4, #56]	@ 0x38
 8004850:	8fe3      	ldrh	r3, [r4, #62]	@ 0x3e
 8004852:	3b01      	subs	r3, #1
 8004854:	b29b      	uxth	r3, r3
 8004856:	87e3      	strh	r3, [r4, #62]	@ 0x3e
 8004858:	460d      	mov	r5, r1
 800485a:	f7fd fd1b 	bl	8002294 <HAL_GetTick>
 800485e:	1bc0      	subs	r0, r0, r7
 8004860:	4540      	cmp	r0, r8
 8004862:	d302      	bcc.n	800486a <HAL_SPI_TransmitReceive+0x1b2>
 8004864:	f1b8 3fff 	cmp.w	r8, #4294967295	@ 0xffffffff
 8004868:	d1b9      	bne.n	80047de <HAL_SPI_TransmitReceive+0x126>
 800486a:	8ee3      	ldrh	r3, [r4, #54]	@ 0x36
 800486c:	b29b      	uxth	r3, r3
 800486e:	2b00      	cmp	r3, #0
 8004870:	d1cd      	bne.n	800480e <HAL_SPI_TransmitReceive+0x156>
 8004872:	8fe3      	ldrh	r3, [r4, #62]	@ 0x3e
 8004874:	b29b      	uxth	r3, r3
 8004876:	2b00      	cmp	r3, #0
 8004878:	d1c9      	bne.n	800480e <HAL_SPI_TransmitReceive+0x156>
 800487a:	e77a      	b.n	8004772 <HAL_SPI_TransmitReceive+0xba>
 800487c:	68a3      	ldr	r3, [r4, #8]
 800487e:	b933      	cbnz	r3, 800488e <HAL_SPI_TransmitReceive+0x1d6>
 8004880:	6823      	ldr	r3, [r4, #0]
 8004882:	9001      	str	r0, [sp, #4]
 8004884:	68da      	ldr	r2, [r3, #12]
 8004886:	9201      	str	r2, [sp, #4]
 8004888:	689b      	ldr	r3, [r3, #8]
 800488a:	9301      	str	r3, [sp, #4]
 800488c:	9b01      	ldr	r3, [sp, #4]
 800488e:	6d63      	ldr	r3, [r4, #84]	@ 0x54
 8004890:	2b00      	cmp	r3, #0
 8004892:	f47f af77 	bne.w	8004784 <HAL_SPI_TransmitReceive+0xcc>
 8004896:	2301      	movs	r3, #1
 8004898:	f884 3051 	strb.w	r3, [r4, #81]	@ 0x51
 800489c:	e7a3      	b.n	80047e6 <HAL_SPI_TransmitReceive+0x12e>
 800489e:	2002      	movs	r0, #2
 80048a0:	e7a1      	b.n	80047e6 <HAL_SPI_TransmitReceive+0x12e>
 80048a2:	2002      	movs	r0, #2
 80048a4:	e7a2      	b.n	80047ec <HAL_SPI_TransmitReceive+0x134>

080048a6 <HAL_SPI_Receive>:
 80048a6:	e92d 47f3 	stmdb	sp!, {r0, r1, r4, r5, r6, r7, r8, r9, sl, lr}
 80048aa:	461e      	mov	r6, r3
 80048ac:	f890 3051 	ldrb.w	r3, [r0, #81]	@ 0x51
 80048b0:	2b01      	cmp	r3, #1
 80048b2:	4604      	mov	r4, r0
 80048b4:	468a      	mov	sl, r1
 80048b6:	4690      	mov	r8, r2
 80048b8:	b2dd      	uxtb	r5, r3
 80048ba:	f040 8095 	bne.w	80049e8 <HAL_SPI_Receive+0x142>
 80048be:	6843      	ldr	r3, [r0, #4]
 80048c0:	f5b3 7f82 	cmp.w	r3, #260	@ 0x104
 80048c4:	d10e      	bne.n	80048e4 <HAL_SPI_Receive+0x3e>
 80048c6:	6883      	ldr	r3, [r0, #8]
 80048c8:	b963      	cbnz	r3, 80048e4 <HAL_SPI_Receive+0x3e>
 80048ca:	2304      	movs	r3, #4
 80048cc:	f880 3051 	strb.w	r3, [r0, #81]	@ 0x51
 80048d0:	4613      	mov	r3, r2
 80048d2:	9600      	str	r6, [sp, #0]
 80048d4:	460a      	mov	r2, r1
 80048d6:	f7ff feef 	bl	80046b8 <HAL_SPI_TransmitReceive>
 80048da:	4605      	mov	r5, r0
 80048dc:	4628      	mov	r0, r5
 80048de:	b002      	add	sp, #8
 80048e0:	e8bd 87f0 	ldmia.w	sp!, {r4, r5, r6, r7, r8, r9, sl, pc}
 80048e4:	f894 3050 	ldrb.w	r3, [r4, #80]	@ 0x50
 80048e8:	2b01      	cmp	r3, #1
 80048ea:	d07f      	beq.n	80049ec <HAL_SPI_Receive+0x146>
 80048ec:	2301      	movs	r3, #1
 80048ee:	f884 3050 	strb.w	r3, [r4, #80]	@ 0x50
 80048f2:	f7fd fccf 	bl	8002294 <HAL_GetTick>
 80048f6:	4681      	mov	r9, r0
 80048f8:	f1ba 0f00 	cmp.w	sl, #0
 80048fc:	d064      	beq.n	80049c8 <HAL_SPI_Receive+0x122>
 80048fe:	f1b8 0f00 	cmp.w	r8, #0
 8004902:	d061      	beq.n	80049c8 <HAL_SPI_Receive+0x122>
 8004904:	68a2      	ldr	r2, [r4, #8]
 8004906:	f8c4 a038 	str.w	sl, [r4, #56]	@ 0x38
 800490a:	2700      	movs	r7, #0
 800490c:	2304      	movs	r3, #4
 800490e:	f5b2 4f00 	cmp.w	r2, #32768	@ 0x8000
 8004912:	f884 3051 	strb.w	r3, [r4, #81]	@ 0x51
 8004916:	e9c4 7710 	strd	r7, r7, [r4, #64]	@ 0x40
 800491a:	6567      	str	r7, [r4, #84]	@ 0x54
 800491c:	6823      	ldr	r3, [r4, #0]
 800491e:	f8a4 803e 	strh.w	r8, [r4, #62]	@ 0x3e
 8004922:	f8a4 803c 	strh.w	r8, [r4, #60]	@ 0x3c
 8004926:	6327      	str	r7, [r4, #48]	@ 0x30
 8004928:	86a7      	strh	r7, [r4, #52]	@ 0x34
 800492a:	86e7      	strh	r7, [r4, #54]	@ 0x36
 800492c:	d107      	bne.n	800493e <HAL_SPI_Receive+0x98>
 800492e:	681a      	ldr	r2, [r3, #0]
 8004930:	f022 0240 	bic.w	r2, r2, #64	@ 0x40
 8004934:	601a      	str	r2, [r3, #0]
 8004936:	681a      	ldr	r2, [r3, #0]
 8004938:	f422 4280 	bic.w	r2, r2, #16384	@ 0x4000
 800493c:	601a      	str	r2, [r3, #0]
 800493e:	681a      	ldr	r2, [r3, #0]
 8004940:	0657      	lsls	r7, r2, #25
 8004942:	bf5e      	ittt	pl
 8004944:	681a      	ldrpl	r2, [r3, #0]
 8004946:	f042 0240 	orrpl.w	r2, r2, #64	@ 0x40
 800494a:	601a      	strpl	r2, [r3, #0]
 800494c:	68e3      	ldr	r3, [r4, #12]
 800494e:	b1f3      	cbz	r3, 800498e <HAL_SPI_Receive+0xe8>
 8004950:	8fe3      	ldrh	r3, [r4, #62]	@ 0x3e
 8004952:	b29b      	uxth	r3, r3
 8004954:	b1fb      	cbz	r3, 8004996 <HAL_SPI_Receive+0xf0>
 8004956:	6823      	ldr	r3, [r4, #0]
 8004958:	689a      	ldr	r2, [r3, #8]
 800495a:	07d2      	lsls	r2, r2, #31
 800495c:	d538      	bpl.n	80049d0 <HAL_SPI_Receive+0x12a>
 800495e:	68da      	ldr	r2, [r3, #12]
 8004960:	6ba3      	ldr	r3, [r4, #56]	@ 0x38
 8004962:	f823 2b02 	strh.w	r2, [r3], #2
 8004966:	63a3      	str	r3, [r4, #56]	@ 0x38
 8004968:	8fe3      	ldrh	r3, [r4, #62]	@ 0x3e
 800496a:	3b01      	subs	r3, #1
 800496c:	b29b      	uxth	r3, r3
 800496e:	87e3      	strh	r3, [r4, #62]	@ 0x3e
 8004970:	e7ee      	b.n	8004950 <HAL_SPI_Receive+0xaa>
 8004972:	6823      	ldr	r3, [r4, #0]
 8004974:	689a      	ldr	r2, [r3, #8]
 8004976:	07d0      	lsls	r0, r2, #31
 8004978:	d51a      	bpl.n	80049b0 <HAL_SPI_Receive+0x10a>
 800497a:	6ba2      	ldr	r2, [r4, #56]	@ 0x38
 800497c:	7b1b      	ldrb	r3, [r3, #12]
 800497e:	7013      	strb	r3, [r2, #0]
 8004980:	6ba3      	ldr	r3, [r4, #56]	@ 0x38
 8004982:	3301      	adds	r3, #1
 8004984:	63a3      	str	r3, [r4, #56]	@ 0x38
 8004986:	8fe3      	ldrh	r3, [r4, #62]	@ 0x3e
 8004988:	3b01      	subs	r3, #1
 800498a:	b29b      	uxth	r3, r3
 800498c:	87e3      	strh	r3, [r4, #62]	@ 0x3e
 800498e:	8fe3      	ldrh	r3, [r4, #62]	@ 0x3e
 8004990:	b29b      	uxth	r3, r3
 8004992:	2b00      	cmp	r3, #0
 8004994:	d1ed      	bne.n	8004972 <HAL_SPI_Receive+0xcc>
 8004996:	464a      	mov	r2, r9
 8004998:	4631      	mov	r1, r6
 800499a:	4620      	mov	r0, r4
 800499c:	f7ff fd4e 	bl	800443c <SPI_EndRxTransaction>
 80049a0:	b9f8      	cbnz	r0, 80049e2 <HAL_SPI_Receive+0x13c>
 80049a2:	6d63      	ldr	r3, [r4, #84]	@ 0x54
 80049a4:	b983      	cbnz	r3, 80049c8 <HAL_SPI_Receive+0x122>
 80049a6:	2201      	movs	r2, #1
 80049a8:	f884 2051 	strb.w	r2, [r4, #81]	@ 0x51
 80049ac:	461d      	mov	r5, r3
 80049ae:	e00b      	b.n	80049c8 <HAL_SPI_Receive+0x122>
 80049b0:	f7fd fc70 	bl	8002294 <HAL_GetTick>
 80049b4:	eba0 0009 	sub.w	r0, r0, r9
 80049b8:	42b0      	cmp	r0, r6
 80049ba:	d3e8      	bcc.n	800498e <HAL_SPI_Receive+0xe8>
 80049bc:	1c71      	adds	r1, r6, #1
 80049be:	d0e6      	beq.n	800498e <HAL_SPI_Receive+0xe8>
 80049c0:	2301      	movs	r3, #1
 80049c2:	f884 3051 	strb.w	r3, [r4, #81]	@ 0x51
 80049c6:	2503      	movs	r5, #3
 80049c8:	2300      	movs	r3, #0
 80049ca:	f884 3050 	strb.w	r3, [r4, #80]	@ 0x50
 80049ce:	e785      	b.n	80048dc <HAL_SPI_Receive+0x36>
 80049d0:	f7fd fc60 	bl	8002294 <HAL_GetTick>
 80049d4:	eba0 0009 	sub.w	r0, r0, r9
 80049d8:	42b0      	cmp	r0, r6
 80049da:	d3b9      	bcc.n	8004950 <HAL_SPI_Receive+0xaa>
 80049dc:	1c73      	adds	r3, r6, #1
 80049de:	d0b7      	beq.n	8004950 <HAL_SPI_Receive+0xaa>
 80049e0:	e7ee      	b.n	80049c0 <HAL_SPI_Receive+0x11a>
 80049e2:	2320      	movs	r3, #32
 80049e4:	6563      	str	r3, [r4, #84]	@ 0x54
 80049e6:	e7dc      	b.n	80049a2 <HAL_SPI_Receive+0xfc>
 80049e8:	2502      	movs	r5, #2
 80049ea:	e7ed      	b.n	80049c8 <HAL_SPI_Receive+0x122>
 80049ec:	2502      	movs	r5, #2
 80049ee:	e775      	b.n	80048dc <HAL_SPI_Receive+0x36>

080049f0 <HAL_SPI_Transmit_DMA>:
 80049f0:	b538      	push	{r3, r4, r5, lr}
 80049f2:	f890 3050 	ldrb.w	r3, [r0, #80]	@ 0x50
 80049f6:	2b01      	cmp	r3, #1
 80049f8:	4604      	mov	r4, r0
 80049fa:	d051      	beq.n	8004aa0 <HAL_SPI_Transmit_DMA+0xb0>
 80049fc:	2301      	movs	r3, #1
 80049fe:	f880 3050 	strb.w	r3, [r0, #80]	@ 0x50
 8004a02:	f890 3051 	ldrb.w	r3, [r0, #81]	@ 0x51
 8004a06:	2b01      	cmp	r3, #1
 8004a08:	b2dd      	uxtb	r5, r3
 8004a0a:	d147      	bne.n	8004a9c <HAL_SPI_Transmit_DMA+0xac>
 8004a0c:	2900      	cmp	r1, #0
 8004a0e:	d02e      	beq.n	8004a6e <HAL_SPI_Transmit_DMA+0x7e>
 8004a10:	2a00      	cmp	r2, #0
 8004a12:	d02c      	beq.n	8004a6e <HAL_SPI_Transmit_DMA+0x7e>
 8004a14:	2303      	movs	r3, #3
 8004a16:	f880 3051 	strb.w	r3, [r0, #81]	@ 0x51
 8004a1a:	2300      	movs	r3, #0
 8004a1c:	6543      	str	r3, [r0, #84]	@ 0x54
 8004a1e:	e9c0 3310 	strd	r3, r3, [r0, #64]	@ 0x40
 8004a22:	86c2      	strh	r2, [r0, #54]	@ 0x36
 8004a24:	6383      	str	r3, [r0, #56]	@ 0x38
 8004a26:	8783      	strh	r3, [r0, #60]	@ 0x3c
 8004a28:	87c3      	strh	r3, [r0, #62]	@ 0x3e
 8004a2a:	6883      	ldr	r3, [r0, #8]
 8004a2c:	8682      	strh	r2, [r0, #52]	@ 0x34
 8004a2e:	f5b3 4f00 	cmp.w	r3, #32768	@ 0x8000
 8004a32:	6802      	ldr	r2, [r0, #0]
 8004a34:	6301      	str	r1, [r0, #48]	@ 0x30
 8004a36:	d107      	bne.n	8004a48 <HAL_SPI_Transmit_DMA+0x58>
 8004a38:	6813      	ldr	r3, [r2, #0]
 8004a3a:	f023 0340 	bic.w	r3, r3, #64	@ 0x40
 8004a3e:	6013      	str	r3, [r2, #0]
 8004a40:	6813      	ldr	r3, [r2, #0]
 8004a42:	f443 4380 	orr.w	r3, r3, #16384	@ 0x4000
 8004a46:	6013      	str	r3, [r2, #0]
 8004a48:	6ca0      	ldr	r0, [r4, #72]	@ 0x48
 8004a4a:	4b16      	ldr	r3, [pc, #88]	@ (8004aa4 <HAL_SPI_Transmit_DMA+0xb4>)
 8004a4c:	6403      	str	r3, [r0, #64]	@ 0x40
 8004a4e:	4b16      	ldr	r3, [pc, #88]	@ (8004aa8 <HAL_SPI_Transmit_DMA+0xb8>)
 8004a50:	63c3      	str	r3, [r0, #60]	@ 0x3c
 8004a52:	4b16      	ldr	r3, [pc, #88]	@ (8004aac <HAL_SPI_Transmit_DMA+0xbc>)
 8004a54:	64c3      	str	r3, [r0, #76]	@ 0x4c
 8004a56:	2300      	movs	r3, #0
 8004a58:	6503      	str	r3, [r0, #80]	@ 0x50
 8004a5a:	8ee3      	ldrh	r3, [r4, #54]	@ 0x36
 8004a5c:	320c      	adds	r2, #12
 8004a5e:	b29b      	uxth	r3, r3
 8004a60:	f7fe f842 	bl	8002ae8 <HAL_DMA_Start_IT>
 8004a64:	b140      	cbz	r0, 8004a78 <HAL_SPI_Transmit_DMA+0x88>
 8004a66:	6d63      	ldr	r3, [r4, #84]	@ 0x54
 8004a68:	f043 0310 	orr.w	r3, r3, #16
 8004a6c:	6563      	str	r3, [r4, #84]	@ 0x54
 8004a6e:	2300      	movs	r3, #0
 8004a70:	f884 3050 	strb.w	r3, [r4, #80]	@ 0x50
 8004a74:	4628      	mov	r0, r5
 8004a76:	bd38      	pop	{r3, r4, r5, pc}
 8004a78:	6823      	ldr	r3, [r4, #0]
 8004a7a:	681a      	ldr	r2, [r3, #0]
 8004a7c:	0652      	lsls	r2, r2, #25
 8004a7e:	bf5e      	ittt	pl
 8004a80:	681a      	ldrpl	r2, [r3, #0]
 8004a82:	f042 0240 	orrpl.w	r2, r2, #64	@ 0x40
 8004a86:	601a      	strpl	r2, [r3, #0]
 8004a88:	685a      	ldr	r2, [r3, #4]
 8004a8a:	f042 0220 	orr.w	r2, r2, #32
 8004a8e:	605a      	str	r2, [r3, #4]
 8004a90:	685a      	ldr	r2, [r3, #4]
 8004a92:	f042 0202 	orr.w	r2, r2, #2
 8004a96:	605a      	str	r2, [r3, #4]
 8004a98:	2500      	movs	r5, #0
 8004a9a:	e7e8      	b.n	8004a6e <HAL_SPI_Transmit_DMA+0x7e>
 8004a9c:	2502      	movs	r5, #2
 8004a9e:	e7e6      	b.n	8004a6e <HAL_SPI_Transmit_DMA+0x7e>
 8004aa0:	2502      	movs	r5, #2
 8004aa2:	e7e7      	b.n	8004a74 <HAL_SPI_Transmit_DMA+0x84>
 8004aa4:	08004ab3 	.word	0x08004ab3
 8004aa8:	08004ae1 	.word	0x08004ae1
 8004aac:	08004abf 	.word	0x08004abf

08004ab0 <HAL_SPI_TxHalfCpltCallback>:
 8004ab0:	4770      	bx	lr

08004ab2 <SPI_DMAHalfTransmitCplt>:
 8004ab2:	b508      	push	{r3, lr}
 8004ab4:	6b80      	ldr	r0, [r0, #56]	@ 0x38
 8004ab6:	f7ff fffb 	bl	8004ab0 <HAL_SPI_TxHalfCpltCallback>
 8004aba:	bd08      	pop	{r3, pc}

08004abc <HAL_SPI_ErrorCallback>:
 8004abc:	4770      	bx	lr

08004abe <SPI_DMAError>:
 8004abe:	6b80      	ldr	r0, [r0, #56]	@ 0x38
 8004ac0:	6802      	ldr	r2, [r0, #0]
 8004ac2:	b508      	push	{r3, lr}
 8004ac4:	6853      	ldr	r3, [r2, #4]
 8004ac6:	f023 0303 	bic.w	r3, r3, #3
 8004aca:	6053      	str	r3, [r2, #4]
 8004acc:	6d43      	ldr	r3, [r0, #84]	@ 0x54
 8004ace:	f043 0310 	orr.w	r3, r3, #16
 8004ad2:	6543      	str	r3, [r0, #84]	@ 0x54
 8004ad4:	2301      	movs	r3, #1
 8004ad6:	f880 3051 	strb.w	r3, [r0, #81]	@ 0x51
 8004ada:	f7ff ffef 	bl	8004abc <HAL_SPI_ErrorCallback>
 8004ade:	bd08      	pop	{r3, pc}

08004ae0 <SPI_DMATransmitCplt>:
 8004ae0:	b537      	push	{r0, r1, r2, r4, r5, lr}
 8004ae2:	4605      	mov	r5, r0
 8004ae4:	6b84      	ldr	r4, [r0, #56]	@ 0x38
 8004ae6:	f7fd fbd5 	bl	8002294 <HAL_GetTick>
 8004aea:	682b      	ldr	r3, [r5, #0]
 8004aec:	681b      	ldr	r3, [r3, #0]
 8004aee:	05db      	lsls	r3, r3, #23
 8004af0:	4602      	mov	r2, r0
 8004af2:	d426      	bmi.n	8004b42 <SPI_DMATransmitCplt+0x62>
 8004af4:	6823      	ldr	r3, [r4, #0]
 8004af6:	6859      	ldr	r1, [r3, #4]
 8004af8:	f021 0120 	bic.w	r1, r1, #32
 8004afc:	6059      	str	r1, [r3, #4]
 8004afe:	6859      	ldr	r1, [r3, #4]
 8004b00:	f021 0102 	bic.w	r1, r1, #2
 8004b04:	6059      	str	r1, [r3, #4]
 8004b06:	4620      	mov	r0, r4
 8004b08:	2164      	movs	r1, #100	@ 0x64
 8004b0a:	f7ff fc5b 	bl	80043c4 <SPI_EndRxTxTransaction>
 8004b0e:	b118      	cbz	r0, 8004b18 <SPI_DMATransmitCplt+0x38>
 8004b10:	6d63      	ldr	r3, [r4, #84]	@ 0x54
 8004b12:	f043 0320 	orr.w	r3, r3, #32
 8004b16:	6563      	str	r3, [r4, #84]	@ 0x54
 8004b18:	68a3      	ldr	r3, [r4, #8]
 8004b1a:	b933      	cbnz	r3, 8004b2a <SPI_DMATransmitCplt+0x4a>
 8004b1c:	9301      	str	r3, [sp, #4]
 8004b1e:	6823      	ldr	r3, [r4, #0]
 8004b20:	68da      	ldr	r2, [r3, #12]
 8004b22:	9201      	str	r2, [sp, #4]
 8004b24:	689b      	ldr	r3, [r3, #8]
 8004b26:	9301      	str	r3, [sp, #4]
 8004b28:	9b01      	ldr	r3, [sp, #4]
 8004b2a:	2300      	movs	r3, #0
 8004b2c:	86e3      	strh	r3, [r4, #54]	@ 0x36
 8004b2e:	2301      	movs	r3, #1
 8004b30:	f884 3051 	strb.w	r3, [r4, #81]	@ 0x51
 8004b34:	6d63      	ldr	r3, [r4, #84]	@ 0x54
 8004b36:	b123      	cbz	r3, 8004b42 <SPI_DMATransmitCplt+0x62>
 8004b38:	4620      	mov	r0, r4
 8004b3a:	f7ff ffbf 	bl	8004abc <HAL_SPI_ErrorCallback>
 8004b3e:	b003      	add	sp, #12
 8004b40:	bd30      	pop	{r4, r5, pc}
 8004b42:	4620      	mov	r0, r4
 8004b44:	f7fd fac8 	bl	80020d8 <HAL_SPI_TxCpltCallback>
 8004b48:	e7f9      	b.n	8004b3e <SPI_DMATransmitCplt+0x5e>
	...

08004b4c <HAL_TIM_Base_Start_IT>:
 8004b4c:	f890 303d 	ldrb.w	r3, [r0, #61]	@ 0x3d
 8004b50:	2b01      	cmp	r3, #1
 8004b52:	d130      	bne.n	8004bb6 <HAL_TIM_Base_Start_IT+0x6a>
 8004b54:	2302      	movs	r3, #2
 8004b56:	f880 303d 	strb.w	r3, [r0, #61]	@ 0x3d
 8004b5a:	6803      	ldr	r3, [r0, #0]
 8004b5c:	68da      	ldr	r2, [r3, #12]
 8004b5e:	f042 0201 	orr.w	r2, r2, #1
 8004b62:	60da      	str	r2, [r3, #12]
 8004b64:	4a15      	ldr	r2, [pc, #84]	@ (8004bbc <HAL_TIM_Base_Start_IT+0x70>)
 8004b66:	4293      	cmp	r3, r2
 8004b68:	d01a      	beq.n	8004ba0 <HAL_TIM_Base_Start_IT+0x54>
 8004b6a:	f1b3 4f80 	cmp.w	r3, #1073741824	@ 0x40000000
 8004b6e:	d017      	beq.n	8004ba0 <HAL_TIM_Base_Start_IT+0x54>
 8004b70:	f5a2 427c 	sub.w	r2, r2, #64512	@ 0xfc00
 8004b74:	4293      	cmp	r3, r2
 8004b76:	d013      	beq.n	8004ba0 <HAL_TIM_Base_Start_IT+0x54>
 8004b78:	f502 6280 	add.w	r2, r2, #1024	@ 0x400
 8004b7c:	4293      	cmp	r3, r2
 8004b7e:	d00f      	beq.n	8004ba0 <HAL_TIM_Base_Start_IT+0x54>
 8004b80:	f502 6280 	add.w	r2, r2, #1024	@ 0x400
 8004b84:	4293      	cmp	r3, r2
 8004b86:	d00b      	beq.n	8004ba0 <HAL_TIM_Base_Start_IT+0x54>
 8004b88:	f502 4278 	add.w	r2, r2, #63488	@ 0xf800
 8004b8c:	4293      	cmp	r3, r2
 8004b8e:	d007      	beq.n	8004ba0 <HAL_TIM_Base_Start_IT+0x54>
 8004b90:	f502 5270 	add.w	r2, r2, #15360	@ 0x3c00
 8004b94:	4293      	cmp	r3, r2
 8004b96:	d003      	beq.n	8004ba0 <HAL_TIM_Base_Start_IT+0x54>
 8004b98:	f5a2 3294 	sub.w	r2, r2, #75776	@ 0x12800
 8004b9c:	4293      	cmp	r3, r2
 8004b9e:	d104      	bne.n	8004baa <HAL_TIM_Base_Start_IT+0x5e>
 8004ba0:	689a      	ldr	r2, [r3, #8]
 8004ba2:	f002 0207 	and.w	r2, r2, #7
 8004ba6:	2a06      	cmp	r2, #6
 8004ba8:	d003      	beq.n	8004bb2 <HAL_TIM_Base_Start_IT+0x66>
 8004baa:	681a      	ldr	r2, [r3, #0]
 8004bac:	f042 0201 	orr.w	r2, r2, #1
 8004bb0:	601a      	str	r2, [r3, #0]
 8004bb2:	2000      	movs	r0, #0
 8004bb4:	4770      	bx	lr
 8004bb6:	2001      	movs	r0, #1
 8004bb8:	4770      	bx	lr
 8004bba:	bf00      	nop
 8004bbc:	40010000 	.word	0x40010000

08004bc0 <HAL_TIM_PeriodElapsedCallback>:
 8004bc0:	4770      	bx	lr

08004bc2 <HAL_TIM_OC_DelayElapsedCallback>:
 8004bc2:	4770      	bx	lr

08004bc4 <HAL_TIM_IC_CaptureCallback>:
 8004bc4:	4770      	bx	lr

08004bc6 <HAL_TIM_PWM_PulseFinishedCallback>:
 8004bc6:	4770      	bx	lr

08004bc8 <HAL_TIM_TriggerCallback>:
 8004bc8:	4770      	bx	lr

08004bca <HAL_TIM_IRQHandler>:
 8004bca:	6803      	ldr	r3, [r0, #0]
 8004bcc:	b570      	push	{r4, r5, r6, lr}
 8004bce:	68dd      	ldr	r5, [r3, #12]
 8004bd0:	691e      	ldr	r6, [r3, #16]
 8004bd2:	07b1      	lsls	r1, r6, #30
 8004bd4:	4604      	mov	r4, r0
 8004bd6:	d50d      	bpl.n	8004bf4 <HAL_TIM_IRQHandler+0x2a>
 8004bd8:	07aa      	lsls	r2, r5, #30
 8004bda:	d50b      	bpl.n	8004bf4 <HAL_TIM_IRQHandler+0x2a>
 8004bdc:	f06f 0202 	mvn.w	r2, #2
 8004be0:	611a      	str	r2, [r3, #16]
 8004be2:	2201      	movs	r2, #1
 8004be4:	7702      	strb	r2, [r0, #28]
 8004be6:	699b      	ldr	r3, [r3, #24]
 8004be8:	079b      	lsls	r3, r3, #30
 8004bea:	d069      	beq.n	8004cc0 <HAL_TIM_IRQHandler+0xf6>
 8004bec:	f7ff ffea 	bl	8004bc4 <HAL_TIM_IC_CaptureCallback>
 8004bf0:	2300      	movs	r3, #0
 8004bf2:	7723      	strb	r3, [r4, #28]
 8004bf4:	0771      	lsls	r1, r6, #29
 8004bf6:	d510      	bpl.n	8004c1a <HAL_TIM_IRQHandler+0x50>
 8004bf8:	076a      	lsls	r2, r5, #29
 8004bfa:	d50e      	bpl.n	8004c1a <HAL_TIM_IRQHandler+0x50>
 8004bfc:	6823      	ldr	r3, [r4, #0]
 8004bfe:	f06f 0204 	mvn.w	r2, #4
 8004c02:	611a      	str	r2, [r3, #16]
 8004c04:	2202      	movs	r2, #2
 8004c06:	7722      	strb	r2, [r4, #28]
 8004c08:	699b      	ldr	r3, [r3, #24]
 8004c0a:	f413 7f40 	tst.w	r3, #768	@ 0x300
 8004c0e:	4620      	mov	r0, r4
 8004c10:	d05c      	beq.n	8004ccc <HAL_TIM_IRQHandler+0x102>
 8004c12:	f7ff ffd7 	bl	8004bc4 <HAL_TIM_IC_CaptureCallback>
 8004c16:	2300      	movs	r3, #0
 8004c18:	7723      	strb	r3, [r4, #28]
 8004c1a:	0733      	lsls	r3, r6, #28
 8004c1c:	d50f      	bpl.n	8004c3e <HAL_TIM_IRQHandler+0x74>
 8004c1e:	0728      	lsls	r0, r5, #28
 8004c20:	d50d      	bpl.n	8004c3e <HAL_TIM_IRQHandler+0x74>
 8004c22:	6823      	ldr	r3, [r4, #0]
 8004c24:	f06f 0208 	mvn.w	r2, #8
 8004c28:	611a      	str	r2, [r3, #16]
 8004c2a:	2204      	movs	r2, #4
 8004c2c:	7722      	strb	r2, [r4, #28]
 8004c2e:	69db      	ldr	r3, [r3, #28]
 8004c30:	0799      	lsls	r1, r3, #30
 8004c32:	4620      	mov	r0, r4
 8004c34:	d050      	beq.n	8004cd8 <HAL_TIM_IRQHandler+0x10e>
 8004c36:	f7ff ffc5 	bl	8004bc4 <HAL_TIM_IC_CaptureCallback>
 8004c3a:	2300      	movs	r3, #0
 8004c3c:	7723      	strb	r3, [r4, #28]
 8004c3e:	06f2      	lsls	r2, r6, #27
 8004c40:	d510      	bpl.n	8004c64 <HAL_TIM_IRQHandler+0x9a>
 8004c42:	06eb      	lsls	r3, r5, #27
 8004c44:	d50e      	bpl.n	8004c64 <HAL_TIM_IRQHandler+0x9a>
 8004c46:	6823      	ldr	r3, [r4, #0]
 8004c48:	f06f 0210 	mvn.w	r2, #16
 8004c4c:	611a      	str	r2, [r3, #16]
 8004c4e:	2208      	movs	r2, #8
 8004c50:	7722      	strb	r2, [r4, #28]
 8004c52:	69db      	ldr	r3, [r3, #28]
 8004c54:	f413 7f40 	tst.w	r3, #768	@ 0x300
 8004c58:	4620      	mov	r0, r4
 8004c5a:	d043      	beq.n	8004ce4 <HAL_TIM_IRQHandler+0x11a>
 8004c5c:	f7ff ffb2 	bl	8004bc4 <HAL_TIM_IC_CaptureCallback>
 8004c60:	2300      	movs	r3, #0
 8004c62:	7723      	strb	r3, [r4, #28]
 8004c64:	07f0      	lsls	r0, r6, #31
 8004c66:	d508      	bpl.n	8004c7a <HAL_TIM_IRQHandler+0xb0>
 8004c68:	07e9      	lsls	r1, r5, #31
 8004c6a:	d506      	bpl.n	8004c7a <HAL_TIM_IRQHandler+0xb0>
 8004c6c:	6823      	ldr	r3, [r4, #0]
 8004c6e:	f06f 0201 	mvn.w	r2, #1
 8004c72:	611a      	str	r2, [r3, #16]
 8004c74:	4620      	mov	r0, r4
 8004c76:	f7ff ffa3 	bl	8004bc0 <HAL_TIM_PeriodElapsedCallback>
 8004c7a:	0632      	lsls	r2, r6, #24
 8004c7c:	d508      	bpl.n	8004c90 <HAL_TIM_IRQHandler+0xc6>
 8004c7e:	062b      	lsls	r3, r5, #24
 8004c80:	d506      	bpl.n	8004c90 <HAL_TIM_IRQHandler+0xc6>
 8004c82:	6823      	ldr	r3, [r4, #0]
 8004c84:	f06f 0280 	mvn.w	r2, #128	@ 0x80
 8004c88:	611a      	str	r2, [r3, #16]
 8004c8a:	4620      	mov	r0, r4
 8004c8c:	f000 f909 	bl	8004ea2 <HAL_TIMEx_BreakCallback>
 8004c90:	0670      	lsls	r0, r6, #25
 8004c92:	d508      	bpl.n	8004ca6 <HAL_TIM_IRQHandler+0xdc>
 8004c94:	0669      	lsls	r1, r5, #25
 8004c96:	d506      	bpl.n	8004ca6 <HAL_TIM_IRQHandler+0xdc>
 8004c98:	6823      	ldr	r3, [r4, #0]
 8004c9a:	f06f 0240 	mvn.w	r2, #64	@ 0x40
 8004c9e:	611a      	str	r2, [r3, #16]
 8004ca0:	4620      	mov	r0, r4
 8004ca2:	f7ff ff91 	bl	8004bc8 <HAL_TIM_TriggerCallback>
 8004ca6:	06b2      	lsls	r2, r6, #26
 8004ca8:	d522      	bpl.n	8004cf0 <HAL_TIM_IRQHandler+0x126>
 8004caa:	06ab      	lsls	r3, r5, #26
 8004cac:	d520      	bpl.n	8004cf0 <HAL_TIM_IRQHandler+0x126>
 8004cae:	6823      	ldr	r3, [r4, #0]
 8004cb0:	f06f 0220 	mvn.w	r2, #32
 8004cb4:	4620      	mov	r0, r4
 8004cb6:	611a      	str	r2, [r3, #16]
 8004cb8:	e8bd 4070 	ldmia.w	sp!, {r4, r5, r6, lr}
 8004cbc:	f000 b8f0 	b.w	8004ea0 <HAL_TIMEx_CommutCallback>
 8004cc0:	f7ff ff7f 	bl	8004bc2 <HAL_TIM_OC_DelayElapsedCallback>
 8004cc4:	4620      	mov	r0, r4
 8004cc6:	f7ff ff7e 	bl	8004bc6 <HAL_TIM_PWM_PulseFinishedCallback>
 8004cca:	e791      	b.n	8004bf0 <HAL_TIM_IRQHandler+0x26>
 8004ccc:	f7ff ff79 	bl	8004bc2 <HAL_TIM_OC_DelayElapsedCallback>
 8004cd0:	4620      	mov	r0, r4
 8004cd2:	f7ff ff78 	bl	8004bc6 <HAL_TIM_PWM_PulseFinishedCallback>
 8004cd6:	e79e      	b.n	8004c16 <HAL_TIM_IRQHandler+0x4c>
 8004cd8:	f7ff ff73 	bl	8004bc2 <HAL_TIM_OC_DelayElapsedCallback>
 8004cdc:	4620      	mov	r0, r4
 8004cde:	f7ff ff72 	bl	8004bc6 <HAL_TIM_PWM_PulseFinishedCallback>
 8004ce2:	e7aa      	b.n	8004c3a <HAL_TIM_IRQHandler+0x70>
 8004ce4:	f7ff ff6d 	bl	8004bc2 <HAL_TIM_OC_DelayElapsedCallback>
 8004ce8:	4620      	mov	r0, r4
 8004cea:	f7ff ff6c 	bl	8004bc6 <HAL_TIM_PWM_PulseFinishedCallback>
 8004cee:	e7b7      	b.n	8004c60 <HAL_TIM_IRQHandler+0x96>
 8004cf0:	bd70      	pop	{r4, r5, r6, pc}
	...

08004cf4 <TIM_Base_SetConfig>:
 8004cf4:	4a33      	ldr	r2, [pc, #204]	@ (8004dc4 <TIM_Base_SetConfig+0xd0>)
 8004cf6:	6803      	ldr	r3, [r0, #0]
 8004cf8:	4290      	cmp	r0, r2
 8004cfa:	d012      	beq.n	8004d22 <TIM_Base_SetConfig+0x2e>
 8004cfc:	f1b0 4f80 	cmp.w	r0, #1073741824	@ 0x40000000
 8004d00:	d00f      	beq.n	8004d22 <TIM_Base_SetConfig+0x2e>
 8004d02:	f5a2 427c 	sub.w	r2, r2, #64512	@ 0xfc00
 8004d06:	4290      	cmp	r0, r2
 8004d08:	d00b      	beq.n	8004d22 <TIM_Base_SetConfig+0x2e>
 8004d0a:	f502 6280 	add.w	r2, r2, #1024	@ 0x400
 8004d0e:	4290      	cmp	r0, r2
 8004d10:	d007      	beq.n	8004d22 <TIM_Base_SetConfig+0x2e>
 8004d12:	f502 6280 	add.w	r2, r2, #1024	@ 0x400
 8004d16:	4290      	cmp	r0, r2
 8004d18:	d003      	beq.n	8004d22 <TIM_Base_SetConfig+0x2e>
 8004d1a:	f502 4278 	add.w	r2, r2, #63488	@ 0xf800
 8004d1e:	4290      	cmp	r0, r2
 8004d20:	d119      	bne.n	8004d56 <TIM_Base_SetConfig+0x62>
 8004d22:	684a      	ldr	r2, [r1, #4]
 8004d24:	f023 0370 	bic.w	r3, r3, #112	@ 0x70
 8004d28:	4313      	orrs	r3, r2
 8004d2a:	4a26      	ldr	r2, [pc, #152]	@ (8004dc4 <TIM_Base_SetConfig+0xd0>)
 8004d2c:	4290      	cmp	r0, r2
 8004d2e:	d029      	beq.n	8004d84 <TIM_Base_SetConfig+0x90>
 8004d30:	f1b0 4f80 	cmp.w	r0, #1073741824	@ 0x40000000
 8004d34:	d026      	beq.n	8004d84 <TIM_Base_SetConfig+0x90>
 8004d36:	f5a2 427c 	sub.w	r2, r2, #64512	@ 0xfc00
 8004d3a:	4290      	cmp	r0, r2
 8004d3c:	d022      	beq.n	8004d84 <TIM_Base_SetConfig+0x90>
 8004d3e:	f502 6280 	add.w	r2, r2, #1024	@ 0x400
 8004d42:	4290      	cmp	r0, r2
 8004d44:	d01e      	beq.n	8004d84 <TIM_Base_SetConfig+0x90>
 8004d46:	f502 6280 	add.w	r2, r2, #1024	@ 0x400
 8004d4a:	4290      	cmp	r0, r2
 8004d4c:	d01a      	beq.n	8004d84 <TIM_Base_SetConfig+0x90>
 8004d4e:	f502 4278 	add.w	r2, r2, #63488	@ 0xf800
 8004d52:	4290      	cmp	r0, r2
 8004d54:	d016      	beq.n	8004d84 <TIM_Base_SetConfig+0x90>
 8004d56:	4a1c      	ldr	r2, [pc, #112]	@ (8004dc8 <TIM_Base_SetConfig+0xd4>)
 8004d58:	4290      	cmp	r0, r2
 8004d5a:	d013      	beq.n	8004d84 <TIM_Base_SetConfig+0x90>
 8004d5c:	f502 6280 	add.w	r2, r2, #1024	@ 0x400
 8004d60:	4290      	cmp	r0, r2
 8004d62:	d00f      	beq.n	8004d84 <TIM_Base_SetConfig+0x90>
 8004d64:	f502 6280 	add.w	r2, r2, #1024	@ 0x400
 8004d68:	4290      	cmp	r0, r2
 8004d6a:	d00b      	beq.n	8004d84 <TIM_Base_SetConfig+0x90>
 8004d6c:	f5a2 3298 	sub.w	r2, r2, #77824	@ 0x13000
 8004d70:	4290      	cmp	r0, r2
 8004d72:	d007      	beq.n	8004d84 <TIM_Base_SetConfig+0x90>
 8004d74:	f502 6280 	add.w	r2, r2, #1024	@ 0x400
 8004d78:	4290      	cmp	r0, r2
 8004d7a:	d003      	beq.n	8004d84 <TIM_Base_SetConfig+0x90>
 8004d7c:	f502 6280 	add.w	r2, r2, #1024	@ 0x400
 8004d80:	4290      	cmp	r0, r2
 8004d82:	d103      	bne.n	8004d8c <TIM_Base_SetConfig+0x98>
 8004d84:	68ca      	ldr	r2, [r1, #12]
 8004d86:	f423 7340 	bic.w	r3, r3, #768	@ 0x300
 8004d8a:	4313      	orrs	r3, r2
 8004d8c:	694a      	ldr	r2, [r1, #20]
 8004d8e:	f023 0380 	bic.w	r3, r3, #128	@ 0x80
 8004d92:	4313      	orrs	r3, r2
 8004d94:	6003      	str	r3, [r0, #0]
 8004d96:	688b      	ldr	r3, [r1, #8]
 8004d98:	62c3      	str	r3, [r0, #44]	@ 0x2c
 8004d9a:	680b      	ldr	r3, [r1, #0]
 8004d9c:	6283      	str	r3, [r0, #40]	@ 0x28
 8004d9e:	4b09      	ldr	r3, [pc, #36]	@ (8004dc4 <TIM_Base_SetConfig+0xd0>)
 8004da0:	4298      	cmp	r0, r3
 8004da2:	d003      	beq.n	8004dac <TIM_Base_SetConfig+0xb8>
 8004da4:	f503 6380 	add.w	r3, r3, #1024	@ 0x400
 8004da8:	4298      	cmp	r0, r3
 8004daa:	d101      	bne.n	8004db0 <TIM_Base_SetConfig+0xbc>
 8004dac:	690b      	ldr	r3, [r1, #16]
 8004dae:	6303      	str	r3, [r0, #48]	@ 0x30
 8004db0:	2301      	movs	r3, #1
 8004db2:	6143      	str	r3, [r0, #20]
 8004db4:	6903      	ldr	r3, [r0, #16]
 8004db6:	07db      	lsls	r3, r3, #31
 8004db8:	bf42      	ittt	mi
 8004dba:	6903      	ldrmi	r3, [r0, #16]
 8004dbc:	f023 0301 	bicmi.w	r3, r3, #1
 8004dc0:	6103      	strmi	r3, [r0, #16]
 8004dc2:	4770      	bx	lr
 8004dc4:	40010000 	.word	0x40010000
 8004dc8:	40014000 	.word	0x40014000

08004dcc <HAL_TIM_Base_Init>:
 8004dcc:	b510      	push	{r4, lr}
 8004dce:	4604      	mov	r4, r0
 8004dd0:	b330      	cbz	r0, 8004e20 <HAL_TIM_Base_Init+0x54>
 8004dd2:	f890 303d 	ldrb.w	r3, [r0, #61]	@ 0x3d
 8004dd6:	f003 02ff 	and.w	r2, r3, #255	@ 0xff
 8004dda:	b91b      	cbnz	r3, 8004de4 <HAL_TIM_Base_Init+0x18>
 8004ddc:	f880 203c 	strb.w	r2, [r0, #60]	@ 0x3c
 8004de0:	f7fd f8a0 	bl	8001f24 <HAL_TIM_Base_MspInit>
 8004de4:	2302      	movs	r3, #2
 8004de6:	6820      	ldr	r0, [r4, #0]
 8004de8:	f884 303d 	strb.w	r3, [r4, #61]	@ 0x3d
 8004dec:	1d21      	adds	r1, r4, #4
 8004dee:	f7ff ff81 	bl	8004cf4 <TIM_Base_SetConfig>
 8004df2:	2301      	movs	r3, #1
 8004df4:	f884 3046 	strb.w	r3, [r4, #70]	@ 0x46
 8004df8:	2000      	movs	r0, #0
 8004dfa:	f884 303e 	strb.w	r3, [r4, #62]	@ 0x3e
 8004dfe:	f884 303f 	strb.w	r3, [r4, #63]	@ 0x3f
 8004e02:	f884 3040 	strb.w	r3, [r4, #64]	@ 0x40
 8004e06:	f884 3041 	strb.w	r3, [r4, #65]	@ 0x41
 8004e0a:	f884 3042 	strb.w	r3, [r4, #66]	@ 0x42
 8004e0e:	f884 3043 	strb.w	r3, [r4, #67]	@ 0x43
 8004e12:	f884 3044 	strb.w	r3, [r4, #68]	@ 0x44
 8004e16:	f884 3045 	strb.w	r3, [r4, #69]	@ 0x45
 8004e1a:	f884 303d 	strb.w	r3, [r4, #61]	@ 0x3d
 8004e1e:	bd10      	pop	{r4, pc}
 8004e20:	2001      	movs	r0, #1
 8004e22:	e7fc      	b.n	8004e1e <HAL_TIM_Base_Init+0x52>

08004e24 <HAL_TIMEx_MasterConfigSynchronization>:
 8004e24:	b530      	push	{r4, r5, lr}
 8004e26:	f890 303c 	ldrb.w	r3, [r0, #60]	@ 0x3c
 8004e2a:	2b01      	cmp	r3, #1
 8004e2c:	4602      	mov	r2, r0
 8004e2e:	f04f 0002 	mov.w	r0, #2
 8004e32:	d032      	beq.n	8004e9a <HAL_TIMEx_MasterConfigSynchronization+0x76>
 8004e34:	6813      	ldr	r3, [r2, #0]
 8004e36:	f882 003d 	strb.w	r0, [r2, #61]	@ 0x3d
 8004e3a:	685c      	ldr	r4, [r3, #4]
 8004e3c:	680d      	ldr	r5, [r1, #0]
 8004e3e:	6898      	ldr	r0, [r3, #8]
 8004e40:	f024 0470 	bic.w	r4, r4, #112	@ 0x70
 8004e44:	432c      	orrs	r4, r5
 8004e46:	605c      	str	r4, [r3, #4]
 8004e48:	4c14      	ldr	r4, [pc, #80]	@ (8004e9c <HAL_TIMEx_MasterConfigSynchronization+0x78>)
 8004e4a:	42a3      	cmp	r3, r4
 8004e4c:	d01a      	beq.n	8004e84 <HAL_TIMEx_MasterConfigSynchronization+0x60>
 8004e4e:	f1b3 4f80 	cmp.w	r3, #1073741824	@ 0x40000000
 8004e52:	d017      	beq.n	8004e84 <HAL_TIMEx_MasterConfigSynchronization+0x60>
 8004e54:	f5a4 447c 	sub.w	r4, r4, #64512	@ 0xfc00
 8004e58:	42a3      	cmp	r3, r4
 8004e5a:	d013      	beq.n	8004e84 <HAL_TIMEx_MasterConfigSynchronization+0x60>
 8004e5c:	f504 6480 	add.w	r4, r4, #1024	@ 0x400
 8004e60:	42a3      	cmp	r3, r4
 8004e62:	d00f      	beq.n	8004e84 <HAL_TIMEx_MasterConfigSynchronization+0x60>
 8004e64:	f504 6480 	add.w	r4, r4, #1024	@ 0x400
 8004e68:	42a3      	cmp	r3, r4
 8004e6a:	d00b      	beq.n	8004e84 <HAL_TIMEx_MasterConfigSynchronization+0x60>
 8004e6c:	f504 4478 	add.w	r4, r4, #63488	@ 0xf800
 8004e70:	42a3      	cmp	r3, r4
 8004e72:	d007      	beq.n	8004e84 <HAL_TIMEx_MasterConfigSynchronization+0x60>
 8004e74:	f504 5470 	add.w	r4, r4, #15360	@ 0x3c00
 8004e78:	42a3      	cmp	r3, r4
 8004e7a:	d003      	beq.n	8004e84 <HAL_TIMEx_MasterConfigSynchronization+0x60>
 8004e7c:	f5a4 3494 	sub.w	r4, r4, #75776	@ 0x12800
 8004e80:	42a3      	cmp	r3, r4
 8004e82:	d104      	bne.n	8004e8e <HAL_TIMEx_MasterConfigSynchronization+0x6a>
 8004e84:	6849      	ldr	r1, [r1, #4]
 8004e86:	f020 0080 	bic.w	r0, r0, #128	@ 0x80
 8004e8a:	4301      	orrs	r1, r0
 8004e8c:	6099      	str	r1, [r3, #8]
 8004e8e:	2301      	movs	r3, #1
 8004e90:	2000      	movs	r0, #0
 8004e92:	f882 303d 	strb.w	r3, [r2, #61]	@ 0x3d
 8004e96:	f882 003c 	strb.w	r0, [r2, #60]	@ 0x3c
 8004e9a:	bd30      	pop	{r4, r5, pc}
 8004e9c:	40010000 	.word	0x40010000

08004ea0 <HAL_TIMEx_CommutCallback>:
 8004ea0:	4770      	bx	lr

08004ea2 <HAL_TIMEx_BreakCallback>:
 8004ea2:	4770      	bx	lr

08004ea4 <UART_EndRxTransfer>:
 8004ea4:	6802      	ldr	r2, [r0, #0]
 8004ea6:	f102 030c 	add.w	r3, r2, #12
 8004eaa:	e853 3f00 	ldrex	r3, [r3]
 8004eae:	f423 7390 	bic.w	r3, r3, #288	@ 0x120
 8004eb2:	320c      	adds	r2, #12
 8004eb4:	e842 3100 	strex	r1, r3, [r2]
 8004eb8:	6802      	ldr	r2, [r0, #0]
 8004eba:	2900      	cmp	r1, #0
 8004ebc:	d1f2      	bne.n	8004ea4 <UART_EndRxTransfer>
 8004ebe:	f102 0314 	add.w	r3, r2, #20
 8004ec2:	e853 3f00 	ldrex	r3, [r3]
 8004ec6:	f023 0301 	bic.w	r3, r3, #1
 8004eca:	f102 0c14 	add.w	ip, r2, #20
 8004ece:	e84c 3100 	strex	r1, r3, [ip]
 8004ed2:	2900      	cmp	r1, #0
 8004ed4:	d1f3      	bne.n	8004ebe <UART_EndRxTransfer+0x1a>
 8004ed6:	6b03      	ldr	r3, [r0, #48]	@ 0x30
 8004ed8:	2b01      	cmp	r3, #1
 8004eda:	d10b      	bne.n	8004ef4 <UART_EndRxTransfer+0x50>
 8004edc:	f102 030c 	add.w	r3, r2, #12
 8004ee0:	e853 3f00 	ldrex	r3, [r3]
 8004ee4:	f023 0310 	bic.w	r3, r3, #16
 8004ee8:	f102 0c0c 	add.w	ip, r2, #12
 8004eec:	e84c 3100 	strex	r1, r3, [ip]
 8004ef0:	2900      	cmp	r1, #0
 8004ef2:	d1f3      	bne.n	8004edc <UART_EndRxTransfer+0x38>
 8004ef4:	2320      	movs	r3, #32
 8004ef6:	f880 3042 	strb.w	r3, [r0, #66]	@ 0x42
 8004efa:	2300      	movs	r3, #0
 8004efc:	6303      	str	r3, [r0, #48]	@ 0x30
 8004efe:	4770      	bx	lr

08004f00 <UART_SetConfig>:
 8004f00:	6802      	ldr	r2, [r0, #0]
 8004f02:	68c1      	ldr	r1, [r0, #12]
 8004f04:	b538      	push	{r3, r4, r5, lr}
 8004f06:	6913      	ldr	r3, [r2, #16]
 8004f08:	f423 5340 	bic.w	r3, r3, #12288	@ 0x3000
 8004f0c:	430b      	orrs	r3, r1
 8004f0e:	6113      	str	r3, [r2, #16]
 8004f10:	4605      	mov	r5, r0
 8004f12:	6883      	ldr	r3, [r0, #8]
 8004f14:	6900      	ldr	r0, [r0, #16]
 8004f16:	68d1      	ldr	r1, [r2, #12]
 8004f18:	4303      	orrs	r3, r0
 8004f1a:	6968      	ldr	r0, [r5, #20]
 8004f1c:	4303      	orrs	r3, r0
 8004f1e:	69e8      	ldr	r0, [r5, #28]
 8004f20:	f421 4116 	bic.w	r1, r1, #38400	@ 0x9600
 8004f24:	f021 010c 	bic.w	r1, r1, #12
 8004f28:	4303      	orrs	r3, r0
 8004f2a:	430b      	orrs	r3, r1
 8004f2c:	60d3      	str	r3, [r2, #12]
 8004f2e:	6953      	ldr	r3, [r2, #20]
 8004f30:	69a9      	ldr	r1, [r5, #24]
 8004f32:	f423 7340 	bic.w	r3, r3, #768	@ 0x300
 8004f36:	430b      	orrs	r3, r1
 8004f38:	6153      	str	r3, [r2, #20]
 8004f3a:	4b1f      	ldr	r3, [pc, #124]	@ (8004fb8 <UART_SetConfig+0xb8>)
 8004f3c:	429a      	cmp	r2, r3
 8004f3e:	d003      	beq.n	8004f48 <UART_SetConfig+0x48>
 8004f40:	f503 6380 	add.w	r3, r3, #1024	@ 0x400
 8004f44:	429a      	cmp	r2, r3
 8004f46:	d124      	bne.n	8004f92 <UART_SetConfig+0x92>
 8004f48:	f7fe ff1a 	bl	8003d80 <HAL_RCC_GetPCLK2Freq>
 8004f4c:	69ea      	ldr	r2, [r5, #28]
 8004f4e:	2119      	movs	r1, #25
 8004f50:	f5b2 4f00 	cmp.w	r2, #32768	@ 0x8000
 8004f54:	e9d5 4300 	ldrd	r4, r3, [r5]
 8004f58:	fba0 0101 	umull	r0, r1, r0, r1
 8004f5c:	d11c      	bne.n	8004f98 <UART_SetConfig+0x98>
 8004f5e:	18da      	adds	r2, r3, r3
 8004f60:	f04f 0500 	mov.w	r5, #0
 8004f64:	eb45 0305 	adc.w	r3, r5, r5
 8004f68:	f7fb f948 	bl	80001fc <__aeabi_uldivmod>
 8004f6c:	2264      	movs	r2, #100	@ 0x64
 8004f6e:	fbb0 f1f2 	udiv	r1, r0, r2
 8004f72:	fb02 0311 	mls	r3, r2, r1, r0
 8004f76:	00db      	lsls	r3, r3, #3
 8004f78:	3332      	adds	r3, #50	@ 0x32
 8004f7a:	fbb3 f3f2 	udiv	r3, r3, r2
 8004f7e:	f003 0207 	and.w	r2, r3, #7
 8004f82:	005b      	lsls	r3, r3, #1
 8004f84:	eb02 1201 	add.w	r2, r2, r1, lsl #4
 8004f88:	f403 73f8 	and.w	r3, r3, #496	@ 0x1f0
 8004f8c:	4413      	add	r3, r2
 8004f8e:	60a3      	str	r3, [r4, #8]
 8004f90:	bd38      	pop	{r3, r4, r5, pc}
 8004f92:	f7fe fee5 	bl	8003d60 <HAL_RCC_GetPCLK1Freq>
 8004f96:	e7d9      	b.n	8004f4c <UART_SetConfig+0x4c>
 8004f98:	009a      	lsls	r2, r3, #2
 8004f9a:	0f9b      	lsrs	r3, r3, #30
 8004f9c:	f7fb f92e 	bl	80001fc <__aeabi_uldivmod>
 8004fa0:	2264      	movs	r2, #100	@ 0x64
 8004fa2:	fbb0 f1f2 	udiv	r1, r0, r2
 8004fa6:	fb02 0311 	mls	r3, r2, r1, r0
 8004faa:	011b      	lsls	r3, r3, #4
 8004fac:	3332      	adds	r3, #50	@ 0x32
 8004fae:	fbb3 f3f2 	udiv	r3, r3, r2
 8004fb2:	eb03 1301 	add.w	r3, r3, r1, lsl #4
 8004fb6:	e7ea      	b.n	8004f8e <UART_SetConfig+0x8e>
 8004fb8:	40011000 	.word	0x40011000

08004fbc <UART_WaitOnFlagUntilTimeout.constprop.0>:
 8004fbc:	b5f7      	push	{r0, r1, r2, r4, r5, r6, r7, lr}
 8004fbe:	4605      	mov	r5, r0
 8004fc0:	460c      	mov	r4, r1
 8004fc2:	4617      	mov	r7, r2
 8004fc4:	461e      	mov	r6, r3
 8004fc6:	682a      	ldr	r2, [r5, #0]
 8004fc8:	6813      	ldr	r3, [r2, #0]
 8004fca:	ea34 0303 	bics.w	r3, r4, r3
 8004fce:	d101      	bne.n	8004fd4 <UART_WaitOnFlagUntilTimeout.constprop.0+0x18>
 8004fd0:	2000      	movs	r0, #0
 8004fd2:	e021      	b.n	8005018 <UART_WaitOnFlagUntilTimeout.constprop.0+0x5c>
 8004fd4:	1c70      	adds	r0, r6, #1
 8004fd6:	d0f7      	beq.n	8004fc8 <UART_WaitOnFlagUntilTimeout.constprop.0+0xc>
 8004fd8:	f7fd f95c 	bl	8002294 <HAL_GetTick>
 8004fdc:	1bc0      	subs	r0, r0, r7
 8004fde:	4286      	cmp	r6, r0
 8004fe0:	d31c      	bcc.n	800501c <UART_WaitOnFlagUntilTimeout.constprop.0+0x60>
 8004fe2:	b1de      	cbz	r6, 800501c <UART_WaitOnFlagUntilTimeout.constprop.0+0x60>
 8004fe4:	682b      	ldr	r3, [r5, #0]
 8004fe6:	68da      	ldr	r2, [r3, #12]
 8004fe8:	0751      	lsls	r1, r2, #29
 8004fea:	d5ec      	bpl.n	8004fc6 <UART_WaitOnFlagUntilTimeout.constprop.0+0xa>
 8004fec:	2c80      	cmp	r4, #128	@ 0x80
 8004fee:	d0ea      	beq.n	8004fc6 <UART_WaitOnFlagUntilTimeout.constprop.0+0xa>
 8004ff0:	2c40      	cmp	r4, #64	@ 0x40
 8004ff2:	d0e8      	beq.n	8004fc6 <UART_WaitOnFlagUntilTimeout.constprop.0+0xa>
 8004ff4:	681a      	ldr	r2, [r3, #0]
 8004ff6:	0712      	lsls	r2, r2, #28
 8004ff8:	d5e5      	bpl.n	8004fc6 <UART_WaitOnFlagUntilTimeout.constprop.0+0xa>
 8004ffa:	2400      	movs	r4, #0
 8004ffc:	9401      	str	r4, [sp, #4]
 8004ffe:	681a      	ldr	r2, [r3, #0]
 8005000:	9201      	str	r2, [sp, #4]
 8005002:	685b      	ldr	r3, [r3, #4]
 8005004:	9301      	str	r3, [sp, #4]
 8005006:	4628      	mov	r0, r5
 8005008:	9b01      	ldr	r3, [sp, #4]
 800500a:	f7ff ff4b 	bl	8004ea4 <UART_EndRxTransfer>
 800500e:	2308      	movs	r3, #8
 8005010:	646b      	str	r3, [r5, #68]	@ 0x44
 8005012:	f885 4040 	strb.w	r4, [r5, #64]	@ 0x40
 8005016:	2001      	movs	r0, #1
 8005018:	b003      	add	sp, #12
 800501a:	bdf0      	pop	{r4, r5, r6, r7, pc}
 800501c:	2003      	movs	r0, #3
 800501e:	e7fb      	b.n	8005018 <UART_WaitOnFlagUntilTimeout.constprop.0+0x5c>

08005020 <HAL_UART_Init>:
 8005020:	b510      	push	{r4, lr}
 8005022:	4604      	mov	r4, r0
 8005024:	b348      	cbz	r0, 800507a <HAL_UART_Init+0x5a>
 8005026:	f890 3041 	ldrb.w	r3, [r0, #65]	@ 0x41
 800502a:	f003 02ff 	and.w	r2, r3, #255	@ 0xff
 800502e:	b91b      	cbnz	r3, 8005038 <HAL_UART_Init+0x18>
 8005030:	f880 2040 	strb.w	r2, [r0, #64]	@ 0x40
 8005034:	f7fc ffb0 	bl	8001f98 <HAL_UART_MspInit>
 8005038:	6822      	ldr	r2, [r4, #0]
 800503a:	2324      	movs	r3, #36	@ 0x24
 800503c:	f884 3041 	strb.w	r3, [r4, #65]	@ 0x41
 8005040:	68d3      	ldr	r3, [r2, #12]
 8005042:	f423 5300 	bic.w	r3, r3, #8192	@ 0x2000
 8005046:	60d3      	str	r3, [r2, #12]
 8005048:	4620      	mov	r0, r4
 800504a:	f7ff ff59 	bl	8004f00 <UART_SetConfig>
 800504e:	6823      	ldr	r3, [r4, #0]
 8005050:	691a      	ldr	r2, [r3, #16]
 8005052:	f422 4290 	bic.w	r2, r2, #18432	@ 0x4800
 8005056:	611a      	str	r2, [r3, #16]
 8005058:	695a      	ldr	r2, [r3, #20]
 800505a:	f022 022a 	bic.w	r2, r2, #42	@ 0x2a
 800505e:	615a      	str	r2, [r3, #20]
 8005060:	68da      	ldr	r2, [r3, #12]
 8005062:	f442 5200 	orr.w	r2, r2, #8192	@ 0x2000
 8005066:	60da      	str	r2, [r3, #12]
 8005068:	2000      	movs	r0, #0
 800506a:	2320      	movs	r3, #32
 800506c:	6460      	str	r0, [r4, #68]	@ 0x44
 800506e:	f884 3041 	strb.w	r3, [r4, #65]	@ 0x41
 8005072:	f884 3042 	strb.w	r3, [r4, #66]	@ 0x42
 8005076:	6360      	str	r0, [r4, #52]	@ 0x34
 8005078:	bd10      	pop	{r4, pc}
 800507a:	2001      	movs	r0, #1
 800507c:	e7fc      	b.n	8005078 <HAL_UART_Init+0x58>

0800507e <HAL_UART_Transmit>:
 800507e:	e92d 43f8 	stmdb	sp!, {r3, r4, r5, r6, r7, r8, r9, lr}
 8005082:	4698      	mov	r8, r3
 8005084:	f890 3041 	ldrb.w	r3, [r0, #65]	@ 0x41
 8005088:	2b20      	cmp	r3, #32
 800508a:	4604      	mov	r4, r0
 800508c:	460e      	mov	r6, r1
 800508e:	4617      	mov	r7, r2
 8005090:	d13f      	bne.n	8005112 <HAL_UART_Transmit+0x94>
 8005092:	2900      	cmp	r1, #0
 8005094:	d03f      	beq.n	8005116 <HAL_UART_Transmit+0x98>
 8005096:	2a00      	cmp	r2, #0
 8005098:	d03d      	beq.n	8005116 <HAL_UART_Transmit+0x98>
 800509a:	2321      	movs	r3, #33	@ 0x21
 800509c:	2500      	movs	r5, #0
 800509e:	6445      	str	r5, [r0, #68]	@ 0x44
 80050a0:	f880 3041 	strb.w	r3, [r0, #65]	@ 0x41
 80050a4:	f7fd f8f6 	bl	8002294 <HAL_GetTick>
 80050a8:	68a3      	ldr	r3, [r4, #8]
 80050aa:	84a7      	strh	r7, [r4, #36]	@ 0x24
 80050ac:	f5b3 5f80 	cmp.w	r3, #4096	@ 0x1000
 80050b0:	4681      	mov	r9, r0
 80050b2:	84e7      	strh	r7, [r4, #38]	@ 0x26
 80050b4:	d103      	bne.n	80050be <HAL_UART_Transmit+0x40>
 80050b6:	6923      	ldr	r3, [r4, #16]
 80050b8:	b90b      	cbnz	r3, 80050be <HAL_UART_Transmit+0x40>
 80050ba:	4635      	mov	r5, r6
 80050bc:	461e      	mov	r6, r3
 80050be:	8ce3      	ldrh	r3, [r4, #38]	@ 0x26
 80050c0:	b29b      	uxth	r3, r3
 80050c2:	b953      	cbnz	r3, 80050da <HAL_UART_Transmit+0x5c>
 80050c4:	4643      	mov	r3, r8
 80050c6:	464a      	mov	r2, r9
 80050c8:	2140      	movs	r1, #64	@ 0x40
 80050ca:	4620      	mov	r0, r4
 80050cc:	f7ff ff76 	bl	8004fbc <UART_WaitOnFlagUntilTimeout.constprop.0>
 80050d0:	2320      	movs	r3, #32
 80050d2:	b950      	cbnz	r0, 80050ea <HAL_UART_Transmit+0x6c>
 80050d4:	f884 3041 	strb.w	r3, [r4, #65]	@ 0x41
 80050d8:	e00a      	b.n	80050f0 <HAL_UART_Transmit+0x72>
 80050da:	4643      	mov	r3, r8
 80050dc:	464a      	mov	r2, r9
 80050de:	2180      	movs	r1, #128	@ 0x80
 80050e0:	4620      	mov	r0, r4
 80050e2:	f7ff ff6b 	bl	8004fbc <UART_WaitOnFlagUntilTimeout.constprop.0>
 80050e6:	b128      	cbz	r0, 80050f4 <HAL_UART_Transmit+0x76>
 80050e8:	2320      	movs	r3, #32
 80050ea:	f884 3041 	strb.w	r3, [r4, #65]	@ 0x41
 80050ee:	2003      	movs	r0, #3
 80050f0:	e8bd 83f8 	ldmia.w	sp!, {r3, r4, r5, r6, r7, r8, r9, pc}
 80050f4:	6822      	ldr	r2, [r4, #0]
 80050f6:	b94e      	cbnz	r6, 800510c <HAL_UART_Transmit+0x8e>
 80050f8:	f835 3b02 	ldrh.w	r3, [r5], #2
 80050fc:	f3c3 0308 	ubfx	r3, r3, #0, #9
 8005100:	6053      	str	r3, [r2, #4]
 8005102:	8ce1      	ldrh	r1, [r4, #38]	@ 0x26
 8005104:	3901      	subs	r1, #1
 8005106:	b289      	uxth	r1, r1
 8005108:	84e1      	strh	r1, [r4, #38]	@ 0x26
 800510a:	e7d8      	b.n	80050be <HAL_UART_Transmit+0x40>
 800510c:	f816 3b01 	ldrb.w	r3, [r6], #1
 8005110:	e7f6      	b.n	8005100 <HAL_UART_Transmit+0x82>
 8005112:	2002      	movs	r0, #2
 8005114:	e7ec      	b.n	80050f0 <HAL_UART_Transmit+0x72>
 8005116:	2001      	movs	r0, #1
 8005118:	e7ea      	b.n	80050f0 <HAL_UART_Transmit+0x72>

0800511a <HAL_UART_TxCpltCallback>:
 800511a:	4770      	bx	lr

0800511c <HAL_UART_ErrorCallback>:
 800511c:	4770      	bx	lr

0800511e <UART_DMAAbortOnError>:
 800511e:	b508      	push	{r3, lr}
 8005120:	6b80      	ldr	r0, [r0, #56]	@ 0x38
 8005122:	2300      	movs	r3, #0
 8005124:	85c3      	strh	r3, [r0, #46]	@ 0x2e
 8005126:	84c3      	strh	r3, [r0, #38]	@ 0x26
 8005128:	f7ff fff8 	bl	800511c <HAL_UART_ErrorCallback>
 800512c:	bd08      	pop	{r3, pc}

0800512e <HAL_UARTEx_RxEventCallback>:
 800512e:	4770      	bx	lr

08005130 <UART_Receive_IT.isra.0>:
 8005130:	f890 3042 	ldrb.w	r3, [r0, #66]	@ 0x42
 8005134:	2b22      	cmp	r3, #34	@ 0x22
 8005136:	b507      	push	{r0, r1, r2, lr}
 8005138:	d142      	bne.n	80051c0 <UART_Receive_IT.isra.0+0x90>
 800513a:	6881      	ldr	r1, [r0, #8]
 800513c:	6802      	ldr	r2, [r0, #0]
 800513e:	6a83      	ldr	r3, [r0, #40]	@ 0x28
 8005140:	f5b1 5f80 	cmp.w	r1, #4096	@ 0x1000
 8005144:	d13f      	bne.n	80051c6 <UART_Receive_IT.isra.0+0x96>
 8005146:	6901      	ldr	r1, [r0, #16]
 8005148:	2900      	cmp	r1, #0
 800514a:	d13f      	bne.n	80051cc <UART_Receive_IT.isra.0+0x9c>
 800514c:	6852      	ldr	r2, [r2, #4]
 800514e:	f3c2 0208 	ubfx	r2, r2, #0, #9
 8005152:	f823 2b02 	strh.w	r2, [r3], #2
 8005156:	6283      	str	r3, [r0, #40]	@ 0x28
 8005158:	8dc3      	ldrh	r3, [r0, #46]	@ 0x2e
 800515a:	3b01      	subs	r3, #1
 800515c:	b29b      	uxth	r3, r3
 800515e:	85c3      	strh	r3, [r0, #46]	@ 0x2e
 8005160:	2b00      	cmp	r3, #0
 8005162:	d12d      	bne.n	80051c0 <UART_Receive_IT.isra.0+0x90>
 8005164:	6802      	ldr	r2, [r0, #0]
 8005166:	68d1      	ldr	r1, [r2, #12]
 8005168:	f021 0120 	bic.w	r1, r1, #32
 800516c:	60d1      	str	r1, [r2, #12]
 800516e:	68d1      	ldr	r1, [r2, #12]
 8005170:	f421 7180 	bic.w	r1, r1, #256	@ 0x100
 8005174:	60d1      	str	r1, [r2, #12]
 8005176:	6951      	ldr	r1, [r2, #20]
 8005178:	f021 0101 	bic.w	r1, r1, #1
 800517c:	6151      	str	r1, [r2, #20]
 800517e:	2220      	movs	r2, #32
 8005180:	f880 2042 	strb.w	r2, [r0, #66]	@ 0x42
 8005184:	6343      	str	r3, [r0, #52]	@ 0x34
 8005186:	6b02      	ldr	r2, [r0, #48]	@ 0x30
 8005188:	2a01      	cmp	r2, #1
 800518a:	6802      	ldr	r2, [r0, #0]
 800518c:	d128      	bne.n	80051e0 <UART_Receive_IT.isra.0+0xb0>
 800518e:	6303      	str	r3, [r0, #48]	@ 0x30
 8005190:	f102 030c 	add.w	r3, r2, #12
 8005194:	e853 3f00 	ldrex	r3, [r3]
 8005198:	f023 0310 	bic.w	r3, r3, #16
 800519c:	f102 0c0c 	add.w	ip, r2, #12
 80051a0:	e84c 3100 	strex	r1, r3, [ip]
 80051a4:	2900      	cmp	r1, #0
 80051a6:	d1f3      	bne.n	8005190 <UART_Receive_IT.isra.0+0x60>
 80051a8:	6813      	ldr	r3, [r2, #0]
 80051aa:	06db      	lsls	r3, r3, #27
 80051ac:	d505      	bpl.n	80051ba <UART_Receive_IT.isra.0+0x8a>
 80051ae:	9101      	str	r1, [sp, #4]
 80051b0:	6813      	ldr	r3, [r2, #0]
 80051b2:	9301      	str	r3, [sp, #4]
 80051b4:	6853      	ldr	r3, [r2, #4]
 80051b6:	9301      	str	r3, [sp, #4]
 80051b8:	9b01      	ldr	r3, [sp, #4]
 80051ba:	8d81      	ldrh	r1, [r0, #44]	@ 0x2c
 80051bc:	f7ff ffb7 	bl	800512e <HAL_UARTEx_RxEventCallback>
 80051c0:	b003      	add	sp, #12
 80051c2:	f85d fb04 	ldr.w	pc, [sp], #4
 80051c6:	b939      	cbnz	r1, 80051d8 <UART_Receive_IT.isra.0+0xa8>
 80051c8:	6901      	ldr	r1, [r0, #16]
 80051ca:	b929      	cbnz	r1, 80051d8 <UART_Receive_IT.isra.0+0xa8>
 80051cc:	6852      	ldr	r2, [r2, #4]
 80051ce:	b2d2      	uxtb	r2, r2
 80051d0:	701a      	strb	r2, [r3, #0]
 80051d2:	6a83      	ldr	r3, [r0, #40]	@ 0x28
 80051d4:	3301      	adds	r3, #1
 80051d6:	e7be      	b.n	8005156 <UART_Receive_IT.isra.0+0x26>
 80051d8:	6852      	ldr	r2, [r2, #4]
 80051da:	f002 027f 	and.w	r2, r2, #127	@ 0x7f
 80051de:	e7f7      	b.n	80051d0 <UART_Receive_IT.isra.0+0xa0>
 80051e0:	f7fc ffaa 	bl	8002138 <HAL_UART_RxCpltCallback>
 80051e4:	e7ec      	b.n	80051c0 <UART_Receive_IT.isra.0+0x90>
	...

080051e8 <HAL_UART_IRQHandler>:
 80051e8:	6803      	ldr	r3, [r0, #0]
 80051ea:	681a      	ldr	r2, [r3, #0]
 80051ec:	b573      	push	{r0, r1, r4, r5, r6, lr}
 80051ee:	0716      	lsls	r6, r2, #28
 80051f0:	68d9      	ldr	r1, [r3, #12]
 80051f2:	695d      	ldr	r5, [r3, #20]
 80051f4:	4604      	mov	r4, r0
 80051f6:	d108      	bne.n	800520a <HAL_UART_IRQHandler+0x22>
 80051f8:	0696      	lsls	r6, r2, #26
 80051fa:	d568      	bpl.n	80052ce <HAL_UART_IRQHandler+0xe6>
 80051fc:	068d      	lsls	r5, r1, #26
 80051fe:	d566      	bpl.n	80052ce <HAL_UART_IRQHandler+0xe6>
 8005200:	b002      	add	sp, #8
 8005202:	e8bd 4070 	ldmia.w	sp!, {r4, r5, r6, lr}
 8005206:	f7ff bf93 	b.w	8005130 <UART_Receive_IT.isra.0>
 800520a:	f005 0001 	and.w	r0, r5, #1
 800520e:	f401 7590 	and.w	r5, r1, #288	@ 0x120
 8005212:	4305      	orrs	r5, r0
 8005214:	d05b      	beq.n	80052ce <HAL_UART_IRQHandler+0xe6>
 8005216:	07d6      	lsls	r6, r2, #31
 8005218:	d505      	bpl.n	8005226 <HAL_UART_IRQHandler+0x3e>
 800521a:	05cd      	lsls	r5, r1, #23
 800521c:	bf42      	ittt	mi
 800521e:	6c63      	ldrmi	r3, [r4, #68]	@ 0x44
 8005220:	f043 0301 	orrmi.w	r3, r3, #1
 8005224:	6463      	strmi	r3, [r4, #68]	@ 0x44
 8005226:	0753      	lsls	r3, r2, #29
 8005228:	d504      	bpl.n	8005234 <HAL_UART_IRQHandler+0x4c>
 800522a:	b118      	cbz	r0, 8005234 <HAL_UART_IRQHandler+0x4c>
 800522c:	6c63      	ldr	r3, [r4, #68]	@ 0x44
 800522e:	f043 0302 	orr.w	r3, r3, #2
 8005232:	6463      	str	r3, [r4, #68]	@ 0x44
 8005234:	0796      	lsls	r6, r2, #30
 8005236:	d504      	bpl.n	8005242 <HAL_UART_IRQHandler+0x5a>
 8005238:	b118      	cbz	r0, 8005242 <HAL_UART_IRQHandler+0x5a>
 800523a:	6c63      	ldr	r3, [r4, #68]	@ 0x44
 800523c:	f043 0304 	orr.w	r3, r3, #4
 8005240:	6463      	str	r3, [r4, #68]	@ 0x44
 8005242:	0715      	lsls	r5, r2, #28
 8005244:	d507      	bpl.n	8005256 <HAL_UART_IRQHandler+0x6e>
 8005246:	f001 0320 	and.w	r3, r1, #32
 800524a:	4303      	orrs	r3, r0
 800524c:	bf1e      	ittt	ne
 800524e:	6c63      	ldrne	r3, [r4, #68]	@ 0x44
 8005250:	f043 0308 	orrne.w	r3, r3, #8
 8005254:	6463      	strne	r3, [r4, #68]	@ 0x44
 8005256:	6c63      	ldr	r3, [r4, #68]	@ 0x44
 8005258:	2b00      	cmp	r3, #0
 800525a:	d032      	beq.n	80052c2 <HAL_UART_IRQHandler+0xda>
 800525c:	0692      	lsls	r2, r2, #26
 800525e:	d504      	bpl.n	800526a <HAL_UART_IRQHandler+0x82>
 8005260:	068b      	lsls	r3, r1, #26
 8005262:	d502      	bpl.n	800526a <HAL_UART_IRQHandler+0x82>
 8005264:	4620      	mov	r0, r4
 8005266:	f7ff ff63 	bl	8005130 <UART_Receive_IT.isra.0>
 800526a:	6826      	ldr	r6, [r4, #0]
 800526c:	6973      	ldr	r3, [r6, #20]
 800526e:	6c62      	ldr	r2, [r4, #68]	@ 0x44
 8005270:	f003 0340 	and.w	r3, r3, #64	@ 0x40
 8005274:	f002 0208 	and.w	r2, r2, #8
 8005278:	ea53 0502 	orrs.w	r5, r3, r2
 800527c:	4620      	mov	r0, r4
 800527e:	d022      	beq.n	80052c6 <HAL_UART_IRQHandler+0xde>
 8005280:	f7ff fe10 	bl	8004ea4 <UART_EndRxTransfer>
 8005284:	6973      	ldr	r3, [r6, #20]
 8005286:	065e      	lsls	r6, r3, #25
 8005288:	d518      	bpl.n	80052bc <HAL_UART_IRQHandler+0xd4>
 800528a:	6822      	ldr	r2, [r4, #0]
 800528c:	f102 0314 	add.w	r3, r2, #20
 8005290:	e853 3f00 	ldrex	r3, [r3]
 8005294:	f023 0340 	bic.w	r3, r3, #64	@ 0x40
 8005298:	3214      	adds	r2, #20
 800529a:	e842 3100 	strex	r1, r3, [r2]
 800529e:	2900      	cmp	r1, #0
 80052a0:	d1f3      	bne.n	800528a <HAL_UART_IRQHandler+0xa2>
 80052a2:	6be0      	ldr	r0, [r4, #60]	@ 0x3c
 80052a4:	b150      	cbz	r0, 80052bc <HAL_UART_IRQHandler+0xd4>
 80052a6:	4b74      	ldr	r3, [pc, #464]	@ (8005478 <HAL_UART_IRQHandler+0x290>)
 80052a8:	6503      	str	r3, [r0, #80]	@ 0x50
 80052aa:	f7fd fc94 	bl	8002bd6 <HAL_DMA_Abort_IT>
 80052ae:	b140      	cbz	r0, 80052c2 <HAL_UART_IRQHandler+0xda>
 80052b0:	6be0      	ldr	r0, [r4, #60]	@ 0x3c
 80052b2:	6d03      	ldr	r3, [r0, #80]	@ 0x50
 80052b4:	b002      	add	sp, #8
 80052b6:	e8bd 4070 	ldmia.w	sp!, {r4, r5, r6, lr}
 80052ba:	4718      	bx	r3
 80052bc:	4620      	mov	r0, r4
 80052be:	f7ff ff2d 	bl	800511c <HAL_UART_ErrorCallback>
 80052c2:	b002      	add	sp, #8
 80052c4:	bd70      	pop	{r4, r5, r6, pc}
 80052c6:	f7ff ff29 	bl	800511c <HAL_UART_ErrorCallback>
 80052ca:	6465      	str	r5, [r4, #68]	@ 0x44
 80052cc:	e7f9      	b.n	80052c2 <HAL_UART_IRQHandler+0xda>
 80052ce:	6b20      	ldr	r0, [r4, #48]	@ 0x30
 80052d0:	2801      	cmp	r0, #1
 80052d2:	f040 8095 	bne.w	8005400 <HAL_UART_IRQHandler+0x218>
 80052d6:	06d5      	lsls	r5, r2, #27
 80052d8:	f140 8092 	bpl.w	8005400 <HAL_UART_IRQHandler+0x218>
 80052dc:	06c8      	lsls	r0, r1, #27
 80052de:	f140 808f 	bpl.w	8005400 <HAL_UART_IRQHandler+0x218>
 80052e2:	2200      	movs	r2, #0
 80052e4:	9201      	str	r2, [sp, #4]
 80052e6:	681a      	ldr	r2, [r3, #0]
 80052e8:	9201      	str	r2, [sp, #4]
 80052ea:	685a      	ldr	r2, [r3, #4]
 80052ec:	9201      	str	r2, [sp, #4]
 80052ee:	9a01      	ldr	r2, [sp, #4]
 80052f0:	695a      	ldr	r2, [r3, #20]
 80052f2:	0652      	lsls	r2, r2, #25
 80052f4:	d54e      	bpl.n	8005394 <HAL_UART_IRQHandler+0x1ac>
 80052f6:	6be1      	ldr	r1, [r4, #60]	@ 0x3c
 80052f8:	680a      	ldr	r2, [r1, #0]
 80052fa:	6852      	ldr	r2, [r2, #4]
 80052fc:	b292      	uxth	r2, r2
 80052fe:	2a00      	cmp	r2, #0
 8005300:	d0df      	beq.n	80052c2 <HAL_UART_IRQHandler+0xda>
 8005302:	8da0      	ldrh	r0, [r4, #44]	@ 0x2c
 8005304:	4290      	cmp	r0, r2
 8005306:	d9dc      	bls.n	80052c2 <HAL_UART_IRQHandler+0xda>
 8005308:	85e2      	strh	r2, [r4, #46]	@ 0x2e
 800530a:	69ca      	ldr	r2, [r1, #28]
 800530c:	f5b2 7f80 	cmp.w	r2, #256	@ 0x100
 8005310:	d036      	beq.n	8005380 <HAL_UART_IRQHandler+0x198>
 8005312:	f103 020c 	add.w	r2, r3, #12
 8005316:	e852 2f00 	ldrex	r2, [r2]
 800531a:	f422 7280 	bic.w	r2, r2, #256	@ 0x100
 800531e:	f103 000c 	add.w	r0, r3, #12
 8005322:	e840 2100 	strex	r1, r2, [r0]
 8005326:	2900      	cmp	r1, #0
 8005328:	d1f3      	bne.n	8005312 <HAL_UART_IRQHandler+0x12a>
 800532a:	f103 0214 	add.w	r2, r3, #20
 800532e:	e852 2f00 	ldrex	r2, [r2]
 8005332:	f022 0201 	bic.w	r2, r2, #1
 8005336:	f103 0014 	add.w	r0, r3, #20
 800533a:	e840 2100 	strex	r1, r2, [r0]
 800533e:	2900      	cmp	r1, #0
 8005340:	d1f3      	bne.n	800532a <HAL_UART_IRQHandler+0x142>
 8005342:	f103 0214 	add.w	r2, r3, #20
 8005346:	e852 2f00 	ldrex	r2, [r2]
 800534a:	f022 0240 	bic.w	r2, r2, #64	@ 0x40
 800534e:	f103 0014 	add.w	r0, r3, #20
 8005352:	e840 2100 	strex	r1, r2, [r0]
 8005356:	2900      	cmp	r1, #0
 8005358:	d1f3      	bne.n	8005342 <HAL_UART_IRQHandler+0x15a>
 800535a:	2220      	movs	r2, #32
 800535c:	f884 2042 	strb.w	r2, [r4, #66]	@ 0x42
 8005360:	6321      	str	r1, [r4, #48]	@ 0x30
 8005362:	f103 020c 	add.w	r2, r3, #12
 8005366:	e852 2f00 	ldrex	r2, [r2]
 800536a:	f022 0210 	bic.w	r2, r2, #16
 800536e:	f103 000c 	add.w	r0, r3, #12
 8005372:	e840 2100 	strex	r1, r2, [r0]
 8005376:	2900      	cmp	r1, #0
 8005378:	d1f3      	bne.n	8005362 <HAL_UART_IRQHandler+0x17a>
 800537a:	6be0      	ldr	r0, [r4, #60]	@ 0x3c
 800537c:	f7fd fbed 	bl	8002b5a <HAL_DMA_Abort>
 8005380:	2302      	movs	r3, #2
 8005382:	6363      	str	r3, [r4, #52]	@ 0x34
 8005384:	8de3      	ldrh	r3, [r4, #46]	@ 0x2e
 8005386:	8da1      	ldrh	r1, [r4, #44]	@ 0x2c
 8005388:	1ac9      	subs	r1, r1, r3
 800538a:	b289      	uxth	r1, r1
 800538c:	4620      	mov	r0, r4
 800538e:	f7ff fece 	bl	800512e <HAL_UARTEx_RxEventCallback>
 8005392:	e796      	b.n	80052c2 <HAL_UART_IRQHandler+0xda>
 8005394:	8de2      	ldrh	r2, [r4, #46]	@ 0x2e
 8005396:	8de0      	ldrh	r0, [r4, #46]	@ 0x2e
 8005398:	8da1      	ldrh	r1, [r4, #44]	@ 0x2c
 800539a:	b280      	uxth	r0, r0
 800539c:	b292      	uxth	r2, r2
 800539e:	2800      	cmp	r0, #0
 80053a0:	d08f      	beq.n	80052c2 <HAL_UART_IRQHandler+0xda>
 80053a2:	1a89      	subs	r1, r1, r2
 80053a4:	b289      	uxth	r1, r1
 80053a6:	2900      	cmp	r1, #0
 80053a8:	d08b      	beq.n	80052c2 <HAL_UART_IRQHandler+0xda>
 80053aa:	f103 020c 	add.w	r2, r3, #12
 80053ae:	e852 2f00 	ldrex	r2, [r2]
 80053b2:	f422 7290 	bic.w	r2, r2, #288	@ 0x120
 80053b6:	f103 050c 	add.w	r5, r3, #12
 80053ba:	e845 2000 	strex	r0, r2, [r5]
 80053be:	2800      	cmp	r0, #0
 80053c0:	d1f3      	bne.n	80053aa <HAL_UART_IRQHandler+0x1c2>
 80053c2:	f103 0214 	add.w	r2, r3, #20
 80053c6:	e852 2f00 	ldrex	r2, [r2]
 80053ca:	f022 0201 	bic.w	r2, r2, #1
 80053ce:	f103 0514 	add.w	r5, r3, #20
 80053d2:	e845 2000 	strex	r0, r2, [r5]
 80053d6:	2800      	cmp	r0, #0
 80053d8:	d1f3      	bne.n	80053c2 <HAL_UART_IRQHandler+0x1da>
 80053da:	2220      	movs	r2, #32
 80053dc:	f884 2042 	strb.w	r2, [r4, #66]	@ 0x42
 80053e0:	6320      	str	r0, [r4, #48]	@ 0x30
 80053e2:	f103 020c 	add.w	r2, r3, #12
 80053e6:	e852 2f00 	ldrex	r2, [r2]
 80053ea:	f022 0210 	bic.w	r2, r2, #16
 80053ee:	f103 050c 	add.w	r5, r3, #12
 80053f2:	e845 2000 	strex	r0, r2, [r5]
 80053f6:	2800      	cmp	r0, #0
 80053f8:	d1f3      	bne.n	80053e2 <HAL_UART_IRQHandler+0x1fa>
 80053fa:	2302      	movs	r3, #2
 80053fc:	6363      	str	r3, [r4, #52]	@ 0x34
 80053fe:	e7c5      	b.n	800538c <HAL_UART_IRQHandler+0x1a4>
 8005400:	0616      	lsls	r6, r2, #24
 8005402:	d528      	bpl.n	8005456 <HAL_UART_IRQHandler+0x26e>
 8005404:	060d      	lsls	r5, r1, #24
 8005406:	d526      	bpl.n	8005456 <HAL_UART_IRQHandler+0x26e>
 8005408:	f894 2041 	ldrb.w	r2, [r4, #65]	@ 0x41
 800540c:	2a21      	cmp	r2, #33	@ 0x21
 800540e:	f47f af58 	bne.w	80052c2 <HAL_UART_IRQHandler+0xda>
 8005412:	68a1      	ldr	r1, [r4, #8]
 8005414:	6a22      	ldr	r2, [r4, #32]
 8005416:	f5b1 5f80 	cmp.w	r1, #4096	@ 0x1000
 800541a:	d117      	bne.n	800544c <HAL_UART_IRQHandler+0x264>
 800541c:	6921      	ldr	r1, [r4, #16]
 800541e:	b9a9      	cbnz	r1, 800544c <HAL_UART_IRQHandler+0x264>
 8005420:	f832 1b02 	ldrh.w	r1, [r2], #2
 8005424:	f3c1 0108 	ubfx	r1, r1, #0, #9
 8005428:	6059      	str	r1, [r3, #4]
 800542a:	6222      	str	r2, [r4, #32]
 800542c:	8ce2      	ldrh	r2, [r4, #38]	@ 0x26
 800542e:	3a01      	subs	r2, #1
 8005430:	b292      	uxth	r2, r2
 8005432:	84e2      	strh	r2, [r4, #38]	@ 0x26
 8005434:	2a00      	cmp	r2, #0
 8005436:	f47f af44 	bne.w	80052c2 <HAL_UART_IRQHandler+0xda>
 800543a:	68da      	ldr	r2, [r3, #12]
 800543c:	f022 0280 	bic.w	r2, r2, #128	@ 0x80
 8005440:	60da      	str	r2, [r3, #12]
 8005442:	68da      	ldr	r2, [r3, #12]
 8005444:	f042 0240 	orr.w	r2, r2, #64	@ 0x40
 8005448:	60da      	str	r2, [r3, #12]
 800544a:	e73a      	b.n	80052c2 <HAL_UART_IRQHandler+0xda>
 800544c:	1c51      	adds	r1, r2, #1
 800544e:	6221      	str	r1, [r4, #32]
 8005450:	7812      	ldrb	r2, [r2, #0]
 8005452:	605a      	str	r2, [r3, #4]
 8005454:	e7ea      	b.n	800542c <HAL_UART_IRQHandler+0x244>
 8005456:	0650      	lsls	r0, r2, #25
 8005458:	f57f af33 	bpl.w	80052c2 <HAL_UART_IRQHandler+0xda>
 800545c:	064a      	lsls	r2, r1, #25
 800545e:	f57f af30 	bpl.w	80052c2 <HAL_UART_IRQHandler+0xda>
 8005462:	68da      	ldr	r2, [r3, #12]
 8005464:	f022 0240 	bic.w	r2, r2, #64	@ 0x40
 8005468:	60da      	str	r2, [r3, #12]
 800546a:	2320      	movs	r3, #32
 800546c:	f884 3041 	strb.w	r3, [r4, #65]	@ 0x41
 8005470:	4620      	mov	r0, r4
 8005472:	f7ff fe52 	bl	800511a <HAL_UART_TxCpltCallback>
 8005476:	e724      	b.n	80052c2 <HAL_UART_IRQHandler+0xda>
 8005478:	0800511f 	.word	0x0800511f

0800547c <UART_Start_Receive_IT>:
 800547c:	85c2      	strh	r2, [r0, #46]	@ 0x2e
 800547e:	2300      	movs	r3, #0
 8005480:	8582      	strh	r2, [r0, #44]	@ 0x2c
 8005482:	6902      	ldr	r2, [r0, #16]
 8005484:	6443      	str	r3, [r0, #68]	@ 0x44
 8005486:	2322      	movs	r3, #34	@ 0x22
 8005488:	f880 3042 	strb.w	r3, [r0, #66]	@ 0x42
 800548c:	6281      	str	r1, [r0, #40]	@ 0x28
 800548e:	6803      	ldr	r3, [r0, #0]
 8005490:	b11a      	cbz	r2, 800549a <UART_Start_Receive_IT+0x1e>
 8005492:	68da      	ldr	r2, [r3, #12]
 8005494:	f442 7280 	orr.w	r2, r2, #256	@ 0x100
 8005498:	60da      	str	r2, [r3, #12]
 800549a:	695a      	ldr	r2, [r3, #20]
 800549c:	f042 0201 	orr.w	r2, r2, #1
 80054a0:	615a      	str	r2, [r3, #20]
 80054a2:	68da      	ldr	r2, [r3, #12]
 80054a4:	f042 0220 	orr.w	r2, r2, #32
 80054a8:	60da      	str	r2, [r3, #12]
 80054aa:	2000      	movs	r0, #0
 80054ac:	4770      	bx	lr

080054ae <HAL_UART_Receive_IT>:
 80054ae:	b470      	push	{r4, r5, r6}
 80054b0:	f890 6042 	ldrb.w	r6, [r0, #66]	@ 0x42
 80054b4:	2e20      	cmp	r6, #32
 80054b6:	d106      	bne.n	80054c6 <HAL_UART_Receive_IT+0x18>
 80054b8:	b141      	cbz	r1, 80054cc <HAL_UART_Receive_IT+0x1e>
 80054ba:	b13a      	cbz	r2, 80054cc <HAL_UART_Receive_IT+0x1e>
 80054bc:	2400      	movs	r4, #0
 80054be:	6304      	str	r4, [r0, #48]	@ 0x30
 80054c0:	bc70      	pop	{r4, r5, r6}
 80054c2:	f7ff bfdb 	b.w	800547c <UART_Start_Receive_IT>
 80054c6:	2002      	movs	r0, #2
 80054c8:	bc70      	pop	{r4, r5, r6}
 80054ca:	4770      	bx	lr
 80054cc:	2001      	movs	r0, #1
 80054ce:	e7fb      	b.n	80054c8 <HAL_UART_Receive_IT+0x1a>

080054d0 <memset>:
 80054d0:	4402      	add	r2, r0
 80054d2:	4603      	mov	r3, r0
 80054d4:	4293      	cmp	r3, r2
 80054d6:	d100      	bne.n	80054da <memset+0xa>
 80054d8:	4770      	bx	lr
 80054da:	f803 1b01 	strb.w	r1, [r3], #1
 80054de:	e7f9      	b.n	80054d4 <memset+0x4>

080054e0 <__libc_init_array>:
 80054e0:	b570      	push	{r4, r5, r6, lr}
 80054e2:	4d0d      	ldr	r5, [pc, #52]	@ (8005518 <__libc_init_array+0x38>)
 80054e4:	4c0d      	ldr	r4, [pc, #52]	@ (800551c <__libc_init_array+0x3c>)
 80054e6:	1b64      	subs	r4, r4, r5
 80054e8:	10a4      	asrs	r4, r4, #2
 80054ea:	2600      	movs	r6, #0
 80054ec:	42a6      	cmp	r6, r4
 80054ee:	d109      	bne.n	8005504 <__libc_init_array+0x24>
 80054f0:	4d0b      	ldr	r5, [pc, #44]	@ (8005520 <__libc_init_array+0x40>)
 80054f2:	4c0c      	ldr	r4, [pc, #48]	@ (8005524 <__libc_init_array+0x44>)
 80054f4:	f000 f818 	bl	8005528 <_init>
 80054f8:	1b64      	subs	r4, r4, r5
 80054fa:	10a4      	asrs	r4, r4, #2
 80054fc:	2600      	movs	r6, #0
 80054fe:	42a6      	cmp	r6, r4
 8005500:	d105      	bne.n	800550e <__libc_init_array+0x2e>
 8005502:	bd70      	pop	{r4, r5, r6, pc}
 8005504:	f855 3b04 	ldr.w	r3, [r5], #4
 8005508:	4798      	blx	r3
 800550a:	3601      	adds	r6, #1
 800550c:	e7ee      	b.n	80054ec <__libc_init_array+0xc>
 800550e:	f855 3b04 	ldr.w	r3, [r5], #4
 8005512:	4798      	blx	r3
 8005514:	3601      	adds	r6, #1
 8005516:	e7f2      	b.n	80054fe <__libc_init_array+0x1e>
 8005518:	080055fc 	.word	0x080055fc
 800551c:	080055fc 	.word	0x080055fc
 8005520:	080055fc 	.word	0x080055fc
 8005524:	08005600 	.word	0x08005600

08005528 <_init>:
 8005528:	b5f8      	push	{r3, r4, r5, r6, r7, lr}
 800552a:	bf00      	nop
 800552c:	bcf8      	pop	{r3, r4, r5, r6, r7}
 800552e:	bc08      	pop	{r3}
 8005530:	469e      	mov	lr, r3
 8005532:	4770      	bx	lr

08005534 <_fini>:
 8005534:	b5f8      	push	{r3, r4, r5, r6, r7, lr}
 8005536:	bf00      	nop
 8005538:	bcf8      	pop	{r3, r4, r5, r6, r7}
 800553a:	bc08      	pop	{r3}
 800553c:	469e      	mov	lr, r3
 800553e:	4770      	bx	lr
