
AuroraV_Payload_F439.elf:     file format elf32-littlearm

Sections:
Idx Name          Size      VMA       LMA       File off  Algn
  0 .isr_vector   000001ac  08000000  08000000  00001000  2**0
                  CONTENTS, ALLOC, LOAD, READONLY, DATA
  1 .text         00005378  080001ac  080001ac  000011ac  2**2
                  CONTENTS, ALLOC, LOAD, READONLY, CODE
  2 .rodata       000000b4  08005524  08005524  00006524  2**0
                  CONTENTS, ALLOC, LOAD, READONLY, DATA
  3 .ARM.extab    00000000  080055d8  080055d8  00007028  2**0
                  CONTENTS
  4 .ARM          00000008  080055d8  080055d8  000065d8  2**2
                  CONTENTS, ALLOC, LOAD, READONLY, DATA
  5 .preinit_array 00000000  080055e0  080055e0  00007028  2**0
                  CONTENTS, ALLOC, LOAD, DATA
  6 .init_array   00000004  080055e0  080055e0  000065e0  2**2
                  CONTENTS, ALLOC, LOAD, DATA
  7 .fini_array   00000004  080055e4  080055e4  000065e4  2**2
                  CONTENTS, ALLOC, LOAD, DATA
  8 .data         00000028  20000000  080055e8  00007000  2**2
                  CONTENTS, ALLOC, LOAD, DATA
  9 .ccmram       00000000  10000000  10000000  00007028  2**0
                  CONTENTS
 10 .bss          00000604  20000028  20000028  00007028  2**2
                  ALLOC
 11 ._user_heap_stack 00000604  2000062c  2000062c  00007028  2**0
                  ALLOC
 12 .ARM.attributes 00000030  00000000  00000000  00007028  2**0
                  CONTENTS, READONLY
 13 .comment      00000043  00000000  00000000  00007058  2**0
                  CONTENTS, READONLY
 14 .debug_frame  000000ac  00000000  00000000  0000709c  2**2
                  CONTENTS, READONLY, DEBUGGING, OCTETS

Disassembly of section .text:

080001ac <__do_global_dtors_aux>:
 80001ac:	b510      	push	{r4, lr}
 80001ae:	4c05      	ldr	r4, [pc, #20]	@ (80001c4 <__do_global_dtors_aux+0x18>)
 80001b0:	7823      	ldrb	r3, [r4, #0]
 80001b2:	b933      	cbnz	r3, 80001c2 <__do_global_dtors_aux+0x16>
 80001b4:	4b04      	ldr	r3, [pc, #16]	@ (80001c8 <__do_global_dtors_aux+0x1c>)
 80001b6:	b113      	cbz	r3, 80001be <__do_global_dtors_aux+0x12>
 80001b8:	4804      	ldr	r0, [pc, #16]	@ (80001cc <__do_global_dtors_aux+0x20>)
 80001ba:	f3af 8000 	nop.w
 80001be:	2301      	movs	r3, #1
 80001c0:	7023      	strb	r3, [r4, #0]
 80001c2:	bd10      	pop	{r4, pc}
 80001c4:	20000028 	.word	0x20000028
 80001c8:	00000000 	.word	0x00000000
 80001cc:	0800550c 	.word	0x0800550c

080001d0 <frame_dummy>:
 80001d0:	b508      	push	{r3, lr}
 80001d2:	4b03      	ldr	r3, [pc, #12]	@ (80001e0 <frame_dummy+0x10>)
 80001d4:	b11b      	cbz	r3, 80001de <frame_dummy+0xe>
 80001d6:	4903      	ldr	r1, [pc, #12]	@ (80001e4 <frame_dummy+0x14>)
 80001d8:	4803      	ldr	r0, [pc, #12]	@ (80001e8 <frame_dummy+0x18>)
 80001da:	f3af 8000 	nop.w
 80001de:	bd08      	pop	{r3, pc}
 80001e0:	00000000 	.word	0x00000000
 80001e4:	2000002c 	.word	0x2000002c
 80001e8:	0800550c 	.word	0x0800550c

080001ec <strlen>:
 80001ec:	4603      	mov	r3, r0
 80001ee:	f813 2b01 	ldrb.w	r2, [r3], #1
 80001f2:	2a00      	cmp	r2, #0
 80001f4:	d1fb      	bne.n	80001ee <strlen+0x2>
 80001f6:	1a18      	subs	r0, r3, r0
 80001f8:	3801      	subs	r0, #1
 80001fa:	4770      	bx	lr

080001fc <__aeabi_uldivmod>:
 80001fc:	b953      	cbnz	r3, 8000214 <__aeabi_uldivmod+0x18>
 80001fe:	b94a      	cbnz	r2, 8000214 <__aeabi_uldivmod+0x18>
 8000200:	2900      	cmp	r1, #0
 8000202:	bf08      	it	eq
 8000204:	2800      	cmpeq	r0, #0
 8000206:	bf1c      	itt	ne
 8000208:	f04f 31ff 	movne.w	r1, #4294967295	@ 0xffffffff
 800020c:	f04f 30ff 	movne.w	r0, #4294967295	@ 0xffffffff
 8000210:	f000 b96a 	b.w	80004e8 <__aeabi_idiv0>
 8000214:	f1ad 0c08 	sub.w	ip, sp, #8
 8000218:	e96d ce04 	strd	ip, lr, [sp, #-16]!
 800021c:	f000 f806 	bl	800022c <__udivmoddi4>
 8000220:	f8dd e004 	ldr.w	lr, [sp, #4]
 8000224:	e9dd 2302 	ldrd	r2, r3, [sp, #8]
 8000228:	b004      	add	sp, #16
 800022a:	4770      	bx	lr

0800022c <__udivmoddi4>:
 800022c:	e92d 47f0 	stmdb	sp!, {r4, r5, r6, r7, r8, r9, sl, lr}
 8000230:	9d08      	ldr	r5, [sp, #32]
 8000232:	460c      	mov	r4, r1
 8000234:	2b00      	cmp	r3, #0
 8000236:	d14e      	bne.n	80002d6 <__udivmoddi4+0xaa>
 8000238:	4694      	mov	ip, r2
 800023a:	458c      	cmp	ip, r1
 800023c:	4686      	mov	lr, r0
 800023e:	fab2 f282 	clz	r2, r2
 8000242:	d962      	bls.n	800030a <__udivmoddi4+0xde>
 8000244:	b14a      	cbz	r2, 800025a <__udivmoddi4+0x2e>
 8000246:	f1c2 0320 	rsb	r3, r2, #32
 800024a:	4091      	lsls	r1, r2
 800024c:	fa20 f303 	lsr.w	r3, r0, r3
 8000250:	fa0c fc02 	lsl.w	ip, ip, r2
 8000254:	4319      	orrs	r1, r3
 8000256:	fa00 fe02 	lsl.w	lr, r0, r2
 800025a:	ea4f 471c 	mov.w	r7, ip, lsr #16
 800025e:	fa1f f68c 	uxth.w	r6, ip
 8000262:	fbb1 f4f7 	udiv	r4, r1, r7
 8000266:	ea4f 431e 	mov.w	r3, lr, lsr #16
 800026a:	fb07 1114 	mls	r1, r7, r4, r1
 800026e:	ea43 4301 	orr.w	r3, r3, r1, lsl #16
 8000272:	fb04 f106 	mul.w	r1, r4, r6
 8000276:	4299      	cmp	r1, r3
 8000278:	d90a      	bls.n	8000290 <__udivmoddi4+0x64>
 800027a:	eb1c 0303 	adds.w	r3, ip, r3
 800027e:	f104 30ff 	add.w	r0, r4, #4294967295	@ 0xffffffff
 8000282:	f080 8112 	bcs.w	80004aa <__udivmoddi4+0x27e>
 8000286:	4299      	cmp	r1, r3
 8000288:	f240 810f 	bls.w	80004aa <__udivmoddi4+0x27e>
 800028c:	3c02      	subs	r4, #2
 800028e:	4463      	add	r3, ip
 8000290:	1a59      	subs	r1, r3, r1
 8000292:	fa1f f38e 	uxth.w	r3, lr
 8000296:	fbb1 f0f7 	udiv	r0, r1, r7
 800029a:	fb07 1110 	mls	r1, r7, r0, r1
 800029e:	ea43 4301 	orr.w	r3, r3, r1, lsl #16
 80002a2:	fb00 f606 	mul.w	r6, r0, r6
 80002a6:	429e      	cmp	r6, r3
 80002a8:	d90a      	bls.n	80002c0 <__udivmoddi4+0x94>
 80002aa:	eb1c 0303 	adds.w	r3, ip, r3
 80002ae:	f100 31ff 	add.w	r1, r0, #4294967295	@ 0xffffffff
 80002b2:	f080 80fc 	bcs.w	80004ae <__udivmoddi4+0x282>
 80002b6:	429e      	cmp	r6, r3
 80002b8:	f240 80f9 	bls.w	80004ae <__udivmoddi4+0x282>
 80002bc:	4463      	add	r3, ip
 80002be:	3802      	subs	r0, #2
 80002c0:	1b9b      	subs	r3, r3, r6
 80002c2:	ea40 4004 	orr.w	r0, r0, r4, lsl #16
 80002c6:	2100      	movs	r1, #0
 80002c8:	b11d      	cbz	r5, 80002d2 <__udivmoddi4+0xa6>
 80002ca:	40d3      	lsrs	r3, r2
 80002cc:	2200      	movs	r2, #0
 80002ce:	e9c5 3200 	strd	r3, r2, [r5]
 80002d2:	e8bd 87f0 	ldmia.w	sp!, {r4, r5, r6, r7, r8, r9, sl, pc}
 80002d6:	428b      	cmp	r3, r1
 80002d8:	d905      	bls.n	80002e6 <__udivmoddi4+0xba>
 80002da:	b10d      	cbz	r5, 80002e0 <__udivmoddi4+0xb4>
 80002dc:	e9c5 0100 	strd	r0, r1, [r5]
 80002e0:	2100      	movs	r1, #0
 80002e2:	4608      	mov	r0, r1
 80002e4:	e7f5      	b.n	80002d2 <__udivmoddi4+0xa6>
 80002e6:	fab3 f183 	clz	r1, r3
 80002ea:	2900      	cmp	r1, #0
 80002ec:	d146      	bne.n	800037c <__udivmoddi4+0x150>
 80002ee:	42a3      	cmp	r3, r4
 80002f0:	d302      	bcc.n	80002f8 <__udivmoddi4+0xcc>
 80002f2:	4290      	cmp	r0, r2
 80002f4:	f0c0 80f0 	bcc.w	80004d8 <__udivmoddi4+0x2ac>
 80002f8:	1a86      	subs	r6, r0, r2
 80002fa:	eb64 0303 	sbc.w	r3, r4, r3
 80002fe:	2001      	movs	r0, #1
 8000300:	2d00      	cmp	r5, #0
 8000302:	d0e6      	beq.n	80002d2 <__udivmoddi4+0xa6>
 8000304:	e9c5 6300 	strd	r6, r3, [r5]
 8000308:	e7e3      	b.n	80002d2 <__udivmoddi4+0xa6>
 800030a:	2a00      	cmp	r2, #0
 800030c:	f040 8090 	bne.w	8000430 <__udivmoddi4+0x204>
 8000310:	eba1 040c 	sub.w	r4, r1, ip
 8000314:	ea4f 481c 	mov.w	r8, ip, lsr #16
 8000318:	fa1f f78c 	uxth.w	r7, ip
 800031c:	2101      	movs	r1, #1
 800031e:	fbb4 f6f8 	udiv	r6, r4, r8
 8000322:	ea4f 431e 	mov.w	r3, lr, lsr #16
 8000326:	fb08 4416 	mls	r4, r8, r6, r4
 800032a:	ea43 4304 	orr.w	r3, r3, r4, lsl #16
 800032e:	fb07 f006 	mul.w	r0, r7, r6
 8000332:	4298      	cmp	r0, r3
 8000334:	d908      	bls.n	8000348 <__udivmoddi4+0x11c>
 8000336:	eb1c 0303 	adds.w	r3, ip, r3
 800033a:	f106 34ff 	add.w	r4, r6, #4294967295	@ 0xffffffff
 800033e:	d202      	bcs.n	8000346 <__udivmoddi4+0x11a>
 8000340:	4298      	cmp	r0, r3
 8000342:	f200 80cd 	bhi.w	80004e0 <__udivmoddi4+0x2b4>
 8000346:	4626      	mov	r6, r4
 8000348:	1a1c      	subs	r4, r3, r0
 800034a:	fa1f f38e 	uxth.w	r3, lr
 800034e:	fbb4 f0f8 	udiv	r0, r4, r8
 8000352:	fb08 4410 	mls	r4, r8, r0, r4
 8000356:	ea43 4304 	orr.w	r3, r3, r4, lsl #16
 800035a:	fb00 f707 	mul.w	r7, r0, r7
 800035e:	429f      	cmp	r7, r3
 8000360:	d908      	bls.n	8000374 <__udivmoddi4+0x148>
 8000362:	eb1c 0303 	adds.w	r3, ip, r3
 8000366:	f100 34ff 	add.w	r4, r0, #4294967295	@ 0xffffffff
 800036a:	d202      	bcs.n	8000372 <__udivmoddi4+0x146>
 800036c:	429f      	cmp	r7, r3
 800036e:	f200 80b0 	bhi.w	80004d2 <__udivmoddi4+0x2a6>
 8000372:	4620      	mov	r0, r4
 8000374:	1bdb      	subs	r3, r3, r7
 8000376:	ea40 4006 	orr.w	r0, r0, r6, lsl #16
 800037a:	e7a5      	b.n	80002c8 <__udivmoddi4+0x9c>
 800037c:	f1c1 0620 	rsb	r6, r1, #32
 8000380:	408b      	lsls	r3, r1
 8000382:	fa22 f706 	lsr.w	r7, r2, r6
 8000386:	431f      	orrs	r7, r3
 8000388:	fa20 fc06 	lsr.w	ip, r0, r6
 800038c:	fa04 f301 	lsl.w	r3, r4, r1
 8000390:	ea43 030c 	orr.w	r3, r3, ip
 8000394:	40f4      	lsrs	r4, r6
 8000396:	fa00 f801 	lsl.w	r8, r0, r1
 800039a:	0c38      	lsrs	r0, r7, #16
 800039c:	ea4f 4913 	mov.w	r9, r3, lsr #16
 80003a0:	fbb4 fef0 	udiv	lr, r4, r0
 80003a4:	fa1f fc87 	uxth.w	ip, r7
 80003a8:	fb00 441e 	mls	r4, r0, lr, r4
 80003ac:	ea49 4404 	orr.w	r4, r9, r4, lsl #16
 80003b0:	fb0e f90c 	mul.w	r9, lr, ip
 80003b4:	45a1      	cmp	r9, r4
 80003b6:	fa02 f201 	lsl.w	r2, r2, r1
 80003ba:	d90a      	bls.n	80003d2 <__udivmoddi4+0x1a6>
 80003bc:	193c      	adds	r4, r7, r4
 80003be:	f10e 3aff 	add.w	sl, lr, #4294967295	@ 0xffffffff
 80003c2:	f080 8084 	bcs.w	80004ce <__udivmoddi4+0x2a2>
 80003c6:	45a1      	cmp	r9, r4
 80003c8:	f240 8081 	bls.w	80004ce <__udivmoddi4+0x2a2>
 80003cc:	f1ae 0e02 	sub.w	lr, lr, #2
 80003d0:	443c      	add	r4, r7
 80003d2:	eba4 0409 	sub.w	r4, r4, r9
 80003d6:	fa1f f983 	uxth.w	r9, r3
 80003da:	fbb4 f3f0 	udiv	r3, r4, r0
 80003de:	fb00 4413 	mls	r4, r0, r3, r4
 80003e2:	ea49 4404 	orr.w	r4, r9, r4, lsl #16
 80003e6:	fb03 fc0c 	mul.w	ip, r3, ip
 80003ea:	45a4      	cmp	ip, r4
 80003ec:	d907      	bls.n	80003fe <__udivmoddi4+0x1d2>
 80003ee:	193c      	adds	r4, r7, r4
 80003f0:	f103 30ff 	add.w	r0, r3, #4294967295	@ 0xffffffff
 80003f4:	d267      	bcs.n	80004c6 <__udivmoddi4+0x29a>
 80003f6:	45a4      	cmp	ip, r4
 80003f8:	d965      	bls.n	80004c6 <__udivmoddi4+0x29a>
 80003fa:	3b02      	subs	r3, #2
 80003fc:	443c      	add	r4, r7
 80003fe:	ea43 400e 	orr.w	r0, r3, lr, lsl #16
 8000402:	fba0 9302 	umull	r9, r3, r0, r2
 8000406:	eba4 040c 	sub.w	r4, r4, ip
 800040a:	429c      	cmp	r4, r3
 800040c:	46ce      	mov	lr, r9
 800040e:	469c      	mov	ip, r3
 8000410:	d351      	bcc.n	80004b6 <__udivmoddi4+0x28a>
 8000412:	d04e      	beq.n	80004b2 <__udivmoddi4+0x286>
 8000414:	b155      	cbz	r5, 800042c <__udivmoddi4+0x200>
 8000416:	ebb8 030e 	subs.w	r3, r8, lr
 800041a:	eb64 040c 	sbc.w	r4, r4, ip
 800041e:	fa04 f606 	lsl.w	r6, r4, r6
 8000422:	40cb      	lsrs	r3, r1
 8000424:	431e      	orrs	r6, r3
 8000426:	40cc      	lsrs	r4, r1
 8000428:	e9c5 6400 	strd	r6, r4, [r5]
 800042c:	2100      	movs	r1, #0
 800042e:	e750      	b.n	80002d2 <__udivmoddi4+0xa6>
 8000430:	f1c2 0320 	rsb	r3, r2, #32
 8000434:	fa20 f103 	lsr.w	r1, r0, r3
 8000438:	fa0c fc02 	lsl.w	ip, ip, r2
 800043c:	fa24 f303 	lsr.w	r3, r4, r3
 8000440:	4094      	lsls	r4, r2
 8000442:	430c      	orrs	r4, r1
 8000444:	ea4f 481c 	mov.w	r8, ip, lsr #16
 8000448:	fa00 fe02 	lsl.w	lr, r0, r2
 800044c:	fa1f f78c 	uxth.w	r7, ip
 8000450:	fbb3 f0f8 	udiv	r0, r3, r8
 8000454:	fb08 3110 	mls	r1, r8, r0, r3
 8000458:	0c23      	lsrs	r3, r4, #16
 800045a:	ea43 4301 	orr.w	r3, r3, r1, lsl #16
 800045e:	fb00 f107 	mul.w	r1, r0, r7
 8000462:	4299      	cmp	r1, r3
 8000464:	d908      	bls.n	8000478 <__udivmoddi4+0x24c>
 8000466:	eb1c 0303 	adds.w	r3, ip, r3
 800046a:	f100 36ff 	add.w	r6, r0, #4294967295	@ 0xffffffff
 800046e:	d22c      	bcs.n	80004ca <__udivmoddi4+0x29e>
 8000470:	4299      	cmp	r1, r3
 8000472:	d92a      	bls.n	80004ca <__udivmoddi4+0x29e>
 8000474:	3802      	subs	r0, #2
 8000476:	4463      	add	r3, ip
 8000478:	1a5b      	subs	r3, r3, r1
 800047a:	b2a4      	uxth	r4, r4
 800047c:	fbb3 f1f8 	udiv	r1, r3, r8
 8000480:	fb08 3311 	mls	r3, r8, r1, r3
 8000484:	ea44 4403 	orr.w	r4, r4, r3, lsl #16
 8000488:	fb01 f307 	mul.w	r3, r1, r7
 800048c:	42a3      	cmp	r3, r4
 800048e:	d908      	bls.n	80004a2 <__udivmoddi4+0x276>
 8000490:	eb1c 0404 	adds.w	r4, ip, r4
 8000494:	f101 36ff 	add.w	r6, r1, #4294967295	@ 0xffffffff
 8000498:	d213      	bcs.n	80004c2 <__udivmoddi4+0x296>
 800049a:	42a3      	cmp	r3, r4
 800049c:	d911      	bls.n	80004c2 <__udivmoddi4+0x296>
 800049e:	3902      	subs	r1, #2
 80004a0:	4464      	add	r4, ip
 80004a2:	1ae4      	subs	r4, r4, r3
 80004a4:	ea41 4100 	orr.w	r1, r1, r0, lsl #16
 80004a8:	e739      	b.n	800031e <__udivmoddi4+0xf2>
 80004aa:	4604      	mov	r4, r0
 80004ac:	e6f0      	b.n	8000290 <__udivmoddi4+0x64>
 80004ae:	4608      	mov	r0, r1
 80004b0:	e706      	b.n	80002c0 <__udivmoddi4+0x94>
 80004b2:	45c8      	cmp	r8, r9
 80004b4:	d2ae      	bcs.n	8000414 <__udivmoddi4+0x1e8>
 80004b6:	ebb9 0e02 	subs.w	lr, r9, r2
 80004ba:	eb63 0c07 	sbc.w	ip, r3, r7
 80004be:	3801      	subs	r0, #1
 80004c0:	e7a8      	b.n	8000414 <__udivmoddi4+0x1e8>
 80004c2:	4631      	mov	r1, r6
 80004c4:	e7ed      	b.n	80004a2 <__udivmoddi4+0x276>
 80004c6:	4603      	mov	r3, r0
 80004c8:	e799      	b.n	80003fe <__udivmoddi4+0x1d2>
 80004ca:	4630      	mov	r0, r6
 80004cc:	e7d4      	b.n	8000478 <__udivmoddi4+0x24c>
 80004ce:	46d6      	mov	lr, sl
 80004d0:	e77f      	b.n	80003d2 <__udivmoddi4+0x1a6>
 80004d2:	4463      	add	r3, ip
 80004d4:	3802      	subs	r0, #2
 80004d6:	e74d      	b.n	8000374 <__udivmoddi4+0x148>
 80004d8:	4606      	mov	r6, r0
 80004da:	4623      	mov	r3, r4
 80004dc:	4608      	mov	r0, r1
 80004de:	e70f      	b.n	8000300 <__udivmoddi4+0xd4>
 80004e0:	3e02      	subs	r6, #2
 80004e2:	4463      	add	r3, ip
 80004e4:	e730      	b.n	8000348 <__udivmoddi4+0x11c>
 80004e6:	bf00      	nop

080004e8 <__aeabi_idiv0>:
 80004e8:	4770      	bx	lr
 80004ea:	bf00      	nop

080004ec <readAccelerometer>:
 80004ec:	b507      	push	{r0, r1, r2, lr}
 80004ee:	4603      	mov	r3, r0
 80004f0:	2200      	movs	r2, #0
 80004f2:	601a      	str	r2, [r3, #0]
 80004f4:	809a      	strh	r2, [r3, #4]
 80004f6:	4608      	mov	r0, r1
 80004f8:	4a05      	ldr	r2, [pc, #20]	@ (8000510 <readAccelerometer+0x24>)
 80004fa:	4906      	ldr	r1, [pc, #24]	@ (8000514 <readAccelerometer+0x28>)
 80004fc:	9300      	str	r3, [sp, #0]
 80004fe:	7812      	ldrb	r2, [r2, #0]
 8000500:	7809      	ldrb	r1, [r1, #0]
 8000502:	2306      	movs	r3, #6
 8000504:	f000 fa64 	bl	80009d0 <i2c_burst_read>
 8000508:	b003      	add	sp, #12
 800050a:	f85d fb04 	ldr.w	pc, [sp], #4
 800050e:	bf00      	nop
 8000510:	20000000 	.word	0x20000000
 8000514:	20000007 	.word	0x20000007

08000518 <readAccel_whoami>:
 8000518:	b507      	push	{r0, r1, r2, lr}
 800051a:	4a07      	ldr	r2, [pc, #28]	@ (8000538 <readAccel_whoami+0x20>)
 800051c:	2300      	movs	r3, #0
 800051e:	f88d 3007 	strb.w	r3, [sp, #7]
 8000522:	7812      	ldrb	r2, [r2, #0]
 8000524:	4b05      	ldr	r3, [pc, #20]	@ (800053c <readAccel_whoami+0x24>)
 8000526:	f10d 0107 	add.w	r1, sp, #7
 800052a:	f000 fa3a 	bl	80009a2 <i2c_read_reg>
 800052e:	f89d 0007 	ldrb.w	r0, [sp, #7]
 8000532:	b003      	add	sp, #12
 8000534:	f85d fb04 	ldr.w	pc, [sp], #4
 8000538:	20000007 	.word	0x20000007
 800053c:	20000044 	.word	0x20000044

08000540 <writeOffset>:
 8000540:	b570      	push	{r4, r5, r6, lr}
 8000542:	4d0a      	ldr	r5, [pc, #40]	@ (800056c <writeOffset+0x2c>)
 8000544:	4a0a      	ldr	r2, [pc, #40]	@ (8000570 <writeOffset+0x30>)
 8000546:	7829      	ldrb	r1, [r5, #0]
 8000548:	4604      	mov	r4, r0
 800054a:	2302      	movs	r3, #2
 800054c:	f000 fa5b 	bl	8000a06 <i2c_write_reg>
 8000550:	7829      	ldrb	r1, [r5, #0]
 8000552:	4a08      	ldr	r2, [pc, #32]	@ (8000574 <writeOffset+0x34>)
 8000554:	2301      	movs	r3, #1
 8000556:	4620      	mov	r0, r4
 8000558:	f000 fa55 	bl	8000a06 <i2c_write_reg>
 800055c:	7829      	ldrb	r1, [r5, #0]
 800055e:	4a06      	ldr	r2, [pc, #24]	@ (8000578 <writeOffset+0x38>)
 8000560:	4620      	mov	r0, r4
 8000562:	2301      	movs	r3, #1
 8000564:	e8bd 4070 	ldmia.w	sp!, {r4, r5, r6, lr}
 8000568:	f000 ba4d 	b.w	8000a06 <i2c_write_reg>
 800056c:	20000007 	.word	0x20000007
 8000570:	20000003 	.word	0x20000003
 8000574:	20000002 	.word	0x20000002
 8000578:	20000001 	.word	0x20000001

0800057c <init_accel>:
 800057c:	b570      	push	{r4, r5, r6, lr}
 800057e:	4d0f      	ldr	r5, [pc, #60]	@ (80005bc <init_accel+0x40>)
 8000580:	4e0f      	ldr	r6, [pc, #60]	@ (80005c0 <init_accel+0x44>)
 8000582:	7829      	ldrb	r1, [r5, #0]
 8000584:	4604      	mov	r4, r0
 8000586:	4632      	mov	r2, r6
 8000588:	2300      	movs	r3, #0
 800058a:	f000 fa3c 	bl	8000a06 <i2c_write_reg>
 800058e:	7829      	ldrb	r1, [r5, #0]
 8000590:	4a0c      	ldr	r2, [pc, #48]	@ (80005c4 <init_accel+0x48>)
 8000592:	230b      	movs	r3, #11
 8000594:	4620      	mov	r0, r4
 8000596:	f000 fa36 	bl	8000a06 <i2c_write_reg>
 800059a:	7829      	ldrb	r1, [r5, #0]
 800059c:	4a0a      	ldr	r2, [pc, #40]	@ (80005c8 <init_accel+0x4c>)
 800059e:	230a      	movs	r3, #10
 80005a0:	4620      	mov	r0, r4
 80005a2:	f000 fa30 	bl	8000a06 <i2c_write_reg>
 80005a6:	4620      	mov	r0, r4
 80005a8:	f7ff ffca 	bl	8000540 <writeOffset>
 80005ac:	7829      	ldrb	r1, [r5, #0]
 80005ae:	4632      	mov	r2, r6
 80005b0:	4620      	mov	r0, r4
 80005b2:	2308      	movs	r3, #8
 80005b4:	e8bd 4070 	ldmia.w	sp!, {r4, r5, r6, lr}
 80005b8:	f000 ba25 	b.w	8000a06 <i2c_write_reg>
 80005bc:	20000007 	.word	0x20000007
 80005c0:	20000005 	.word	0x20000005
 80005c4:	20000004 	.word	0x20000004
 80005c8:	20000006 	.word	0x20000006

080005cc <getBME280Config>:
 80005cc:	2300      	movs	r3, #0
 80005ce:	b120      	cbz	r0, 80005da <getBME280Config+0xe>
 80005d0:	2801      	cmp	r0, #1
 80005d2:	bf08      	it	eq
 80005d4:	2377      	moveq	r3, #119	@ 0x77
 80005d6:	4618      	mov	r0, r3
 80005d8:	4770      	bx	lr
 80005da:	2376      	movs	r3, #118	@ 0x76
 80005dc:	e7fb      	b.n	80005d6 <getBME280Config+0xa>
	...

080005e0 <init_bme280>:
 80005e0:	b5f7      	push	{r0, r1, r2, r4, r5, r6, r7, lr}
 80005e2:	4604      	mov	r4, r0
 80005e4:	4608      	mov	r0, r1
 80005e6:	f7ff fff1 	bl	80005cc <getBME280Config>
 80005ea:	4f16      	ldr	r7, [pc, #88]	@ (8000644 <init_bme280+0x64>)
 80005ec:	4a16      	ldr	r2, [pc, #88]	@ (8000648 <init_bme280+0x68>)
 80005ee:	b2c5      	uxtb	r5, r0
 80005f0:	2600      	movs	r6, #0
 80005f2:	4629      	mov	r1, r5
 80005f4:	23b6      	movs	r3, #182	@ 0xb6
 80005f6:	4620      	mov	r0, r4
 80005f8:	f88d 6007 	strb.w	r6, [sp, #7]
 80005fc:	f000 fa03 	bl	8000a06 <i2c_write_reg>
 8000600:	463b      	mov	r3, r7
 8000602:	462a      	mov	r2, r5
 8000604:	f10d 0107 	add.w	r1, sp, #7
 8000608:	4620      	mov	r0, r4
 800060a:	f000 f9ca 	bl	80009a2 <i2c_read_reg>
 800060e:	f89d 3007 	ldrb.w	r3, [sp, #7]
 8000612:	f023 0307 	bic.w	r3, r3, #7
 8000616:	f043 0301 	orr.w	r3, r3, #1
 800061a:	463a      	mov	r2, r7
 800061c:	4629      	mov	r1, r5
 800061e:	4620      	mov	r0, r4
 8000620:	f88d 3007 	strb.w	r3, [sp, #7]
 8000624:	f000 f9ef 	bl	8000a06 <i2c_write_reg>
 8000628:	4629      	mov	r1, r5
 800062a:	4a08      	ldr	r2, [pc, #32]	@ (800064c <init_bme280+0x6c>)
 800062c:	2327      	movs	r3, #39	@ 0x27
 800062e:	4620      	mov	r0, r4
 8000630:	f000 f9e9 	bl	8000a06 <i2c_write_reg>
 8000634:	4a06      	ldr	r2, [pc, #24]	@ (8000650 <init_bme280+0x70>)
 8000636:	4633      	mov	r3, r6
 8000638:	4629      	mov	r1, r5
 800063a:	4620      	mov	r0, r4
 800063c:	f000 f9e3 	bl	8000a06 <i2c_write_reg>
 8000640:	b003      	add	sp, #12
 8000642:	bdf0      	pop	{r4, r5, r6, r7, pc}
 8000644:	2000000d 	.word	0x2000000d
 8000648:	2000000e 	.word	0x2000000e
 800064c:	2000000c 	.word	0x2000000c
 8000650:	2000000b 	.word	0x2000000b

08000654 <readBME280_id_reg>:
 8000654:	b513      	push	{r0, r1, r4, lr}
 8000656:	4604      	mov	r4, r0
 8000658:	4608      	mov	r0, r1
 800065a:	f7ff ffb7 	bl	80005cc <getBME280Config>
 800065e:	2300      	movs	r3, #0
 8000660:	f88d 3007 	strb.w	r3, [sp, #7]
 8000664:	b2c2      	uxtb	r2, r0
 8000666:	4b05      	ldr	r3, [pc, #20]	@ (800067c <readBME280_id_reg+0x28>)
 8000668:	f10d 0107 	add.w	r1, sp, #7
 800066c:	4620      	mov	r0, r4
 800066e:	f000 f998 	bl	80009a2 <i2c_read_reg>
 8000672:	f89d 0007 	ldrb.w	r0, [sp, #7]
 8000676:	b002      	add	sp, #8
 8000678:	bd10      	pop	{r4, pc}
 800067a:	bf00      	nop
 800067c:	2000000f 	.word	0x2000000f

08000680 <readBME280_calib>:
 8000680:	b573      	push	{r0, r1, r4, r5, r6, lr}
 8000682:	4604      	mov	r4, r0
 8000684:	4608      	mov	r0, r1
 8000686:	461e      	mov	r6, r3
 8000688:	f7ff ffa0 	bl	80005cc <getBME280Config>
 800068c:	9200      	str	r2, [sp, #0]
 800068e:	4a09      	ldr	r2, [pc, #36]	@ (80006b4 <readBME280_calib+0x34>)
 8000690:	b2c5      	uxtb	r5, r0
 8000692:	4629      	mov	r1, r5
 8000694:	7812      	ldrb	r2, [r2, #0]
 8000696:	2319      	movs	r3, #25
 8000698:	4620      	mov	r0, r4
 800069a:	f000 f999 	bl	80009d0 <i2c_burst_read>
 800069e:	4a06      	ldr	r2, [pc, #24]	@ (80006b8 <readBME280_calib+0x38>)
 80006a0:	9600      	str	r6, [sp, #0]
 80006a2:	7812      	ldrb	r2, [r2, #0]
 80006a4:	2307      	movs	r3, #7
 80006a6:	4629      	mov	r1, r5
 80006a8:	4620      	mov	r0, r4
 80006aa:	f000 f991 	bl	80009d0 <i2c_burst_read>
 80006ae:	b002      	add	sp, #8
 80006b0:	bd70      	pop	{r4, r5, r6, pc}
 80006b2:	bf00      	nop
 80006b4:	20000009 	.word	0x20000009
 80006b8:	20000008 	.word	0x20000008

080006bc <readTempHumPres>:
 80006bc:	b57f      	push	{r0, r1, r2, r3, r4, r5, r6, lr}
 80006be:	460d      	mov	r5, r1
 80006c0:	4917      	ldr	r1, [pc, #92]	@ (8000720 <readTempHumPres+0x64>)
 80006c2:	4604      	mov	r4, r0
 80006c4:	6808      	ldr	r0, [r1, #0]
 80006c6:	6849      	ldr	r1, [r1, #4]
 80006c8:	ab02      	add	r3, sp, #8
 80006ca:	c303      	stmia	r3!, {r0, r1}
 80006cc:	4610      	mov	r0, r2
 80006ce:	f7ff ff7d 	bl	80005cc <getBME280Config>
 80006d2:	4a14      	ldr	r2, [pc, #80]	@ (8000724 <readTempHumPres+0x68>)
 80006d4:	ae02      	add	r6, sp, #8
 80006d6:	9600      	str	r6, [sp, #0]
 80006d8:	b2c1      	uxtb	r1, r0
 80006da:	7812      	ldrb	r2, [r2, #0]
 80006dc:	2308      	movs	r3, #8
 80006de:	4628      	mov	r0, r5
 80006e0:	f000 f976 	bl	80009d0 <i2c_burst_read>
 80006e4:	2300      	movs	r3, #0
 80006e6:	461a      	mov	r2, r3
 80006e8:	2124      	movs	r1, #36	@ 0x24
 80006ea:	fa21 f003 	lsr.w	r0, r1, r3
 80006ee:	07c0      	lsls	r0, r0, #31
 80006f0:	bf5c      	itt	pl
 80006f2:	5cf0      	ldrbpl	r0, [r6, r3]
 80006f4:	54a0      	strbpl	r0, [r4, r2]
 80006f6:	f103 0301 	add.w	r3, r3, #1
 80006fa:	bf5c      	itt	pl
 80006fc:	3201      	addpl	r2, #1
 80006fe:	b2d2      	uxtbpl	r2, r2
 8000700:	2b08      	cmp	r3, #8
 8000702:	d1f2      	bne.n	80006ea <readTempHumPres+0x2e>
 8000704:	7823      	ldrb	r3, [r4, #0]
 8000706:	7862      	ldrb	r2, [r4, #1]
 8000708:	7022      	strb	r2, [r4, #0]
 800070a:	7063      	strb	r3, [r4, #1]
 800070c:	78e2      	ldrb	r2, [r4, #3]
 800070e:	78a3      	ldrb	r3, [r4, #2]
 8000710:	70e3      	strb	r3, [r4, #3]
 8000712:	70a2      	strb	r2, [r4, #2]
 8000714:	7923      	ldrb	r3, [r4, #4]
 8000716:	7962      	ldrb	r2, [r4, #5]
 8000718:	7122      	strb	r2, [r4, #4]
 800071a:	7163      	strb	r3, [r4, #5]
 800071c:	b004      	add	sp, #16
 800071e:	bd70      	pop	{r4, r5, r6, pc}
 8000720:	08005524 	.word	0x08005524
 8000724:	2000000a 	.word	0x2000000a

08000728 <sendCAN_TxMessage>:
 8000728:	b510      	push	{r4, lr}
 800072a:	b086      	sub	sp, #24
 800072c:	f8bd 4020 	ldrh.w	r4, [sp, #32]
 8000730:	9400      	str	r4, [sp, #0]
 8000732:	9104      	str	r1, [sp, #16]
 8000734:	2400      	movs	r4, #0
 8000736:	4669      	mov	r1, sp
 8000738:	e9cd 4402 	strd	r4, r4, [sp, #8]
 800073c:	f88d 4014 	strb.w	r4, [sp, #20]
 8000740:	f001 fee1 	bl	8002506 <HAL_CAN_AddTxMessage>
 8000744:	b006      	add	sp, #24
 8000746:	bd10      	pop	{r4, pc}

08000748 <check_status_register>:
 8000748:	b57f      	push	{r0, r1, r2, r3, r4, r5, r6, lr}
 800074a:	ab02      	add	r3, sp, #8
 800074c:	e883 0006 	stmia.w	r3, {r1, r2}
 8000750:	2300      	movs	r3, #0
 8000752:	f88d 3017 	strb.w	r3, [sp, #23]
 8000756:	f8bd 300c 	ldrh.w	r3, [sp, #12]
 800075a:	9300      	str	r3, [sp, #0]
 800075c:	f10d 0217 	add.w	r2, sp, #23
 8000760:	460b      	mov	r3, r1
 8000762:	4601      	mov	r1, r0
 8000764:	4803      	ldr	r0, [pc, #12]	@ (8000774 <check_status_register+0x2c>)
 8000766:	f001 f977 	bl	8001a58 <spi_sendOp_readByte>
 800076a:	f89d 0017 	ldrb.w	r0, [sp, #23]
 800076e:	b007      	add	sp, #28
 8000770:	f85d fb04 	ldr.w	pc, [sp], #4
 8000774:	20000015 	.word	0x20000015

08000778 <check_busy>:
 8000778:	e92d 41f3 	stmdb	sp!, {r0, r1, r4, r5, r6, r7, r8, lr}
 800077c:	466d      	mov	r5, sp
 800077e:	e885 0006 	stmia.w	r5, {r1, r2}
 8000782:	4607      	mov	r7, r0
 8000784:	4698      	mov	r8, r3
 8000786:	f001 fd77 	bl	8002278 <HAL_GetTick>
 800078a:	4606      	mov	r6, r0
 800078c:	e895 0006 	ldmia.w	r5, {r1, r2}
 8000790:	4638      	mov	r0, r7
 8000792:	f7ff ffd9 	bl	8000748 <check_status_register>
 8000796:	f000 0401 	and.w	r4, r0, #1
 800079a:	f001 fd6d 	bl	8002278 <HAL_GetTick>
 800079e:	1b80      	subs	r0, r0, r6
 80007a0:	4540      	cmp	r0, r8
 80007a2:	d205      	bcs.n	80007b0 <check_busy+0x38>
 80007a4:	2c00      	cmp	r4, #0
 80007a6:	d1f1      	bne.n	800078c <check_busy+0x14>
 80007a8:	4620      	mov	r0, r4
 80007aa:	b002      	add	sp, #8
 80007ac:	e8bd 81f0 	ldmia.w	sp!, {r4, r5, r6, r7, r8, pc}
 80007b0:	2401      	movs	r4, #1
 80007b2:	e7f9      	b.n	80007a8 <check_busy+0x30>

080007b4 <write_enable_spi>:
 80007b4:	b082      	sub	sp, #8
 80007b6:	ab02      	add	r3, sp, #8
 80007b8:	e903 0006 	stmdb	r3, {r1, r2}
 80007bc:	460a      	mov	r2, r1
 80007be:	f8bd 3004 	ldrh.w	r3, [sp, #4]
 80007c2:	4601      	mov	r1, r0
 80007c4:	4801      	ldr	r0, [pc, #4]	@ (80007cc <write_enable_spi+0x18>)
 80007c6:	b002      	add	sp, #8
 80007c8:	f001 b968 	b.w	8001a9c <perform_operation>
 80007cc:	20000017 	.word	0x20000017

080007d0 <erase_chip_spi>:
 80007d0:	b537      	push	{r0, r1, r2, r4, r5, lr}
 80007d2:	466c      	mov	r4, sp
 80007d4:	e884 0006 	stmia.w	r4, {r1, r2}
 80007d8:	4605      	mov	r5, r0
 80007da:	e894 0006 	ldmia.w	r4, {r1, r2}
 80007de:	2305      	movs	r3, #5
 80007e0:	f7ff ffca 	bl	8000778 <check_busy>
 80007e4:	e894 0006 	ldmia.w	r4, {r1, r2}
 80007e8:	4628      	mov	r0, r5
 80007ea:	f7ff ffe3 	bl	80007b4 <write_enable_spi>
 80007ee:	f8bd 3004 	ldrh.w	r3, [sp, #4]
 80007f2:	9a00      	ldr	r2, [sp, #0]
 80007f4:	4806      	ldr	r0, [pc, #24]	@ (8000810 <erase_chip_spi+0x40>)
 80007f6:	4629      	mov	r1, r5
 80007f8:	f001 f950 	bl	8001a9c <perform_operation>
 80007fc:	e894 0006 	ldmia.w	r4, {r1, r2}
 8000800:	4b04      	ldr	r3, [pc, #16]	@ (8000814 <erase_chip_spi+0x44>)
 8000802:	4628      	mov	r0, r5
 8000804:	f7ff ffb8 	bl	8000778 <check_busy>
 8000808:	2000      	movs	r0, #0
 800080a:	b003      	add	sp, #12
 800080c:	bd30      	pop	{r4, r5, pc}
 800080e:	bf00      	nop
 8000810:	20000012 	.word	0x20000012
 8000814:	00030d40 	.word	0x00030d40

08000818 <software_reset>:
 8000818:	b5f7      	push	{r0, r1, r2, r4, r5, r6, r7, lr}
 800081a:	466d      	mov	r5, sp
 800081c:	e885 0006 	stmia.w	r5, {r1, r2}
 8000820:	f8bd 7004 	ldrh.w	r7, [sp, #4]
 8000824:	4604      	mov	r4, r0
 8000826:	460e      	mov	r6, r1
 8000828:	2305      	movs	r3, #5
 800082a:	e895 0006 	ldmia.w	r5, {r1, r2}
 800082e:	f7ff ffa3 	bl	8000778 <check_busy>
 8000832:	463b      	mov	r3, r7
 8000834:	4632      	mov	r2, r6
 8000836:	4621      	mov	r1, r4
 8000838:	4807      	ldr	r0, [pc, #28]	@ (8000858 <software_reset+0x40>)
 800083a:	f001 f92f 	bl	8001a9c <perform_operation>
 800083e:	463b      	mov	r3, r7
 8000840:	4632      	mov	r2, r6
 8000842:	4621      	mov	r1, r4
 8000844:	4805      	ldr	r0, [pc, #20]	@ (800085c <software_reset+0x44>)
 8000846:	f001 f929 	bl	8001a9c <perform_operation>
 800084a:	2005      	movs	r0, #5
 800084c:	b003      	add	sp, #12
 800084e:	e8bd 40f0 	ldmia.w	sp!, {r4, r5, r6, r7, lr}
 8000852:	f001 bd17 	b.w	8002284 <HAL_Delay>
 8000856:	bf00      	nop
 8000858:	20000011 	.word	0x20000011
 800085c:	20000010 	.word	0x20000010

08000860 <write_data_spi_dma>:
 8000860:	b082      	sub	sp, #8
 8000862:	b5f0      	push	{r4, r5, r6, r7, lr}
 8000864:	b085      	sub	sp, #20
 8000866:	ac0a      	add	r4, sp, #40	@ 0x28
 8000868:	460d      	mov	r5, r1
 800086a:	f844 3f04 	str.w	r3, [r4, #4]!
 800086e:	4606      	mov	r6, r0
 8000870:	4617      	mov	r7, r2
 8000872:	2305      	movs	r3, #5
 8000874:	e894 0006 	ldmia.w	r4, {r1, r2}
 8000878:	4628      	mov	r0, r5
 800087a:	f7ff ff7d 	bl	8000778 <check_busy>
 800087e:	e894 0006 	ldmia.w	r4, {r1, r2}
 8000882:	4628      	mov	r0, r5
 8000884:	f7ff ff96 	bl	80007b4 <write_enable_spi>
 8000888:	f8bd 3030 	ldrh.w	r3, [sp, #48]	@ 0x30
 800088c:	9302      	str	r3, [sp, #8]
 800088e:	9b0b      	ldr	r3, [sp, #44]	@ 0x2c
 8000890:	4807      	ldr	r0, [pc, #28]	@ (80008b0 <write_data_spi_dma+0x50>)
 8000892:	e9cd 7300 	strd	r7, r3, [sp]
 8000896:	4632      	mov	r2, r6
 8000898:	462b      	mov	r3, r5
 800089a:	f44f 7180 	mov.w	r1, #256	@ 0x100
 800089e:	f001 f957 	bl	8001b50 <spi_write_data_dma>
 80008a2:	2000      	movs	r0, #0
 80008a4:	b005      	add	sp, #20
 80008a6:	e8bd 40f0 	ldmia.w	sp!, {r4, r5, r6, r7, lr}
 80008aa:	b002      	add	sp, #8
 80008ac:	4770      	bx	lr
 80008ae:	bf00      	nop
 80008b0:	20000016 	.word	0x20000016

080008b4 <find_next_blank_page>:
 80008b4:	e92d 41f0 	stmdb	sp!, {r4, r5, r6, r7, r8, lr}
 80008b8:	b088      	sub	sp, #32
 80008ba:	ae04      	add	r6, sp, #16
 80008bc:	e886 000c 	stmia.w	r6, {r2, r3}
 80008c0:	2400      	movs	r4, #0
 80008c2:	f8df 8054 	ldr.w	r8, [pc, #84]	@ 8000918 <find_next_blank_page+0x64>
 80008c6:	9407      	str	r4, [sp, #28]
 80008c8:	4605      	mov	r5, r0
 80008ca:	460f      	mov	r7, r1
 80008cc:	e896 0006 	ldmia.w	r6, {r1, r2}
 80008d0:	2305      	movs	r3, #5
 80008d2:	4628      	mov	r0, r5
 80008d4:	f7ff ff50 	bl	8000778 <check_busy>
 80008d8:	f8bd 3014 	ldrh.w	r3, [sp, #20]
 80008dc:	9302      	str	r3, [sp, #8]
 80008de:	9b04      	ldr	r3, [sp, #16]
 80008e0:	aa07      	add	r2, sp, #28
 80008e2:	e9cd 4300 	strd	r4, r3, [sp]
 80008e6:	2104      	movs	r1, #4
 80008e8:	462b      	mov	r3, r5
 80008ea:	4640      	mov	r0, r8
 80008ec:	f001 f8ee 	bl	8001acc <spi_read_data>
 80008f0:	9b07      	ldr	r3, [sp, #28]
 80008f2:	3301      	adds	r3, #1
 80008f4:	f504 7280 	add.w	r2, r4, #256	@ 0x100
 80008f8:	d10c      	bne.n	8000914 <find_next_blank_page+0x60>
 80008fa:	f5b2 3f80 	cmp.w	r2, #65536	@ 0x10000
 80008fe:	d009      	beq.n	8000914 <find_next_blank_page+0x60>
 8000900:	f1b4 7f80 	cmp.w	r4, #16777216	@ 0x1000000
 8000904:	bf08      	it	eq
 8000906:	2300      	moveq	r3, #0
 8000908:	4620      	mov	r0, r4
 800090a:	bf08      	it	eq
 800090c:	703b      	strbeq	r3, [r7, #0]
 800090e:	b008      	add	sp, #32
 8000910:	e8bd 81f0 	ldmia.w	sp!, {r4, r5, r6, r7, r8, pc}
 8000914:	4614      	mov	r4, r2
 8000916:	e7d9      	b.n	80008cc <find_next_blank_page+0x18>
 8000918:	20000014 	.word	0x20000014

0800091c <read_page_spi>:
 800091c:	b082      	sub	sp, #8
 800091e:	b57f      	push	{r0, r1, r2, r3, r4, r5, r6, lr}
 8000920:	460c      	mov	r4, r1
 8000922:	a908      	add	r1, sp, #32
 8000924:	4605      	mov	r5, r0
 8000926:	f841 3f04 	str.w	r3, [r1, #4]!
 800092a:	4616      	mov	r6, r2
 800092c:	2305      	movs	r3, #5
 800092e:	c906      	ldmia	r1, {r1, r2}
 8000930:	4620      	mov	r0, r4
 8000932:	f7ff ff21 	bl	8000778 <check_busy>
 8000936:	f8bd 3028 	ldrh.w	r3, [sp, #40]	@ 0x28
 800093a:	9302      	str	r3, [sp, #8]
 800093c:	9b09      	ldr	r3, [sp, #36]	@ 0x24
 800093e:	4807      	ldr	r0, [pc, #28]	@ (800095c <read_page_spi+0x40>)
 8000940:	e9cd 6300 	strd	r6, r3, [sp]
 8000944:	462a      	mov	r2, r5
 8000946:	4623      	mov	r3, r4
 8000948:	f44f 7180 	mov.w	r1, #256	@ 0x100
 800094c:	f001 f8be 	bl	8001acc <spi_read_data>
 8000950:	b004      	add	sp, #16
 8000952:	e8bd 4070 	ldmia.w	sp!, {r4, r5, r6, lr}
 8000956:	b002      	add	sp, #8
 8000958:	4770      	bx	lr
 800095a:	bf00      	nop
 800095c:	20000014 	.word	0x20000014

08000960 <read_manufacturer_id>:
 8000960:	b530      	push	{r4, r5, lr}
 8000962:	b087      	sub	sp, #28
 8000964:	460c      	mov	r4, r1
 8000966:	a904      	add	r1, sp, #16
 8000968:	e881 000c 	stmia.w	r1, {r2, r3}
 800096c:	4605      	mov	r5, r0
 800096e:	c906      	ldmia	r1, {r1, r2}
 8000970:	2305      	movs	r3, #5
 8000972:	4620      	mov	r0, r4
 8000974:	f7ff ff00 	bl	8000778 <check_busy>
 8000978:	f8bd 3014 	ldrh.w	r3, [sp, #20]
 800097c:	9302      	str	r3, [sp, #8]
 800097e:	9b04      	ldr	r3, [sp, #16]
 8000980:	9301      	str	r3, [sp, #4]
 8000982:	2300      	movs	r3, #0
 8000984:	9300      	str	r3, [sp, #0]
 8000986:	462a      	mov	r2, r5
 8000988:	4623      	mov	r3, r4
 800098a:	2102      	movs	r1, #2
 800098c:	4802      	ldr	r0, [pc, #8]	@ (8000998 <read_manufacturer_id+0x38>)
 800098e:	f001 f89d 	bl	8001acc <spi_read_data>
 8000992:	b007      	add	sp, #28
 8000994:	bd30      	pop	{r4, r5, pc}
 8000996:	bf00      	nop
 8000998:	20000013 	.word	0x20000013

0800099c <create_GPIO_Config>:
 800099c:	6001      	str	r1, [r0, #0]
 800099e:	8082      	strh	r2, [r0, #4]
 80009a0:	4770      	bx	lr

080009a2 <i2c_read_reg>:
 80009a2:	b5f7      	push	{r0, r1, r2, r4, r5, r6, r7, lr}
 80009a4:	4614      	mov	r4, r2
 80009a6:	2501      	movs	r5, #1
 80009a8:	0064      	lsls	r4, r4, #1
 80009aa:	4606      	mov	r6, r0
 80009ac:	460f      	mov	r7, r1
 80009ae:	461a      	mov	r2, r3
 80009b0:	f004 01fe 	and.w	r1, r4, #254	@ 0xfe
 80009b4:	462b      	mov	r3, r5
 80009b6:	9500      	str	r5, [sp, #0]
 80009b8:	f002 fca0 	bl	80032fc <HAL_I2C_Master_Transmit>
 80009bc:	9500      	str	r5, [sp, #0]
 80009be:	462b      	mov	r3, r5
 80009c0:	463a      	mov	r2, r7
 80009c2:	ea44 0105 	orr.w	r1, r4, r5
 80009c6:	4630      	mov	r0, r6
 80009c8:	f002 fd72 	bl	80034b0 <HAL_I2C_Master_Receive>
 80009cc:	b003      	add	sp, #12
 80009ce:	bdf0      	pop	{r4, r5, r6, r7, pc}

080009d0 <i2c_burst_read>:
 80009d0:	b57f      	push	{r0, r1, r2, r3, r4, r5, r6, lr}
 80009d2:	461e      	mov	r6, r3
 80009d4:	004c      	lsls	r4, r1, #1
 80009d6:	2301      	movs	r3, #1
 80009d8:	f062 027f 	orn	r2, r2, #127	@ 0x7f
 80009dc:	f88d 200f 	strb.w	r2, [sp, #15]
 80009e0:	9300      	str	r3, [sp, #0]
 80009e2:	f10d 020f 	add.w	r2, sp, #15
 80009e6:	f004 01fe 	and.w	r1, r4, #254	@ 0xfe
 80009ea:	4605      	mov	r5, r0
 80009ec:	f002 fc86 	bl	80032fc <HAL_I2C_Master_Transmit>
 80009f0:	230a      	movs	r3, #10
 80009f2:	9300      	str	r3, [sp, #0]
 80009f4:	9a08      	ldr	r2, [sp, #32]
 80009f6:	4633      	mov	r3, r6
 80009f8:	f044 0101 	orr.w	r1, r4, #1
 80009fc:	4628      	mov	r0, r5
 80009fe:	f002 fd57 	bl	80034b0 <HAL_I2C_Master_Receive>
 8000a02:	b004      	add	sp, #16
 8000a04:	bd70      	pop	{r4, r5, r6, pc}

08000a06 <i2c_write_reg>:
 8000a06:	b51f      	push	{r0, r1, r2, r3, r4, lr}
 8000a08:	0049      	lsls	r1, r1, #1
 8000a0a:	7812      	ldrb	r2, [r2, #0]
 8000a0c:	f88d 300d 	strb.w	r3, [sp, #13]
 8000a10:	2301      	movs	r3, #1
 8000a12:	f88d 200c 	strb.w	r2, [sp, #12]
 8000a16:	9300      	str	r3, [sp, #0]
 8000a18:	aa03      	add	r2, sp, #12
 8000a1a:	2302      	movs	r3, #2
 8000a1c:	f001 01fe 	and.w	r1, r1, #254	@ 0xfe
 8000a20:	f002 fc6c 	bl	80032fc <HAL_I2C_Master_Transmit>
 8000a24:	b005      	add	sp, #20
 8000a26:	f85d fb04 	ldr.w	pc, [sp], #4
	...

08000a2c <SystemClock_Config>:
 8000a2c:	b530      	push	{r4, r5, lr}
 8000a2e:	2400      	movs	r4, #0
 8000a30:	b095      	sub	sp, #84	@ 0x54
 8000a32:	2214      	movs	r2, #20
 8000a34:	4621      	mov	r1, r4
 8000a36:	a803      	add	r0, sp, #12
 8000a38:	e9cd 4409 	strd	r4, r4, [sp, #36]	@ 0x24
 8000a3c:	f004 fd3a 	bl	80054b4 <memset>
 8000a40:	4b1f      	ldr	r3, [pc, #124]	@ (8000ac0 <SystemClock_Config+0x94>)
 8000a42:	9401      	str	r4, [sp, #4]
 8000a44:	6c1a      	ldr	r2, [r3, #64]	@ 0x40
 8000a46:	f042 5280 	orr.w	r2, r2, #268435456	@ 0x10000000
 8000a4a:	641a      	str	r2, [r3, #64]	@ 0x40
 8000a4c:	6c1b      	ldr	r3, [r3, #64]	@ 0x40
 8000a4e:	f003 5380 	and.w	r3, r3, #268435456	@ 0x10000000
 8000a52:	9301      	str	r3, [sp, #4]
 8000a54:	9b01      	ldr	r3, [sp, #4]
 8000a56:	4b1b      	ldr	r3, [pc, #108]	@ (8000ac4 <SystemClock_Config+0x98>)
 8000a58:	9402      	str	r4, [sp, #8]
 8000a5a:	681a      	ldr	r2, [r3, #0]
 8000a5c:	f442 4240 	orr.w	r2, r2, #49152	@ 0xc000
 8000a60:	601a      	str	r2, [r3, #0]
 8000a62:	681b      	ldr	r3, [r3, #0]
 8000a64:	f403 4340 	and.w	r3, r3, #49152	@ 0xc000
 8000a68:	9302      	str	r3, [sp, #8]
 8000a6a:	9b02      	ldr	r3, [sp, #8]
 8000a6c:	230a      	movs	r3, #10
 8000a6e:	2201      	movs	r2, #1
 8000a70:	9308      	str	r3, [sp, #32]
 8000a72:	2310      	movs	r3, #16
 8000a74:	2502      	movs	r5, #2
 8000a76:	e9cd 230b 	strd	r2, r3, [sp, #44]	@ 0x2c
 8000a7a:	9310      	str	r3, [sp, #64]	@ 0x40
 8000a7c:	f44f 73a8 	mov.w	r3, #336	@ 0x150
 8000a80:	e9cd 3511 	strd	r3, r5, [sp, #68]	@ 0x44
 8000a84:	a808      	add	r0, sp, #32
 8000a86:	2304      	movs	r3, #4
 8000a88:	e9cd 540e 	strd	r5, r4, [sp, #56]	@ 0x38
 8000a8c:	920d      	str	r2, [sp, #52]	@ 0x34
 8000a8e:	9313      	str	r3, [sp, #76]	@ 0x4c
 8000a90:	f002 fee2 	bl	8003858 <HAL_RCC_OscConfig>
 8000a94:	b108      	cbz	r0, 8000a9a <SystemClock_Config+0x6e>
 8000a96:	b672      	cpsid	i
 8000a98:	e7fe      	b.n	8000a98 <SystemClock_Config+0x6c>
 8000a9a:	230f      	movs	r3, #15
 8000a9c:	e9cd 3503 	strd	r3, r5, [sp, #12]
 8000aa0:	9005      	str	r0, [sp, #20]
 8000aa2:	f44f 52a0 	mov.w	r2, #5120	@ 0x1400
 8000aa6:	f44f 5380 	mov.w	r3, #4096	@ 0x1000
 8000aaa:	2105      	movs	r1, #5
 8000aac:	a803      	add	r0, sp, #12
 8000aae:	e9cd 2306 	strd	r2, r3, [sp, #24]
 8000ab2:	f003 f8ad 	bl	8003c10 <HAL_RCC_ClockConfig>
 8000ab6:	b108      	cbz	r0, 8000abc <SystemClock_Config+0x90>
 8000ab8:	b672      	cpsid	i
 8000aba:	e7fe      	b.n	8000aba <SystemClock_Config+0x8e>
 8000abc:	b015      	add	sp, #84	@ 0x54
 8000abe:	bd30      	pop	{r4, r5, pc}
 8000ac0:	40023800 	.word	0x40023800
 8000ac4:	40007000 	.word	0x40007000

08000ac8 <clean_data_buffer>:
 8000ac8:	4602      	mov	r2, r0
 8000aca:	4608      	mov	r0, r1
 8000acc:	21ff      	movs	r1, #255	@ 0xff
 8000ace:	f004 bcf1 	b.w	80054b4 <memset>
	...

08000ad4 <gpio_set_config>:
 8000ad4:	b5f7      	push	{r0, r1, r2, r4, r5, r6, r7, lr}
 8000ad6:	4d2c      	ldr	r5, [pc, #176]	@ (8000b88 <gpio_set_config+0xb4>)
 8000ad8:	4e2c      	ldr	r6, [pc, #176]	@ (8000b8c <gpio_set_config+0xb8>)
 8000ada:	4f2d      	ldr	r7, [pc, #180]	@ (8000b90 <gpio_set_config+0xbc>)
 8000adc:	466c      	mov	r4, sp
 8000ade:	4629      	mov	r1, r5
 8000ae0:	4620      	mov	r0, r4
 8000ae2:	f44f 4280 	mov.w	r2, #16384	@ 0x4000
 8000ae6:	f7ff ff59 	bl	800099c <create_GPIO_Config>
 8000aea:	e894 0003 	ldmia.w	r4, {r0, r1}
 8000aee:	f44f 5200 	mov.w	r2, #8192	@ 0x2000
 8000af2:	e886 0003 	stmia.w	r6, {r0, r1}
 8000af6:	4629      	mov	r1, r5
 8000af8:	4620      	mov	r0, r4
 8000afa:	f7ff ff4f 	bl	800099c <create_GPIO_Config>
 8000afe:	e894 0003 	ldmia.w	r4, {r0, r1}
 8000b02:	4e24      	ldr	r6, [pc, #144]	@ (8000b94 <gpio_set_config+0xc0>)
 8000b04:	f44f 5280 	mov.w	r2, #4096	@ 0x1000
 8000b08:	e886 0003 	stmia.w	r6, {r0, r1}
 8000b0c:	4629      	mov	r1, r5
 8000b0e:	4620      	mov	r0, r4
 8000b10:	f7ff ff44 	bl	800099c <create_GPIO_Config>
 8000b14:	e894 0003 	ldmia.w	r4, {r0, r1}
 8000b18:	4e1f      	ldr	r6, [pc, #124]	@ (8000b98 <gpio_set_config+0xc4>)
 8000b1a:	e886 0003 	stmia.w	r6, {r0, r1}
 8000b1e:	4e1f      	ldr	r6, [pc, #124]	@ (8000b9c <gpio_set_config+0xc8>)
 8000b20:	4620      	mov	r0, r4
 8000b22:	4631      	mov	r1, r6
 8000b24:	2210      	movs	r2, #16
 8000b26:	f7ff ff39 	bl	800099c <create_GPIO_Config>
 8000b2a:	e894 0003 	ldmia.w	r4, {r0, r1}
 8000b2e:	2210      	movs	r2, #16
 8000b30:	e887 0003 	stmia.w	r7, {r0, r1}
 8000b34:	4620      	mov	r0, r4
 8000b36:	491a      	ldr	r1, [pc, #104]	@ (8000ba0 <gpio_set_config+0xcc>)
 8000b38:	4f1a      	ldr	r7, [pc, #104]	@ (8000ba4 <gpio_set_config+0xd0>)
 8000b3a:	f7ff ff2f 	bl	800099c <create_GPIO_Config>
 8000b3e:	e894 0003 	ldmia.w	r4, {r0, r1}
 8000b42:	2202      	movs	r2, #2
 8000b44:	e887 0003 	stmia.w	r7, {r0, r1}
 8000b48:	4631      	mov	r1, r6
 8000b4a:	4620      	mov	r0, r4
 8000b4c:	f7ff ff26 	bl	800099c <create_GPIO_Config>
 8000b50:	e894 0003 	ldmia.w	r4, {r0, r1}
 8000b54:	4f14      	ldr	r7, [pc, #80]	@ (8000ba8 <gpio_set_config+0xd4>)
 8000b56:	2201      	movs	r2, #1
 8000b58:	e887 0003 	stmia.w	r7, {r0, r1}
 8000b5c:	4631      	mov	r1, r6
 8000b5e:	4620      	mov	r0, r4
 8000b60:	f7ff ff1c 	bl	800099c <create_GPIO_Config>
 8000b64:	e894 0003 	ldmia.w	r4, {r0, r1}
 8000b68:	4f10      	ldr	r7, [pc, #64]	@ (8000bac <gpio_set_config+0xd8>)
 8000b6a:	4e11      	ldr	r6, [pc, #68]	@ (8000bb0 <gpio_set_config+0xdc>)
 8000b6c:	e887 0003 	stmia.w	r7, {r0, r1}
 8000b70:	2202      	movs	r2, #2
 8000b72:	4629      	mov	r1, r5
 8000b74:	4620      	mov	r0, r4
 8000b76:	f7ff ff11 	bl	800099c <create_GPIO_Config>
 8000b7a:	e894 0003 	ldmia.w	r4, {r0, r1}
 8000b7e:	e886 0003 	stmia.w	r6, {r0, r1}
 8000b82:	b003      	add	sp, #12
 8000b84:	bdf0      	pop	{r4, r5, r6, r7, pc}
 8000b86:	bf00      	nop
 8000b88:	40020400 	.word	0x40020400
 8000b8c:	20000080 	.word	0x20000080
 8000b90:	20000068 	.word	0x20000068
 8000b94:	20000078 	.word	0x20000078
 8000b98:	20000070 	.word	0x20000070
 8000b9c:	40020800 	.word	0x40020800
 8000ba0:	40020000 	.word	0x40020000
 8000ba4:	20000060 	.word	0x20000060
 8000ba8:	20000058 	.word	0x20000058
 8000bac:	20000050 	.word	0x20000050
 8000bb0:	20000048 	.word	0x20000048

08000bb4 <handleCAN>:
 8000bb4:	b51f      	push	{r0, r1, r2, r3, r4, lr}
 8000bb6:	4b1c      	ldr	r3, [pc, #112]	@ (8000c28 <handleCAN+0x74>)
 8000bb8:	681b      	ldr	r3, [r3, #0]
 8000bba:	f240 72ff 	movw	r2, #2047	@ 0x7ff
 8000bbe:	4293      	cmp	r3, r2
 8000bc0:	d10e      	bne.n	8000be0 <handleCAN+0x2c>
 8000bc2:	4a1a      	ldr	r2, [pc, #104]	@ (8000c2c <handleCAN+0x78>)
 8000bc4:	2101      	movs	r1, #1
 8000bc6:	7011      	strb	r1, [r2, #0]
 8000bc8:	2200      	movs	r2, #0
 8000bca:	9300      	str	r3, [sp, #0]
 8000bcc:	4b18      	ldr	r3, [pc, #96]	@ (8000c30 <handleCAN+0x7c>)
 8000bce:	f88d 200c 	strb.w	r2, [sp, #12]
 8000bd2:	aa03      	add	r2, sp, #12
 8000bd4:	4817      	ldr	r0, [pc, #92]	@ (8000c34 <handleCAN+0x80>)
 8000bd6:	f7ff fda7 	bl	8000728 <sendCAN_TxMessage>
 8000bda:	b005      	add	sp, #20
 8000bdc:	f85d fb04 	ldr.w	pc, [sp], #4
 8000be0:	f240 5201 	movw	r2, #1281	@ 0x501
 8000be4:	4293      	cmp	r3, r2
 8000be6:	d104      	bne.n	8000bf2 <handleCAN+0x3e>
 8000be8:	9300      	str	r3, [sp, #0]
 8000bea:	4a13      	ldr	r2, [pc, #76]	@ (8000c38 <handleCAN+0x84>)
 8000bec:	4b10      	ldr	r3, [pc, #64]	@ (8000c30 <handleCAN+0x7c>)
 8000bee:	2106      	movs	r1, #6
 8000bf0:	e7f0      	b.n	8000bd4 <handleCAN+0x20>
 8000bf2:	f240 5202 	movw	r2, #1282	@ 0x502
 8000bf6:	4293      	cmp	r3, r2
 8000bf8:	d103      	bne.n	8000c02 <handleCAN+0x4e>
 8000bfa:	9300      	str	r3, [sp, #0]
 8000bfc:	4a0f      	ldr	r2, [pc, #60]	@ (8000c3c <handleCAN+0x88>)
 8000bfe:	4b0c      	ldr	r3, [pc, #48]	@ (8000c30 <handleCAN+0x7c>)
 8000c00:	e7f5      	b.n	8000bee <handleCAN+0x3a>
 8000c02:	f240 5203 	movw	r2, #1283	@ 0x503
 8000c06:	4293      	cmp	r3, r2
 8000c08:	d103      	bne.n	8000c12 <handleCAN+0x5e>
 8000c0a:	9300      	str	r3, [sp, #0]
 8000c0c:	4a0c      	ldr	r2, [pc, #48]	@ (8000c40 <handleCAN+0x8c>)
 8000c0e:	4b08      	ldr	r3, [pc, #32]	@ (8000c30 <handleCAN+0x7c>)
 8000c10:	e7ed      	b.n	8000bee <handleCAN+0x3a>
 8000c12:	f5b3 6fe0 	cmp.w	r3, #1792	@ 0x700
 8000c16:	d1e0      	bne.n	8000bda <handleCAN+0x26>
 8000c18:	4b0a      	ldr	r3, [pc, #40]	@ (8000c44 <handleCAN+0x90>)
 8000c1a:	480b      	ldr	r0, [pc, #44]	@ (8000c48 <handleCAN+0x94>)
 8000c1c:	7819      	ldrb	r1, [r3, #0]
 8000c1e:	b005      	add	sp, #20
 8000c20:	f85d eb04 	ldr.w	lr, [sp], #4
 8000c24:	f001 baa7 	b.w	8002176 <send_uart_hex>
 8000c28:	200002b0 	.word	0x200002b0
 8000c2c:	20000045 	.word	0x20000045
 8000c30:	200002cc 	.word	0x200002cc
 8000c34:	200005ec 	.word	0x200005ec
 8000c38:	20000097 	.word	0x20000097
 8000c3c:	20000091 	.word	0x20000091
 8000c40:	2000009d 	.word	0x2000009d
 8000c44:	20000046 	.word	0x20000046
 8000c48:	200002dc 	.word	0x200002dc

08000c4c <decodeASCII>:
 8000c4c:	3830      	subs	r0, #48	@ 0x30
 8000c4e:	b2c3      	uxtb	r3, r0
 8000c50:	2b09      	cmp	r3, #9
 8000c52:	bf88      	it	hi
 8000c54:	f04f 30ff 	movhi.w	r0, #4294967295	@ 0xffffffff
 8000c58:	b2c0      	uxtb	r0, r0
 8000c5a:	4770      	bx	lr

08000c5c <handleUART>:
 8000c5c:	b5f0      	push	{r4, r5, r6, r7, lr}
 8000c5e:	4c7d      	ldr	r4, [pc, #500]	@ (8000e54 <handleUART+0x1f8>)
 8000c60:	7823      	ldrb	r3, [r4, #0]
 8000c62:	2b68      	cmp	r3, #104	@ 0x68
 8000c64:	b085      	sub	sp, #20
 8000c66:	d10c      	bne.n	8000c82 <handleUART+0x26>
 8000c68:	487b      	ldr	r0, [pc, #492]	@ (8000e58 <handleUART+0x1fc>)
 8000c6a:	f000 fd15 	bl	8001698 <heartbeatUART>
 8000c6e:	4b7b      	ldr	r3, [pc, #492]	@ (8000e5c <handleUART+0x200>)
 8000c70:	4879      	ldr	r0, [pc, #484]	@ (8000e58 <handleUART+0x1fc>)
 8000c72:	7819      	ldrb	r1, [r3, #0]
 8000c74:	f001 fa7f 	bl	8002176 <send_uart_hex>
 8000c78:	2300      	movs	r3, #0
 8000c7a:	7023      	strb	r3, [r4, #0]
 8000c7c:	7063      	strb	r3, [r4, #1]
 8000c7e:	b005      	add	sp, #20
 8000c80:	bdf0      	pop	{r4, r5, r6, r7, pc}
 8000c82:	3b61      	subs	r3, #97	@ 0x61
 8000c84:	2b17      	cmp	r3, #23
 8000c86:	d8f7      	bhi.n	8000c78 <handleUART+0x1c>
 8000c88:	a201      	add	r2, pc, #4	@ (adr r2, 8000c90 <handleUART+0x34>)
 8000c8a:	f852 f023 	ldr.w	pc, [r2, r3, lsl #2]
 8000c8e:	bf00      	nop
 8000c90:	08000df5 	.word	0x08000df5
 8000c94:	08000dfd 	.word	0x08000dfd
 8000c98:	08000de9 	.word	0x08000de9
 8000c9c:	08000c79 	.word	0x08000c79
 8000ca0:	08000cf1 	.word	0x08000cf1
 8000ca4:	08000c79 	.word	0x08000c79
 8000ca8:	08000c79 	.word	0x08000c79
 8000cac:	08000c79 	.word	0x08000c79
 8000cb0:	08000c79 	.word	0x08000c79
 8000cb4:	08000c79 	.word	0x08000c79
 8000cb8:	08000c79 	.word	0x08000c79
 8000cbc:	08000c79 	.word	0x08000c79
 8000cc0:	08000d77 	.word	0x08000d77
 8000cc4:	08000e39 	.word	0x08000e39
 8000cc8:	08000c79 	.word	0x08000c79
 8000ccc:	08000e13 	.word	0x08000e13
 8000cd0:	08000c79 	.word	0x08000c79
 8000cd4:	08000d53 	.word	0x08000d53
 8000cd8:	08000c79 	.word	0x08000c79
 8000cdc:	08000e29 	.word	0x08000e29
 8000ce0:	08000c79 	.word	0x08000c79
 8000ce4:	08000c79 	.word	0x08000c79
 8000ce8:	08000d9d 	.word	0x08000d9d
 8000cec:	08000dc3 	.word	0x08000dc3
 8000cf0:	4d5b      	ldr	r5, [pc, #364]	@ (8000e60 <handleUART+0x204>)
 8000cf2:	4f5c      	ldr	r7, [pc, #368]	@ (8000e64 <handleUART+0x208>)
 8000cf4:	6828      	ldr	r0, [r5, #0]
 8000cf6:	88a9      	ldrh	r1, [r5, #4]
 8000cf8:	4e5b      	ldr	r6, [pc, #364]	@ (8000e68 <handleUART+0x20c>)
 8000cfa:	2201      	movs	r2, #1
 8000cfc:	f002 f918 	bl	8002f30 <HAL_GPIO_WritePin>
 8000d00:	7860      	ldrb	r0, [r4, #1]
 8000d02:	f7ff ffa3 	bl	8000c4c <decodeASCII>
 8000d06:	b9e8      	cbnz	r0, 8000d44 <handleUART+0xe8>
 8000d08:	e897 000c 	ldmia.w	r7, {r2, r3}
 8000d0c:	4952      	ldr	r1, [pc, #328]	@ (8000e58 <handleUART+0x1fc>)
 8000d0e:	4857      	ldr	r0, [pc, #348]	@ (8000e6c <handleUART+0x210>)
 8000d10:	f000 fcc6 	bl	80016a0 <eraseFlashSPI>
 8000d14:	e897 000c 	ldmia.w	r7, {r2, r3}
 8000d18:	4955      	ldr	r1, [pc, #340]	@ (8000e70 <handleUART+0x214>)
 8000d1a:	4854      	ldr	r0, [pc, #336]	@ (8000e6c <handleUART+0x210>)
 8000d1c:	f7ff fdca 	bl	80008b4 <find_next_blank_page>
 8000d20:	e896 000c 	ldmia.w	r6, {r2, r3}
 8000d24:	4607      	mov	r7, r0
 8000d26:	4952      	ldr	r1, [pc, #328]	@ (8000e70 <handleUART+0x214>)
 8000d28:	4852      	ldr	r0, [pc, #328]	@ (8000e74 <handleUART+0x218>)
 8000d2a:	f7ff fdc3 	bl	80008b4 <find_next_blank_page>
 8000d2e:	4b52      	ldr	r3, [pc, #328]	@ (8000e78 <handleUART+0x21c>)
 8000d30:	88a9      	ldrh	r1, [r5, #4]
 8000d32:	4287      	cmp	r7, r0
 8000d34:	bfac      	ite	ge
 8000d36:	601f      	strge	r7, [r3, #0]
 8000d38:	6018      	strlt	r0, [r3, #0]
 8000d3a:	2200      	movs	r2, #0
 8000d3c:	6828      	ldr	r0, [r5, #0]
 8000d3e:	f002 f8f7 	bl	8002f30 <HAL_GPIO_WritePin>
 8000d42:	e799      	b.n	8000c78 <handleUART+0x1c>
 8000d44:	2801      	cmp	r0, #1
 8000d46:	d1e5      	bne.n	8000d14 <handleUART+0xb8>
 8000d48:	e896 000c 	ldmia.w	r6, {r2, r3}
 8000d4c:	4942      	ldr	r1, [pc, #264]	@ (8000e58 <handleUART+0x1fc>)
 8000d4e:	4849      	ldr	r0, [pc, #292]	@ (8000e74 <handleUART+0x218>)
 8000d50:	e7de      	b.n	8000d10 <handleUART+0xb4>
 8000d52:	7860      	ldrb	r0, [r4, #1]
 8000d54:	f7ff ff7a 	bl	8000c4c <decodeASCII>
 8000d58:	b930      	cbnz	r0, 8000d68 <handleUART+0x10c>
 8000d5a:	4b42      	ldr	r3, [pc, #264]	@ (8000e64 <handleUART+0x208>)
 8000d5c:	493e      	ldr	r1, [pc, #248]	@ (8000e58 <handleUART+0x1fc>)
 8000d5e:	4843      	ldr	r0, [pc, #268]	@ (8000e6c <handleUART+0x210>)
 8000d60:	cb0c      	ldmia	r3, {r2, r3}
 8000d62:	f000 fcb3 	bl	80016cc <readFlashToUART>
 8000d66:	e787      	b.n	8000c78 <handleUART+0x1c>
 8000d68:	2801      	cmp	r0, #1
 8000d6a:	d185      	bne.n	8000c78 <handleUART+0x1c>
 8000d6c:	4b3e      	ldr	r3, [pc, #248]	@ (8000e68 <handleUART+0x20c>)
 8000d6e:	493a      	ldr	r1, [pc, #232]	@ (8000e58 <handleUART+0x1fc>)
 8000d70:	4840      	ldr	r0, [pc, #256]	@ (8000e74 <handleUART+0x218>)
 8000d72:	cb0c      	ldmia	r3, {r2, r3}
 8000d74:	e7f5      	b.n	8000d62 <handleUART+0x106>
 8000d76:	7860      	ldrb	r0, [r4, #1]
 8000d78:	f7ff ff68 	bl	8000c4c <decodeASCII>
 8000d7c:	b930      	cbnz	r0, 8000d8c <handleUART+0x130>
 8000d7e:	4b39      	ldr	r3, [pc, #228]	@ (8000e64 <handleUART+0x208>)
 8000d80:	4935      	ldr	r1, [pc, #212]	@ (8000e58 <handleUART+0x1fc>)
 8000d82:	483a      	ldr	r0, [pc, #232]	@ (8000e6c <handleUART+0x210>)
 8000d84:	cb0c      	ldmia	r3, {r2, r3}
 8000d86:	f000 fcd5 	bl	8001734 <readFlashManuSPI>
 8000d8a:	e775      	b.n	8000c78 <handleUART+0x1c>
 8000d8c:	2801      	cmp	r0, #1
 8000d8e:	f47f af73 	bne.w	8000c78 <handleUART+0x1c>
 8000d92:	4b35      	ldr	r3, [pc, #212]	@ (8000e68 <handleUART+0x20c>)
 8000d94:	4930      	ldr	r1, [pc, #192]	@ (8000e58 <handleUART+0x1fc>)
 8000d96:	4837      	ldr	r0, [pc, #220]	@ (8000e74 <handleUART+0x218>)
 8000d98:	cb0c      	ldmia	r3, {r2, r3}
 8000d9a:	e7f4      	b.n	8000d86 <handleUART+0x12a>
 8000d9c:	7860      	ldrb	r0, [r4, #1]
 8000d9e:	f7ff ff55 	bl	8000c4c <decodeASCII>
 8000da2:	b930      	cbnz	r0, 8000db2 <handleUART+0x156>
 8000da4:	4b2f      	ldr	r3, [pc, #188]	@ (8000e64 <handleUART+0x208>)
 8000da6:	492c      	ldr	r1, [pc, #176]	@ (8000e58 <handleUART+0x1fc>)
 8000da8:	4830      	ldr	r0, [pc, #192]	@ (8000e6c <handleUART+0x210>)
 8000daa:	cb0c      	ldmia	r3, {r2, r3}
 8000dac:	f000 fcdc 	bl	8001768 <writePageSPI_W>
 8000db0:	e762      	b.n	8000c78 <handleUART+0x1c>
 8000db2:	2801      	cmp	r0, #1
 8000db4:	f47f af60 	bne.w	8000c78 <handleUART+0x1c>
 8000db8:	4b2b      	ldr	r3, [pc, #172]	@ (8000e68 <handleUART+0x20c>)
 8000dba:	4927      	ldr	r1, [pc, #156]	@ (8000e58 <handleUART+0x1fc>)
 8000dbc:	482d      	ldr	r0, [pc, #180]	@ (8000e74 <handleUART+0x218>)
 8000dbe:	cb0c      	ldmia	r3, {r2, r3}
 8000dc0:	e7f4      	b.n	8000dac <handleUART+0x150>
 8000dc2:	7860      	ldrb	r0, [r4, #1]
 8000dc4:	f7ff ff42 	bl	8000c4c <decodeASCII>
 8000dc8:	b930      	cbnz	r0, 8000dd8 <handleUART+0x17c>
 8000dca:	4b26      	ldr	r3, [pc, #152]	@ (8000e64 <handleUART+0x208>)
 8000dcc:	4922      	ldr	r1, [pc, #136]	@ (8000e58 <handleUART+0x1fc>)
 8000dce:	4827      	ldr	r0, [pc, #156]	@ (8000e6c <handleUART+0x210>)
 8000dd0:	cb0c      	ldmia	r3, {r2, r3}
 8000dd2:	f000 fced 	bl	80017b0 <resetSPIFlash>
 8000dd6:	e74f      	b.n	8000c78 <handleUART+0x1c>
 8000dd8:	2801      	cmp	r0, #1
 8000dda:	f47f af4d 	bne.w	8000c78 <handleUART+0x1c>
 8000dde:	4b22      	ldr	r3, [pc, #136]	@ (8000e68 <handleUART+0x20c>)
 8000de0:	491d      	ldr	r1, [pc, #116]	@ (8000e58 <handleUART+0x1fc>)
 8000de2:	4824      	ldr	r0, [pc, #144]	@ (8000e74 <handleUART+0x218>)
 8000de4:	cb0c      	ldmia	r3, {r2, r3}
 8000de6:	e7f4      	b.n	8000dd2 <handleUART+0x176>
 8000de8:	4b24      	ldr	r3, [pc, #144]	@ (8000e7c <handleUART+0x220>)
 8000dea:	491b      	ldr	r1, [pc, #108]	@ (8000e58 <handleUART+0x1fc>)
 8000dec:	6818      	ldr	r0, [r3, #0]
 8000dee:	f000 fcf1 	bl	80017d4 <checkAccelWhoAmI>
 8000df2:	e741      	b.n	8000c78 <handleUART+0x1c>
 8000df4:	4818      	ldr	r0, [pc, #96]	@ (8000e58 <handleUART+0x1fc>)
 8000df6:	f000 fcf7 	bl	80017e8 <accelToUART>
 8000dfa:	e73d      	b.n	8000c78 <handleUART+0x1c>
 8000dfc:	4b20      	ldr	r3, [pc, #128]	@ (8000e80 <handleUART+0x224>)
 8000dfe:	7860      	ldrb	r0, [r4, #1]
 8000e00:	681d      	ldr	r5, [r3, #0]
 8000e02:	4915      	ldr	r1, [pc, #84]	@ (8000e58 <handleUART+0x1fc>)
 8000e04:	f7ff ff22 	bl	8000c4c <decodeASCII>
 8000e08:	4602      	mov	r2, r0
 8000e0a:	4628      	mov	r0, r5
 8000e0c:	f000 fcfc 	bl	8001808 <readTempSensorID>
 8000e10:	e732      	b.n	8000c78 <handleUART+0x1c>
 8000e12:	4b1b      	ldr	r3, [pc, #108]	@ (8000e80 <handleUART+0x224>)
 8000e14:	7860      	ldrb	r0, [r4, #1]
 8000e16:	681d      	ldr	r5, [r3, #0]
 8000e18:	490f      	ldr	r1, [pc, #60]	@ (8000e58 <handleUART+0x1fc>)
 8000e1a:	f7ff ff17 	bl	8000c4c <decodeASCII>
 8000e1e:	4602      	mov	r2, r0
 8000e20:	4628      	mov	r0, r5
 8000e22:	f000 fcfc 	bl	800181e <readTempCalibration>
 8000e26:	e727      	b.n	8000c78 <handleUART+0x1c>
 8000e28:	7860      	ldrb	r0, [r4, #1]
 8000e2a:	f7ff ff0f 	bl	8000c4c <decodeASCII>
 8000e2e:	4601      	mov	r1, r0
 8000e30:	4809      	ldr	r0, [pc, #36]	@ (8000e58 <handleUART+0x1fc>)
 8000e32:	f000 fd27 	bl	8001884 <readTempSensor>
 8000e36:	e71f      	b.n	8000c78 <handleUART+0x1c>
 8000e38:	7863      	ldrb	r3, [r4, #1]
 8000e3a:	f88d 300c 	strb.w	r3, [sp, #12]
 8000e3e:	f44f 63e0 	mov.w	r3, #1792	@ 0x700
 8000e42:	9300      	str	r3, [sp, #0]
 8000e44:	480f      	ldr	r0, [pc, #60]	@ (8000e84 <handleUART+0x228>)
 8000e46:	4b10      	ldr	r3, [pc, #64]	@ (8000e88 <handleUART+0x22c>)
 8000e48:	aa03      	add	r2, sp, #12
 8000e4a:	2101      	movs	r1, #1
 8000e4c:	f7ff fc6c 	bl	8000728 <sendCAN_TxMessage>
 8000e50:	e712      	b.n	8000c78 <handleUART+0x1c>
 8000e52:	bf00      	nop
 8000e54:	200002d1 	.word	0x200002d1
 8000e58:	200002dc 	.word	0x200002dc
 8000e5c:	20000046 	.word	0x20000046
 8000e60:	20000078 	.word	0x20000078
 8000e64:	20000068 	.word	0x20000068
 8000e68:	20000058 	.word	0x20000058
 8000e6c:	200004cc 	.word	0x200004cc
 8000e70:	20000088 	.word	0x20000088
 8000e74:	20000474 	.word	0x20000474
 8000e78:	2000008c 	.word	0x2000008c
 8000e7c:	200002d8 	.word	0x200002d8
 8000e80:	200002d4 	.word	0x200002d4
 8000e84:	200005ec 	.word	0x200005ec
 8000e88:	200002cc 	.word	0x200002cc

08000e8c <combine_system_status>:
 8000e8c:	4b04      	ldr	r3, [pc, #16]	@ (8000ea0 <combine_system_status+0x14>)
 8000e8e:	7818      	ldrb	r0, [r3, #0]
 8000e90:	4b04      	ldr	r3, [pc, #16]	@ (8000ea4 <combine_system_status+0x18>)
 8000e92:	781b      	ldrb	r3, [r3, #0]
 8000e94:	f000 001f 	and.w	r0, r0, #31
 8000e98:	ea40 1043 	orr.w	r0, r0, r3, lsl #5
 8000e9c:	b2c0      	uxtb	r0, r0
 8000e9e:	4770      	bx	lr
 8000ea0:	20000046 	.word	0x20000046
 8000ea4:	20000045 	.word	0x20000045

08000ea8 <configureCAN>:
 8000ea8:	b500      	push	{lr}
 8000eaa:	2300      	movs	r3, #0
 8000eac:	b08b      	sub	sp, #44	@ 0x2c
 8000eae:	210a      	movs	r1, #10
 8000eb0:	e9cd 3104 	strd	r3, r1, [sp, #16]
 8000eb4:	f44f 4120 	mov.w	r1, #40960	@ 0xa000
 8000eb8:	2201      	movs	r2, #1
 8000eba:	e9cd 1300 	strd	r1, r3, [sp]
 8000ebe:	e9cd 1302 	strd	r1, r3, [sp, #8]
 8000ec2:	4805      	ldr	r0, [pc, #20]	@ (8000ed8 <configureCAN+0x30>)
 8000ec4:	9208      	str	r2, [sp, #32]
 8000ec6:	4669      	mov	r1, sp
 8000ec8:	e9cd 3206 	strd	r3, r2, [sp, #24]
 8000ecc:	9309      	str	r3, [sp, #36]	@ 0x24
 8000ece:	f001 fa69 	bl	80023a4 <HAL_CAN_ConfigFilter>
 8000ed2:	b00b      	add	sp, #44	@ 0x2c
 8000ed4:	f85d fb04 	ldr.w	pc, [sp], #4
 8000ed8:	200005ec 	.word	0x200005ec

08000edc <systemInit>:
 8000edc:	e92d 4ff8 	stmdb	sp!, {r3, r4, r5, r6, r7, r8, r9, sl, fp, lr}
 8000ee0:	f8df a1c4 	ldr.w	sl, [pc, #452]	@ 80010a8 <systemInit+0x1cc>
 8000ee4:	4f53      	ldr	r7, [pc, #332]	@ (8001034 <systemInit+0x158>)
 8000ee6:	4b54      	ldr	r3, [pc, #336]	@ (8001038 <systemInit+0x15c>)
 8000ee8:	f8ca 3000 	str.w	r3, [sl]
 8000eec:	4b53      	ldr	r3, [pc, #332]	@ (800103c <systemInit+0x160>)
 8000eee:	603b      	str	r3, [r7, #0]
 8000ef0:	f7ff ffda 	bl	8000ea8 <configureCAN>
 8000ef4:	4b52      	ldr	r3, [pc, #328]	@ (8001040 <systemInit+0x164>)
 8000ef6:	4953      	ldr	r1, [pc, #332]	@ (8001044 <systemInit+0x168>)
 8000ef8:	4e53      	ldr	r6, [pc, #332]	@ (8001048 <systemInit+0x16c>)
 8000efa:	4d54      	ldr	r5, [pc, #336]	@ (800104c <systemInit+0x170>)
 8000efc:	f8df 81ac 	ldr.w	r8, [pc, #428]	@ 80010ac <systemInit+0x1d0>
 8000f00:	f8df 91ac 	ldr.w	r9, [pc, #428]	@ 80010b0 <systemInit+0x1d4>
 8000f04:	f8df b1ac 	ldr.w	fp, [pc, #428]	@ 80010b4 <systemInit+0x1d8>
 8000f08:	2400      	movs	r4, #0
 8000f0a:	601c      	str	r4, [r3, #0]
 8000f0c:	4b50      	ldr	r3, [pc, #320]	@ (8001050 <systemInit+0x174>)
 8000f0e:	2008      	movs	r0, #8
 8000f10:	701c      	strb	r4, [r3, #0]
 8000f12:	f7ff fdd9 	bl	8000ac8 <clean_data_buffer>
 8000f16:	f7ff fddd 	bl	8000ad4 <gpio_set_config>
 8000f1a:	4b4e      	ldr	r3, [pc, #312]	@ (8001054 <systemInit+0x178>)
 8000f1c:	4622      	mov	r2, r4
 8000f1e:	8899      	ldrh	r1, [r3, #4]
 8000f20:	6818      	ldr	r0, [r3, #0]
 8000f22:	f002 f805 	bl	8002f30 <HAL_GPIO_WritePin>
 8000f26:	4b4c      	ldr	r3, [pc, #304]	@ (8001058 <systemInit+0x17c>)
 8000f28:	4622      	mov	r2, r4
 8000f2a:	8899      	ldrh	r1, [r3, #4]
 8000f2c:	6818      	ldr	r0, [r3, #0]
 8000f2e:	f001 ffff 	bl	8002f30 <HAL_GPIO_WritePin>
 8000f32:	88b1      	ldrh	r1, [r6, #4]
 8000f34:	6830      	ldr	r0, [r6, #0]
 8000f36:	2201      	movs	r2, #1
 8000f38:	f001 fffa 	bl	8002f30 <HAL_GPIO_WritePin>
 8000f3c:	2201      	movs	r2, #1
 8000f3e:	88a9      	ldrh	r1, [r5, #4]
 8000f40:	6828      	ldr	r0, [r5, #0]
 8000f42:	f001 fff5 	bl	8002f30 <HAL_GPIO_WritePin>
 8000f46:	4641      	mov	r1, r8
 8000f48:	f44f 7080 	mov.w	r0, #256	@ 0x100
 8000f4c:	f7ff fdbc 	bl	8000ac8 <clean_data_buffer>
 8000f50:	f508 7180 	add.w	r1, r8, #256	@ 0x100
 8000f54:	f44f 7080 	mov.w	r0, #256	@ 0x100
 8000f58:	f7ff fdb6 	bl	8000ac8 <clean_data_buffer>
 8000f5c:	4b3f      	ldr	r3, [pc, #252]	@ (800105c <systemInit+0x180>)
 8000f5e:	f8da 0000 	ldr.w	r0, [sl]
 8000f62:	601c      	str	r4, [r3, #0]
 8000f64:	809c      	strh	r4, [r3, #4]
 8000f66:	4b3e      	ldr	r3, [pc, #248]	@ (8001060 <systemInit+0x184>)
 8000f68:	f8df 814c 	ldr.w	r8, [pc, #332]	@ 80010b8 <systemInit+0x1dc>
 8000f6c:	601c      	str	r4, [r3, #0]
 8000f6e:	809c      	strh	r4, [r3, #4]
 8000f70:	4b3c      	ldr	r3, [pc, #240]	@ (8001064 <systemInit+0x188>)
 8000f72:	601c      	str	r4, [r3, #0]
 8000f74:	809c      	strh	r4, [r3, #4]
 8000f76:	f7ff fb01 	bl	800057c <init_accel>
 8000f7a:	4621      	mov	r1, r4
 8000f7c:	6838      	ldr	r0, [r7, #0]
 8000f7e:	f7ff fb2f 	bl	80005e0 <init_bme280>
 8000f82:	6838      	ldr	r0, [r7, #0]
 8000f84:	2101      	movs	r1, #1
 8000f86:	f7ff fb2b 	bl	80005e0 <init_bme280>
 8000f8a:	e896 0006 	ldmia.w	r6, {r1, r2}
 8000f8e:	4640      	mov	r0, r8
 8000f90:	f7ff fc42 	bl	8000818 <software_reset>
 8000f94:	e895 0006 	ldmia.w	r5, {r1, r2}
 8000f98:	4648      	mov	r0, r9
 8000f9a:	f7ff fc3d 	bl	8000818 <software_reset>
 8000f9e:	e896 000c 	ldmia.w	r6, {r2, r3}
 8000fa2:	4659      	mov	r1, fp
 8000fa4:	4640      	mov	r0, r8
 8000fa6:	f7ff fc85 	bl	80008b4 <find_next_blank_page>
 8000faa:	e895 000c 	ldmia.w	r5, {r2, r3}
 8000fae:	4606      	mov	r6, r0
 8000fb0:	4659      	mov	r1, fp
 8000fb2:	4648      	mov	r0, r9
 8000fb4:	f7ff fc7e 	bl	80008b4 <find_next_blank_page>
 8000fb8:	4b2b      	ldr	r3, [pc, #172]	@ (8001068 <systemInit+0x18c>)
 8000fba:	683a      	ldr	r2, [r7, #0]
 8000fbc:	4286      	cmp	r6, r0
 8000fbe:	bfac      	ite	ge
 8000fc0:	601e      	strge	r6, [r3, #0]
 8000fc2:	6018      	strlt	r0, [r3, #0]
 8000fc4:	4b29      	ldr	r3, [pc, #164]	@ (800106c <systemInit+0x190>)
 8000fc6:	f88b 4000 	strb.w	r4, [fp]
 8000fca:	701c      	strb	r4, [r3, #0]
 8000fcc:	4b28      	ldr	r3, [pc, #160]	@ (8001070 <systemInit+0x194>)
 8000fce:	801c      	strh	r4, [r3, #0]
 8000fd0:	4b28      	ldr	r3, [pc, #160]	@ (8001074 <systemInit+0x198>)
 8000fd2:	701c      	strb	r4, [r3, #0]
 8000fd4:	4b28      	ldr	r3, [pc, #160]	@ (8001078 <systemInit+0x19c>)
 8000fd6:	701c      	strb	r4, [r3, #0]
 8000fd8:	4b28      	ldr	r3, [pc, #160]	@ (800107c <systemInit+0x1a0>)
 8000fda:	701c      	strb	r4, [r3, #0]
 8000fdc:	4b28      	ldr	r3, [pc, #160]	@ (8001080 <systemInit+0x1a4>)
 8000fde:	701c      	strb	r4, [r3, #0]
 8000fe0:	4b28      	ldr	r3, [pc, #160]	@ (8001084 <systemInit+0x1a8>)
 8000fe2:	701c      	strb	r4, [r3, #0]
 8000fe4:	4b28      	ldr	r3, [pc, #160]	@ (8001088 <systemInit+0x1ac>)
 8000fe6:	4649      	mov	r1, r9
 8000fe8:	701c      	strb	r4, [r3, #0]
 8000fea:	4640      	mov	r0, r8
 8000fec:	f8da 3000 	ldr.w	r3, [sl]
 8000ff0:	4c26      	ldr	r4, [pc, #152]	@ (800108c <systemInit+0x1b0>)
 8000ff2:	f000 fb0d 	bl	8001610 <systemStatus>
 8000ff6:	4b26      	ldr	r3, [pc, #152]	@ (8001090 <systemInit+0x1b4>)
 8000ff8:	4601      	mov	r1, r0
 8000ffa:	7018      	strb	r0, [r3, #0]
 8000ffc:	4620      	mov	r0, r4
 8000ffe:	f001 f8ba 	bl	8002176 <send_uart_hex>
 8001002:	4620      	mov	r0, r4
 8001004:	4c23      	ldr	r4, [pc, #140]	@ (8001094 <systemInit+0x1b8>)
 8001006:	4924      	ldr	r1, [pc, #144]	@ (8001098 <systemInit+0x1bc>)
 8001008:	2202      	movs	r2, #2
 800100a:	f004 fa42 	bl	8005492 <HAL_UART_Receive_IT>
 800100e:	4620      	mov	r0, r4
 8001010:	f001 fa4e 	bl	80024b0 <HAL_CAN_Start>
 8001014:	2102      	movs	r1, #2
 8001016:	4620      	mov	r0, r4
 8001018:	f001 fb3c 	bl	8002694 <HAL_CAN_ActivateNotification>
 800101c:	481f      	ldr	r0, [pc, #124]	@ (800109c <systemInit+0x1c0>)
 800101e:	f000 fcb1 	bl	8001984 <initialise_rtc_default>
 8001022:	481f      	ldr	r0, [pc, #124]	@ (80010a0 <systemInit+0x1c4>)
 8001024:	f003 fd84 	bl	8004b30 <HAL_TIM_Base_Start_IT>
 8001028:	e8bd 4ff8 	ldmia.w	sp!, {r3, r4, r5, r6, r7, r8, r9, sl, fp, lr}
 800102c:	481d      	ldr	r0, [pc, #116]	@ (80010a4 <systemInit+0x1c8>)
 800102e:	f003 bd7f 	b.w	8004b30 <HAL_TIM_Base_Start_IT>
 8001032:	bf00      	nop
 8001034:	200002d4 	.word	0x200002d4
 8001038:	20000544 	.word	0x20000544
 800103c:	20000598 	.word	0x20000598
 8001040:	200002cc 	.word	0x200002cc
 8001044:	200002a8 	.word	0x200002a8
 8001048:	20000068 	.word	0x20000068
 800104c:	20000058 	.word	0x20000058
 8001050:	200002a6 	.word	0x200002a6
 8001054:	20000080 	.word	0x20000080
 8001058:	20000070 	.word	0x20000070
 800105c:	2000009d 	.word	0x2000009d
 8001060:	20000097 	.word	0x20000097
 8001064:	20000091 	.word	0x20000091
 8001068:	2000008c 	.word	0x2000008c
 800106c:	20000090 	.word	0x20000090
 8001070:	2000008a 	.word	0x2000008a
 8001074:	200002d0 	.word	0x200002d0
 8001078:	200002a7 	.word	0x200002a7
 800107c:	200002a5 	.word	0x200002a5
 8001080:	200002a4 	.word	0x200002a4
 8001084:	20000045 	.word	0x20000045
 8001088:	20000047 	.word	0x20000047
 800108c:	200002dc 	.word	0x200002dc
 8001090:	20000046 	.word	0x20000046
 8001094:	200005ec 	.word	0x200005ec
 8001098:	200002d1 	.word	0x200002d1
 800109c:	20000524 	.word	0x20000524
 80010a0:	2000036c 	.word	0x2000036c
 80010a4:	20000324 	.word	0x20000324
 80010a8:	200002d8 	.word	0x200002d8
 80010ac:	200000a4 	.word	0x200000a4
 80010b0:	20000474 	.word	0x20000474
 80010b4:	20000088 	.word	0x20000088
 80010b8:	200004cc 	.word	0x200004cc

080010bc <main>:
 80010bc:	e92d 4ff0 	stmdb	sp!, {r4, r5, r6, r7, r8, r9, sl, fp, lr}
 80010c0:	b08f      	sub	sp, #60	@ 0x3c
 80010c2:	2400      	movs	r4, #0
 80010c4:	4dae      	ldr	r5, [pc, #696]	@ (8001380 <main+0x2c4>)
 80010c6:	f8df 92fc 	ldr.w	r9, [pc, #764]	@ 80013c4 <main+0x308>
 80010ca:	f001 f8af 	bl	800222c <HAL_Init>
 80010ce:	f7ff fcad 	bl	8000a2c <SystemClock_Config>
 80010d2:	2214      	movs	r2, #20
 80010d4:	2100      	movs	r1, #0
 80010d6:	a809      	add	r0, sp, #36	@ 0x24
 80010d8:	f004 f9ec 	bl	80054b4 <memset>
 80010dc:	9404      	str	r4, [sp, #16]
 80010de:	6b2b      	ldr	r3, [r5, #48]	@ 0x30
 80010e0:	48a8      	ldr	r0, [pc, #672]	@ (8001384 <main+0x2c8>)
 80010e2:	f043 0304 	orr.w	r3, r3, #4
 80010e6:	632b      	str	r3, [r5, #48]	@ 0x30
 80010e8:	6b2b      	ldr	r3, [r5, #48]	@ 0x30
 80010ea:	f003 0304 	and.w	r3, r3, #4
 80010ee:	9304      	str	r3, [sp, #16]
 80010f0:	9b04      	ldr	r3, [sp, #16]
 80010f2:	9405      	str	r4, [sp, #20]
 80010f4:	6b2b      	ldr	r3, [r5, #48]	@ 0x30
 80010f6:	f043 0380 	orr.w	r3, r3, #128	@ 0x80
 80010fa:	632b      	str	r3, [r5, #48]	@ 0x30
 80010fc:	6b2b      	ldr	r3, [r5, #48]	@ 0x30
 80010fe:	f003 0380 	and.w	r3, r3, #128	@ 0x80
 8001102:	9305      	str	r3, [sp, #20]
 8001104:	9b05      	ldr	r3, [sp, #20]
 8001106:	9406      	str	r4, [sp, #24]
 8001108:	6b2b      	ldr	r3, [r5, #48]	@ 0x30
 800110a:	f043 0301 	orr.w	r3, r3, #1
 800110e:	632b      	str	r3, [r5, #48]	@ 0x30
 8001110:	6b2b      	ldr	r3, [r5, #48]	@ 0x30
 8001112:	f003 0301 	and.w	r3, r3, #1
 8001116:	9306      	str	r3, [sp, #24]
 8001118:	9b06      	ldr	r3, [sp, #24]
 800111a:	9407      	str	r4, [sp, #28]
 800111c:	6b2b      	ldr	r3, [r5, #48]	@ 0x30
 800111e:	f043 0302 	orr.w	r3, r3, #2
 8001122:	632b      	str	r3, [r5, #48]	@ 0x30
 8001124:	6b2b      	ldr	r3, [r5, #48]	@ 0x30
 8001126:	f003 0302 	and.w	r3, r3, #2
 800112a:	9307      	str	r3, [sp, #28]
 800112c:	9b07      	ldr	r3, [sp, #28]
 800112e:	9408      	str	r4, [sp, #32]
 8001130:	6b2b      	ldr	r3, [r5, #48]	@ 0x30
 8001132:	f043 0308 	orr.w	r3, r3, #8
 8001136:	632b      	str	r3, [r5, #48]	@ 0x30
 8001138:	6b2b      	ldr	r3, [r5, #48]	@ 0x30
 800113a:	f003 0308 	and.w	r3, r3, #8
 800113e:	9308      	str	r3, [sp, #32]
 8001140:	4622      	mov	r2, r4
 8001142:	2113      	movs	r1, #19
 8001144:	9b08      	ldr	r3, [sp, #32]
 8001146:	f001 fef3 	bl	8002f30 <HAL_GPIO_WritePin>
 800114a:	488f      	ldr	r0, [pc, #572]	@ (8001388 <main+0x2cc>)
 800114c:	4622      	mov	r2, r4
 800114e:	2110      	movs	r1, #16
 8001150:	f001 feee 	bl	8002f30 <HAL_GPIO_WritePin>
 8001154:	4622      	mov	r2, r4
 8001156:	488d      	ldr	r0, [pc, #564]	@ (800138c <main+0x2d0>)
 8001158:	f44f 41e0 	mov.w	r1, #28672	@ 0x7000
 800115c:	f001 fee8 	bl	8002f30 <HAL_GPIO_WritePin>
 8001160:	2601      	movs	r6, #1
 8001162:	4888      	ldr	r0, [pc, #544]	@ (8001384 <main+0x2c8>)
 8001164:	a909      	add	r1, sp, #36	@ 0x24
 8001166:	e9cd 6609 	strd	r6, r6, [sp, #36]	@ 0x24
 800116a:	e9cd 640b 	strd	r6, r4, [sp, #44]	@ 0x2c
 800116e:	f001 fdf5 	bl	8002d5c <HAL_GPIO_Init>
 8001172:	2312      	movs	r3, #18
 8001174:	4883      	ldr	r0, [pc, #524]	@ (8001384 <main+0x2c8>)
 8001176:	a909      	add	r1, sp, #36	@ 0x24
 8001178:	e9cd 3609 	strd	r3, r6, [sp, #36]	@ 0x24
 800117c:	e9cd 440b 	strd	r4, r4, [sp, #44]	@ 0x2c
 8001180:	f001 fdec 	bl	8002d5c <HAL_GPIO_Init>
 8001184:	2310      	movs	r3, #16
 8001186:	4880      	ldr	r0, [pc, #512]	@ (8001388 <main+0x2cc>)
 8001188:	a909      	add	r1, sp, #36	@ 0x24
 800118a:	2702      	movs	r7, #2
 800118c:	e9cd 3609 	strd	r3, r6, [sp, #36]	@ 0x24
 8001190:	e9cd 640b 	strd	r6, r4, [sp, #44]	@ 0x2c
 8001194:	f001 fde2 	bl	8002d5c <HAL_GPIO_Init>
 8001198:	f44f 1388 	mov.w	r3, #1114112	@ 0x110000
 800119c:	487b      	ldr	r0, [pc, #492]	@ (800138c <main+0x2d0>)
 800119e:	940b      	str	r4, [sp, #44]	@ 0x2c
 80011a0:	a909      	add	r1, sp, #36	@ 0x24
 80011a2:	e9cd 7309 	strd	r7, r3, [sp, #36]	@ 0x24
 80011a6:	f001 fdd9 	bl	8002d5c <HAL_GPIO_Init>
 80011aa:	f44f 43e0 	mov.w	r3, #28672	@ 0x7000
 80011ae:	4877      	ldr	r0, [pc, #476]	@ (800138c <main+0x2d0>)
 80011b0:	a909      	add	r1, sp, #36	@ 0x24
 80011b2:	e9cd 3609 	strd	r3, r6, [sp, #36]	@ 0x24
 80011b6:	e9cd 740b 	strd	r7, r4, [sp, #44]	@ 0x2c
 80011ba:	f001 fdcf 	bl	8002d5c <HAL_GPIO_Init>
 80011be:	f44f 53c0 	mov.w	r3, #6144	@ 0x1800
 80011c2:	e9cd 3709 	strd	r3, r7, [sp, #36]	@ 0x24
 80011c6:	4870      	ldr	r0, [pc, #448]	@ (8001388 <main+0x2cc>)
 80011c8:	940b      	str	r4, [sp, #44]	@ 0x2c
 80011ca:	2309      	movs	r3, #9
 80011cc:	a909      	add	r1, sp, #36	@ 0x24
 80011ce:	f04f 0803 	mov.w	r8, #3
 80011d2:	e9cd 830c 	strd	r8, r3, [sp, #48]	@ 0x30
 80011d6:	f001 fdc1 	bl	8002d5c <HAL_GPIO_Init>
 80011da:	4622      	mov	r2, r4
 80011dc:	4621      	mov	r1, r4
 80011de:	2007      	movs	r0, #7
 80011e0:	f001 fb8c 	bl	80028fc <HAL_NVIC_SetPriority>
 80011e4:	2007      	movs	r0, #7
 80011e6:	f001 fbbb 	bl	8002960 <HAL_NVIC_EnableIRQ>
 80011ea:	9402      	str	r4, [sp, #8]
 80011ec:	6b2b      	ldr	r3, [r5, #48]	@ 0x30
 80011ee:	f443 0380 	orr.w	r3, r3, #4194304	@ 0x400000
 80011f2:	632b      	str	r3, [r5, #48]	@ 0x30
 80011f4:	6b2b      	ldr	r3, [r5, #48]	@ 0x30
 80011f6:	f403 0380 	and.w	r3, r3, #4194304	@ 0x400000
 80011fa:	9302      	str	r3, [sp, #8]
 80011fc:	9b02      	ldr	r3, [sp, #8]
 80011fe:	9403      	str	r4, [sp, #12]
 8001200:	6b2b      	ldr	r3, [r5, #48]	@ 0x30
 8001202:	f443 1300 	orr.w	r3, r3, #2097152	@ 0x200000
 8001206:	632b      	str	r3, [r5, #48]	@ 0x30
 8001208:	6b2b      	ldr	r3, [r5, #48]	@ 0x30
 800120a:	4d61      	ldr	r5, [pc, #388]	@ (8001390 <main+0x2d4>)
 800120c:	f403 1300 	and.w	r3, r3, #2097152	@ 0x200000
 8001210:	4622      	mov	r2, r4
 8001212:	4621      	mov	r1, r4
 8001214:	9303      	str	r3, [sp, #12]
 8001216:	200f      	movs	r0, #15
 8001218:	9b03      	ldr	r3, [sp, #12]
 800121a:	f001 fb6f 	bl	80028fc <HAL_NVIC_SetPriority>
 800121e:	200f      	movs	r0, #15
 8001220:	f001 fb9e 	bl	8002960 <HAL_NVIC_EnableIRQ>
 8001224:	4621      	mov	r1, r4
 8001226:	4622      	mov	r2, r4
 8001228:	203b      	movs	r0, #59	@ 0x3b
 800122a:	f001 fb67 	bl	80028fc <HAL_NVIC_SetPriority>
 800122e:	203b      	movs	r0, #59	@ 0x3b
 8001230:	f001 fb96 	bl	8002960 <HAL_NVIC_EnableIRQ>
 8001234:	4b57      	ldr	r3, [pc, #348]	@ (8001394 <main+0x2d8>)
 8001236:	622c      	str	r4, [r5, #32]
 8001238:	e9c5 9300 	strd	r9, r3, [r5]
 800123c:	4628      	mov	r0, r5
 800123e:	f44f 4380 	mov.w	r3, #16384	@ 0x4000
 8001242:	e9c5 4402 	strd	r4, r4, [r5, #8]
 8001246:	e9c5 3404 	strd	r3, r4, [r5, #16]
 800124a:	e9c5 4406 	strd	r4, r4, [r5, #24]
 800124e:	f001 ffad 	bl	80031ac <HAL_I2C_Init>
 8001252:	4601      	mov	r1, r0
 8001254:	b108      	cbz	r0, 800125a <main+0x19e>
 8001256:	b672      	cpsid	i
 8001258:	e7fe      	b.n	8001258 <main+0x19c>
 800125a:	4628      	mov	r0, r5
 800125c:	f002 faa2 	bl	80037a4 <HAL_I2CEx_ConfigAnalogFilter>
 8001260:	4601      	mov	r1, r0
 8001262:	b108      	cbz	r0, 8001268 <main+0x1ac>
 8001264:	b672      	cpsid	i
 8001266:	e7fe      	b.n	8001266 <main+0x1aa>
 8001268:	4628      	mov	r0, r5
 800126a:	f002 faba 	bl	80037e2 <HAL_I2CEx_ConfigDigitalFilter>
 800126e:	4603      	mov	r3, r0
 8001270:	b108      	cbz	r0, 8001276 <main+0x1ba>
 8001272:	b672      	cpsid	i
 8001274:	e7fe      	b.n	8001274 <main+0x1b8>
 8001276:	4848      	ldr	r0, [pc, #288]	@ (8001398 <main+0x2dc>)
 8001278:	4a48      	ldr	r2, [pc, #288]	@ (800139c <main+0x2e0>)
 800127a:	6183      	str	r3, [r0, #24]
 800127c:	e9c0 2300 	strd	r2, r3, [r0]
 8001280:	f04f 0e7f 	mov.w	lr, #127	@ 0x7f
 8001284:	22ff      	movs	r2, #255	@ 0xff
 8001286:	e9c0 3304 	strd	r3, r3, [r0, #16]
 800128a:	e9c0 e202 	strd	lr, r2, [r0, #8]
 800128e:	f002 fef2 	bl	8004076 <HAL_RTC_Init>
 8001292:	4603      	mov	r3, r0
 8001294:	b108      	cbz	r0, 800129a <main+0x1de>
 8001296:	b672      	cpsid	i
 8001298:	e7fe      	b.n	8001298 <main+0x1dc>
 800129a:	4841      	ldr	r0, [pc, #260]	@ (80013a0 <main+0x2e4>)
 800129c:	4a41      	ldr	r2, [pc, #260]	@ (80013a4 <main+0x2e8>)
 800129e:	6283      	str	r3, [r0, #40]	@ 0x28
 80012a0:	f44f 7582 	mov.w	r5, #260	@ 0x104
 80012a4:	e9c0 2500 	strd	r2, r5, [r0]
 80012a8:	f44f 7400 	mov.w	r4, #512	@ 0x200
 80012ac:	2208      	movs	r2, #8
 80012ae:	260a      	movs	r6, #10
 80012b0:	e9c0 3302 	strd	r3, r3, [r0, #8]
 80012b4:	e9c0 3304 	strd	r3, r3, [r0, #16]
 80012b8:	e9c0 4206 	strd	r4, r2, [r0, #24]
 80012bc:	e9c0 3308 	strd	r3, r3, [r0, #32]
 80012c0:	62c6      	str	r6, [r0, #44]	@ 0x2c
 80012c2:	f003 f8db 	bl	800447c <HAL_SPI_Init>
 80012c6:	b108      	cbz	r0, 80012cc <main+0x210>
 80012c8:	b672      	cpsid	i
 80012ca:	e7fe      	b.n	80012ca <main+0x20e>
 80012cc:	4f36      	ldr	r7, [pc, #216]	@ (80013a8 <main+0x2ec>)
 80012ce:	f8df c0f8 	ldr.w	ip, [pc, #248]	@ 80013c8 <main+0x30c>
 80012d2:	60b8      	str	r0, [r7, #8]
 80012d4:	f245 2307 	movw	r3, #20999	@ 0x5207
 80012d8:	e9cd 0009 	strd	r0, r0, [sp, #36]	@ 0x24
 80012dc:	e9c7 c300 	strd	ip, r3, [r7]
 80012e0:	61b8      	str	r0, [r7, #24]
 80012e2:	2350      	movs	r3, #80	@ 0x50
 80012e4:	4638      	mov	r0, r7
 80012e6:	60fb      	str	r3, [r7, #12]
 80012e8:	f003 fd62 	bl	8004db0 <HAL_TIM_Base_Init>
 80012ec:	b108      	cbz	r0, 80012f2 <main+0x236>
 80012ee:	b672      	cpsid	i
 80012f0:	e7fe      	b.n	80012f0 <main+0x234>
 80012f2:	e9cd 0009 	strd	r0, r0, [sp, #36]	@ 0x24
 80012f6:	a909      	add	r1, sp, #36	@ 0x24
 80012f8:	4638      	mov	r0, r7
 80012fa:	f003 fd85 	bl	8004e08 <HAL_TIMEx_MasterConfigSynchronization>
 80012fe:	4603      	mov	r3, r0
 8001300:	b108      	cbz	r0, 8001306 <main+0x24a>
 8001302:	b672      	cpsid	i
 8001304:	e7fe      	b.n	8001304 <main+0x248>
 8001306:	4829      	ldr	r0, [pc, #164]	@ (80013ac <main+0x2f0>)
 8001308:	4f29      	ldr	r7, [pc, #164]	@ (80013b0 <main+0x2f4>)
 800130a:	6103      	str	r3, [r0, #16]
 800130c:	f44f 32e1 	mov.w	r2, #115200	@ 0x1c200
 8001310:	e9c0 7200 	strd	r7, r2, [r0]
 8001314:	220c      	movs	r2, #12
 8001316:	e9c0 3302 	strd	r3, r3, [r0, #8]
 800131a:	e9c0 2305 	strd	r2, r3, [r0, #20]
 800131e:	61c3      	str	r3, [r0, #28]
 8001320:	f003 fe70 	bl	8005004 <HAL_UART_Init>
 8001324:	4603      	mov	r3, r0
 8001326:	b108      	cbz	r0, 800132c <main+0x270>
 8001328:	b672      	cpsid	i
 800132a:	e7fe      	b.n	800132a <main+0x26e>
 800132c:	4821      	ldr	r0, [pc, #132]	@ (80013b4 <main+0x2f8>)
 800132e:	4a22      	ldr	r2, [pc, #136]	@ (80013b8 <main+0x2fc>)
 8001330:	e9c0 3302 	strd	r3, r3, [r0, #8]
 8001334:	e9c0 3304 	strd	r3, r3, [r0, #16]
 8001338:	e9c0 4306 	strd	r4, r3, [r0, #24]
 800133c:	e9c0 3308 	strd	r3, r3, [r0, #32]
 8001340:	e9c0 360a 	strd	r3, r6, [r0, #40]	@ 0x28
 8001344:	e9c0 2500 	strd	r2, r5, [r0]
 8001348:	f003 f898 	bl	800447c <HAL_SPI_Init>
 800134c:	4603      	mov	r3, r0
 800134e:	b108      	cbz	r0, 8001354 <main+0x298>
 8001350:	b672      	cpsid	i
 8001352:	e7fe      	b.n	8001352 <main+0x296>
 8001354:	4819      	ldr	r0, [pc, #100]	@ (80013bc <main+0x300>)
 8001356:	4c1a      	ldr	r4, [pc, #104]	@ (80013c0 <main+0x304>)
 8001358:	6083      	str	r3, [r0, #8]
 800135a:	2218      	movs	r2, #24
 800135c:	e9c0 4200 	strd	r4, r2, [r0]
 8001360:	f04f 7580 	mov.w	r5, #16777216	@ 0x1000000
 8001364:	f44f 2220 	mov.w	r2, #655360	@ 0xa0000
 8001368:	e9c0 5203 	strd	r5, r2, [r0, #12]
 800136c:	f44f 1280 	mov.w	r2, #1048576	@ 0x100000
 8001370:	e9c0 2305 	strd	r2, r3, [r0, #20]
 8001374:	8383      	strh	r3, [r0, #28]
 8001376:	f000 ff99 	bl	80022ac <HAL_CAN_Init>
 800137a:	b338      	cbz	r0, 80013cc <main+0x310>
 800137c:	b672      	cpsid	i
 800137e:	e7fe      	b.n	800137e <main+0x2c2>
 8001380:	40023800 	.word	0x40023800
 8001384:	40020800 	.word	0x40020800
 8001388:	40020000 	.word	0x40020000
 800138c:	40020400 	.word	0x40020400
 8001390:	20000598 	.word	0x20000598
 8001394:	000186a0 	.word	0x000186a0
 8001398:	20000524 	.word	0x20000524
 800139c:	40002800 	.word	0x40002800
 80013a0:	200004cc 	.word	0x200004cc
 80013a4:	40013000 	.word	0x40013000
 80013a8:	2000036c 	.word	0x2000036c
 80013ac:	200002dc 	.word	0x200002dc
 80013b0:	40004400 	.word	0x40004400
 80013b4:	20000474 	.word	0x20000474
 80013b8:	40003800 	.word	0x40003800
 80013bc:	200005ec 	.word	0x200005ec
 80013c0:	40006800 	.word	0x40006800
 80013c4:	40005400 	.word	0x40005400
 80013c8:	40001000 	.word	0x40001000
 80013cc:	4c72      	ldr	r4, [pc, #456]	@ (8001598 <main+0x4dc>)
 80013ce:	4973      	ldr	r1, [pc, #460]	@ (800159c <main+0x4e0>)
 80013d0:	f245 2207 	movw	r2, #20999	@ 0x5207
 80013d4:	2300      	movs	r3, #0
 80013d6:	e9c4 1200 	strd	r1, r2, [r4]
 80013da:	4620      	mov	r0, r4
 80013dc:	f44f 627a 	mov.w	r2, #4000	@ 0xfa0
 80013e0:	e9cd 3309 	strd	r3, r3, [sp, #36]	@ 0x24
 80013e4:	60a3      	str	r3, [r4, #8]
 80013e6:	60e2      	str	r2, [r4, #12]
 80013e8:	61a3      	str	r3, [r4, #24]
 80013ea:	f003 fce1 	bl	8004db0 <HAL_TIM_Base_Init>
 80013ee:	b108      	cbz	r0, 80013f4 <main+0x338>
 80013f0:	b672      	cpsid	i
 80013f2:	e7fe      	b.n	80013f2 <main+0x336>
 80013f4:	e9cd 0009 	strd	r0, r0, [sp, #36]	@ 0x24
 80013f8:	a909      	add	r1, sp, #36	@ 0x24
 80013fa:	4620      	mov	r0, r4
 80013fc:	f003 fd04 	bl	8004e08 <HAL_TIMEx_MasterConfigSynchronization>
 8001400:	b108      	cbz	r0, 8001406 <main+0x34a>
 8001402:	b672      	cpsid	i
 8001404:	e7fe      	b.n	8001404 <main+0x348>
 8001406:	4c66      	ldr	r4, [pc, #408]	@ (80015a0 <main+0x4e4>)
 8001408:	4a66      	ldr	r2, [pc, #408]	@ (80015a4 <main+0x4e8>)
 800140a:	4b67      	ldr	r3, [pc, #412]	@ (80015a8 <main+0x4ec>)
 800140c:	6220      	str	r0, [r4, #32]
 800140e:	e9c4 2300 	strd	r2, r3, [r4]
 8001412:	f44f 4380 	mov.w	r3, #16384	@ 0x4000
 8001416:	e9c4 0002 	strd	r0, r0, [r4, #8]
 800141a:	e9c4 3004 	strd	r3, r0, [r4, #16]
 800141e:	e9c4 0006 	strd	r0, r0, [r4, #24]
 8001422:	4620      	mov	r0, r4
 8001424:	f001 fec2 	bl	80031ac <HAL_I2C_Init>
 8001428:	4601      	mov	r1, r0
 800142a:	b108      	cbz	r0, 8001430 <main+0x374>
 800142c:	b672      	cpsid	i
 800142e:	e7fe      	b.n	800142e <main+0x372>
 8001430:	4620      	mov	r0, r4
 8001432:	f002 f9b7 	bl	80037a4 <HAL_I2CEx_ConfigAnalogFilter>
 8001436:	4601      	mov	r1, r0
 8001438:	b108      	cbz	r0, 800143e <main+0x382>
 800143a:	b672      	cpsid	i
 800143c:	e7fe      	b.n	800143c <main+0x380>
 800143e:	4620      	mov	r0, r4
 8001440:	f002 f9cf 	bl	80037e2 <HAL_I2CEx_ConfigDigitalFilter>
 8001444:	b108      	cbz	r0, 800144a <main+0x38e>
 8001446:	b672      	cpsid	i
 8001448:	e7fe      	b.n	8001448 <main+0x38c>
 800144a:	f7ff fd47 	bl	8000edc <systemInit>
 800144e:	f8df 81ac 	ldr.w	r8, [pc, #428]	@ 80015fc <main+0x540>
 8001452:	4d56      	ldr	r5, [pc, #344]	@ (80015ac <main+0x4f0>)
 8001454:	f8df 91a8 	ldr.w	r9, [pc, #424]	@ 8001600 <main+0x544>
 8001458:	4b55      	ldr	r3, [pc, #340]	@ (80015b0 <main+0x4f4>)
 800145a:	781b      	ldrb	r3, [r3, #0]
 800145c:	2b01      	cmp	r3, #1
 800145e:	d105      	bne.n	800146c <main+0x3b0>
 8001460:	4854      	ldr	r0, [pc, #336]	@ (80015b4 <main+0x4f8>)
 8001462:	f000 fa8f 	bl	8001984 <initialise_rtc_default>
 8001466:	4a52      	ldr	r2, [pc, #328]	@ (80015b0 <main+0x4f4>)
 8001468:	2300      	movs	r3, #0
 800146a:	7013      	strb	r3, [r2, #0]
 800146c:	4c52      	ldr	r4, [pc, #328]	@ (80015b8 <main+0x4fc>)
 800146e:	7823      	ldrb	r3, [r4, #0]
 8001470:	2b01      	cmp	r3, #1
 8001472:	d103      	bne.n	800147c <main+0x3c0>
 8001474:	f7ff fbf2 	bl	8000c5c <handleUART>
 8001478:	2300      	movs	r3, #0
 800147a:	7023      	strb	r3, [r4, #0]
 800147c:	f899 3000 	ldrb.w	r3, [r9]
 8001480:	2b01      	cmp	r3, #1
 8001482:	d111      	bne.n	80014a8 <main+0x3ec>
 8001484:	4b4d      	ldr	r3, [pc, #308]	@ (80015bc <main+0x500>)
 8001486:	781a      	ldrb	r2, [r3, #0]
 8001488:	2a01      	cmp	r2, #1
 800148a:	d103      	bne.n	8001494 <main+0x3d8>
 800148c:	4b4c      	ldr	r3, [pc, #304]	@ (80015c0 <main+0x504>)
 800148e:	7819      	ldrb	r1, [r3, #0]
 8001490:	b901      	cbnz	r1, 8001494 <main+0x3d8>
 8001492:	701a      	strb	r2, [r3, #0]
 8001494:	f7ff fb8e 	bl	8000bb4 <handleCAN>
 8001498:	4b4a      	ldr	r3, [pc, #296]	@ (80015c4 <main+0x508>)
 800149a:	8899      	ldrh	r1, [r3, #4]
 800149c:	6818      	ldr	r0, [r3, #0]
 800149e:	f001 fd4c 	bl	8002f3a <HAL_GPIO_TogglePin>
 80014a2:	2300      	movs	r3, #0
 80014a4:	f889 3000 	strb.w	r3, [r9]
 80014a8:	4c47      	ldr	r4, [pc, #284]	@ (80015c8 <main+0x50c>)
 80014aa:	7826      	ldrb	r6, [r4, #0]
 80014ac:	2e01      	cmp	r6, #1
 80014ae:	d117      	bne.n	80014e0 <main+0x424>
 80014b0:	4b46      	ldr	r3, [pc, #280]	@ (80015cc <main+0x510>)
 80014b2:	8899      	ldrh	r1, [r3, #4]
 80014b4:	6818      	ldr	r0, [r3, #0]
 80014b6:	f001 fd40 	bl	8002f3a <HAL_GPIO_TogglePin>
 80014ba:	4b45      	ldr	r3, [pc, #276]	@ (80015d0 <main+0x514>)
 80014bc:	4a45      	ldr	r2, [pc, #276]	@ (80015d4 <main+0x518>)
 80014be:	681b      	ldr	r3, [r3, #0]
 80014c0:	6812      	ldr	r2, [r2, #0]
 80014c2:	4945      	ldr	r1, [pc, #276]	@ (80015d8 <main+0x51c>)
 80014c4:	4640      	mov	r0, r8
 80014c6:	f000 f8a3 	bl	8001610 <systemStatus>
 80014ca:	4b44      	ldr	r3, [pc, #272]	@ (80015dc <main+0x520>)
 80014cc:	7018      	strb	r0, [r3, #0]
 80014ce:	b928      	cbnz	r0, 80014dc <main+0x420>
 80014d0:	4b43      	ldr	r3, [pc, #268]	@ (80015e0 <main+0x524>)
 80014d2:	4632      	mov	r2, r6
 80014d4:	8899      	ldrh	r1, [r3, #4]
 80014d6:	6818      	ldr	r0, [r3, #0]
 80014d8:	f001 fd2a 	bl	8002f30 <HAL_GPIO_WritePin>
 80014dc:	2300      	movs	r3, #0
 80014de:	7023      	strb	r3, [r4, #0]
 80014e0:	4c40      	ldr	r4, [pc, #256]	@ (80015e4 <main+0x528>)
 80014e2:	7823      	ldrb	r3, [r4, #0]
 80014e4:	2b01      	cmp	r3, #1
 80014e6:	d108      	bne.n	80014fa <main+0x43e>
 80014e8:	4b3a      	ldr	r3, [pc, #232]	@ (80015d4 <main+0x518>)
 80014ea:	4a32      	ldr	r2, [pc, #200]	@ (80015b4 <main+0x4f8>)
 80014ec:	6819      	ldr	r1, [r3, #0]
 80014ee:	4b38      	ldr	r3, [pc, #224]	@ (80015d0 <main+0x514>)
 80014f0:	6818      	ldr	r0, [r3, #0]
 80014f2:	f000 f9e7 	bl	80018c4 <readAllSensors>
 80014f6:	2300      	movs	r3, #0
 80014f8:	7023      	strb	r3, [r4, #0]
 80014fa:	f8df a108 	ldr.w	sl, [pc, #264]	@ 8001604 <main+0x548>
 80014fe:	4c3a      	ldr	r4, [pc, #232]	@ (80015e8 <main+0x52c>)
 8001500:	f8ba 3000 	ldrh.w	r3, [sl]
 8001504:	2beb      	cmp	r3, #235	@ 0xeb
 8001506:	d93a      	bls.n	800157e <main+0x4c2>
 8001508:	4b38      	ldr	r3, [pc, #224]	@ (80015ec <main+0x530>)
 800150a:	4e39      	ldr	r6, [pc, #228]	@ (80015f0 <main+0x534>)
 800150c:	6818      	ldr	r0, [r3, #0]
 800150e:	8899      	ldrh	r1, [r3, #4]
 8001510:	b289      	uxth	r1, r1
 8001512:	f001 fd07 	bl	8002f24 <HAL_GPIO_ReadPin>
 8001516:	4b37      	ldr	r3, [pc, #220]	@ (80015f4 <main+0x538>)
 8001518:	781b      	ldrb	r3, [r3, #0]
 800151a:	2b00      	cmp	r3, #0
 800151c:	bf14      	ite	ne
 800151e:	2200      	movne	r2, #0
 8001520:	f000 0201 	andeq.w	r2, r0, #1
 8001524:	b322      	cbz	r2, 8001570 <main+0x4b4>
 8001526:	4f27      	ldr	r7, [pc, #156]	@ (80015c4 <main+0x508>)
 8001528:	f8df b0dc 	ldr.w	fp, [pc, #220]	@ 8001608 <main+0x54c>
 800152c:	88b9      	ldrh	r1, [r7, #4]
 800152e:	6838      	ldr	r0, [r7, #0]
 8001530:	f001 fcfe 	bl	8002f30 <HAL_GPIO_WritePin>
 8001534:	7830      	ldrb	r0, [r6, #0]
 8001536:	686b      	ldr	r3, [r5, #4]
 8001538:	9300      	str	r3, [sp, #0]
 800153a:	682b      	ldr	r3, [r5, #0]
 800153c:	6822      	ldr	r2, [r4, #0]
 800153e:	4641      	mov	r1, r8
 8001540:	eb0b 2000 	add.w	r0, fp, r0, lsl #8
 8001544:	f7ff f98c 	bl	8000860 <write_data_spi_dma>
 8001548:	4b2b      	ldr	r3, [pc, #172]	@ (80015f8 <main+0x53c>)
 800154a:	7830      	ldrb	r0, [r6, #0]
 800154c:	685a      	ldr	r2, [r3, #4]
 800154e:	9200      	str	r2, [sp, #0]
 8001550:	681b      	ldr	r3, [r3, #0]
 8001552:	6822      	ldr	r2, [r4, #0]
 8001554:	4920      	ldr	r1, [pc, #128]	@ (80015d8 <main+0x51c>)
 8001556:	eb0b 2000 	add.w	r0, fp, r0, lsl #8
 800155a:	f7ff f981 	bl	8000860 <write_data_spi_dma>
 800155e:	6823      	ldr	r3, [r4, #0]
 8001560:	88b9      	ldrh	r1, [r7, #4]
 8001562:	6838      	ldr	r0, [r7, #0]
 8001564:	f503 7380 	add.w	r3, r3, #256	@ 0x100
 8001568:	2200      	movs	r2, #0
 800156a:	6023      	str	r3, [r4, #0]
 800156c:	f001 fce0 	bl	8002f30 <HAL_GPIO_WritePin>
 8001570:	7833      	ldrb	r3, [r6, #0]
 8001572:	f083 0301 	eor.w	r3, r3, #1
 8001576:	7033      	strb	r3, [r6, #0]
 8001578:	2300      	movs	r3, #0
 800157a:	f8aa 3000 	strh.w	r3, [sl]
 800157e:	6823      	ldr	r3, [r4, #0]
 8001580:	f1b3 7f80 	cmp.w	r3, #16777216	@ 0x1000000
 8001584:	f47f af68 	bne.w	8001458 <main+0x39c>
 8001588:	e895 000c 	ldmia.w	r5, {r2, r3}
 800158c:	4919      	ldr	r1, [pc, #100]	@ (80015f4 <main+0x538>)
 800158e:	4640      	mov	r0, r8
 8001590:	f7ff f990 	bl	80008b4 <find_next_blank_page>
 8001594:	6020      	str	r0, [r4, #0]
 8001596:	e75d      	b.n	8001454 <main+0x398>
 8001598:	20000324 	.word	0x20000324
 800159c:	40001400 	.word	0x40001400
 80015a0:	20000544 	.word	0x20000544
 80015a4:	40005c00 	.word	0x40005c00
 80015a8:	000186a0 	.word	0x000186a0
 80015ac:	20000068 	.word	0x20000068
 80015b0:	20000047 	.word	0x20000047
 80015b4:	20000524 	.word	0x20000524
 80015b8:	200002d0 	.word	0x200002d0
 80015bc:	200002a6 	.word	0x200002a6
 80015c0:	20000045 	.word	0x20000045
 80015c4:	20000078 	.word	0x20000078
 80015c8:	200002a4 	.word	0x200002a4
 80015cc:	20000080 	.word	0x20000080
 80015d0:	200002d8 	.word	0x200002d8
 80015d4:	200002d4 	.word	0x200002d4
 80015d8:	20000474 	.word	0x20000474
 80015dc:	20000046 	.word	0x20000046
 80015e0:	20000070 	.word	0x20000070
 80015e4:	200002a5 	.word	0x200002a5
 80015e8:	2000008c 	.word	0x2000008c
 80015ec:	20000048 	.word	0x20000048
 80015f0:	200000a3 	.word	0x200000a3
 80015f4:	20000088 	.word	0x20000088
 80015f8:	20000058 	.word	0x20000058
 80015fc:	200004cc 	.word	0x200004cc
 8001600:	200002a7 	.word	0x200002a7
 8001604:	2000008a 	.word	0x2000008a
 8001608:	200000a4 	.word	0x200000a4

0800160c <Error_Handler>:
 800160c:	b672      	cpsid	i
 800160e:	e7fe      	b.n	800160e <Error_Handler+0x2>

08001610 <systemStatus>:
 8001610:	e92d 41f3 	stmdb	sp!, {r0, r1, r4, r5, r6, r7, r8, lr}
 8001614:	4607      	mov	r7, r0
 8001616:	4688      	mov	r8, r1
 8001618:	4610      	mov	r0, r2
 800161a:	2101      	movs	r1, #1
 800161c:	4615      	mov	r5, r2
 800161e:	461e      	mov	r6, r3
 8001620:	f7ff f818 	bl	8000654 <readBME280_id_reg>
 8001624:	2100      	movs	r1, #0
 8001626:	f1b0 0460 	subs.w	r4, r0, #96	@ 0x60
 800162a:	4628      	mov	r0, r5
 800162c:	bf18      	it	ne
 800162e:	2401      	movne	r4, #1
 8001630:	f7ff f810 	bl	8000654 <readBME280_id_reg>
 8001634:	0124      	lsls	r4, r4, #4
 8001636:	2860      	cmp	r0, #96	@ 0x60
 8001638:	4630      	mov	r0, r6
 800163a:	bf18      	it	ne
 800163c:	f044 0408 	orrne.w	r4, r4, #8
 8001640:	f7fe ff6a 	bl	8000518 <readAccel_whoami>
 8001644:	4b12      	ldr	r3, [pc, #72]	@ (8001690 <systemStatus+0x80>)
 8001646:	28e5      	cmp	r0, #229	@ 0xe5
 8001648:	cb0c      	ldmia	r3, {r2, r3}
 800164a:	f04f 0500 	mov.w	r5, #0
 800164e:	4641      	mov	r1, r8
 8001650:	4668      	mov	r0, sp
 8001652:	bf18      	it	ne
 8001654:	f044 0404 	orrne.w	r4, r4, #4
 8001658:	f8ad 5000 	strh.w	r5, [sp]
 800165c:	f7ff f980 	bl	8000960 <read_manufacturer_id>
 8001660:	f89d 3000 	ldrb.w	r3, [sp]
 8001664:	f8ad 5004 	strh.w	r5, [sp, #4]
 8001668:	2bef      	cmp	r3, #239	@ 0xef
 800166a:	4b0a      	ldr	r3, [pc, #40]	@ (8001694 <systemStatus+0x84>)
 800166c:	a801      	add	r0, sp, #4
 800166e:	cb0c      	ldmia	r3, {r2, r3}
 8001670:	4639      	mov	r1, r7
 8001672:	bf18      	it	ne
 8001674:	f044 0402 	orrne.w	r4, r4, #2
 8001678:	f7ff f972 	bl	8000960 <read_manufacturer_id>
 800167c:	f89d 3004 	ldrb.w	r3, [sp, #4]
 8001680:	2bef      	cmp	r3, #239	@ 0xef
 8001682:	bf18      	it	ne
 8001684:	f044 0401 	orrne.w	r4, r4, #1
 8001688:	4620      	mov	r0, r4
 800168a:	b002      	add	sp, #8
 800168c:	e8bd 81f0 	ldmia.w	sp!, {r4, r5, r6, r7, r8, pc}
 8001690:	20000058 	.word	0x20000058
 8001694:	20000068 	.word	0x20000068

08001698 <heartbeatUART>:
 8001698:	2151      	movs	r1, #81	@ 0x51
 800169a:	f000 bd6c 	b.w	8002176 <send_uart_hex>
	...

080016a0 <eraseFlashSPI>:
 80016a0:	b513      	push	{r0, r1, r4, lr}
 80016a2:	460c      	mov	r4, r1
 80016a4:	4669      	mov	r1, sp
 80016a6:	e881 000c 	stmia.w	r1, {r2, r3}
 80016aa:	c906      	ldmia	r1, {r1, r2}
 80016ac:	f7ff f890 	bl	80007d0 <erase_chip_spi>
 80016b0:	b930      	cbnz	r0, 80016c0 <eraseFlashSPI+0x20>
 80016b2:	4904      	ldr	r1, [pc, #16]	@ (80016c4 <eraseFlashSPI+0x24>)
 80016b4:	4620      	mov	r0, r4
 80016b6:	b002      	add	sp, #8
 80016b8:	e8bd 4010 	ldmia.w	sp!, {r4, lr}
 80016bc:	f000 bd4c 	b.w	8002158 <send_uart_string>
 80016c0:	4901      	ldr	r1, [pc, #4]	@ (80016c8 <eraseFlashSPI+0x28>)
 80016c2:	e7f7      	b.n	80016b4 <eraseFlashSPI+0x14>
 80016c4:	0800552c 	.word	0x0800552c
 80016c8:	08005544 	.word	0x08005544

080016cc <readFlashToUART>:
 80016cc:	e92d 41f0 	stmdb	sp!, {r4, r5, r6, r7, r8, lr}
 80016d0:	b0c4      	sub	sp, #272	@ 0x110
 80016d2:	ae02      	add	r6, sp, #8
 80016d4:	e886 000c 	stmia.w	r6, {r2, r3}
 80016d8:	4b14      	ldr	r3, [pc, #80]	@ (800172c <readFlashToUART+0x60>)
 80016da:	681c      	ldr	r4, [r3, #0]
 80016dc:	4607      	mov	r7, r0
 80016de:	2c00      	cmp	r4, #0
 80016e0:	4813      	ldr	r0, [pc, #76]	@ (8001730 <readFlashToUART+0x64>)
 80016e2:	4688      	mov	r8, r1
 80016e4:	f04f 0201 	mov.w	r2, #1
 80016e8:	f04f 0180 	mov.w	r1, #128	@ 0x80
 80016ec:	bf08      	it	eq
 80016ee:	f44f 7480 	moveq.w	r4, #256	@ 0x100
 80016f2:	f001 fc1d 	bl	8002f30 <HAL_GPIO_WritePin>
 80016f6:	0a24      	lsrs	r4, r4, #8
 80016f8:	2500      	movs	r5, #0
 80016fa:	42a5      	cmp	r5, r4
 80016fc:	ea4f 2205 	mov.w	r2, r5, lsl #8
 8001700:	d107      	bne.n	8001712 <readFlashToUART+0x46>
 8001702:	480b      	ldr	r0, [pc, #44]	@ (8001730 <readFlashToUART+0x64>)
 8001704:	2200      	movs	r2, #0
 8001706:	2180      	movs	r1, #128	@ 0x80
 8001708:	b044      	add	sp, #272	@ 0x110
 800170a:	e8bd 41f0 	ldmia.w	sp!, {r4, r5, r6, r7, r8, lr}
 800170e:	f001 bc0f 	b.w	8002f30 <HAL_GPIO_WritePin>
 8001712:	6873      	ldr	r3, [r6, #4]
 8001714:	9300      	str	r3, [sp, #0]
 8001716:	6833      	ldr	r3, [r6, #0]
 8001718:	4639      	mov	r1, r7
 800171a:	a804      	add	r0, sp, #16
 800171c:	f7ff f8fe 	bl	800091c <read_page_spi>
 8001720:	a904      	add	r1, sp, #16
 8001722:	4640      	mov	r0, r8
 8001724:	f000 fd12 	bl	800214c <uart_transmit_page>
 8001728:	3501      	adds	r5, #1
 800172a:	e7e6      	b.n	80016fa <readFlashToUART+0x2e>
 800172c:	2000008c 	.word	0x2000008c
 8001730:	40020400 	.word	0x40020400

08001734 <readFlashManuSPI>:
 8001734:	b51f      	push	{r0, r1, r2, r3, r4, lr}
 8001736:	460c      	mov	r4, r1
 8001738:	4669      	mov	r1, sp
 800173a:	e881 000c 	stmia.w	r1, {r2, r3}
 800173e:	2300      	movs	r3, #0
 8001740:	f8ad 300c 	strh.w	r3, [sp, #12]
 8001744:	e891 000c 	ldmia.w	r1, {r2, r3}
 8001748:	4601      	mov	r1, r0
 800174a:	a803      	add	r0, sp, #12
 800174c:	f7ff f908 	bl	8000960 <read_manufacturer_id>
 8001750:	f89d 100c 	ldrb.w	r1, [sp, #12]
 8001754:	4620      	mov	r0, r4
 8001756:	f000 fd0e 	bl	8002176 <send_uart_hex>
 800175a:	f89d 100d 	ldrb.w	r1, [sp, #13]
 800175e:	4620      	mov	r0, r4
 8001760:	f000 fd09 	bl	8002176 <send_uart_hex>
 8001764:	b004      	add	sp, #16
 8001766:	bd10      	pop	{r4, pc}

08001768 <writePageSPI_W>:
 8001768:	b5f0      	push	{r4, r5, r6, r7, lr}
 800176a:	b0c5      	sub	sp, #276	@ 0x114
 800176c:	ac02      	add	r4, sp, #8
 800176e:	e884 000c 	stmia.w	r4, {r2, r3}
 8001772:	4607      	mov	r7, r0
 8001774:	460d      	mov	r5, r1
 8001776:	f44f 7280 	mov.w	r2, #256	@ 0x100
 800177a:	2177      	movs	r1, #119	@ 0x77
 800177c:	a804      	add	r0, sp, #16
 800177e:	f003 fe99 	bl	80054b4 <memset>
 8001782:	4e09      	ldr	r6, [pc, #36]	@ (80017a8 <writePageSPI_W+0x40>)
 8001784:	6863      	ldr	r3, [r4, #4]
 8001786:	9300      	str	r3, [sp, #0]
 8001788:	6823      	ldr	r3, [r4, #0]
 800178a:	6832      	ldr	r2, [r6, #0]
 800178c:	4639      	mov	r1, r7
 800178e:	a804      	add	r0, sp, #16
 8001790:	f7ff f866 	bl	8000860 <write_data_spi_dma>
 8001794:	6833      	ldr	r3, [r6, #0]
 8001796:	4905      	ldr	r1, [pc, #20]	@ (80017ac <writePageSPI_W+0x44>)
 8001798:	f503 7380 	add.w	r3, r3, #256	@ 0x100
 800179c:	4628      	mov	r0, r5
 800179e:	6033      	str	r3, [r6, #0]
 80017a0:	f000 fcda 	bl	8002158 <send_uart_string>
 80017a4:	b045      	add	sp, #276	@ 0x114
 80017a6:	bdf0      	pop	{r4, r5, r6, r7, pc}
 80017a8:	2000008c 	.word	0x2000008c
 80017ac:	0800558a 	.word	0x0800558a

080017b0 <resetSPIFlash>:
 80017b0:	b537      	push	{r0, r1, r2, r4, r5, lr}
 80017b2:	466c      	mov	r4, sp
 80017b4:	e884 000c 	stmia.w	r4, {r2, r3}
 80017b8:	460d      	mov	r5, r1
 80017ba:	e894 0006 	ldmia.w	r4, {r1, r2}
 80017be:	f7ff f82b 	bl	8000818 <software_reset>
 80017c2:	4903      	ldr	r1, [pc, #12]	@ (80017d0 <resetSPIFlash+0x20>)
 80017c4:	4628      	mov	r0, r5
 80017c6:	b003      	add	sp, #12
 80017c8:	e8bd 4030 	ldmia.w	sp!, {r4, r5, lr}
 80017cc:	f000 bcc4 	b.w	8002158 <send_uart_string>
 80017d0:	080055a4 	.word	0x080055a4

080017d4 <checkAccelWhoAmI>:
 80017d4:	b510      	push	{r4, lr}
 80017d6:	460c      	mov	r4, r1
 80017d8:	f7fe fe9e 	bl	8000518 <readAccel_whoami>
 80017dc:	4601      	mov	r1, r0
 80017de:	4620      	mov	r0, r4
 80017e0:	e8bd 4010 	ldmia.w	sp!, {r4, lr}
 80017e4:	f000 bcc7 	b.w	8002176 <send_uart_hex>

080017e8 <accelToUART>:
 80017e8:	b570      	push	{r4, r5, r6, lr}
 80017ea:	4e06      	ldr	r6, [pc, #24]	@ (8001804 <accelToUART+0x1c>)
 80017ec:	4605      	mov	r5, r0
 80017ee:	2400      	movs	r4, #0
 80017f0:	f816 1b01 	ldrb.w	r1, [r6], #1
 80017f4:	4628      	mov	r0, r5
 80017f6:	3401      	adds	r4, #1
 80017f8:	f000 fcbd 	bl	8002176 <send_uart_hex>
 80017fc:	2c06      	cmp	r4, #6
 80017fe:	d1f7      	bne.n	80017f0 <accelToUART+0x8>
 8001800:	bd70      	pop	{r4, r5, r6, pc}
 8001802:	bf00      	nop
 8001804:	2000009d 	.word	0x2000009d

08001808 <readTempSensorID>:
 8001808:	b510      	push	{r4, lr}
 800180a:	460c      	mov	r4, r1
 800180c:	4611      	mov	r1, r2
 800180e:	f7fe ff21 	bl	8000654 <readBME280_id_reg>
 8001812:	4601      	mov	r1, r0
 8001814:	4620      	mov	r0, r4
 8001816:	e8bd 4010 	ldmia.w	sp!, {r4, lr}
 800181a:	f000 bcac 	b.w	8002176 <send_uart_hex>

0800181e <readTempCalibration>:
 800181e:	b570      	push	{r4, r5, r6, lr}
 8001820:	b08a      	sub	sp, #40	@ 0x28
 8001822:	4604      	mov	r4, r0
 8001824:	460d      	mov	r5, r1
 8001826:	4616      	mov	r6, r2
 8001828:	2100      	movs	r1, #0
 800182a:	2219      	movs	r2, #25
 800182c:	a803      	add	r0, sp, #12
 800182e:	f003 fe41 	bl	80054b4 <memset>
 8001832:	2300      	movs	r3, #0
 8001834:	a901      	add	r1, sp, #4
 8001836:	4618      	mov	r0, r3
 8001838:	2b06      	cmp	r3, #6
 800183a:	f103 0201 	add.w	r2, r3, #1
 800183e:	d802      	bhi.n	8001846 <readTempCalibration+0x28>
 8001840:	5458      	strb	r0, [r3, r1]
 8001842:	4613      	mov	r3, r2
 8001844:	e7f8      	b.n	8001838 <readTempCalibration+0x1a>
 8001846:	2a19      	cmp	r2, #25
 8001848:	4613      	mov	r3, r2
 800184a:	d1f5      	bne.n	8001838 <readTempCalibration+0x1a>
 800184c:	4631      	mov	r1, r6
 800184e:	4620      	mov	r0, r4
 8001850:	ab01      	add	r3, sp, #4
 8001852:	aa03      	add	r2, sp, #12
 8001854:	f7fe ff14 	bl	8000680 <readBME280_calib>
 8001858:	ac03      	add	r4, sp, #12
 800185a:	2600      	movs	r6, #0
 800185c:	f814 1b01 	ldrb.w	r1, [r4], #1
 8001860:	4628      	mov	r0, r5
 8001862:	3601      	adds	r6, #1
 8001864:	f000 fc87 	bl	8002176 <send_uart_hex>
 8001868:	2e19      	cmp	r6, #25
 800186a:	d1f7      	bne.n	800185c <readTempCalibration+0x3e>
 800186c:	ac01      	add	r4, sp, #4
 800186e:	2600      	movs	r6, #0
 8001870:	f814 1b01 	ldrb.w	r1, [r4], #1
 8001874:	4628      	mov	r0, r5
 8001876:	3601      	adds	r6, #1
 8001878:	f000 fc7d 	bl	8002176 <send_uart_hex>
 800187c:	2e07      	cmp	r6, #7
 800187e:	d1f7      	bne.n	8001870 <readTempCalibration+0x52>
 8001880:	b00a      	add	sp, #40	@ 0x28
 8001882:	bd70      	pop	{r4, r5, r6, pc}

08001884 <readTempSensor>:
 8001884:	b570      	push	{r4, r5, r6, lr}
 8001886:	4605      	mov	r5, r0
 8001888:	460c      	mov	r4, r1
 800188a:	b949      	cbnz	r1, 80018a0 <readTempSensor+0x1c>
 800188c:	4e0b      	ldr	r6, [pc, #44]	@ (80018bc <readTempSensor+0x38>)
 800188e:	f816 1b01 	ldrb.w	r1, [r6], #1
 8001892:	4628      	mov	r0, r5
 8001894:	3401      	adds	r4, #1
 8001896:	f000 fc6e 	bl	8002176 <send_uart_hex>
 800189a:	2c06      	cmp	r4, #6
 800189c:	d1f7      	bne.n	800188e <readTempSensor+0xa>
 800189e:	bd70      	pop	{r4, r5, r6, pc}
 80018a0:	2901      	cmp	r1, #1
 80018a2:	d1fc      	bne.n	800189e <readTempSensor+0x1a>
 80018a4:	4e06      	ldr	r6, [pc, #24]	@ (80018c0 <readTempSensor+0x3c>)
 80018a6:	2400      	movs	r4, #0
 80018a8:	f816 1b01 	ldrb.w	r1, [r6], #1
 80018ac:	4628      	mov	r0, r5
 80018ae:	3401      	adds	r4, #1
 80018b0:	f000 fc61 	bl	8002176 <send_uart_hex>
 80018b4:	2c06      	cmp	r4, #6
 80018b6:	d1f7      	bne.n	80018a8 <readTempSensor+0x24>
 80018b8:	e7f1      	b.n	800189e <readTempSensor+0x1a>
 80018ba:	bf00      	nop
 80018bc:	20000097 	.word	0x20000097
 80018c0:	20000091 	.word	0x20000091

080018c4 <readAllSensors>:
 80018c4:	e92d 43f8 	stmdb	sp!, {r3, r4, r5, r6, r7, r8, r9, lr}
 80018c8:	f8df 80b4 	ldr.w	r8, [pc, #180]	@ 8001980 <readAllSensors+0xbc>
 80018cc:	4f27      	ldr	r7, [pc, #156]	@ (800196c <readAllSensors+0xa8>)
 80018ce:	4e28      	ldr	r6, [pc, #160]	@ (8001970 <readAllSensors+0xac>)
 80018d0:	460c      	mov	r4, r1
 80018d2:	4601      	mov	r1, r0
 80018d4:	4640      	mov	r0, r8
 80018d6:	4615      	mov	r5, r2
 80018d8:	f7fe fe08 	bl	80004ec <readAccelerometer>
 80018dc:	2200      	movs	r2, #0
 80018de:	4621      	mov	r1, r4
 80018e0:	4638      	mov	r0, r7
 80018e2:	f7fe feeb 	bl	80006bc <readTempHumPres>
 80018e6:	4823      	ldr	r0, [pc, #140]	@ (8001974 <readAllSensors+0xb0>)
 80018e8:	2201      	movs	r2, #1
 80018ea:	4621      	mov	r1, r4
 80018ec:	f7fe fee6 	bl	80006bc <readTempHumPres>
 80018f0:	4628      	mov	r0, r5
 80018f2:	f000 f877 	bl	80019e4 <getTimestampMilliseconds>
 80018f6:	8835      	ldrh	r5, [r6, #0]
 80018f8:	2dea      	cmp	r5, #234	@ 0xea
 80018fa:	d834      	bhi.n	8001966 <readAllSensors+0xa2>
 80018fc:	4b1e      	ldr	r3, [pc, #120]	@ (8001978 <readAllSensors+0xb4>)
 80018fe:	4c1f      	ldr	r4, [pc, #124]	@ (800197c <readAllSensors+0xb8>)
 8001900:	781a      	ldrb	r2, [r3, #0]
 8001902:	f8d8 c000 	ldr.w	ip, [r8]
 8001906:	eb04 2302 	add.w	r3, r4, r2, lsl #8
 800190a:	1959      	adds	r1, r3, r5
 800190c:	5558      	strb	r0, [r3, r5]
 800190e:	f3c0 2007 	ubfx	r0, r0, #8, #8
 8001912:	7048      	strb	r0, [r1, #1]
 8001914:	eb05 2302 	add.w	r3, r5, r2, lsl #8
 8001918:	1ca1      	adds	r1, r4, #2
 800191a:	1858      	adds	r0, r3, r1
 800191c:	f841 c003 	str.w	ip, [r1, r3]
 8001920:	f8b8 1004 	ldrh.w	r1, [r8, #4]
 8001924:	8081      	strh	r1, [r0, #4]
 8001926:	f104 0108 	add.w	r1, r4, #8
 800192a:	f8d7 c000 	ldr.w	ip, [r7]
 800192e:	f841 c003 	str.w	ip, [r1, r3]
 8001932:	1858      	adds	r0, r3, r1
 8001934:	88bb      	ldrh	r3, [r7, #4]
 8001936:	8083      	strh	r3, [r0, #4]
 8001938:	f105 030d 	add.w	r3, r5, #13
 800193c:	eb03 2302 	add.w	r3, r3, r2, lsl #8
 8001940:	490c      	ldr	r1, [pc, #48]	@ (8001974 <readAllSensors+0xb0>)
 8001942:	ea4f 2902 	mov.w	r9, r2, lsl #8
 8001946:	4423      	add	r3, r4
 8001948:	2206      	movs	r2, #6
 800194a:	f811 0b01 	ldrb.w	r0, [r1], #1
 800194e:	f803 0f01 	strb.w	r0, [r3, #1]!
 8001952:	3a01      	subs	r2, #1
 8001954:	d1f9      	bne.n	800194a <readAllSensors+0x86>
 8001956:	f7ff fa99 	bl	8000e8c <combine_system_status>
 800195a:	444c      	add	r4, r9
 800195c:	8833      	ldrh	r3, [r6, #0]
 800195e:	442c      	add	r4, r5
 8001960:	3315      	adds	r3, #21
 8001962:	7520      	strb	r0, [r4, #20]
 8001964:	8033      	strh	r3, [r6, #0]
 8001966:	e8bd 83f8 	ldmia.w	sp!, {r3, r4, r5, r6, r7, r8, r9, pc}
 800196a:	bf00      	nop
 800196c:	20000097 	.word	0x20000097
 8001970:	2000008a 	.word	0x2000008a
 8001974:	20000091 	.word	0x20000091
 8001978:	200000a3 	.word	0x200000a3
 800197c:	200000a4 	.word	0x200000a4
 8001980:	2000009d 	.word	0x2000009d

08001984 <initialise_rtc_default>:
 8001984:	b537      	push	{r0, r1, r2, r4, r5, lr}
 8001986:	4b13      	ldr	r3, [pc, #76]	@ (80019d4 <initialise_rtc_default+0x50>)
 8001988:	2500      	movs	r5, #0
 800198a:	9501      	str	r5, [sp, #4]
 800198c:	6c1a      	ldr	r2, [r3, #64]	@ 0x40
 800198e:	f042 5280 	orr.w	r2, r2, #268435456	@ 0x10000000
 8001992:	641a      	str	r2, [r3, #64]	@ 0x40
 8001994:	6c1b      	ldr	r3, [r3, #64]	@ 0x40
 8001996:	f003 5380 	and.w	r3, r3, #268435456	@ 0x10000000
 800199a:	9301      	str	r3, [sp, #4]
 800199c:	4604      	mov	r4, r0
 800199e:	9b01      	ldr	r3, [sp, #4]
 80019a0:	f001 ff3e 	bl	8003820 <HAL_PWR_EnableBkUpAccess>
 80019a4:	4b0c      	ldr	r3, [pc, #48]	@ (80019d8 <initialise_rtc_default+0x54>)
 80019a6:	2201      	movs	r2, #1
 80019a8:	f8c3 2e40 	str.w	r2, [r3, #3648]	@ 0xe40
 80019ac:	4620      	mov	r0, r4
 80019ae:	f8c3 5e40 	str.w	r5, [r3, #3648]	@ 0xe40
 80019b2:	f000 f9e5 	bl	8001d80 <HAL_RTC_MspInit>
 80019b6:	462a      	mov	r2, r5
 80019b8:	4908      	ldr	r1, [pc, #32]	@ (80019dc <initialise_rtc_default+0x58>)
 80019ba:	4620      	mov	r0, r4
 80019bc:	f002 fbae 	bl	800411c <HAL_RTC_SetTime>
 80019c0:	4907      	ldr	r1, [pc, #28]	@ (80019e0 <initialise_rtc_default+0x5c>)
 80019c2:	462a      	mov	r2, r5
 80019c4:	4620      	mov	r0, r4
 80019c6:	f002 fc03 	bl	80041d0 <HAL_RTC_SetDate>
 80019ca:	b003      	add	sp, #12
 80019cc:	e8bd 4030 	ldmia.w	sp!, {r4, r5, lr}
 80019d0:	f001 bf34 	b.w	800383c <HAL_PWR_DisableBkUpAccess>
 80019d4:	40023800 	.word	0x40023800
 80019d8:	42470000 	.word	0x42470000
 80019dc:	20000614 	.word	0x20000614
 80019e0:	20000018 	.word	0x20000018

080019e4 <getTimestampMilliseconds>:
 80019e4:	b510      	push	{r4, lr}
 80019e6:	b086      	sub	sp, #24
 80019e8:	4604      	mov	r4, r0
 80019ea:	a901      	add	r1, sp, #4
 80019ec:	2200      	movs	r2, #0
 80019ee:	f002 fc3f 	bl	8004270 <HAL_RTC_GetTime>
 80019f2:	4669      	mov	r1, sp
 80019f4:	2200      	movs	r2, #0
 80019f6:	4620      	mov	r0, r4
 80019f8:	f002 fc5d 	bl	80042b6 <HAL_RTC_GetDate>
 80019fc:	e9dd 2302 	ldrd	r2, r3, [sp, #8]
 8001a00:	1a9a      	subs	r2, r3, r2
 8001a02:	ee07 2a90 	vmov	s15, r2
 8001a06:	3301      	adds	r3, #1
 8001a08:	eeb8 7a67 	vcvt.f32.u32	s14, s15
 8001a0c:	ee07 3a90 	vmov	s15, r3
 8001a10:	eef8 7a67 	vcvt.f32.u32	s15, s15
 8001a14:	f89d 1005 	ldrb.w	r1, [sp, #5]
 8001a18:	f89d 2006 	ldrb.w	r2, [sp, #6]
 8001a1c:	eec7 6a27 	vdiv.f32	s13, s14, s15
 8001a20:	233c      	movs	r3, #60	@ 0x3c
 8001a22:	fb13 2301 	smlabb	r3, r3, r1, r2
 8001a26:	f89d 2004 	ldrb.w	r2, [sp, #4]
 8001a2a:	f44f 6161 	mov.w	r1, #3600	@ 0xe10
 8001a2e:	fb01 3302 	mla	r3, r1, r2, r3
 8001a32:	f44f 727a 	mov.w	r2, #1000	@ 0x3e8
 8001a36:	4353      	muls	r3, r2
 8001a38:	ee07 3a90 	vmov	s15, r3
 8001a3c:	ed9f 7a05 	vldr	s14, [pc, #20]	@ 8001a54 <getTimestampMilliseconds+0x70>
 8001a40:	eef8 7ae7 	vcvt.f32.s32	s15, s15
 8001a44:	eee6 7a87 	vfma.f32	s15, s13, s14
 8001a48:	eefc 7ae7 	vcvt.u32.f32	s15, s15
 8001a4c:	ee17 0a90 	vmov	r0, s15
 8001a50:	b006      	add	sp, #24
 8001a52:	bd10      	pop	{r4, pc}
 8001a54:	447a0000 	.word	0x447a0000

08001a58 <spi_sendOp_readByte>:
 8001a58:	e92d 41f0 	stmdb	sp!, {r4, r5, r6, r7, r8, lr}
 8001a5c:	f8bd 8018 	ldrh.w	r8, [sp, #24]
 8001a60:	460d      	mov	r5, r1
 8001a62:	4607      	mov	r7, r0
 8001a64:	4616      	mov	r6, r2
 8001a66:	4641      	mov	r1, r8
 8001a68:	4618      	mov	r0, r3
 8001a6a:	2200      	movs	r2, #0
 8001a6c:	461c      	mov	r4, r3
 8001a6e:	f001 fa5f 	bl	8002f30 <HAL_GPIO_WritePin>
 8001a72:	4639      	mov	r1, r7
 8001a74:	2302      	movs	r3, #2
 8001a76:	2201      	movs	r2, #1
 8001a78:	4628      	mov	r0, r5
 8001a7a:	f002 fd5b 	bl	8004534 <HAL_SPI_Transmit>
 8001a7e:	2302      	movs	r3, #2
 8001a80:	4631      	mov	r1, r6
 8001a82:	2201      	movs	r2, #1
 8001a84:	4628      	mov	r0, r5
 8001a86:	f002 ff00 	bl	800488a <HAL_SPI_Receive>
 8001a8a:	2201      	movs	r2, #1
 8001a8c:	4605      	mov	r5, r0
 8001a8e:	4641      	mov	r1, r8
 8001a90:	4620      	mov	r0, r4
 8001a92:	f001 fa4d 	bl	8002f30 <HAL_GPIO_WritePin>
 8001a96:	4628      	mov	r0, r5
 8001a98:	e8bd 81f0 	ldmia.w	sp!, {r4, r5, r6, r7, r8, pc}

08001a9c <perform_operation>:
 8001a9c:	b5f8      	push	{r3, r4, r5, r6, r7, lr}
 8001a9e:	4614      	mov	r4, r2
 8001aa0:	4607      	mov	r7, r0
 8001aa2:	460e      	mov	r6, r1
 8001aa4:	4620      	mov	r0, r4
 8001aa6:	4619      	mov	r1, r3
 8001aa8:	2200      	movs	r2, #0
 8001aaa:	461d      	mov	r5, r3
 8001aac:	f001 fa40 	bl	8002f30 <HAL_GPIO_WritePin>
 8001ab0:	2302      	movs	r3, #2
 8001ab2:	4639      	mov	r1, r7
 8001ab4:	2201      	movs	r2, #1
 8001ab6:	4630      	mov	r0, r6
 8001ab8:	f002 fd3c 	bl	8004534 <HAL_SPI_Transmit>
 8001abc:	2201      	movs	r2, #1
 8001abe:	4606      	mov	r6, r0
 8001ac0:	4629      	mov	r1, r5
 8001ac2:	4620      	mov	r0, r4
 8001ac4:	f001 fa34 	bl	8002f30 <HAL_GPIO_WritePin>
 8001ac8:	4630      	mov	r0, r6
 8001aca:	bdf8      	pop	{r3, r4, r5, r6, r7, pc}

08001acc <spi_read_data>:
 8001acc:	e92d 43f7 	stmdb	sp!, {r0, r1, r2, r4, r5, r6, r7, r8, r9, lr}
 8001ad0:	461c      	mov	r4, r3
 8001ad2:	e9dd 360a 	ldrd	r3, r6, [sp, #40]	@ 0x28
 8001ad6:	f8bd 7030 	ldrh.w	r7, [sp, #48]	@ 0x30
 8001ada:	f88d 3005 	strb.w	r3, [sp, #5]
 8001ade:	4615      	mov	r5, r2
 8001ae0:	0a1a      	lsrs	r2, r3, #8
 8001ae2:	4681      	mov	r9, r0
 8001ae4:	4688      	mov	r8, r1
 8001ae6:	f88d 2006 	strb.w	r2, [sp, #6]
 8001aea:	0c1b      	lsrs	r3, r3, #16
 8001aec:	4639      	mov	r1, r7
 8001aee:	4630      	mov	r0, r6
 8001af0:	2200      	movs	r2, #0
 8001af2:	f88d 3007 	strb.w	r3, [sp, #7]
 8001af6:	f001 fa1b 	bl	8002f30 <HAL_GPIO_WritePin>
 8001afa:	4649      	mov	r1, r9
 8001afc:	2302      	movs	r3, #2
 8001afe:	2201      	movs	r2, #1
 8001b00:	4620      	mov	r0, r4
 8001b02:	f002 fd17 	bl	8004534 <HAL_SPI_Transmit>
 8001b06:	f10d 0107 	add.w	r1, sp, #7
 8001b0a:	2302      	movs	r3, #2
 8001b0c:	2201      	movs	r2, #1
 8001b0e:	4620      	mov	r0, r4
 8001b10:	f002 fd10 	bl	8004534 <HAL_SPI_Transmit>
 8001b14:	f10d 0106 	add.w	r1, sp, #6
 8001b18:	2302      	movs	r3, #2
 8001b1a:	2201      	movs	r2, #1
 8001b1c:	4620      	mov	r0, r4
 8001b1e:	f002 fd09 	bl	8004534 <HAL_SPI_Transmit>
 8001b22:	f10d 0105 	add.w	r1, sp, #5
 8001b26:	2302      	movs	r3, #2
 8001b28:	2201      	movs	r2, #1
 8001b2a:	4620      	mov	r0, r4
 8001b2c:	f002 fd02 	bl	8004534 <HAL_SPI_Transmit>
 8001b30:	2364      	movs	r3, #100	@ 0x64
 8001b32:	4642      	mov	r2, r8
 8001b34:	4629      	mov	r1, r5
 8001b36:	4620      	mov	r0, r4
 8001b38:	f002 fea7 	bl	800488a <HAL_SPI_Receive>
 8001b3c:	2201      	movs	r2, #1
 8001b3e:	4604      	mov	r4, r0
 8001b40:	4639      	mov	r1, r7
 8001b42:	4630      	mov	r0, r6
 8001b44:	f001 f9f4 	bl	8002f30 <HAL_GPIO_WritePin>
 8001b48:	4620      	mov	r0, r4
 8001b4a:	b003      	add	sp, #12
 8001b4c:	e8bd 83f0 	ldmia.w	sp!, {r4, r5, r6, r7, r8, r9, pc}

08001b50 <spi_write_data_dma>:
 8001b50:	b5f7      	push	{r0, r1, r2, r4, r5, r6, r7, lr}
 8001b52:	461c      	mov	r4, r3
 8001b54:	9b08      	ldr	r3, [sp, #32]
 8001b56:	f88d 3005 	strb.w	r3, [sp, #5]
 8001b5a:	4615      	mov	r5, r2
 8001b5c:	0a1a      	lsrs	r2, r3, #8
 8001b5e:	4607      	mov	r7, r0
 8001b60:	460e      	mov	r6, r1
 8001b62:	9809      	ldr	r0, [sp, #36]	@ 0x24
 8001b64:	f8bd 1028 	ldrh.w	r1, [sp, #40]	@ 0x28
 8001b68:	f88d 2006 	strb.w	r2, [sp, #6]
 8001b6c:	0c1b      	lsrs	r3, r3, #16
 8001b6e:	2200      	movs	r2, #0
 8001b70:	f88d 3007 	strb.w	r3, [sp, #7]
 8001b74:	f001 f9dc 	bl	8002f30 <HAL_GPIO_WritePin>
 8001b78:	4639      	mov	r1, r7
 8001b7a:	2302      	movs	r3, #2
 8001b7c:	2201      	movs	r2, #1
 8001b7e:	4620      	mov	r0, r4
 8001b80:	f002 fcd8 	bl	8004534 <HAL_SPI_Transmit>
 8001b84:	f10d 0107 	add.w	r1, sp, #7
 8001b88:	2302      	movs	r3, #2
 8001b8a:	2201      	movs	r2, #1
 8001b8c:	4620      	mov	r0, r4
 8001b8e:	f002 fcd1 	bl	8004534 <HAL_SPI_Transmit>
 8001b92:	f10d 0106 	add.w	r1, sp, #6
 8001b96:	2302      	movs	r3, #2
 8001b98:	2201      	movs	r2, #1
 8001b9a:	4620      	mov	r0, r4
 8001b9c:	f002 fcca 	bl	8004534 <HAL_SPI_Transmit>
 8001ba0:	2302      	movs	r3, #2
 8001ba2:	f10d 0105 	add.w	r1, sp, #5
 8001ba6:	2201      	movs	r2, #1
 8001ba8:	4620      	mov	r0, r4
 8001baa:	f002 fcc3 	bl	8004534 <HAL_SPI_Transmit>
 8001bae:	4632      	mov	r2, r6
 8001bb0:	4629      	mov	r1, r5
 8001bb2:	4620      	mov	r0, r4
 8001bb4:	f002 ff0e 	bl	80049d4 <HAL_SPI_Transmit_DMA>
 8001bb8:	b003      	add	sp, #12
 8001bba:	bdf0      	pop	{r4, r5, r6, r7, pc}

08001bbc <HAL_MspInit>:
 8001bbc:	b082      	sub	sp, #8
 8001bbe:	4b0c      	ldr	r3, [pc, #48]	@ (8001bf0 <HAL_MspInit+0x34>)
 8001bc0:	2100      	movs	r1, #0
 8001bc2:	9100      	str	r1, [sp, #0]
 8001bc4:	6c5a      	ldr	r2, [r3, #68]	@ 0x44
 8001bc6:	f442 4280 	orr.w	r2, r2, #16384	@ 0x4000
 8001bca:	645a      	str	r2, [r3, #68]	@ 0x44
 8001bcc:	6c5a      	ldr	r2, [r3, #68]	@ 0x44
 8001bce:	f402 4280 	and.w	r2, r2, #16384	@ 0x4000
 8001bd2:	9200      	str	r2, [sp, #0]
 8001bd4:	9a00      	ldr	r2, [sp, #0]
 8001bd6:	9101      	str	r1, [sp, #4]
 8001bd8:	6c1a      	ldr	r2, [r3, #64]	@ 0x40
 8001bda:	f042 5280 	orr.w	r2, r2, #268435456	@ 0x10000000
 8001bde:	641a      	str	r2, [r3, #64]	@ 0x40
 8001be0:	6c1b      	ldr	r3, [r3, #64]	@ 0x40
 8001be2:	f003 5380 	and.w	r3, r3, #268435456	@ 0x10000000
 8001be6:	9301      	str	r3, [sp, #4]
 8001be8:	9b01      	ldr	r3, [sp, #4]
 8001bea:	b002      	add	sp, #8
 8001bec:	4770      	bx	lr
 8001bee:	bf00      	nop
 8001bf0:	40023800 	.word	0x40023800

08001bf4 <HAL_CAN_MspInit>:
 8001bf4:	b510      	push	{r4, lr}
 8001bf6:	4604      	mov	r4, r0
 8001bf8:	b088      	sub	sp, #32
 8001bfa:	2214      	movs	r2, #20
 8001bfc:	2100      	movs	r1, #0
 8001bfe:	a803      	add	r0, sp, #12
 8001c00:	f003 fc58 	bl	80054b4 <memset>
 8001c04:	6822      	ldr	r2, [r4, #0]
 8001c06:	4b1d      	ldr	r3, [pc, #116]	@ (8001c7c <HAL_CAN_MspInit+0x88>)
 8001c08:	429a      	cmp	r2, r3
 8001c0a:	d134      	bne.n	8001c76 <HAL_CAN_MspInit+0x82>
 8001c0c:	f503 33e8 	add.w	r3, r3, #118784	@ 0x1d000
 8001c10:	2400      	movs	r4, #0
 8001c12:	9400      	str	r4, [sp, #0]
 8001c14:	6c1a      	ldr	r2, [r3, #64]	@ 0x40
 8001c16:	481a      	ldr	r0, [pc, #104]	@ (8001c80 <HAL_CAN_MspInit+0x8c>)
 8001c18:	f042 6280 	orr.w	r2, r2, #67108864	@ 0x4000000
 8001c1c:	641a      	str	r2, [r3, #64]	@ 0x40
 8001c1e:	6c1a      	ldr	r2, [r3, #64]	@ 0x40
 8001c20:	f002 6280 	and.w	r2, r2, #67108864	@ 0x4000000
 8001c24:	9200      	str	r2, [sp, #0]
 8001c26:	9a00      	ldr	r2, [sp, #0]
 8001c28:	9401      	str	r4, [sp, #4]
 8001c2a:	6c1a      	ldr	r2, [r3, #64]	@ 0x40
 8001c2c:	f042 7200 	orr.w	r2, r2, #33554432	@ 0x2000000
 8001c30:	641a      	str	r2, [r3, #64]	@ 0x40
 8001c32:	6c1a      	ldr	r2, [r3, #64]	@ 0x40
 8001c34:	f002 7200 	and.w	r2, r2, #33554432	@ 0x2000000
 8001c38:	9201      	str	r2, [sp, #4]
 8001c3a:	9a01      	ldr	r2, [sp, #4]
 8001c3c:	9402      	str	r4, [sp, #8]
 8001c3e:	6b1a      	ldr	r2, [r3, #48]	@ 0x30
 8001c40:	f042 0202 	orr.w	r2, r2, #2
 8001c44:	631a      	str	r2, [r3, #48]	@ 0x30
 8001c46:	6b1b      	ldr	r3, [r3, #48]	@ 0x30
 8001c48:	f003 0302 	and.w	r3, r3, #2
 8001c4c:	9302      	str	r3, [sp, #8]
 8001c4e:	2260      	movs	r2, #96	@ 0x60
 8001c50:	9b02      	ldr	r3, [sp, #8]
 8001c52:	2302      	movs	r3, #2
 8001c54:	e9cd 2303 	strd	r2, r3, [sp, #12]
 8001c58:	2103      	movs	r1, #3
 8001c5a:	2309      	movs	r3, #9
 8001c5c:	e9cd 1306 	strd	r1, r3, [sp, #24]
 8001c60:	a903      	add	r1, sp, #12
 8001c62:	f001 f87b 	bl	8002d5c <HAL_GPIO_Init>
 8001c66:	2040      	movs	r0, #64	@ 0x40
 8001c68:	4622      	mov	r2, r4
 8001c6a:	4621      	mov	r1, r4
 8001c6c:	f000 fe46 	bl	80028fc <HAL_NVIC_SetPriority>
 8001c70:	2040      	movs	r0, #64	@ 0x40
 8001c72:	f000 fe75 	bl	8002960 <HAL_NVIC_EnableIRQ>
 8001c76:	b008      	add	sp, #32
 8001c78:	bd10      	pop	{r4, pc}
 8001c7a:	bf00      	nop
 8001c7c:	40006800 	.word	0x40006800
 8001c80:	40020400 	.word	0x40020400

08001c84 <HAL_I2C_MspInit>:
 8001c84:	e92d 41f0 	stmdb	sp!, {r4, r5, r6, r7, r8, lr}
 8001c88:	2214      	movs	r2, #20
 8001c8a:	b08a      	sub	sp, #40	@ 0x28
 8001c8c:	4604      	mov	r4, r0
 8001c8e:	2100      	movs	r1, #0
 8001c90:	eb0d 0002 	add.w	r0, sp, r2
 8001c94:	f003 fc0e 	bl	80054b4 <memset>
 8001c98:	6823      	ldr	r3, [r4, #0]
 8001c9a:	4a33      	ldr	r2, [pc, #204]	@ (8001d68 <HAL_I2C_MspInit+0xe4>)
 8001c9c:	4293      	cmp	r3, r2
 8001c9e:	d125      	bne.n	8001cec <HAL_I2C_MspInit+0x68>
 8001ca0:	4c32      	ldr	r4, [pc, #200]	@ (8001d6c <HAL_I2C_MspInit+0xe8>)
 8001ca2:	4833      	ldr	r0, [pc, #204]	@ (8001d70 <HAL_I2C_MspInit+0xec>)
 8001ca4:	2500      	movs	r5, #0
 8001ca6:	9500      	str	r5, [sp, #0]
 8001ca8:	6b23      	ldr	r3, [r4, #48]	@ 0x30
 8001caa:	f043 0302 	orr.w	r3, r3, #2
 8001cae:	6323      	str	r3, [r4, #48]	@ 0x30
 8001cb0:	6b23      	ldr	r3, [r4, #48]	@ 0x30
 8001cb2:	f003 0302 	and.w	r3, r3, #2
 8001cb6:	9300      	str	r3, [sp, #0]
 8001cb8:	9b00      	ldr	r3, [sp, #0]
 8001cba:	f44f 7240 	mov.w	r2, #768	@ 0x300
 8001cbe:	2312      	movs	r3, #18
 8001cc0:	e9cd 2305 	strd	r2, r3, [sp, #20]
 8001cc4:	2103      	movs	r1, #3
 8001cc6:	2304      	movs	r3, #4
 8001cc8:	e9cd 1308 	strd	r1, r3, [sp, #32]
 8001ccc:	a905      	add	r1, sp, #20
 8001cce:	f001 f845 	bl	8002d5c <HAL_GPIO_Init>
 8001cd2:	9501      	str	r5, [sp, #4]
 8001cd4:	6c23      	ldr	r3, [r4, #64]	@ 0x40
 8001cd6:	f443 1300 	orr.w	r3, r3, #2097152	@ 0x200000
 8001cda:	6423      	str	r3, [r4, #64]	@ 0x40
 8001cdc:	6c23      	ldr	r3, [r4, #64]	@ 0x40
 8001cde:	f403 1300 	and.w	r3, r3, #2097152	@ 0x200000
 8001ce2:	9301      	str	r3, [sp, #4]
 8001ce4:	9b01      	ldr	r3, [sp, #4]
 8001ce6:	b00a      	add	sp, #40	@ 0x28
 8001ce8:	e8bd 81f0 	ldmia.w	sp!, {r4, r5, r6, r7, r8, pc}
 8001cec:	4a21      	ldr	r2, [pc, #132]	@ (8001d74 <HAL_I2C_MspInit+0xf0>)
 8001cee:	4293      	cmp	r3, r2
 8001cf0:	d1f9      	bne.n	8001ce6 <HAL_I2C_MspInit+0x62>
 8001cf2:	4c1e      	ldr	r4, [pc, #120]	@ (8001d6c <HAL_I2C_MspInit+0xe8>)
 8001cf4:	4820      	ldr	r0, [pc, #128]	@ (8001d78 <HAL_I2C_MspInit+0xf4>)
 8001cf6:	2500      	movs	r5, #0
 8001cf8:	9502      	str	r5, [sp, #8]
 8001cfa:	6b23      	ldr	r3, [r4, #48]	@ 0x30
 8001cfc:	f043 0304 	orr.w	r3, r3, #4
 8001d00:	6323      	str	r3, [r4, #48]	@ 0x30
 8001d02:	6b23      	ldr	r3, [r4, #48]	@ 0x30
 8001d04:	f003 0304 	and.w	r3, r3, #4
 8001d08:	9302      	str	r3, [sp, #8]
 8001d0a:	9b02      	ldr	r3, [sp, #8]
 8001d0c:	9503      	str	r5, [sp, #12]
 8001d0e:	6b23      	ldr	r3, [r4, #48]	@ 0x30
 8001d10:	f043 0301 	orr.w	r3, r3, #1
 8001d14:	6323      	str	r3, [r4, #48]	@ 0x30
 8001d16:	6b23      	ldr	r3, [r4, #48]	@ 0x30
 8001d18:	f003 0301 	and.w	r3, r3, #1
 8001d1c:	9303      	str	r3, [sp, #12]
 8001d1e:	9b03      	ldr	r3, [sp, #12]
 8001d20:	f04f 0812 	mov.w	r8, #18
 8001d24:	f44f 7300 	mov.w	r3, #512	@ 0x200
 8001d28:	2703      	movs	r7, #3
 8001d2a:	2604      	movs	r6, #4
 8001d2c:	a905      	add	r1, sp, #20
 8001d2e:	e9cd 3805 	strd	r3, r8, [sp, #20]
 8001d32:	e9cd 7608 	strd	r7, r6, [sp, #32]
 8001d36:	f001 f811 	bl	8002d5c <HAL_GPIO_Init>
 8001d3a:	f44f 7380 	mov.w	r3, #256	@ 0x100
 8001d3e:	480f      	ldr	r0, [pc, #60]	@ (8001d7c <HAL_I2C_MspInit+0xf8>)
 8001d40:	9609      	str	r6, [sp, #36]	@ 0x24
 8001d42:	a905      	add	r1, sp, #20
 8001d44:	e9cd 3805 	strd	r3, r8, [sp, #20]
 8001d48:	e9cd 5707 	strd	r5, r7, [sp, #28]
 8001d4c:	f001 f806 	bl	8002d5c <HAL_GPIO_Init>
 8001d50:	9504      	str	r5, [sp, #16]
 8001d52:	6c23      	ldr	r3, [r4, #64]	@ 0x40
 8001d54:	f443 0300 	orr.w	r3, r3, #8388608	@ 0x800000
 8001d58:	6423      	str	r3, [r4, #64]	@ 0x40
 8001d5a:	6c23      	ldr	r3, [r4, #64]	@ 0x40
 8001d5c:	f403 0300 	and.w	r3, r3, #8388608	@ 0x800000
 8001d60:	9304      	str	r3, [sp, #16]
 8001d62:	9b04      	ldr	r3, [sp, #16]
 8001d64:	e7bf      	b.n	8001ce6 <HAL_I2C_MspInit+0x62>
 8001d66:	bf00      	nop
 8001d68:	40005400 	.word	0x40005400
 8001d6c:	40023800 	.word	0x40023800
 8001d70:	40020400 	.word	0x40020400
 8001d74:	40005c00 	.word	0x40005c00
 8001d78:	40020800 	.word	0x40020800
 8001d7c:	40020000 	.word	0x40020000

08001d80 <HAL_RTC_MspInit>:
 8001d80:	b510      	push	{r4, lr}
 8001d82:	4604      	mov	r4, r0
 8001d84:	b08c      	sub	sp, #48	@ 0x30
 8001d86:	2230      	movs	r2, #48	@ 0x30
 8001d88:	2100      	movs	r1, #0
 8001d8a:	4668      	mov	r0, sp
 8001d8c:	f003 fb92 	bl	80054b4 <memset>
 8001d90:	6822      	ldr	r2, [r4, #0]
 8001d92:	4b0a      	ldr	r3, [pc, #40]	@ (8001dbc <HAL_RTC_MspInit+0x3c>)
 8001d94:	429a      	cmp	r2, r3
 8001d96:	d10e      	bne.n	8001db6 <HAL_RTC_MspInit+0x36>
 8001d98:	2320      	movs	r3, #32
 8001d9a:	9300      	str	r3, [sp, #0]
 8001d9c:	4668      	mov	r0, sp
 8001d9e:	f44f 7300 	mov.w	r3, #512	@ 0x200
 8001da2:	930a      	str	r3, [sp, #40]	@ 0x28
 8001da4:	f001 ffee 	bl	8003d84 <HAL_RCCEx_PeriphCLKConfig>
 8001da8:	b108      	cbz	r0, 8001dae <HAL_RTC_MspInit+0x2e>
 8001daa:	f7ff fc2f 	bl	800160c <Error_Handler>
 8001dae:	4b04      	ldr	r3, [pc, #16]	@ (8001dc0 <HAL_RTC_MspInit+0x40>)
 8001db0:	2201      	movs	r2, #1
 8001db2:	f8c3 2e3c 	str.w	r2, [r3, #3644]	@ 0xe3c
 8001db6:	b00c      	add	sp, #48	@ 0x30
 8001db8:	bd10      	pop	{r4, pc}
 8001dba:	bf00      	nop
 8001dbc:	40002800 	.word	0x40002800
 8001dc0:	42470000 	.word	0x42470000

08001dc4 <HAL_SPI_MspInit>:
 8001dc4:	e92d 41f0 	stmdb	sp!, {r4, r5, r6, r7, r8, lr}
 8001dc8:	2214      	movs	r2, #20
 8001dca:	b08a      	sub	sp, #40	@ 0x28
 8001dcc:	4606      	mov	r6, r0
 8001dce:	2100      	movs	r1, #0
 8001dd0:	eb0d 0002 	add.w	r0, sp, r2
 8001dd4:	f003 fb6e 	bl	80054b4 <memset>
 8001dd8:	6833      	ldr	r3, [r6, #0]
 8001dda:	4a41      	ldr	r2, [pc, #260]	@ (8001ee0 <HAL_SPI_MspInit+0x11c>)
 8001ddc:	4293      	cmp	r3, r2
 8001dde:	d13f      	bne.n	8001e60 <HAL_SPI_MspInit+0x9c>
 8001de0:	4b40      	ldr	r3, [pc, #256]	@ (8001ee4 <HAL_SPI_MspInit+0x120>)
 8001de2:	4841      	ldr	r0, [pc, #260]	@ (8001ee8 <HAL_SPI_MspInit+0x124>)
 8001de4:	4c41      	ldr	r4, [pc, #260]	@ (8001eec <HAL_SPI_MspInit+0x128>)
 8001de6:	2500      	movs	r5, #0
 8001de8:	9500      	str	r5, [sp, #0]
 8001dea:	6c5a      	ldr	r2, [r3, #68]	@ 0x44
 8001dec:	f442 5280 	orr.w	r2, r2, #4096	@ 0x1000
 8001df0:	645a      	str	r2, [r3, #68]	@ 0x44
 8001df2:	6c5a      	ldr	r2, [r3, #68]	@ 0x44
 8001df4:	f402 5280 	and.w	r2, r2, #4096	@ 0x1000
 8001df8:	9200      	str	r2, [sp, #0]
 8001dfa:	9a00      	ldr	r2, [sp, #0]
 8001dfc:	9501      	str	r5, [sp, #4]
 8001dfe:	6b1a      	ldr	r2, [r3, #48]	@ 0x30
 8001e00:	f042 0201 	orr.w	r2, r2, #1
 8001e04:	631a      	str	r2, [r3, #48]	@ 0x30
 8001e06:	6b1b      	ldr	r3, [r3, #48]	@ 0x30
 8001e08:	f003 0301 	and.w	r3, r3, #1
 8001e0c:	9301      	str	r3, [sp, #4]
 8001e0e:	9b01      	ldr	r3, [sp, #4]
 8001e10:	22e0      	movs	r2, #224	@ 0xe0
 8001e12:	2302      	movs	r3, #2
 8001e14:	e9cd 2305 	strd	r2, r3, [sp, #20]
 8001e18:	2103      	movs	r1, #3
 8001e1a:	2305      	movs	r3, #5
 8001e1c:	e9cd 1308 	strd	r1, r3, [sp, #32]
 8001e20:	a905      	add	r1, sp, #20
 8001e22:	f000 ff9b 	bl	8002d5c <HAL_GPIO_Init>
 8001e26:	4832      	ldr	r0, [pc, #200]	@ (8001ef0 <HAL_SPI_MspInit+0x12c>)
 8001e28:	f04f 63c0 	mov.w	r3, #100663296	@ 0x6000000
 8001e2c:	e9c4 0300 	strd	r0, r3, [r4]
 8001e30:	2340      	movs	r3, #64	@ 0x40
 8001e32:	e9c4 3502 	strd	r3, r5, [r4, #8]
 8001e36:	f44f 6380 	mov.w	r3, #1024	@ 0x400
 8001e3a:	e9c4 3504 	strd	r3, r5, [r4, #16]
 8001e3e:	f44f 3380 	mov.w	r3, #65536	@ 0x10000
 8001e42:	e9c4 5506 	strd	r5, r5, [r4, #24]
 8001e46:	e9c4 3508 	strd	r3, r5, [r4, #32]
 8001e4a:	4620      	mov	r0, r4
 8001e4c:	f000 fdc0 	bl	80029d0 <HAL_DMA_Init>
 8001e50:	b108      	cbz	r0, 8001e56 <HAL_SPI_MspInit+0x92>
 8001e52:	f7ff fbdb 	bl	800160c <Error_Handler>
 8001e56:	64b4      	str	r4, [r6, #72]	@ 0x48
 8001e58:	63a6      	str	r6, [r4, #56]	@ 0x38
 8001e5a:	b00a      	add	sp, #40	@ 0x28
 8001e5c:	e8bd 81f0 	ldmia.w	sp!, {r4, r5, r6, r7, r8, pc}
 8001e60:	4a24      	ldr	r2, [pc, #144]	@ (8001ef4 <HAL_SPI_MspInit+0x130>)
 8001e62:	4293      	cmp	r3, r2
 8001e64:	d1f9      	bne.n	8001e5a <HAL_SPI_MspInit+0x96>
 8001e66:	4b1f      	ldr	r3, [pc, #124]	@ (8001ee4 <HAL_SPI_MspInit+0x120>)
 8001e68:	4823      	ldr	r0, [pc, #140]	@ (8001ef8 <HAL_SPI_MspInit+0x134>)
 8001e6a:	2500      	movs	r5, #0
 8001e6c:	9502      	str	r5, [sp, #8]
 8001e6e:	6c1a      	ldr	r2, [r3, #64]	@ 0x40
 8001e70:	f442 4280 	orr.w	r2, r2, #16384	@ 0x4000
 8001e74:	641a      	str	r2, [r3, #64]	@ 0x40
 8001e76:	6c1a      	ldr	r2, [r3, #64]	@ 0x40
 8001e78:	f402 4280 	and.w	r2, r2, #16384	@ 0x4000
 8001e7c:	9202      	str	r2, [sp, #8]
 8001e7e:	9a02      	ldr	r2, [sp, #8]
 8001e80:	9503      	str	r5, [sp, #12]
 8001e82:	6b1a      	ldr	r2, [r3, #48]	@ 0x30
 8001e84:	f042 0204 	orr.w	r2, r2, #4
 8001e88:	631a      	str	r2, [r3, #48]	@ 0x30
 8001e8a:	6b1a      	ldr	r2, [r3, #48]	@ 0x30
 8001e8c:	f002 0204 	and.w	r2, r2, #4
 8001e90:	9203      	str	r2, [sp, #12]
 8001e92:	9a03      	ldr	r2, [sp, #12]
 8001e94:	9504      	str	r5, [sp, #16]
 8001e96:	6b1a      	ldr	r2, [r3, #48]	@ 0x30
 8001e98:	f042 0208 	orr.w	r2, r2, #8
 8001e9c:	631a      	str	r2, [r3, #48]	@ 0x30
 8001e9e:	6b1b      	ldr	r3, [r3, #48]	@ 0x30
 8001ea0:	f003 0308 	and.w	r3, r3, #8
 8001ea4:	9304      	str	r3, [sp, #16]
 8001ea6:	2405      	movs	r4, #5
 8001ea8:	9b04      	ldr	r3, [sp, #16]
 8001eaa:	f04f 0802 	mov.w	r8, #2
 8001eae:	230c      	movs	r3, #12
 8001eb0:	2703      	movs	r7, #3
 8001eb2:	a905      	add	r1, sp, #20
 8001eb4:	e9cd 3805 	strd	r3, r8, [sp, #20]
 8001eb8:	e9cd 7408 	strd	r7, r4, [sp, #32]
 8001ebc:	f000 ff4e 	bl	8002d5c <HAL_GPIO_Init>
 8001ec0:	2308      	movs	r3, #8
 8001ec2:	480e      	ldr	r0, [pc, #56]	@ (8001efc <HAL_SPI_MspInit+0x138>)
 8001ec4:	9409      	str	r4, [sp, #36]	@ 0x24
 8001ec6:	a905      	add	r1, sp, #20
 8001ec8:	e9cd 3805 	strd	r3, r8, [sp, #20]
 8001ecc:	e9cd 5707 	strd	r5, r7, [sp, #28]
 8001ed0:	4c0b      	ldr	r4, [pc, #44]	@ (8001f00 <HAL_SPI_MspInit+0x13c>)
 8001ed2:	f000 ff43 	bl	8002d5c <HAL_GPIO_Init>
 8001ed6:	4b0b      	ldr	r3, [pc, #44]	@ (8001f04 <HAL_SPI_MspInit+0x140>)
 8001ed8:	e9c4 3500 	strd	r3, r5, [r4]
 8001edc:	e7a8      	b.n	8001e30 <HAL_SPI_MspInit+0x6c>
 8001ede:	bf00      	nop
 8001ee0:	40013000 	.word	0x40013000
 8001ee4:	40023800 	.word	0x40023800
 8001ee8:	40020000 	.word	0x40020000
 8001eec:	20000414 	.word	0x20000414
 8001ef0:	40026458 	.word	0x40026458
 8001ef4:	40003800 	.word	0x40003800
 8001ef8:	40020800 	.word	0x40020800
 8001efc:	40020c00 	.word	0x40020c00
 8001f00:	200003b4 	.word	0x200003b4
 8001f04:	40026070 	.word	0x40026070

08001f08 <HAL_TIM_Base_MspInit>:
 8001f08:	b507      	push	{r0, r1, r2, lr}
 8001f0a:	6803      	ldr	r3, [r0, #0]
 8001f0c:	4a18      	ldr	r2, [pc, #96]	@ (8001f70 <HAL_TIM_Base_MspInit+0x68>)
 8001f0e:	4293      	cmp	r3, r2
 8001f10:	d115      	bne.n	8001f3e <HAL_TIM_Base_MspInit+0x36>
 8001f12:	4b18      	ldr	r3, [pc, #96]	@ (8001f74 <HAL_TIM_Base_MspInit+0x6c>)
 8001f14:	2200      	movs	r2, #0
 8001f16:	9200      	str	r2, [sp, #0]
 8001f18:	6c19      	ldr	r1, [r3, #64]	@ 0x40
 8001f1a:	f041 0110 	orr.w	r1, r1, #16
 8001f1e:	6419      	str	r1, [r3, #64]	@ 0x40
 8001f20:	6c1b      	ldr	r3, [r3, #64]	@ 0x40
 8001f22:	f003 0310 	and.w	r3, r3, #16
 8001f26:	9300      	str	r3, [sp, #0]
 8001f28:	2036      	movs	r0, #54	@ 0x36
 8001f2a:	4611      	mov	r1, r2
 8001f2c:	9b00      	ldr	r3, [sp, #0]
 8001f2e:	f000 fce5 	bl	80028fc <HAL_NVIC_SetPriority>
 8001f32:	2036      	movs	r0, #54	@ 0x36
 8001f34:	b003      	add	sp, #12
 8001f36:	f85d eb04 	ldr.w	lr, [sp], #4
 8001f3a:	f000 bd11 	b.w	8002960 <HAL_NVIC_EnableIRQ>
 8001f3e:	4a0e      	ldr	r2, [pc, #56]	@ (8001f78 <HAL_TIM_Base_MspInit+0x70>)
 8001f40:	4293      	cmp	r3, r2
 8001f42:	d111      	bne.n	8001f68 <HAL_TIM_Base_MspInit+0x60>
 8001f44:	4b0b      	ldr	r3, [pc, #44]	@ (8001f74 <HAL_TIM_Base_MspInit+0x6c>)
 8001f46:	2200      	movs	r2, #0
 8001f48:	9201      	str	r2, [sp, #4]
 8001f4a:	6c19      	ldr	r1, [r3, #64]	@ 0x40
 8001f4c:	f041 0120 	orr.w	r1, r1, #32
 8001f50:	6419      	str	r1, [r3, #64]	@ 0x40
 8001f52:	6c1b      	ldr	r3, [r3, #64]	@ 0x40
 8001f54:	f003 0320 	and.w	r3, r3, #32
 8001f58:	9301      	str	r3, [sp, #4]
 8001f5a:	2037      	movs	r0, #55	@ 0x37
 8001f5c:	4611      	mov	r1, r2
 8001f5e:	9b01      	ldr	r3, [sp, #4]
 8001f60:	f000 fccc 	bl	80028fc <HAL_NVIC_SetPriority>
 8001f64:	2037      	movs	r0, #55	@ 0x37
 8001f66:	e7e5      	b.n	8001f34 <HAL_TIM_Base_MspInit+0x2c>
 8001f68:	b003      	add	sp, #12
 8001f6a:	f85d fb04 	ldr.w	pc, [sp], #4
 8001f6e:	bf00      	nop
 8001f70:	40001000 	.word	0x40001000
 8001f74:	40023800 	.word	0x40023800
 8001f78:	40001400 	.word	0x40001400

08001f7c <HAL_UART_MspInit>:
 8001f7c:	b510      	push	{r4, lr}
 8001f7e:	4604      	mov	r4, r0
 8001f80:	b088      	sub	sp, #32
 8001f82:	2214      	movs	r2, #20
 8001f84:	2100      	movs	r1, #0
 8001f86:	a803      	add	r0, sp, #12
 8001f88:	f003 fa94 	bl	80054b4 <memset>
 8001f8c:	6822      	ldr	r2, [r4, #0]
 8001f8e:	4b18      	ldr	r3, [pc, #96]	@ (8001ff0 <HAL_UART_MspInit+0x74>)
 8001f90:	429a      	cmp	r2, r3
 8001f92:	d12a      	bne.n	8001fea <HAL_UART_MspInit+0x6e>
 8001f94:	f503 33fa 	add.w	r3, r3, #128000	@ 0x1f400
 8001f98:	2400      	movs	r4, #0
 8001f9a:	9401      	str	r4, [sp, #4]
 8001f9c:	6c1a      	ldr	r2, [r3, #64]	@ 0x40
 8001f9e:	4815      	ldr	r0, [pc, #84]	@ (8001ff4 <HAL_UART_MspInit+0x78>)
 8001fa0:	f442 3200 	orr.w	r2, r2, #131072	@ 0x20000
 8001fa4:	641a      	str	r2, [r3, #64]	@ 0x40
 8001fa6:	6c1a      	ldr	r2, [r3, #64]	@ 0x40
 8001fa8:	f402 3200 	and.w	r2, r2, #131072	@ 0x20000
 8001fac:	9201      	str	r2, [sp, #4]
 8001fae:	9a01      	ldr	r2, [sp, #4]
 8001fb0:	9402      	str	r4, [sp, #8]
 8001fb2:	6b1a      	ldr	r2, [r3, #48]	@ 0x30
 8001fb4:	f042 0208 	orr.w	r2, r2, #8
 8001fb8:	631a      	str	r2, [r3, #48]	@ 0x30
 8001fba:	6b1b      	ldr	r3, [r3, #48]	@ 0x30
 8001fbc:	f003 0308 	and.w	r3, r3, #8
 8001fc0:	9302      	str	r3, [sp, #8]
 8001fc2:	2260      	movs	r2, #96	@ 0x60
 8001fc4:	9b02      	ldr	r3, [sp, #8]
 8001fc6:	2302      	movs	r3, #2
 8001fc8:	e9cd 2303 	strd	r2, r3, [sp, #12]
 8001fcc:	2103      	movs	r1, #3
 8001fce:	2307      	movs	r3, #7
 8001fd0:	e9cd 1306 	strd	r1, r3, [sp, #24]
 8001fd4:	a903      	add	r1, sp, #12
 8001fd6:	f000 fec1 	bl	8002d5c <HAL_GPIO_Init>
 8001fda:	2026      	movs	r0, #38	@ 0x26
 8001fdc:	4622      	mov	r2, r4
 8001fde:	4621      	mov	r1, r4
 8001fe0:	f000 fc8c 	bl	80028fc <HAL_NVIC_SetPriority>
 8001fe4:	2026      	movs	r0, #38	@ 0x26
 8001fe6:	f000 fcbb 	bl	8002960 <HAL_NVIC_EnableIRQ>
 8001fea:	b008      	add	sp, #32
 8001fec:	bd10      	pop	{r4, pc}
 8001fee:	bf00      	nop
 8001ff0:	40004400 	.word	0x40004400
 8001ff4:	40020c00 	.word	0x40020c00

08001ff8 <NMI_Handler>:
 8001ff8:	e7fe      	b.n	8001ff8 <NMI_Handler>

08001ffa <HardFault_Handler>:
 8001ffa:	e7fe      	b.n	8001ffa <HardFault_Handler>

08001ffc <MemManage_Handler>:
 8001ffc:	e7fe      	b.n	8001ffc <MemManage_Handler>

08001ffe <BusFault_Handler>:
 8001ffe:	e7fe      	b.n	8001ffe <BusFault_Handler>

08002000 <UsageFault_Handler>:
 8002000:	e7fe      	b.n	8002000 <UsageFault_Handler>

08002002 <SVC_Handler>:
 8002002:	4770      	bx	lr

08002004 <DebugMon_Handler>:
 8002004:	4770      	bx	lr

08002006 <PendSV_Handler>:
 8002006:	4770      	bx	lr

08002008 <SysTick_Handler>:
 8002008:	f000 b92a 	b.w	8002260 <HAL_IncTick>

0800200c <EXTI1_IRQHandler>:
 800200c:	2002      	movs	r0, #2
 800200e:	f000 bf9d 	b.w	8002f4c <HAL_GPIO_EXTI_IRQHandler>
	...

08002014 <DMA1_Stream4_IRQHandler>:
 8002014:	4801      	ldr	r0, [pc, #4]	@ (800201c <DMA1_Stream4_IRQHandler+0x8>)
 8002016:	f000 bde3 	b.w	8002be0 <HAL_DMA_IRQHandler>
 800201a:	bf00      	nop
 800201c:	200003b4 	.word	0x200003b4

08002020 <USART2_IRQHandler>:
 8002020:	4801      	ldr	r0, [pc, #4]	@ (8002028 <USART2_IRQHandler+0x8>)
 8002022:	f003 b8d3 	b.w	80051cc <HAL_UART_IRQHandler>
 8002026:	bf00      	nop
 8002028:	200002dc 	.word	0x200002dc

0800202c <TIM6_DAC_IRQHandler>:
 800202c:	b508      	push	{r3, lr}
 800202e:	4803      	ldr	r0, [pc, #12]	@ (800203c <TIM6_DAC_IRQHandler+0x10>)
 8002030:	f002 fdbd 	bl	8004bae <HAL_TIM_IRQHandler>
 8002034:	4b02      	ldr	r3, [pc, #8]	@ (8002040 <TIM6_DAC_IRQHandler+0x14>)
 8002036:	2201      	movs	r2, #1
 8002038:	701a      	strb	r2, [r3, #0]
 800203a:	bd08      	pop	{r3, pc}
 800203c:	2000036c 	.word	0x2000036c
 8002040:	200002a5 	.word	0x200002a5

08002044 <TIM7_IRQHandler>:
 8002044:	b508      	push	{r3, lr}
 8002046:	4803      	ldr	r0, [pc, #12]	@ (8002054 <TIM7_IRQHandler+0x10>)
 8002048:	f002 fdb1 	bl	8004bae <HAL_TIM_IRQHandler>
 800204c:	4b02      	ldr	r3, [pc, #8]	@ (8002058 <TIM7_IRQHandler+0x14>)
 800204e:	2201      	movs	r2, #1
 8002050:	701a      	strb	r2, [r3, #0]
 8002052:	bd08      	pop	{r3, pc}
 8002054:	20000324 	.word	0x20000324
 8002058:	200002a4 	.word	0x200002a4

0800205c <DMA2_Stream3_IRQHandler>:
 800205c:	4801      	ldr	r0, [pc, #4]	@ (8002064 <DMA2_Stream3_IRQHandler+0x8>)
 800205e:	f000 bdbf 	b.w	8002be0 <HAL_DMA_IRQHandler>
 8002062:	bf00      	nop
 8002064:	20000414 	.word	0x20000414

08002068 <CAN2_RX0_IRQHandler>:
 8002068:	4801      	ldr	r0, [pc, #4]	@ (8002070 <CAN2_RX0_IRQHandler+0x8>)
 800206a:	f000 bb30 	b.w	80026ce <HAL_CAN_IRQHandler>
 800206e:	bf00      	nop
 8002070:	200005ec 	.word	0x200005ec

08002074 <HAL_CAN_RxFifo0MsgPendingCallback>:
 8002074:	b508      	push	{r3, lr}
 8002076:	4a06      	ldr	r2, [pc, #24]	@ (8002090 <HAL_CAN_RxFifo0MsgPendingCallback+0x1c>)
 8002078:	4b06      	ldr	r3, [pc, #24]	@ (8002094 <HAL_CAN_RxFifo0MsgPendingCallback+0x20>)
 800207a:	2100      	movs	r1, #0
 800207c:	f000 fa8e 	bl	800259c <HAL_CAN_GetRxMessage>
 8002080:	4b05      	ldr	r3, [pc, #20]	@ (8002098 <HAL_CAN_RxFifo0MsgPendingCallback+0x24>)
 8002082:	2201      	movs	r2, #1
 8002084:	701a      	strb	r2, [r3, #0]
 8002086:	4b05      	ldr	r3, [pc, #20]	@ (800209c <HAL_CAN_RxFifo0MsgPendingCallback+0x28>)
 8002088:	7819      	ldrb	r1, [r3, #0]
 800208a:	b901      	cbnz	r1, 800208e <HAL_CAN_RxFifo0MsgPendingCallback+0x1a>
 800208c:	701a      	strb	r2, [r3, #0]
 800208e:	bd08      	pop	{r3, pc}
 8002090:	200002b0 	.word	0x200002b0
 8002094:	200002a8 	.word	0x200002a8
 8002098:	200002a7 	.word	0x200002a7
 800209c:	200002a6 	.word	0x200002a6

080020a0 <HAL_GPIO_EXTI_Callback>:
 80020a0:	4b04      	ldr	r3, [pc, #16]	@ (80020b4 <HAL_GPIO_EXTI_Callback+0x14>)
 80020a2:	889b      	ldrh	r3, [r3, #4]
 80020a4:	b29b      	uxth	r3, r3
 80020a6:	4283      	cmp	r3, r0
 80020a8:	bf02      	ittt	eq
 80020aa:	4b03      	ldreq	r3, [pc, #12]	@ (80020b8 <HAL_GPIO_EXTI_Callback+0x18>)
 80020ac:	2201      	moveq	r2, #1
 80020ae:	701a      	strbeq	r2, [r3, #0]
 80020b0:	4770      	bx	lr
 80020b2:	bf00      	nop
 80020b4:	20000048 	.word	0x20000048
 80020b8:	20000047 	.word	0x20000047

080020bc <HAL_SPI_TxCpltCallback>:
 80020bc:	6803      	ldr	r3, [r0, #0]
 80020be:	4a11      	ldr	r2, [pc, #68]	@ (8002104 <HAL_SPI_TxCpltCallback+0x48>)
 80020c0:	4293      	cmp	r3, r2
 80020c2:	b510      	push	{r4, lr}
 80020c4:	4604      	mov	r4, r0
 80020c6:	d117      	bne.n	80020f8 <HAL_SPI_TxCpltCallback+0x3c>
 80020c8:	4b0f      	ldr	r3, [pc, #60]	@ (8002108 <HAL_SPI_TxCpltCallback+0x4c>)
 80020ca:	8899      	ldrh	r1, [r3, #4]
 80020cc:	6818      	ldr	r0, [r3, #0]
 80020ce:	2201      	movs	r2, #1
 80020d0:	f000 ff2e 	bl	8002f30 <HAL_GPIO_WritePin>
 80020d4:	6822      	ldr	r2, [r4, #0]
 80020d6:	490d      	ldr	r1, [pc, #52]	@ (800210c <HAL_SPI_TxCpltCallback+0x50>)
 80020d8:	6853      	ldr	r3, [r2, #4]
 80020da:	f023 0302 	bic.w	r3, r3, #2
 80020de:	6053      	str	r3, [r2, #4]
 80020e0:	4b0b      	ldr	r3, [pc, #44]	@ (8002110 <HAL_SPI_TxCpltCallback+0x54>)
 80020e2:	781b      	ldrb	r3, [r3, #0]
 80020e4:	f083 0301 	eor.w	r3, r3, #1
 80020e8:	e8bd 4010 	ldmia.w	sp!, {r4, lr}
 80020ec:	eb01 2103 	add.w	r1, r1, r3, lsl #8
 80020f0:	f44f 7080 	mov.w	r0, #256	@ 0x100
 80020f4:	f7fe bce8 	b.w	8000ac8 <clean_data_buffer>
 80020f8:	4a06      	ldr	r2, [pc, #24]	@ (8002114 <HAL_SPI_TxCpltCallback+0x58>)
 80020fa:	4293      	cmp	r3, r2
 80020fc:	d1ea      	bne.n	80020d4 <HAL_SPI_TxCpltCallback+0x18>
 80020fe:	4b06      	ldr	r3, [pc, #24]	@ (8002118 <HAL_SPI_TxCpltCallback+0x5c>)
 8002100:	e7e3      	b.n	80020ca <HAL_SPI_TxCpltCallback+0xe>
 8002102:	bf00      	nop
 8002104:	40013000 	.word	0x40013000
 8002108:	20000068 	.word	0x20000068
 800210c:	200000a4 	.word	0x200000a4
 8002110:	200000a3 	.word	0x200000a3
 8002114:	40003800 	.word	0x40003800
 8002118:	20000058 	.word	0x20000058

0800211c <HAL_UART_RxCpltCallback>:
 800211c:	4b03      	ldr	r3, [pc, #12]	@ (800212c <HAL_UART_RxCpltCallback+0x10>)
 800211e:	4904      	ldr	r1, [pc, #16]	@ (8002130 <HAL_UART_RxCpltCallback+0x14>)
 8002120:	4804      	ldr	r0, [pc, #16]	@ (8002134 <HAL_UART_RxCpltCallback+0x18>)
 8002122:	2201      	movs	r2, #1
 8002124:	701a      	strb	r2, [r3, #0]
 8002126:	2202      	movs	r2, #2
 8002128:	f003 b9b3 	b.w	8005492 <HAL_UART_Receive_IT>
 800212c:	200002d0 	.word	0x200002d0
 8002130:	200002d1 	.word	0x200002d1
 8002134:	200002dc 	.word	0x200002dc

08002138 <SystemInit>:
 8002138:	4a03      	ldr	r2, [pc, #12]	@ (8002148 <SystemInit+0x10>)
 800213a:	f8d2 3088 	ldr.w	r3, [r2, #136]	@ 0x88
 800213e:	f443 0370 	orr.w	r3, r3, #15728640	@ 0xf00000
 8002142:	f8c2 3088 	str.w	r3, [r2, #136]	@ 0x88
 8002146:	4770      	bx	lr
 8002148:	e000ed00 	.word	0xe000ed00

0800214c <uart_transmit_page>:
 800214c:	f04f 33ff 	mov.w	r3, #4294967295	@ 0xffffffff
 8002150:	f44f 7280 	mov.w	r2, #256	@ 0x100
 8002154:	f002 bf85 	b.w	8005062 <HAL_UART_Transmit>

08002158 <send_uart_string>:
 8002158:	b570      	push	{r4, r5, r6, lr}
 800215a:	4605      	mov	r5, r0
 800215c:	4608      	mov	r0, r1
 800215e:	460c      	mov	r4, r1
 8002160:	f7fe f844 	bl	80001ec <strlen>
 8002164:	4621      	mov	r1, r4
 8002166:	b282      	uxth	r2, r0
 8002168:	f04f 33ff 	mov.w	r3, #4294967295	@ 0xffffffff
 800216c:	4628      	mov	r0, r5
 800216e:	e8bd 4070 	ldmia.w	sp!, {r4, r5, r6, lr}
 8002172:	f002 bf76 	b.w	8005062 <HAL_UART_Transmit>

08002176 <send_uart_hex>:
 8002176:	b507      	push	{r0, r1, r2, lr}
 8002178:	f04f 33ff 	mov.w	r3, #4294967295	@ 0xffffffff
 800217c:	f88d 1004 	strb.w	r1, [sp, #4]
 8002180:	2201      	movs	r2, #1
 8002182:	a901      	add	r1, sp, #4
 8002184:	f002 ff6d 	bl	8005062 <HAL_UART_Transmit>
 8002188:	b003      	add	sp, #12
 800218a:	f85d fb04 	ldr.w	pc, [sp], #4
	...

08002190 <Reset_Handler>:
 8002190:	f8df d034 	ldr.w	sp, [pc, #52]	@ 80021c8 <LoopFillZerobss+0xe>
 8002194:	f7ff ffd0 	bl	8002138 <SystemInit>
 8002198:	480c      	ldr	r0, [pc, #48]	@ (80021cc <LoopFillZerobss+0x12>)
 800219a:	490d      	ldr	r1, [pc, #52]	@ (80021d0 <LoopFillZerobss+0x16>)
 800219c:	4a0d      	ldr	r2, [pc, #52]	@ (80021d4 <LoopFillZerobss+0x1a>)
 800219e:	2300      	movs	r3, #0
 80021a0:	e002      	b.n	80021a8 <LoopCopyDataInit>

080021a2 <CopyDataInit>:
 80021a2:	58d4      	ldr	r4, [r2, r3]
 80021a4:	50c4      	str	r4, [r0, r3]
 80021a6:	3304      	adds	r3, #4

080021a8 <LoopCopyDataInit>:
 80021a8:	18c4      	adds	r4, r0, r3
 80021aa:	428c      	cmp	r4, r1
 80021ac:	d3f9      	bcc.n	80021a2 <CopyDataInit>
 80021ae:	4a0a      	ldr	r2, [pc, #40]	@ (80021d8 <LoopFillZerobss+0x1e>)
 80021b0:	4c0a      	ldr	r4, [pc, #40]	@ (80021dc <LoopFillZerobss+0x22>)
 80021b2:	2300      	movs	r3, #0
 80021b4:	e001      	b.n	80021ba <LoopFillZerobss>

080021b6 <FillZerobss>:
 80021b6:	6013      	str	r3, [r2, #0]
 80021b8:	3204      	adds	r2, #4

080021ba <LoopFillZerobss>:
 80021ba:	42a2      	cmp	r2, r4
 80021bc:	d3fb      	bcc.n	80021b6 <FillZerobss>
 80021be:	f003 f981 	bl	80054c4 <__libc_init_array>
 80021c2:	f7fe ff7b 	bl	80010bc <main>
 80021c6:	4770      	bx	lr
 80021c8:	20030000 	.word	0x20030000
 80021cc:	20000000 	.word	0x20000000
 80021d0:	20000028 	.word	0x20000028
 80021d4:	080055e8 	.word	0x080055e8
 80021d8:	20000028 	.word	0x20000028
 80021dc:	2000062c 	.word	0x2000062c

080021e0 <ADC_IRQHandler>:
 80021e0:	e7fe      	b.n	80021e0 <ADC_IRQHandler>
	...

080021e4 <HAL_InitTick>:
 80021e4:	b538      	push	{r3, r4, r5, lr}
 80021e6:	4b0e      	ldr	r3, [pc, #56]	@ (8002220 <HAL_InitTick+0x3c>)
 80021e8:	781a      	ldrb	r2, [r3, #0]
 80021ea:	f44f 737a 	mov.w	r3, #1000	@ 0x3e8
 80021ee:	fbb3 f3f2 	udiv	r3, r3, r2
 80021f2:	4a0c      	ldr	r2, [pc, #48]	@ (8002224 <HAL_InitTick+0x40>)
 80021f4:	4605      	mov	r5, r0
 80021f6:	6810      	ldr	r0, [r2, #0]
 80021f8:	fbb0 f0f3 	udiv	r0, r0, r3
 80021fc:	f000 fbbe 	bl	800297c <HAL_SYSTICK_Config>
 8002200:	4604      	mov	r4, r0
 8002202:	b958      	cbnz	r0, 800221c <HAL_InitTick+0x38>
 8002204:	2d0f      	cmp	r5, #15
 8002206:	d809      	bhi.n	800221c <HAL_InitTick+0x38>
 8002208:	4602      	mov	r2, r0
 800220a:	4629      	mov	r1, r5
 800220c:	f04f 30ff 	mov.w	r0, #4294967295	@ 0xffffffff
 8002210:	f000 fb74 	bl	80028fc <HAL_NVIC_SetPriority>
 8002214:	4b04      	ldr	r3, [pc, #16]	@ (8002228 <HAL_InitTick+0x44>)
 8002216:	4620      	mov	r0, r4
 8002218:	601d      	str	r5, [r3, #0]
 800221a:	bd38      	pop	{r3, r4, r5, pc}
 800221c:	2001      	movs	r0, #1
 800221e:	e7fc      	b.n	800221a <HAL_InitTick+0x36>
 8002220:	20000020 	.word	0x20000020
 8002224:	2000001c 	.word	0x2000001c
 8002228:	20000024 	.word	0x20000024

0800222c <HAL_Init>:
 800222c:	b508      	push	{r3, lr}
 800222e:	4b0b      	ldr	r3, [pc, #44]	@ (800225c <HAL_Init+0x30>)
 8002230:	681a      	ldr	r2, [r3, #0]
 8002232:	f442 7200 	orr.w	r2, r2, #512	@ 0x200
 8002236:	601a      	str	r2, [r3, #0]
 8002238:	681a      	ldr	r2, [r3, #0]
 800223a:	f442 6280 	orr.w	r2, r2, #1024	@ 0x400
 800223e:	601a      	str	r2, [r3, #0]
 8002240:	681a      	ldr	r2, [r3, #0]
 8002242:	f442 7280 	orr.w	r2, r2, #256	@ 0x100
 8002246:	601a      	str	r2, [r3, #0]
 8002248:	2003      	movs	r0, #3
 800224a:	f000 fb45 	bl	80028d8 <HAL_NVIC_SetPriorityGrouping>
 800224e:	200f      	movs	r0, #15
 8002250:	f7ff ffc8 	bl	80021e4 <HAL_InitTick>
 8002254:	f7ff fcb2 	bl	8001bbc <HAL_MspInit>
 8002258:	2000      	movs	r0, #0
 800225a:	bd08      	pop	{r3, pc}
 800225c:	40023c00 	.word	0x40023c00

08002260 <HAL_IncTick>:
 8002260:	4a03      	ldr	r2, [pc, #12]	@ (8002270 <HAL_IncTick+0x10>)
 8002262:	4b04      	ldr	r3, [pc, #16]	@ (8002274 <HAL_IncTick+0x14>)
 8002264:	6811      	ldr	r1, [r2, #0]
 8002266:	781b      	ldrb	r3, [r3, #0]
 8002268:	440b      	add	r3, r1
 800226a:	6013      	str	r3, [r2, #0]
 800226c:	4770      	bx	lr
 800226e:	bf00      	nop
 8002270:	20000628 	.word	0x20000628
 8002274:	20000020 	.word	0x20000020

08002278 <HAL_GetTick>:
 8002278:	4b01      	ldr	r3, [pc, #4]	@ (8002280 <HAL_GetTick+0x8>)
 800227a:	6818      	ldr	r0, [r3, #0]
 800227c:	4770      	bx	lr
 800227e:	bf00      	nop
 8002280:	20000628 	.word	0x20000628

08002284 <HAL_Delay>:
 8002284:	b538      	push	{r3, r4, r5, lr}
 8002286:	4604      	mov	r4, r0
 8002288:	f7ff fff6 	bl	8002278 <HAL_GetTick>
 800228c:	1c63      	adds	r3, r4, #1
 800228e:	bf1c      	itt	ne
 8002290:	4b05      	ldrne	r3, [pc, #20]	@ (80022a8 <HAL_Delay+0x24>)
 8002292:	781b      	ldrbne	r3, [r3, #0]
 8002294:	4605      	mov	r5, r0
 8002296:	bf18      	it	ne
 8002298:	18e4      	addne	r4, r4, r3
 800229a:	f7ff ffed 	bl	8002278 <HAL_GetTick>
 800229e:	1b43      	subs	r3, r0, r5
 80022a0:	42a3      	cmp	r3, r4
 80022a2:	d3fa      	bcc.n	800229a <HAL_Delay+0x16>
 80022a4:	bd38      	pop	{r3, r4, r5, pc}
 80022a6:	bf00      	nop
 80022a8:	20000020 	.word	0x20000020

080022ac <HAL_CAN_Init>:
 80022ac:	b538      	push	{r3, r4, r5, lr}
 80022ae:	4604      	mov	r4, r0
 80022b0:	2800      	cmp	r0, #0
 80022b2:	d06e      	beq.n	8002392 <HAL_CAN_Init+0xe6>
 80022b4:	f890 3020 	ldrb.w	r3, [r0, #32]
 80022b8:	b90b      	cbnz	r3, 80022be <HAL_CAN_Init+0x12>
 80022ba:	f7ff fc9b 	bl	8001bf4 <HAL_CAN_MspInit>
 80022be:	6822      	ldr	r2, [r4, #0]
 80022c0:	6813      	ldr	r3, [r2, #0]
 80022c2:	f043 0301 	orr.w	r3, r3, #1
 80022c6:	6013      	str	r3, [r2, #0]
 80022c8:	f7ff ffd6 	bl	8002278 <HAL_GetTick>
 80022cc:	4605      	mov	r5, r0
 80022ce:	6823      	ldr	r3, [r4, #0]
 80022d0:	685a      	ldr	r2, [r3, #4]
 80022d2:	07d1      	lsls	r1, r2, #31
 80022d4:	d551      	bpl.n	800237a <HAL_CAN_Init+0xce>
 80022d6:	681a      	ldr	r2, [r3, #0]
 80022d8:	f022 0202 	bic.w	r2, r2, #2
 80022dc:	601a      	str	r2, [r3, #0]
 80022de:	f7ff ffcb 	bl	8002278 <HAL_GetTick>
 80022e2:	4605      	mov	r5, r0
 80022e4:	6823      	ldr	r3, [r4, #0]
 80022e6:	685a      	ldr	r2, [r3, #4]
 80022e8:	0792      	lsls	r2, r2, #30
 80022ea:	d454      	bmi.n	8002396 <HAL_CAN_Init+0xea>
 80022ec:	7e22      	ldrb	r2, [r4, #24]
 80022ee:	2a01      	cmp	r2, #1
 80022f0:	681a      	ldr	r2, [r3, #0]
 80022f2:	bf0c      	ite	eq
 80022f4:	f042 0280 	orreq.w	r2, r2, #128	@ 0x80
 80022f8:	f022 0280 	bicne.w	r2, r2, #128	@ 0x80
 80022fc:	601a      	str	r2, [r3, #0]
 80022fe:	7e62      	ldrb	r2, [r4, #25]
 8002300:	2a01      	cmp	r2, #1
 8002302:	681a      	ldr	r2, [r3, #0]
 8002304:	bf0c      	ite	eq
 8002306:	f042 0240 	orreq.w	r2, r2, #64	@ 0x40
 800230a:	f022 0240 	bicne.w	r2, r2, #64	@ 0x40
 800230e:	601a      	str	r2, [r3, #0]
 8002310:	7ea2      	ldrb	r2, [r4, #26]
 8002312:	2a01      	cmp	r2, #1
 8002314:	681a      	ldr	r2, [r3, #0]
 8002316:	bf0c      	ite	eq
 8002318:	f042 0220 	orreq.w	r2, r2, #32
 800231c:	f022 0220 	bicne.w	r2, r2, #32
 8002320:	601a      	str	r2, [r3, #0]
 8002322:	7ee2      	ldrb	r2, [r4, #27]
 8002324:	2a01      	cmp	r2, #1
 8002326:	681a      	ldr	r2, [r3, #0]
 8002328:	bf0c      	ite	eq
 800232a:	f022 0210 	biceq.w	r2, r2, #16
 800232e:	f042 0210 	orrne.w	r2, r2, #16
 8002332:	601a      	str	r2, [r3, #0]
 8002334:	7f22      	ldrb	r2, [r4, #28]
 8002336:	2a01      	cmp	r2, #1
 8002338:	681a      	ldr	r2, [r3, #0]
 800233a:	bf0c      	ite	eq
 800233c:	f042 0208 	orreq.w	r2, r2, #8
 8002340:	f022 0208 	bicne.w	r2, r2, #8
 8002344:	601a      	str	r2, [r3, #0]
 8002346:	7f62      	ldrb	r2, [r4, #29]
 8002348:	2a01      	cmp	r2, #1
 800234a:	681a      	ldr	r2, [r3, #0]
 800234c:	bf0c      	ite	eq
 800234e:	f042 0204 	orreq.w	r2, r2, #4
 8002352:	f022 0204 	bicne.w	r2, r2, #4
 8002356:	601a      	str	r2, [r3, #0]
 8002358:	e9d4 2102 	ldrd	r2, r1, [r4, #8]
 800235c:	430a      	orrs	r2, r1
 800235e:	6921      	ldr	r1, [r4, #16]
 8002360:	430a      	orrs	r2, r1
 8002362:	6961      	ldr	r1, [r4, #20]
 8002364:	430a      	orrs	r2, r1
 8002366:	6861      	ldr	r1, [r4, #4]
 8002368:	3901      	subs	r1, #1
 800236a:	430a      	orrs	r2, r1
 800236c:	61da      	str	r2, [r3, #28]
 800236e:	2000      	movs	r0, #0
 8002370:	2301      	movs	r3, #1
 8002372:	6260      	str	r0, [r4, #36]	@ 0x24
 8002374:	f884 3020 	strb.w	r3, [r4, #32]
 8002378:	e00c      	b.n	8002394 <HAL_CAN_Init+0xe8>
 800237a:	f7ff ff7d 	bl	8002278 <HAL_GetTick>
 800237e:	1b40      	subs	r0, r0, r5
 8002380:	280a      	cmp	r0, #10
 8002382:	d9a4      	bls.n	80022ce <HAL_CAN_Init+0x22>
 8002384:	6a63      	ldr	r3, [r4, #36]	@ 0x24
 8002386:	f443 3300 	orr.w	r3, r3, #131072	@ 0x20000
 800238a:	6263      	str	r3, [r4, #36]	@ 0x24
 800238c:	2305      	movs	r3, #5
 800238e:	f884 3020 	strb.w	r3, [r4, #32]
 8002392:	2001      	movs	r0, #1
 8002394:	bd38      	pop	{r3, r4, r5, pc}
 8002396:	f7ff ff6f 	bl	8002278 <HAL_GetTick>
 800239a:	1b40      	subs	r0, r0, r5
 800239c:	280a      	cmp	r0, #10
 800239e:	d9a1      	bls.n	80022e4 <HAL_CAN_Init+0x38>
 80023a0:	e7f0      	b.n	8002384 <HAL_CAN_Init+0xd8>
	...

080023a4 <HAL_CAN_ConfigFilter>:
 80023a4:	b530      	push	{r4, r5, lr}
 80023a6:	f890 3020 	ldrb.w	r3, [r0, #32]
 80023aa:	3b01      	subs	r3, #1
 80023ac:	2b01      	cmp	r3, #1
 80023ae:	d877      	bhi.n	80024a0 <HAL_CAN_ConfigFilter+0xfc>
 80023b0:	4b3e      	ldr	r3, [pc, #248]	@ (80024ac <HAL_CAN_ConfigFilter+0x108>)
 80023b2:	f8d3 2200 	ldr.w	r2, [r3, #512]	@ 0x200
 80023b6:	f042 0201 	orr.w	r2, r2, #1
 80023ba:	f8c3 2200 	str.w	r2, [r3, #512]	@ 0x200
 80023be:	f8d3 2200 	ldr.w	r2, [r3, #512]	@ 0x200
 80023c2:	f422 527c 	bic.w	r2, r2, #16128	@ 0x3f00
 80023c6:	f8c3 2200 	str.w	r2, [r3, #512]	@ 0x200
 80023ca:	f8d3 2200 	ldr.w	r2, [r3, #512]	@ 0x200
 80023ce:	6a48      	ldr	r0, [r1, #36]	@ 0x24
 80023d0:	ea42 2200 	orr.w	r2, r2, r0, lsl #8
 80023d4:	f8c3 2200 	str.w	r2, [r3, #512]	@ 0x200
 80023d8:	694a      	ldr	r2, [r1, #20]
 80023da:	f8d3 521c 	ldr.w	r5, [r3, #540]	@ 0x21c
 80023de:	f002 041f 	and.w	r4, r2, #31
 80023e2:	2001      	movs	r0, #1
 80023e4:	40a0      	lsls	r0, r4
 80023e6:	ea25 0500 	bic.w	r5, r5, r0
 80023ea:	f8c3 521c 	str.w	r5, [r3, #540]	@ 0x21c
 80023ee:	69cd      	ldr	r5, [r1, #28]
 80023f0:	43c4      	mvns	r4, r0
 80023f2:	2d00      	cmp	r5, #0
 80023f4:	d135      	bne.n	8002462 <HAL_CAN_ConfigFilter+0xbe>
 80023f6:	f8d3 520c 	ldr.w	r5, [r3, #524]	@ 0x20c
 80023fa:	4025      	ands	r5, r4
 80023fc:	f8c3 520c 	str.w	r5, [r3, #524]	@ 0x20c
 8002400:	68cb      	ldr	r3, [r1, #12]
 8002402:	888d      	ldrh	r5, [r1, #4]
 8002404:	ea45 4503 	orr.w	r5, r5, r3, lsl #16
 8002408:	00d3      	lsls	r3, r2, #3
 800240a:	f103 4380 	add.w	r3, r3, #1073741824	@ 0x40000000
 800240e:	f503 43c8 	add.w	r3, r3, #25600	@ 0x6400
 8002412:	880a      	ldrh	r2, [r1, #0]
 8002414:	f8c3 5240 	str.w	r5, [r3, #576]	@ 0x240
 8002418:	688d      	ldr	r5, [r1, #8]
 800241a:	ea42 4205 	orr.w	r2, r2, r5, lsl #16
 800241e:	f8c3 2244 	str.w	r2, [r3, #580]	@ 0x244
 8002422:	698a      	ldr	r2, [r1, #24]
 8002424:	4b21      	ldr	r3, [pc, #132]	@ (80024ac <HAL_CAN_ConfigFilter+0x108>)
 8002426:	bb8a      	cbnz	r2, 800248c <HAL_CAN_ConfigFilter+0xe8>
 8002428:	f8d3 2204 	ldr.w	r2, [r3, #516]	@ 0x204
 800242c:	4022      	ands	r2, r4
 800242e:	f8c3 2204 	str.w	r2, [r3, #516]	@ 0x204
 8002432:	690a      	ldr	r2, [r1, #16]
 8002434:	bb72      	cbnz	r2, 8002494 <HAL_CAN_ConfigFilter+0xf0>
 8002436:	f8d3 2214 	ldr.w	r2, [r3, #532]	@ 0x214
 800243a:	4014      	ands	r4, r2
 800243c:	f8c3 4214 	str.w	r4, [r3, #532]	@ 0x214
 8002440:	6a0b      	ldr	r3, [r1, #32]
 8002442:	2b01      	cmp	r3, #1
 8002444:	4b19      	ldr	r3, [pc, #100]	@ (80024ac <HAL_CAN_ConfigFilter+0x108>)
 8002446:	bf02      	ittt	eq
 8002448:	f8d3 221c 	ldreq.w	r2, [r3, #540]	@ 0x21c
 800244c:	4302      	orreq	r2, r0
 800244e:	f8c3 221c 	streq.w	r2, [r3, #540]	@ 0x21c
 8002452:	f8d3 2200 	ldr.w	r2, [r3, #512]	@ 0x200
 8002456:	f022 0201 	bic.w	r2, r2, #1
 800245a:	f8c3 2200 	str.w	r2, [r3, #512]	@ 0x200
 800245e:	2000      	movs	r0, #0
 8002460:	bd30      	pop	{r4, r5, pc}
 8002462:	2d01      	cmp	r5, #1
 8002464:	d1dd      	bne.n	8002422 <HAL_CAN_ConfigFilter+0x7e>
 8002466:	f8d3 520c 	ldr.w	r5, [r3, #524]	@ 0x20c
 800246a:	4305      	orrs	r5, r0
 800246c:	f8c3 520c 	str.w	r5, [r3, #524]	@ 0x20c
 8002470:	680b      	ldr	r3, [r1, #0]
 8002472:	888d      	ldrh	r5, [r1, #4]
 8002474:	ea45 4503 	orr.w	r5, r5, r3, lsl #16
 8002478:	00d3      	lsls	r3, r2, #3
 800247a:	f103 4380 	add.w	r3, r3, #1073741824	@ 0x40000000
 800247e:	f503 43c8 	add.w	r3, r3, #25600	@ 0x6400
 8002482:	898a      	ldrh	r2, [r1, #12]
 8002484:	f8c3 5240 	str.w	r5, [r3, #576]	@ 0x240
 8002488:	688d      	ldr	r5, [r1, #8]
 800248a:	e7c6      	b.n	800241a <HAL_CAN_ConfigFilter+0x76>
 800248c:	f8d3 2204 	ldr.w	r2, [r3, #516]	@ 0x204
 8002490:	4302      	orrs	r2, r0
 8002492:	e7cc      	b.n	800242e <HAL_CAN_ConfigFilter+0x8a>
 8002494:	f8d3 2214 	ldr.w	r2, [r3, #532]	@ 0x214
 8002498:	4302      	orrs	r2, r0
 800249a:	f8c3 2214 	str.w	r2, [r3, #532]	@ 0x214
 800249e:	e7cf      	b.n	8002440 <HAL_CAN_ConfigFilter+0x9c>
 80024a0:	6a43      	ldr	r3, [r0, #36]	@ 0x24
 80024a2:	f443 2380 	orr.w	r3, r3, #262144	@ 0x40000
 80024a6:	6243      	str	r3, [r0, #36]	@ 0x24
 80024a8:	2001      	movs	r0, #1
 80024aa:	e7d9      	b.n	8002460 <HAL_CAN_ConfigFilter+0xbc>
 80024ac:	40006400 	.word	0x40006400

080024b0 <HAL_CAN_Start>:
 80024b0:	b538      	push	{r3, r4, r5, lr}
 80024b2:	f890 3020 	ldrb.w	r3, [r0, #32]
 80024b6:	2b01      	cmp	r3, #1
 80024b8:	4604      	mov	r4, r0
 80024ba:	d11f      	bne.n	80024fc <HAL_CAN_Start+0x4c>
 80024bc:	6802      	ldr	r2, [r0, #0]
 80024be:	2302      	movs	r3, #2
 80024c0:	f880 3020 	strb.w	r3, [r0, #32]
 80024c4:	6813      	ldr	r3, [r2, #0]
 80024c6:	f023 0301 	bic.w	r3, r3, #1
 80024ca:	6013      	str	r3, [r2, #0]
 80024cc:	f7ff fed4 	bl	8002278 <HAL_GetTick>
 80024d0:	4605      	mov	r5, r0
 80024d2:	6823      	ldr	r3, [r4, #0]
 80024d4:	6858      	ldr	r0, [r3, #4]
 80024d6:	f010 0001 	ands.w	r0, r0, #1
 80024da:	d101      	bne.n	80024e0 <HAL_CAN_Start+0x30>
 80024dc:	6260      	str	r0, [r4, #36]	@ 0x24
 80024de:	bd38      	pop	{r3, r4, r5, pc}
 80024e0:	f7ff feca 	bl	8002278 <HAL_GetTick>
 80024e4:	1b40      	subs	r0, r0, r5
 80024e6:	280a      	cmp	r0, #10
 80024e8:	d9f3      	bls.n	80024d2 <HAL_CAN_Start+0x22>
 80024ea:	6a63      	ldr	r3, [r4, #36]	@ 0x24
 80024ec:	f443 3300 	orr.w	r3, r3, #131072	@ 0x20000
 80024f0:	6263      	str	r3, [r4, #36]	@ 0x24
 80024f2:	2305      	movs	r3, #5
 80024f4:	f884 3020 	strb.w	r3, [r4, #32]
 80024f8:	2001      	movs	r0, #1
 80024fa:	e7f0      	b.n	80024de <HAL_CAN_Start+0x2e>
 80024fc:	6a43      	ldr	r3, [r0, #36]	@ 0x24
 80024fe:	f443 2300 	orr.w	r3, r3, #524288	@ 0x80000
 8002502:	6243      	str	r3, [r0, #36]	@ 0x24
 8002504:	e7f8      	b.n	80024f8 <HAL_CAN_Start+0x48>

08002506 <HAL_CAN_AddTxMessage>:
 8002506:	b5f0      	push	{r4, r5, r6, r7, lr}
 8002508:	f890 5020 	ldrb.w	r5, [r0, #32]
 800250c:	6804      	ldr	r4, [r0, #0]
 800250e:	3d01      	subs	r5, #1
 8002510:	2d01      	cmp	r5, #1
 8002512:	68a6      	ldr	r6, [r4, #8]
 8002514:	d83e      	bhi.n	8002594 <HAL_CAN_AddTxMessage+0x8e>
 8002516:	f016 5fe0 	tst.w	r6, #469762048	@ 0x1c000000
 800251a:	d035      	beq.n	8002588 <HAL_CAN_AddTxMessage+0x82>
 800251c:	f3c6 6001 	ubfx	r0, r6, #24, #2
 8002520:	2501      	movs	r5, #1
 8002522:	4085      	lsls	r5, r0
 8002524:	601d      	str	r5, [r3, #0]
 8002526:	e9d1 5702 	ldrd	r5, r7, [r1, #8]
 800252a:	f100 0318 	add.w	r3, r0, #24
 800252e:	bb25      	cbnz	r5, 800257a <HAL_CAN_AddTxMessage+0x74>
 8002530:	680d      	ldr	r5, [r1, #0]
 8002532:	011b      	lsls	r3, r3, #4
 8002534:	ea47 5745 	orr.w	r7, r7, r5, lsl #21
 8002538:	50e7      	str	r7, [r4, r3]
 800253a:	eb04 1300 	add.w	r3, r4, r0, lsl #4
 800253e:	690e      	ldr	r6, [r1, #16]
 8002540:	f8c3 6184 	str.w	r6, [r3, #388]	@ 0x184
 8002544:	7d09      	ldrb	r1, [r1, #20]
 8002546:	2901      	cmp	r1, #1
 8002548:	bf08      	it	eq
 800254a:	f8d3 1184 	ldreq.w	r1, [r3, #388]	@ 0x184
 800254e:	ea4f 1500 	mov.w	r5, r0, lsl #4
 8002552:	bf04      	itt	eq
 8002554:	f441 7180 	orreq.w	r1, r1, #256	@ 0x100
 8002558:	f8c3 1184 	streq.w	r1, [r3, #388]	@ 0x184
 800255c:	442c      	add	r4, r5
 800255e:	6851      	ldr	r1, [r2, #4]
 8002560:	f8c4 118c 	str.w	r1, [r4, #396]	@ 0x18c
 8002564:	6812      	ldr	r2, [r2, #0]
 8002566:	f8c4 2188 	str.w	r2, [r4, #392]	@ 0x188
 800256a:	f8d3 2180 	ldr.w	r2, [r3, #384]	@ 0x180
 800256e:	f042 0201 	orr.w	r2, r2, #1
 8002572:	f8c3 2180 	str.w	r2, [r3, #384]	@ 0x180
 8002576:	2000      	movs	r0, #0
 8002578:	bdf0      	pop	{r4, r5, r6, r7, pc}
 800257a:	684e      	ldr	r6, [r1, #4]
 800257c:	433d      	orrs	r5, r7
 800257e:	011b      	lsls	r3, r3, #4
 8002580:	ea45 05c6 	orr.w	r5, r5, r6, lsl #3
 8002584:	50e5      	str	r5, [r4, r3]
 8002586:	e7d8      	b.n	800253a <HAL_CAN_AddTxMessage+0x34>
 8002588:	6a43      	ldr	r3, [r0, #36]	@ 0x24
 800258a:	f443 1300 	orr.w	r3, r3, #2097152	@ 0x200000
 800258e:	6243      	str	r3, [r0, #36]	@ 0x24
 8002590:	2001      	movs	r0, #1
 8002592:	e7f1      	b.n	8002578 <HAL_CAN_AddTxMessage+0x72>
 8002594:	6a43      	ldr	r3, [r0, #36]	@ 0x24
 8002596:	f443 2380 	orr.w	r3, r3, #262144	@ 0x40000
 800259a:	e7f8      	b.n	800258e <HAL_CAN_AddTxMessage+0x88>

0800259c <HAL_CAN_GetRxMessage>:
 800259c:	b5f0      	push	{r4, r5, r6, r7, lr}
 800259e:	f890 4020 	ldrb.w	r4, [r0, #32]
 80025a2:	3c01      	subs	r4, #1
 80025a4:	2c01      	cmp	r4, #1
 80025a6:	d871      	bhi.n	800268c <HAL_CAN_GetRxMessage+0xf0>
 80025a8:	6806      	ldr	r6, [r0, #0]
 80025aa:	b941      	cbnz	r1, 80025be <HAL_CAN_GetRxMessage+0x22>
 80025ac:	68f4      	ldr	r4, [r6, #12]
 80025ae:	07a4      	lsls	r4, r4, #30
 80025b0:	d107      	bne.n	80025c2 <HAL_CAN_GetRxMessage+0x26>
 80025b2:	6a43      	ldr	r3, [r0, #36]	@ 0x24
 80025b4:	f443 1300 	orr.w	r3, r3, #2097152	@ 0x200000
 80025b8:	6243      	str	r3, [r0, #36]	@ 0x24
 80025ba:	2001      	movs	r0, #1
 80025bc:	bdf0      	pop	{r4, r5, r6, r7, pc}
 80025be:	6934      	ldr	r4, [r6, #16]
 80025c0:	e7f5      	b.n	80025ae <HAL_CAN_GetRxMessage+0x12>
 80025c2:	eb06 1501 	add.w	r5, r6, r1, lsl #4
 80025c6:	010c      	lsls	r4, r1, #4
 80025c8:	f8d5 71b0 	ldr.w	r7, [r5, #432]	@ 0x1b0
 80025cc:	f007 0704 	and.w	r7, r7, #4
 80025d0:	6097      	str	r7, [r2, #8]
 80025d2:	2f00      	cmp	r7, #0
 80025d4:	d150      	bne.n	8002678 <HAL_CAN_GetRxMessage+0xdc>
 80025d6:	f8d5 71b0 	ldr.w	r7, [r5, #432]	@ 0x1b0
 80025da:	0d7f      	lsrs	r7, r7, #21
 80025dc:	6017      	str	r7, [r2, #0]
 80025de:	f8d5 71b0 	ldr.w	r7, [r5, #432]	@ 0x1b0
 80025e2:	f007 0702 	and.w	r7, r7, #2
 80025e6:	60d7      	str	r7, [r2, #12]
 80025e8:	f8d5 71b4 	ldr.w	r7, [r5, #436]	@ 0x1b4
 80025ec:	073f      	lsls	r7, r7, #28
 80025ee:	bf56      	itet	pl
 80025f0:	f8d5 71b4 	ldrpl.w	r7, [r5, #436]	@ 0x1b4
 80025f4:	2708      	movmi	r7, #8
 80025f6:	f007 070f 	andpl.w	r7, r7, #15
 80025fa:	6117      	str	r7, [r2, #16]
 80025fc:	f8d5 71b4 	ldr.w	r7, [r5, #436]	@ 0x1b4
 8002600:	f8d5 51b4 	ldr.w	r5, [r5, #436]	@ 0x1b4
 8002604:	4426      	add	r6, r4
 8002606:	f3c7 2707 	ubfx	r7, r7, #8, #8
 800260a:	0c2d      	lsrs	r5, r5, #16
 800260c:	6197      	str	r7, [r2, #24]
 800260e:	6155      	str	r5, [r2, #20]
 8002610:	f8d6 21b8 	ldr.w	r2, [r6, #440]	@ 0x1b8
 8002614:	701a      	strb	r2, [r3, #0]
 8002616:	6802      	ldr	r2, [r0, #0]
 8002618:	4422      	add	r2, r4
 800261a:	f8d2 21b8 	ldr.w	r2, [r2, #440]	@ 0x1b8
 800261e:	0a12      	lsrs	r2, r2, #8
 8002620:	705a      	strb	r2, [r3, #1]
 8002622:	6802      	ldr	r2, [r0, #0]
 8002624:	4422      	add	r2, r4
 8002626:	f8d2 21b8 	ldr.w	r2, [r2, #440]	@ 0x1b8
 800262a:	0c12      	lsrs	r2, r2, #16
 800262c:	709a      	strb	r2, [r3, #2]
 800262e:	6802      	ldr	r2, [r0, #0]
 8002630:	4422      	add	r2, r4
 8002632:	f8d2 21b8 	ldr.w	r2, [r2, #440]	@ 0x1b8
 8002636:	0e12      	lsrs	r2, r2, #24
 8002638:	70da      	strb	r2, [r3, #3]
 800263a:	6802      	ldr	r2, [r0, #0]
 800263c:	4422      	add	r2, r4
 800263e:	f8d2 21bc 	ldr.w	r2, [r2, #444]	@ 0x1bc
 8002642:	711a      	strb	r2, [r3, #4]
 8002644:	6802      	ldr	r2, [r0, #0]
 8002646:	4422      	add	r2, r4
 8002648:	f8d2 21bc 	ldr.w	r2, [r2, #444]	@ 0x1bc
 800264c:	0a12      	lsrs	r2, r2, #8
 800264e:	715a      	strb	r2, [r3, #5]
 8002650:	6802      	ldr	r2, [r0, #0]
 8002652:	4422      	add	r2, r4
 8002654:	f8d2 21bc 	ldr.w	r2, [r2, #444]	@ 0x1bc
 8002658:	0c12      	lsrs	r2, r2, #16
 800265a:	719a      	strb	r2, [r3, #6]
 800265c:	6802      	ldr	r2, [r0, #0]
 800265e:	4422      	add	r2, r4
 8002660:	f8d2 21bc 	ldr.w	r2, [r2, #444]	@ 0x1bc
 8002664:	0e12      	lsrs	r2, r2, #24
 8002666:	71da      	strb	r2, [r3, #7]
 8002668:	6803      	ldr	r3, [r0, #0]
 800266a:	b951      	cbnz	r1, 8002682 <HAL_CAN_GetRxMessage+0xe6>
 800266c:	68da      	ldr	r2, [r3, #12]
 800266e:	f042 0220 	orr.w	r2, r2, #32
 8002672:	60da      	str	r2, [r3, #12]
 8002674:	2000      	movs	r0, #0
 8002676:	e7a1      	b.n	80025bc <HAL_CAN_GetRxMessage+0x20>
 8002678:	f8d5 71b0 	ldr.w	r7, [r5, #432]	@ 0x1b0
 800267c:	08ff      	lsrs	r7, r7, #3
 800267e:	6057      	str	r7, [r2, #4]
 8002680:	e7ad      	b.n	80025de <HAL_CAN_GetRxMessage+0x42>
 8002682:	691a      	ldr	r2, [r3, #16]
 8002684:	f042 0220 	orr.w	r2, r2, #32
 8002688:	611a      	str	r2, [r3, #16]
 800268a:	e7f3      	b.n	8002674 <HAL_CAN_GetRxMessage+0xd8>
 800268c:	6a43      	ldr	r3, [r0, #36]	@ 0x24
 800268e:	f443 2380 	orr.w	r3, r3, #262144	@ 0x40000
 8002692:	e791      	b.n	80025b8 <HAL_CAN_GetRxMessage+0x1c>

08002694 <HAL_CAN_ActivateNotification>:
 8002694:	f890 3020 	ldrb.w	r3, [r0, #32]
 8002698:	3b01      	subs	r3, #1
 800269a:	2b01      	cmp	r3, #1
 800269c:	d805      	bhi.n	80026aa <HAL_CAN_ActivateNotification+0x16>
 800269e:	6802      	ldr	r2, [r0, #0]
 80026a0:	6953      	ldr	r3, [r2, #20]
 80026a2:	4319      	orrs	r1, r3
 80026a4:	6151      	str	r1, [r2, #20]
 80026a6:	2000      	movs	r0, #0
 80026a8:	4770      	bx	lr
 80026aa:	6a43      	ldr	r3, [r0, #36]	@ 0x24
 80026ac:	f443 2380 	orr.w	r3, r3, #262144	@ 0x40000
 80026b0:	6243      	str	r3, [r0, #36]	@ 0x24
 80026b2:	2001      	movs	r0, #1
 80026b4:	4770      	bx	lr

080026b6 <HAL_CAN_TxMailbox0CompleteCallback>:
 80026b6:	4770      	bx	lr

080026b8 <HAL_CAN_TxMailbox1CompleteCallback>:
 80026b8:	4770      	bx	lr

080026ba <HAL_CAN_TxMailbox2CompleteCallback>:
 80026ba:	4770      	bx	lr

080026bc <HAL_CAN_TxMailbox0AbortCallback>:
 80026bc:	4770      	bx	lr

080026be <HAL_CAN_TxMailbox1AbortCallback>:
 80026be:	4770      	bx	lr

080026c0 <HAL_CAN_TxMailbox2AbortCallback>:
 80026c0:	4770      	bx	lr

080026c2 <HAL_CAN_RxFifo0FullCallback>:
 80026c2:	4770      	bx	lr

080026c4 <HAL_CAN_RxFifo1MsgPendingCallback>:
 80026c4:	4770      	bx	lr

080026c6 <HAL_CAN_RxFifo1FullCallback>:
 80026c6:	4770      	bx	lr

080026c8 <HAL_CAN_SleepCallback>:
 80026c8:	4770      	bx	lr

080026ca <HAL_CAN_WakeUpFromRxMsgCallback>:
 80026ca:	4770      	bx	lr

080026cc <HAL_CAN_ErrorCallback>:
 80026cc:	4770      	bx	lr

080026ce <HAL_CAN_IRQHandler>:
 80026ce:	e92d 4ff8 	stmdb	sp!, {r3, r4, r5, r6, r7, r8, r9, sl, fp, lr}
 80026d2:	6803      	ldr	r3, [r0, #0]
 80026d4:	695e      	ldr	r6, [r3, #20]
 80026d6:	f8d3 9004 	ldr.w	r9, [r3, #4]
 80026da:	f8d3 8008 	ldr.w	r8, [r3, #8]
 80026de:	f8d3 b00c 	ldr.w	fp, [r3, #12]
 80026e2:	f8d3 a010 	ldr.w	sl, [r3, #16]
 80026e6:	699f      	ldr	r7, [r3, #24]
 80026e8:	f016 0401 	ands.w	r4, r6, #1
 80026ec:	4605      	mov	r5, r0
 80026ee:	d027      	beq.n	8002740 <HAL_CAN_IRQHandler+0x72>
 80026f0:	f018 0f01 	tst.w	r8, #1
 80026f4:	d007      	beq.n	8002706 <HAL_CAN_IRQHandler+0x38>
 80026f6:	2201      	movs	r2, #1
 80026f8:	f018 0f02 	tst.w	r8, #2
 80026fc:	609a      	str	r2, [r3, #8]
 80026fe:	f000 80a6 	beq.w	800284e <HAL_CAN_IRQHandler+0x180>
 8002702:	f7ff ffd8 	bl	80026b6 <HAL_CAN_TxMailbox0CompleteCallback>
 8002706:	2400      	movs	r4, #0
 8002708:	f418 7f80 	tst.w	r8, #256	@ 0x100
 800270c:	d00a      	beq.n	8002724 <HAL_CAN_IRQHandler+0x56>
 800270e:	682b      	ldr	r3, [r5, #0]
 8002710:	f44f 7280 	mov.w	r2, #256	@ 0x100
 8002714:	f418 7f00 	tst.w	r8, #512	@ 0x200
 8002718:	609a      	str	r2, [r3, #8]
 800271a:	f000 80a7 	beq.w	800286c <HAL_CAN_IRQHandler+0x19e>
 800271e:	4628      	mov	r0, r5
 8002720:	f7ff ffca 	bl	80026b8 <HAL_CAN_TxMailbox1CompleteCallback>
 8002724:	f418 3f80 	tst.w	r8, #65536	@ 0x10000
 8002728:	d00a      	beq.n	8002740 <HAL_CAN_IRQHandler+0x72>
 800272a:	682b      	ldr	r3, [r5, #0]
 800272c:	f44f 3280 	mov.w	r2, #65536	@ 0x10000
 8002730:	f418 3f00 	tst.w	r8, #131072	@ 0x20000
 8002734:	609a      	str	r2, [r3, #8]
 8002736:	f000 80a9 	beq.w	800288c <HAL_CAN_IRQHandler+0x1be>
 800273a:	4628      	mov	r0, r5
 800273c:	f7ff ffbd 	bl	80026ba <HAL_CAN_TxMailbox2CompleteCallback>
 8002740:	0730      	lsls	r0, r6, #28
 8002742:	d507      	bpl.n	8002754 <HAL_CAN_IRQHandler+0x86>
 8002744:	f01b 0f10 	tst.w	fp, #16
 8002748:	bf1f      	itttt	ne
 800274a:	682b      	ldrne	r3, [r5, #0]
 800274c:	2210      	movne	r2, #16
 800274e:	f444 7400 	orrne.w	r4, r4, #512	@ 0x200
 8002752:	60da      	strne	r2, [r3, #12]
 8002754:	0771      	lsls	r1, r6, #29
 8002756:	d508      	bpl.n	800276a <HAL_CAN_IRQHandler+0x9c>
 8002758:	f01b 0f08 	tst.w	fp, #8
 800275c:	d005      	beq.n	800276a <HAL_CAN_IRQHandler+0x9c>
 800275e:	682b      	ldr	r3, [r5, #0]
 8002760:	2208      	movs	r2, #8
 8002762:	60da      	str	r2, [r3, #12]
 8002764:	4628      	mov	r0, r5
 8002766:	f7ff ffac 	bl	80026c2 <HAL_CAN_RxFifo0FullCallback>
 800276a:	07b2      	lsls	r2, r6, #30
 800276c:	d506      	bpl.n	800277c <HAL_CAN_IRQHandler+0xae>
 800276e:	682b      	ldr	r3, [r5, #0]
 8002770:	68db      	ldr	r3, [r3, #12]
 8002772:	079b      	lsls	r3, r3, #30
 8002774:	d002      	beq.n	800277c <HAL_CAN_IRQHandler+0xae>
 8002776:	4628      	mov	r0, r5
 8002778:	f7ff fc7c 	bl	8002074 <HAL_CAN_RxFifo0MsgPendingCallback>
 800277c:	0670      	lsls	r0, r6, #25
 800277e:	d507      	bpl.n	8002790 <HAL_CAN_IRQHandler+0xc2>
 8002780:	f01a 0f10 	tst.w	sl, #16
 8002784:	bf1f      	itttt	ne
 8002786:	682b      	ldrne	r3, [r5, #0]
 8002788:	2210      	movne	r2, #16
 800278a:	f444 6480 	orrne.w	r4, r4, #1024	@ 0x400
 800278e:	611a      	strne	r2, [r3, #16]
 8002790:	06b1      	lsls	r1, r6, #26
 8002792:	d508      	bpl.n	80027a6 <HAL_CAN_IRQHandler+0xd8>
 8002794:	f01a 0f08 	tst.w	sl, #8
 8002798:	d005      	beq.n	80027a6 <HAL_CAN_IRQHandler+0xd8>
 800279a:	682b      	ldr	r3, [r5, #0]
 800279c:	2208      	movs	r2, #8
 800279e:	611a      	str	r2, [r3, #16]
 80027a0:	4628      	mov	r0, r5
 80027a2:	f7ff ff90 	bl	80026c6 <HAL_CAN_RxFifo1FullCallback>
 80027a6:	06f2      	lsls	r2, r6, #27
 80027a8:	d506      	bpl.n	80027b8 <HAL_CAN_IRQHandler+0xea>
 80027aa:	682b      	ldr	r3, [r5, #0]
 80027ac:	691b      	ldr	r3, [r3, #16]
 80027ae:	079b      	lsls	r3, r3, #30
 80027b0:	d002      	beq.n	80027b8 <HAL_CAN_IRQHandler+0xea>
 80027b2:	4628      	mov	r0, r5
 80027b4:	f7ff ff86 	bl	80026c4 <HAL_CAN_RxFifo1MsgPendingCallback>
 80027b8:	03b0      	lsls	r0, r6, #14
 80027ba:	d508      	bpl.n	80027ce <HAL_CAN_IRQHandler+0x100>
 80027bc:	f019 0f10 	tst.w	r9, #16
 80027c0:	d005      	beq.n	80027ce <HAL_CAN_IRQHandler+0x100>
 80027c2:	682b      	ldr	r3, [r5, #0]
 80027c4:	2210      	movs	r2, #16
 80027c6:	605a      	str	r2, [r3, #4]
 80027c8:	4628      	mov	r0, r5
 80027ca:	f7ff ff7d 	bl	80026c8 <HAL_CAN_SleepCallback>
 80027ce:	03f1      	lsls	r1, r6, #15
 80027d0:	d508      	bpl.n	80027e4 <HAL_CAN_IRQHandler+0x116>
 80027d2:	f019 0f08 	tst.w	r9, #8
 80027d6:	d005      	beq.n	80027e4 <HAL_CAN_IRQHandler+0x116>
 80027d8:	682b      	ldr	r3, [r5, #0]
 80027da:	2208      	movs	r2, #8
 80027dc:	605a      	str	r2, [r3, #4]
 80027de:	4628      	mov	r0, r5
 80027e0:	f7ff ff73 	bl	80026ca <HAL_CAN_WakeUpFromRxMsgCallback>
 80027e4:	0432      	lsls	r2, r6, #16
 80027e6:	d529      	bpl.n	800283c <HAL_CAN_IRQHandler+0x16e>
 80027e8:	f019 0f04 	tst.w	r9, #4
 80027ec:	682a      	ldr	r2, [r5, #0]
 80027ee:	d023      	beq.n	8002838 <HAL_CAN_IRQHandler+0x16a>
 80027f0:	05f3      	lsls	r3, r6, #23
 80027f2:	d503      	bpl.n	80027fc <HAL_CAN_IRQHandler+0x12e>
 80027f4:	07f8      	lsls	r0, r7, #31
 80027f6:	bf48      	it	mi
 80027f8:	f044 0401 	orrmi.w	r4, r4, #1
 80027fc:	05b1      	lsls	r1, r6, #22
 80027fe:	d503      	bpl.n	8002808 <HAL_CAN_IRQHandler+0x13a>
 8002800:	07bb      	lsls	r3, r7, #30
 8002802:	bf48      	it	mi
 8002804:	f044 0402 	orrmi.w	r4, r4, #2
 8002808:	0570      	lsls	r0, r6, #21
 800280a:	d503      	bpl.n	8002814 <HAL_CAN_IRQHandler+0x146>
 800280c:	0779      	lsls	r1, r7, #29
 800280e:	bf48      	it	mi
 8002810:	f044 0404 	orrmi.w	r4, r4, #4
 8002814:	0533      	lsls	r3, r6, #20
 8002816:	d50f      	bpl.n	8002838 <HAL_CAN_IRQHandler+0x16a>
 8002818:	f017 0370 	ands.w	r3, r7, #112	@ 0x70
 800281c:	d00c      	beq.n	8002838 <HAL_CAN_IRQHandler+0x16a>
 800281e:	2b40      	cmp	r3, #64	@ 0x40
 8002820:	d054      	beq.n	80028cc <HAL_CAN_IRQHandler+0x1fe>
 8002822:	d843      	bhi.n	80028ac <HAL_CAN_IRQHandler+0x1de>
 8002824:	2b20      	cmp	r3, #32
 8002826:	d04b      	beq.n	80028c0 <HAL_CAN_IRQHandler+0x1f2>
 8002828:	2b30      	cmp	r3, #48	@ 0x30
 800282a:	d04c      	beq.n	80028c6 <HAL_CAN_IRQHandler+0x1f8>
 800282c:	2b10      	cmp	r3, #16
 800282e:	d044      	beq.n	80028ba <HAL_CAN_IRQHandler+0x1ec>
 8002830:	6993      	ldr	r3, [r2, #24]
 8002832:	f023 0370 	bic.w	r3, r3, #112	@ 0x70
 8002836:	6193      	str	r3, [r2, #24]
 8002838:	2304      	movs	r3, #4
 800283a:	6053      	str	r3, [r2, #4]
 800283c:	b12c      	cbz	r4, 800284a <HAL_CAN_IRQHandler+0x17c>
 800283e:	6a6b      	ldr	r3, [r5, #36]	@ 0x24
 8002840:	4323      	orrs	r3, r4
 8002842:	626b      	str	r3, [r5, #36]	@ 0x24
 8002844:	4628      	mov	r0, r5
 8002846:	f7ff ff41 	bl	80026cc <HAL_CAN_ErrorCallback>
 800284a:	e8bd 8ff8 	ldmia.w	sp!, {r3, r4, r5, r6, r7, r8, r9, sl, fp, pc}
 800284e:	f018 0f04 	tst.w	r8, #4
 8002852:	d105      	bne.n	8002860 <HAL_CAN_IRQHandler+0x192>
 8002854:	f018 0f08 	tst.w	r8, #8
 8002858:	d105      	bne.n	8002866 <HAL_CAN_IRQHandler+0x198>
 800285a:	f7ff ff2f 	bl	80026bc <HAL_CAN_TxMailbox0AbortCallback>
 800285e:	e752      	b.n	8002706 <HAL_CAN_IRQHandler+0x38>
 8002860:	f44f 6400 	mov.w	r4, #2048	@ 0x800
 8002864:	e750      	b.n	8002708 <HAL_CAN_IRQHandler+0x3a>
 8002866:	f44f 5480 	mov.w	r4, #4096	@ 0x1000
 800286a:	e74d      	b.n	8002708 <HAL_CAN_IRQHandler+0x3a>
 800286c:	f418 6f80 	tst.w	r8, #1024	@ 0x400
 8002870:	d002      	beq.n	8002878 <HAL_CAN_IRQHandler+0x1aa>
 8002872:	f444 5400 	orr.w	r4, r4, #8192	@ 0x2000
 8002876:	e755      	b.n	8002724 <HAL_CAN_IRQHandler+0x56>
 8002878:	f418 6f00 	tst.w	r8, #2048	@ 0x800
 800287c:	d002      	beq.n	8002884 <HAL_CAN_IRQHandler+0x1b6>
 800287e:	f444 4480 	orr.w	r4, r4, #16384	@ 0x4000
 8002882:	e74f      	b.n	8002724 <HAL_CAN_IRQHandler+0x56>
 8002884:	4628      	mov	r0, r5
 8002886:	f7ff ff1a 	bl	80026be <HAL_CAN_TxMailbox1AbortCallback>
 800288a:	e74b      	b.n	8002724 <HAL_CAN_IRQHandler+0x56>
 800288c:	f418 2f80 	tst.w	r8, #262144	@ 0x40000
 8002890:	d002      	beq.n	8002898 <HAL_CAN_IRQHandler+0x1ca>
 8002892:	f444 4400 	orr.w	r4, r4, #32768	@ 0x8000
 8002896:	e753      	b.n	8002740 <HAL_CAN_IRQHandler+0x72>
 8002898:	f418 2f00 	tst.w	r8, #524288	@ 0x80000
 800289c:	d002      	beq.n	80028a4 <HAL_CAN_IRQHandler+0x1d6>
 800289e:	f444 3480 	orr.w	r4, r4, #65536	@ 0x10000
 80028a2:	e74d      	b.n	8002740 <HAL_CAN_IRQHandler+0x72>
 80028a4:	4628      	mov	r0, r5
 80028a6:	f7ff ff0b 	bl	80026c0 <HAL_CAN_TxMailbox2AbortCallback>
 80028aa:	e749      	b.n	8002740 <HAL_CAN_IRQHandler+0x72>
 80028ac:	2b50      	cmp	r3, #80	@ 0x50
 80028ae:	d010      	beq.n	80028d2 <HAL_CAN_IRQHandler+0x204>
 80028b0:	2b60      	cmp	r3, #96	@ 0x60
 80028b2:	d1bd      	bne.n	8002830 <HAL_CAN_IRQHandler+0x162>
 80028b4:	f444 7480 	orr.w	r4, r4, #256	@ 0x100
 80028b8:	e7ba      	b.n	8002830 <HAL_CAN_IRQHandler+0x162>
 80028ba:	f044 0408 	orr.w	r4, r4, #8
 80028be:	e7b7      	b.n	8002830 <HAL_CAN_IRQHandler+0x162>
 80028c0:	f044 0410 	orr.w	r4, r4, #16
 80028c4:	e7b4      	b.n	8002830 <HAL_CAN_IRQHandler+0x162>
 80028c6:	f044 0420 	orr.w	r4, r4, #32
 80028ca:	e7b1      	b.n	8002830 <HAL_CAN_IRQHandler+0x162>
 80028cc:	f044 0440 	orr.w	r4, r4, #64	@ 0x40
 80028d0:	e7ae      	b.n	8002830 <HAL_CAN_IRQHandler+0x162>
 80028d2:	f044 0480 	orr.w	r4, r4, #128	@ 0x80
 80028d6:	e7ab      	b.n	8002830 <HAL_CAN_IRQHandler+0x162>

080028d8 <HAL_NVIC_SetPriorityGrouping>:
 80028d8:	4907      	ldr	r1, [pc, #28]	@ (80028f8 <HAL_NVIC_SetPriorityGrouping+0x20>)
 80028da:	68ca      	ldr	r2, [r1, #12]
 80028dc:	f422 62e0 	bic.w	r2, r2, #1792	@ 0x700
 80028e0:	0203      	lsls	r3, r0, #8
 80028e2:	0412      	lsls	r2, r2, #16
 80028e4:	f403 63e0 	and.w	r3, r3, #1792	@ 0x700
 80028e8:	0c12      	lsrs	r2, r2, #16
 80028ea:	4313      	orrs	r3, r2
 80028ec:	f043 63bf 	orr.w	r3, r3, #100139008	@ 0x5f80000
 80028f0:	f443 3300 	orr.w	r3, r3, #131072	@ 0x20000
 80028f4:	60cb      	str	r3, [r1, #12]
 80028f6:	4770      	bx	lr
 80028f8:	e000ed00 	.word	0xe000ed00

080028fc <HAL_NVIC_SetPriority>:
 80028fc:	4b16      	ldr	r3, [pc, #88]	@ (8002958 <HAL_NVIC_SetPriority+0x5c>)
 80028fe:	b530      	push	{r4, r5, lr}
 8002900:	68dc      	ldr	r4, [r3, #12]
 8002902:	f3c4 2402 	ubfx	r4, r4, #8, #3
 8002906:	f1c4 0307 	rsb	r3, r4, #7
 800290a:	1d25      	adds	r5, r4, #4
 800290c:	2b04      	cmp	r3, #4
 800290e:	bf28      	it	cs
 8002910:	2304      	movcs	r3, #4
 8002912:	2d06      	cmp	r5, #6
 8002914:	f04f 35ff 	mov.w	r5, #4294967295	@ 0xffffffff
 8002918:	bf8c      	ite	hi
 800291a:	3c03      	subhi	r4, #3
 800291c:	2400      	movls	r4, #0
 800291e:	fa05 f303 	lsl.w	r3, r5, r3
 8002922:	ea21 0303 	bic.w	r3, r1, r3
 8002926:	40a5      	lsls	r5, r4
 8002928:	ea22 0205 	bic.w	r2, r2, r5
 800292c:	40a3      	lsls	r3, r4
 800292e:	2800      	cmp	r0, #0
 8002930:	ea43 0302 	orr.w	r3, r3, r2
 8002934:	bfac      	ite	ge
 8002936:	f100 4060 	addge.w	r0, r0, #3758096384	@ 0xe0000000
 800293a:	4a08      	ldrlt	r2, [pc, #32]	@ (800295c <HAL_NVIC_SetPriority+0x60>)
 800293c:	ea4f 1303 	mov.w	r3, r3, lsl #4
 8002940:	bfb8      	it	lt
 8002942:	f000 000f 	andlt.w	r0, r0, #15
 8002946:	b2db      	uxtb	r3, r3
 8002948:	bfaa      	itet	ge
 800294a:	f500 4061 	addge.w	r0, r0, #57600	@ 0xe100
 800294e:	5413      	strblt	r3, [r2, r0]
 8002950:	f880 3300 	strbge.w	r3, [r0, #768]	@ 0x300
 8002954:	bd30      	pop	{r4, r5, pc}
 8002956:	bf00      	nop
 8002958:	e000ed00 	.word	0xe000ed00
 800295c:	e000ed14 	.word	0xe000ed14

08002960 <HAL_NVIC_EnableIRQ>:
 8002960:	2800      	cmp	r0, #0
 8002962:	db07      	blt.n	8002974 <HAL_NVIC_EnableIRQ+0x14>
 8002964:	4a04      	ldr	r2, [pc, #16]	@ (8002978 <HAL_NVIC_EnableIRQ+0x18>)
 8002966:	0941      	lsrs	r1, r0, #5
 8002968:	2301      	movs	r3, #1
 800296a:	f000 001f 	and.w	r0, r0, #31
 800296e:	4083      	lsls	r3, r0
 8002970:	f842 3021 	str.w	r3, [r2, r1, lsl #2]
 8002974:	4770      	bx	lr
 8002976:	bf00      	nop
 8002978:	e000e100 	.word	0xe000e100

0800297c <HAL_SYSTICK_Config>:
 800297c:	3801      	subs	r0, #1
 800297e:	f1b0 7f80 	cmp.w	r0, #16777216	@ 0x1000000
 8002982:	d20b      	bcs.n	800299c <HAL_SYSTICK_Config+0x20>
 8002984:	f04f 23e0 	mov.w	r3, #3758153728	@ 0xe000e000
 8002988:	4a05      	ldr	r2, [pc, #20]	@ (80029a0 <HAL_SYSTICK_Config+0x24>)
 800298a:	6158      	str	r0, [r3, #20]
 800298c:	21f0      	movs	r1, #240	@ 0xf0
 800298e:	f882 1023 	strb.w	r1, [r2, #35]	@ 0x23
 8002992:	2000      	movs	r0, #0
 8002994:	2207      	movs	r2, #7
 8002996:	6198      	str	r0, [r3, #24]
 8002998:	611a      	str	r2, [r3, #16]
 800299a:	4770      	bx	lr
 800299c:	2001      	movs	r0, #1
 800299e:	4770      	bx	lr
 80029a0:	e000ed00 	.word	0xe000ed00

080029a4 <DMA_CalcBaseAndBitshift>:
 80029a4:	6803      	ldr	r3, [r0, #0]
 80029a6:	b510      	push	{r4, lr}
 80029a8:	4c08      	ldr	r4, [pc, #32]	@ (80029cc <DMA_CalcBaseAndBitshift+0x28>)
 80029aa:	4602      	mov	r2, r0
 80029ac:	b2d9      	uxtb	r1, r3
 80029ae:	3910      	subs	r1, #16
 80029b0:	2018      	movs	r0, #24
 80029b2:	fbb1 f0f0 	udiv	r0, r1, r0
 80029b6:	5c20      	ldrb	r0, [r4, r0]
 80029b8:	65d0      	str	r0, [r2, #92]	@ 0x5c
 80029ba:	f423 707f 	bic.w	r0, r3, #1020	@ 0x3fc
 80029be:	f020 0003 	bic.w	r0, r0, #3
 80029c2:	295f      	cmp	r1, #95	@ 0x5f
 80029c4:	bf88      	it	hi
 80029c6:	3004      	addhi	r0, #4
 80029c8:	6590      	str	r0, [r2, #88]	@ 0x58
 80029ca:	bd10      	pop	{r4, pc}
 80029cc:	080055cf 	.word	0x080055cf

080029d0 <HAL_DMA_Init>:
 80029d0:	b570      	push	{r4, r5, r6, lr}
 80029d2:	4604      	mov	r4, r0
 80029d4:	f7ff fc50 	bl	8002278 <HAL_GetTick>
 80029d8:	4605      	mov	r5, r0
 80029da:	2c00      	cmp	r4, #0
 80029dc:	d060      	beq.n	8002aa0 <HAL_DMA_Init+0xd0>
 80029de:	2302      	movs	r3, #2
 80029e0:	f884 3035 	strb.w	r3, [r4, #53]	@ 0x35
 80029e4:	6822      	ldr	r2, [r4, #0]
 80029e6:	2300      	movs	r3, #0
 80029e8:	f884 3034 	strb.w	r3, [r4, #52]	@ 0x34
 80029ec:	6813      	ldr	r3, [r2, #0]
 80029ee:	f023 0301 	bic.w	r3, r3, #1
 80029f2:	6013      	str	r3, [r2, #0]
 80029f4:	6822      	ldr	r2, [r4, #0]
 80029f6:	6813      	ldr	r3, [r2, #0]
 80029f8:	07d8      	lsls	r0, r3, #31
 80029fa:	d42e      	bmi.n	8002a5a <HAL_DMA_Init+0x8a>
 80029fc:	6813      	ldr	r3, [r2, #0]
 80029fe:	4832      	ldr	r0, [pc, #200]	@ (8002ac8 <HAL_DMA_Init+0xf8>)
 8002a00:	69a1      	ldr	r1, [r4, #24]
 8002a02:	4018      	ands	r0, r3
 8002a04:	e9d4 3501 	ldrd	r3, r5, [r4, #4]
 8002a08:	432b      	orrs	r3, r5
 8002a0a:	68e5      	ldr	r5, [r4, #12]
 8002a0c:	432b      	orrs	r3, r5
 8002a0e:	6925      	ldr	r5, [r4, #16]
 8002a10:	432b      	orrs	r3, r5
 8002a12:	6965      	ldr	r5, [r4, #20]
 8002a14:	432b      	orrs	r3, r5
 8002a16:	69e5      	ldr	r5, [r4, #28]
 8002a18:	430b      	orrs	r3, r1
 8002a1a:	432b      	orrs	r3, r5
 8002a1c:	6a25      	ldr	r5, [r4, #32]
 8002a1e:	432b      	orrs	r3, r5
 8002a20:	4303      	orrs	r3, r0
 8002a22:	6a60      	ldr	r0, [r4, #36]	@ 0x24
 8002a24:	2804      	cmp	r0, #4
 8002a26:	bf02      	ittt	eq
 8002a28:	e9d4 560b 	ldrdeq	r5, r6, [r4, #44]	@ 0x2c
 8002a2c:	4335      	orreq	r5, r6
 8002a2e:	432b      	orreq	r3, r5
 8002a30:	6013      	str	r3, [r2, #0]
 8002a32:	6953      	ldr	r3, [r2, #20]
 8002a34:	2804      	cmp	r0, #4
 8002a36:	f023 0307 	bic.w	r3, r3, #7
 8002a3a:	ea43 0300 	orr.w	r3, r3, r0
 8002a3e:	d135      	bne.n	8002aac <HAL_DMA_Init+0xdc>
 8002a40:	6aa0      	ldr	r0, [r4, #40]	@ 0x28
 8002a42:	6ae5      	ldr	r5, [r4, #44]	@ 0x2c
 8002a44:	4303      	orrs	r3, r0
 8002a46:	b38d      	cbz	r5, 8002aac <HAL_DMA_Init+0xdc>
 8002a48:	b991      	cbnz	r1, 8002a70 <HAL_DMA_Init+0xa0>
 8002a4a:	2801      	cmp	r0, #1
 8002a4c:	d020      	beq.n	8002a90 <HAL_DMA_Init+0xc0>
 8002a4e:	f030 0102 	bics.w	r1, r0, #2
 8002a52:	d12b      	bne.n	8002aac <HAL_DMA_Init+0xdc>
 8002a54:	01e9      	lsls	r1, r5, #7
 8002a56:	d529      	bpl.n	8002aac <HAL_DMA_Init+0xdc>
 8002a58:	e01d      	b.n	8002a96 <HAL_DMA_Init+0xc6>
 8002a5a:	f7ff fc0d 	bl	8002278 <HAL_GetTick>
 8002a5e:	1b40      	subs	r0, r0, r5
 8002a60:	2805      	cmp	r0, #5
 8002a62:	d9c7      	bls.n	80029f4 <HAL_DMA_Init+0x24>
 8002a64:	2320      	movs	r3, #32
 8002a66:	2003      	movs	r0, #3
 8002a68:	6563      	str	r3, [r4, #84]	@ 0x54
 8002a6a:	f884 0035 	strb.w	r0, [r4, #53]	@ 0x35
 8002a6e:	bd70      	pop	{r4, r5, r6, pc}
 8002a70:	f5b1 5f00 	cmp.w	r1, #8192	@ 0x2000
 8002a74:	d116      	bne.n	8002aa4 <HAL_DMA_Init+0xd4>
 8002a76:	2803      	cmp	r0, #3
 8002a78:	d818      	bhi.n	8002aac <HAL_DMA_Init+0xdc>
 8002a7a:	a101      	add	r1, pc, #4	@ (adr r1, 8002a80 <HAL_DMA_Init+0xb0>)
 8002a7c:	f851 f020 	ldr.w	pc, [r1, r0, lsl #2]
 8002a80:	08002a97 	.word	0x08002a97
 8002a84:	08002a55 	.word	0x08002a55
 8002a88:	08002a97 	.word	0x08002a97
 8002a8c:	08002a91 	.word	0x08002a91
 8002a90:	f1b5 7fc0 	cmp.w	r5, #25165824	@ 0x1800000
 8002a94:	d10a      	bne.n	8002aac <HAL_DMA_Init+0xdc>
 8002a96:	2340      	movs	r3, #64	@ 0x40
 8002a98:	6563      	str	r3, [r4, #84]	@ 0x54
 8002a9a:	2301      	movs	r3, #1
 8002a9c:	f884 3035 	strb.w	r3, [r4, #53]	@ 0x35
 8002aa0:	2001      	movs	r0, #1
 8002aa2:	e7e4      	b.n	8002a6e <HAL_DMA_Init+0x9e>
 8002aa4:	2802      	cmp	r0, #2
 8002aa6:	d9f6      	bls.n	8002a96 <HAL_DMA_Init+0xc6>
 8002aa8:	2803      	cmp	r0, #3
 8002aaa:	d0d3      	beq.n	8002a54 <HAL_DMA_Init+0x84>
 8002aac:	6153      	str	r3, [r2, #20]
 8002aae:	4620      	mov	r0, r4
 8002ab0:	f7ff ff78 	bl	80029a4 <DMA_CalcBaseAndBitshift>
 8002ab4:	6de2      	ldr	r2, [r4, #92]	@ 0x5c
 8002ab6:	233f      	movs	r3, #63	@ 0x3f
 8002ab8:	4093      	lsls	r3, r2
 8002aba:	6083      	str	r3, [r0, #8]
 8002abc:	2000      	movs	r0, #0
 8002abe:	2301      	movs	r3, #1
 8002ac0:	6560      	str	r0, [r4, #84]	@ 0x54
 8002ac2:	f884 3035 	strb.w	r3, [r4, #53]	@ 0x35
 8002ac6:	e7d2      	b.n	8002a6e <HAL_DMA_Init+0x9e>
 8002ac8:	f010803f 	.word	0xf010803f

08002acc <HAL_DMA_Start_IT>:
 8002acc:	b570      	push	{r4, r5, r6, lr}
 8002ace:	f890 4034 	ldrb.w	r4, [r0, #52]	@ 0x34
 8002ad2:	6d86      	ldr	r6, [r0, #88]	@ 0x58
 8002ad4:	2c01      	cmp	r4, #1
 8002ad6:	d030      	beq.n	8002b3a <HAL_DMA_Start_IT+0x6e>
 8002ad8:	2401      	movs	r4, #1
 8002ada:	f880 4034 	strb.w	r4, [r0, #52]	@ 0x34
 8002ade:	f890 4035 	ldrb.w	r4, [r0, #53]	@ 0x35
 8002ae2:	2c01      	cmp	r4, #1
 8002ae4:	f04f 0400 	mov.w	r4, #0
 8002ae8:	d125      	bne.n	8002b36 <HAL_DMA_Start_IT+0x6a>
 8002aea:	2502      	movs	r5, #2
 8002aec:	f880 5035 	strb.w	r5, [r0, #53]	@ 0x35
 8002af0:	6544      	str	r4, [r0, #84]	@ 0x54
 8002af2:	6804      	ldr	r4, [r0, #0]
 8002af4:	6825      	ldr	r5, [r4, #0]
 8002af6:	f425 2580 	bic.w	r5, r5, #262144	@ 0x40000
 8002afa:	6025      	str	r5, [r4, #0]
 8002afc:	6063      	str	r3, [r4, #4]
 8002afe:	6883      	ldr	r3, [r0, #8]
 8002b00:	2b40      	cmp	r3, #64	@ 0x40
 8002b02:	bf0e      	itee	eq
 8002b04:	60a2      	streq	r2, [r4, #8]
 8002b06:	60a1      	strne	r1, [r4, #8]
 8002b08:	60e2      	strne	r2, [r4, #12]
 8002b0a:	6dc2      	ldr	r2, [r0, #92]	@ 0x5c
 8002b0c:	bf08      	it	eq
 8002b0e:	60e1      	streq	r1, [r4, #12]
 8002b10:	233f      	movs	r3, #63	@ 0x3f
 8002b12:	4093      	lsls	r3, r2
 8002b14:	60b3      	str	r3, [r6, #8]
 8002b16:	6823      	ldr	r3, [r4, #0]
 8002b18:	f043 0316 	orr.w	r3, r3, #22
 8002b1c:	6023      	str	r3, [r4, #0]
 8002b1e:	6c03      	ldr	r3, [r0, #64]	@ 0x40
 8002b20:	b11b      	cbz	r3, 8002b2a <HAL_DMA_Start_IT+0x5e>
 8002b22:	6823      	ldr	r3, [r4, #0]
 8002b24:	f043 0308 	orr.w	r3, r3, #8
 8002b28:	6023      	str	r3, [r4, #0]
 8002b2a:	6823      	ldr	r3, [r4, #0]
 8002b2c:	f043 0301 	orr.w	r3, r3, #1
 8002b30:	6023      	str	r3, [r4, #0]
 8002b32:	2000      	movs	r0, #0
 8002b34:	bd70      	pop	{r4, r5, r6, pc}
 8002b36:	f880 4034 	strb.w	r4, [r0, #52]	@ 0x34
 8002b3a:	2002      	movs	r0, #2
 8002b3c:	e7fa      	b.n	8002b34 <HAL_DMA_Start_IT+0x68>

08002b3e <HAL_DMA_Abort>:
 8002b3e:	b570      	push	{r4, r5, r6, lr}
 8002b40:	4604      	mov	r4, r0
 8002b42:	6d86      	ldr	r6, [r0, #88]	@ 0x58
 8002b44:	f7ff fb98 	bl	8002278 <HAL_GetTick>
 8002b48:	f894 3035 	ldrb.w	r3, [r4, #53]	@ 0x35
 8002b4c:	2b02      	cmp	r3, #2
 8002b4e:	4605      	mov	r5, r0
 8002b50:	d006      	beq.n	8002b60 <HAL_DMA_Abort+0x22>
 8002b52:	2380      	movs	r3, #128	@ 0x80
 8002b54:	6563      	str	r3, [r4, #84]	@ 0x54
 8002b56:	2001      	movs	r0, #1
 8002b58:	2300      	movs	r3, #0
 8002b5a:	f884 3034 	strb.w	r3, [r4, #52]	@ 0x34
 8002b5e:	bd70      	pop	{r4, r5, r6, pc}
 8002b60:	6823      	ldr	r3, [r4, #0]
 8002b62:	681a      	ldr	r2, [r3, #0]
 8002b64:	f022 0216 	bic.w	r2, r2, #22
 8002b68:	601a      	str	r2, [r3, #0]
 8002b6a:	695a      	ldr	r2, [r3, #20]
 8002b6c:	f022 0280 	bic.w	r2, r2, #128	@ 0x80
 8002b70:	615a      	str	r2, [r3, #20]
 8002b72:	6c22      	ldr	r2, [r4, #64]	@ 0x40
 8002b74:	b90a      	cbnz	r2, 8002b7a <HAL_DMA_Abort+0x3c>
 8002b76:	6ca2      	ldr	r2, [r4, #72]	@ 0x48
 8002b78:	b11a      	cbz	r2, 8002b82 <HAL_DMA_Abort+0x44>
 8002b7a:	681a      	ldr	r2, [r3, #0]
 8002b7c:	f022 0208 	bic.w	r2, r2, #8
 8002b80:	601a      	str	r2, [r3, #0]
 8002b82:	681a      	ldr	r2, [r3, #0]
 8002b84:	f022 0201 	bic.w	r2, r2, #1
 8002b88:	601a      	str	r2, [r3, #0]
 8002b8a:	6823      	ldr	r3, [r4, #0]
 8002b8c:	6818      	ldr	r0, [r3, #0]
 8002b8e:	f010 0001 	ands.w	r0, r0, #1
 8002b92:	d107      	bne.n	8002ba4 <HAL_DMA_Abort+0x66>
 8002b94:	6de2      	ldr	r2, [r4, #92]	@ 0x5c
 8002b96:	233f      	movs	r3, #63	@ 0x3f
 8002b98:	4093      	lsls	r3, r2
 8002b9a:	60b3      	str	r3, [r6, #8]
 8002b9c:	2301      	movs	r3, #1
 8002b9e:	f884 3035 	strb.w	r3, [r4, #53]	@ 0x35
 8002ba2:	e7d9      	b.n	8002b58 <HAL_DMA_Abort+0x1a>
 8002ba4:	f7ff fb68 	bl	8002278 <HAL_GetTick>
 8002ba8:	1b40      	subs	r0, r0, r5
 8002baa:	2805      	cmp	r0, #5
 8002bac:	d9ed      	bls.n	8002b8a <HAL_DMA_Abort+0x4c>
 8002bae:	2320      	movs	r3, #32
 8002bb0:	2003      	movs	r0, #3
 8002bb2:	6563      	str	r3, [r4, #84]	@ 0x54
 8002bb4:	f884 0035 	strb.w	r0, [r4, #53]	@ 0x35
 8002bb8:	e7ce      	b.n	8002b58 <HAL_DMA_Abort+0x1a>

08002bba <HAL_DMA_Abort_IT>:
 8002bba:	f890 3035 	ldrb.w	r3, [r0, #53]	@ 0x35
 8002bbe:	2b02      	cmp	r3, #2
 8002bc0:	d003      	beq.n	8002bca <HAL_DMA_Abort_IT+0x10>
 8002bc2:	2380      	movs	r3, #128	@ 0x80
 8002bc4:	6543      	str	r3, [r0, #84]	@ 0x54
 8002bc6:	2001      	movs	r0, #1
 8002bc8:	4770      	bx	lr
 8002bca:	6802      	ldr	r2, [r0, #0]
 8002bcc:	2305      	movs	r3, #5
 8002bce:	f880 3035 	strb.w	r3, [r0, #53]	@ 0x35
 8002bd2:	6813      	ldr	r3, [r2, #0]
 8002bd4:	f023 0301 	bic.w	r3, r3, #1
 8002bd8:	6013      	str	r3, [r2, #0]
 8002bda:	2000      	movs	r0, #0
 8002bdc:	4770      	bx	lr
	...

08002be0 <HAL_DMA_IRQHandler>:
 8002be0:	b5f7      	push	{r0, r1, r2, r4, r5, r6, r7, lr}
 8002be2:	2300      	movs	r3, #0
 8002be4:	9301      	str	r3, [sp, #4]
 8002be6:	4b5c      	ldr	r3, [pc, #368]	@ (8002d58 <HAL_DMA_IRQHandler+0x178>)
 8002be8:	6d85      	ldr	r5, [r0, #88]	@ 0x58
 8002bea:	681f      	ldr	r7, [r3, #0]
 8002bec:	6dc3      	ldr	r3, [r0, #92]	@ 0x5c
 8002bee:	682e      	ldr	r6, [r5, #0]
 8002bf0:	2208      	movs	r2, #8
 8002bf2:	409a      	lsls	r2, r3
 8002bf4:	4232      	tst	r2, r6
 8002bf6:	4604      	mov	r4, r0
 8002bf8:	d00c      	beq.n	8002c14 <HAL_DMA_IRQHandler+0x34>
 8002bfa:	6801      	ldr	r1, [r0, #0]
 8002bfc:	6808      	ldr	r0, [r1, #0]
 8002bfe:	0740      	lsls	r0, r0, #29
 8002c00:	d508      	bpl.n	8002c14 <HAL_DMA_IRQHandler+0x34>
 8002c02:	6808      	ldr	r0, [r1, #0]
 8002c04:	f020 0004 	bic.w	r0, r0, #4
 8002c08:	6008      	str	r0, [r1, #0]
 8002c0a:	60aa      	str	r2, [r5, #8]
 8002c0c:	6d62      	ldr	r2, [r4, #84]	@ 0x54
 8002c0e:	f042 0201 	orr.w	r2, r2, #1
 8002c12:	6562      	str	r2, [r4, #84]	@ 0x54
 8002c14:	2201      	movs	r2, #1
 8002c16:	409a      	lsls	r2, r3
 8002c18:	4232      	tst	r2, r6
 8002c1a:	d008      	beq.n	8002c2e <HAL_DMA_IRQHandler+0x4e>
 8002c1c:	6821      	ldr	r1, [r4, #0]
 8002c1e:	6949      	ldr	r1, [r1, #20]
 8002c20:	0609      	lsls	r1, r1, #24
 8002c22:	bf41      	itttt	mi
 8002c24:	60aa      	strmi	r2, [r5, #8]
 8002c26:	6d62      	ldrmi	r2, [r4, #84]	@ 0x54
 8002c28:	f042 0202 	orrmi.w	r2, r2, #2
 8002c2c:	6562      	strmi	r2, [r4, #84]	@ 0x54
 8002c2e:	2204      	movs	r2, #4
 8002c30:	409a      	lsls	r2, r3
 8002c32:	4232      	tst	r2, r6
 8002c34:	d008      	beq.n	8002c48 <HAL_DMA_IRQHandler+0x68>
 8002c36:	6821      	ldr	r1, [r4, #0]
 8002c38:	6809      	ldr	r1, [r1, #0]
 8002c3a:	0788      	lsls	r0, r1, #30
 8002c3c:	bf41      	itttt	mi
 8002c3e:	60aa      	strmi	r2, [r5, #8]
 8002c40:	6d62      	ldrmi	r2, [r4, #84]	@ 0x54
 8002c42:	f042 0204 	orrmi.w	r2, r2, #4
 8002c46:	6562      	strmi	r2, [r4, #84]	@ 0x54
 8002c48:	2210      	movs	r2, #16
 8002c4a:	409a      	lsls	r2, r3
 8002c4c:	4232      	tst	r2, r6
 8002c4e:	d010      	beq.n	8002c72 <HAL_DMA_IRQHandler+0x92>
 8002c50:	6823      	ldr	r3, [r4, #0]
 8002c52:	6819      	ldr	r1, [r3, #0]
 8002c54:	0709      	lsls	r1, r1, #28
 8002c56:	d50c      	bpl.n	8002c72 <HAL_DMA_IRQHandler+0x92>
 8002c58:	60aa      	str	r2, [r5, #8]
 8002c5a:	681a      	ldr	r2, [r3, #0]
 8002c5c:	0350      	lsls	r0, r2, #13
 8002c5e:	d537      	bpl.n	8002cd0 <HAL_DMA_IRQHandler+0xf0>
 8002c60:	681b      	ldr	r3, [r3, #0]
 8002c62:	0319      	lsls	r1, r3, #12
 8002c64:	d401      	bmi.n	8002c6a <HAL_DMA_IRQHandler+0x8a>
 8002c66:	6c23      	ldr	r3, [r4, #64]	@ 0x40
 8002c68:	e000      	b.n	8002c6c <HAL_DMA_IRQHandler+0x8c>
 8002c6a:	6ca3      	ldr	r3, [r4, #72]	@ 0x48
 8002c6c:	b10b      	cbz	r3, 8002c72 <HAL_DMA_IRQHandler+0x92>
 8002c6e:	4620      	mov	r0, r4
 8002c70:	4798      	blx	r3
 8002c72:	6de1      	ldr	r1, [r4, #92]	@ 0x5c
 8002c74:	2220      	movs	r2, #32
 8002c76:	408a      	lsls	r2, r1
 8002c78:	4232      	tst	r2, r6
 8002c7a:	d03a      	beq.n	8002cf2 <HAL_DMA_IRQHandler+0x112>
 8002c7c:	6823      	ldr	r3, [r4, #0]
 8002c7e:	6818      	ldr	r0, [r3, #0]
 8002c80:	06c6      	lsls	r6, r0, #27
 8002c82:	d536      	bpl.n	8002cf2 <HAL_DMA_IRQHandler+0x112>
 8002c84:	60aa      	str	r2, [r5, #8]
 8002c86:	f894 2035 	ldrb.w	r2, [r4, #53]	@ 0x35
 8002c8a:	2a05      	cmp	r2, #5
 8002c8c:	681a      	ldr	r2, [r3, #0]
 8002c8e:	d127      	bne.n	8002ce0 <HAL_DMA_IRQHandler+0x100>
 8002c90:	f022 0216 	bic.w	r2, r2, #22
 8002c94:	601a      	str	r2, [r3, #0]
 8002c96:	695a      	ldr	r2, [r3, #20]
 8002c98:	f022 0280 	bic.w	r2, r2, #128	@ 0x80
 8002c9c:	615a      	str	r2, [r3, #20]
 8002c9e:	6c22      	ldr	r2, [r4, #64]	@ 0x40
 8002ca0:	b90a      	cbnz	r2, 8002ca6 <HAL_DMA_IRQHandler+0xc6>
 8002ca2:	6ca2      	ldr	r2, [r4, #72]	@ 0x48
 8002ca4:	b11a      	cbz	r2, 8002cae <HAL_DMA_IRQHandler+0xce>
 8002ca6:	681a      	ldr	r2, [r3, #0]
 8002ca8:	f022 0208 	bic.w	r2, r2, #8
 8002cac:	601a      	str	r2, [r3, #0]
 8002cae:	233f      	movs	r3, #63	@ 0x3f
 8002cb0:	408b      	lsls	r3, r1
 8002cb2:	60ab      	str	r3, [r5, #8]
 8002cb4:	2301      	movs	r3, #1
 8002cb6:	f884 3035 	strb.w	r3, [r4, #53]	@ 0x35
 8002cba:	2300      	movs	r3, #0
 8002cbc:	f884 3034 	strb.w	r3, [r4, #52]	@ 0x34
 8002cc0:	6d23      	ldr	r3, [r4, #80]	@ 0x50
 8002cc2:	2b00      	cmp	r3, #0
 8002cc4:	d045      	beq.n	8002d52 <HAL_DMA_IRQHandler+0x172>
 8002cc6:	4620      	mov	r0, r4
 8002cc8:	b003      	add	sp, #12
 8002cca:	e8bd 40f0 	ldmia.w	sp!, {r4, r5, r6, r7, lr}
 8002cce:	4718      	bx	r3
 8002cd0:	681a      	ldr	r2, [r3, #0]
 8002cd2:	05d2      	lsls	r2, r2, #23
 8002cd4:	bf5e      	ittt	pl
 8002cd6:	681a      	ldrpl	r2, [r3, #0]
 8002cd8:	f022 0208 	bicpl.w	r2, r2, #8
 8002cdc:	601a      	strpl	r2, [r3, #0]
 8002cde:	e7c2      	b.n	8002c66 <HAL_DMA_IRQHandler+0x86>
 8002ce0:	0350      	lsls	r0, r2, #13
 8002ce2:	d527      	bpl.n	8002d34 <HAL_DMA_IRQHandler+0x154>
 8002ce4:	681b      	ldr	r3, [r3, #0]
 8002ce6:	0319      	lsls	r1, r3, #12
 8002ce8:	d431      	bmi.n	8002d4e <HAL_DMA_IRQHandler+0x16e>
 8002cea:	6c63      	ldr	r3, [r4, #68]	@ 0x44
 8002cec:	b10b      	cbz	r3, 8002cf2 <HAL_DMA_IRQHandler+0x112>
 8002cee:	4620      	mov	r0, r4
 8002cf0:	4798      	blx	r3
 8002cf2:	6d63      	ldr	r3, [r4, #84]	@ 0x54
 8002cf4:	b36b      	cbz	r3, 8002d52 <HAL_DMA_IRQHandler+0x172>
 8002cf6:	6d63      	ldr	r3, [r4, #84]	@ 0x54
 8002cf8:	07da      	lsls	r2, r3, #31
 8002cfa:	d519      	bpl.n	8002d30 <HAL_DMA_IRQHandler+0x150>
 8002cfc:	6822      	ldr	r2, [r4, #0]
 8002cfe:	f44f 5316 	mov.w	r3, #9600	@ 0x2580
 8002d02:	fbb7 f7f3 	udiv	r7, r7, r3
 8002d06:	2305      	movs	r3, #5
 8002d08:	f884 3035 	strb.w	r3, [r4, #53]	@ 0x35
 8002d0c:	6813      	ldr	r3, [r2, #0]
 8002d0e:	f023 0301 	bic.w	r3, r3, #1
 8002d12:	6013      	str	r3, [r2, #0]
 8002d14:	9b01      	ldr	r3, [sp, #4]
 8002d16:	3301      	adds	r3, #1
 8002d18:	42bb      	cmp	r3, r7
 8002d1a:	9301      	str	r3, [sp, #4]
 8002d1c:	d802      	bhi.n	8002d24 <HAL_DMA_IRQHandler+0x144>
 8002d1e:	6813      	ldr	r3, [r2, #0]
 8002d20:	07db      	lsls	r3, r3, #31
 8002d22:	d4f7      	bmi.n	8002d14 <HAL_DMA_IRQHandler+0x134>
 8002d24:	2301      	movs	r3, #1
 8002d26:	f884 3035 	strb.w	r3, [r4, #53]	@ 0x35
 8002d2a:	2300      	movs	r3, #0
 8002d2c:	f884 3034 	strb.w	r3, [r4, #52]	@ 0x34
 8002d30:	6ce3      	ldr	r3, [r4, #76]	@ 0x4c
 8002d32:	e7c6      	b.n	8002cc2 <HAL_DMA_IRQHandler+0xe2>
 8002d34:	681a      	ldr	r2, [r3, #0]
 8002d36:	f412 7280 	ands.w	r2, r2, #256	@ 0x100
 8002d3a:	d108      	bne.n	8002d4e <HAL_DMA_IRQHandler+0x16e>
 8002d3c:	6819      	ldr	r1, [r3, #0]
 8002d3e:	f021 0110 	bic.w	r1, r1, #16
 8002d42:	6019      	str	r1, [r3, #0]
 8002d44:	2301      	movs	r3, #1
 8002d46:	f884 3035 	strb.w	r3, [r4, #53]	@ 0x35
 8002d4a:	f884 2034 	strb.w	r2, [r4, #52]	@ 0x34
 8002d4e:	6be3      	ldr	r3, [r4, #60]	@ 0x3c
 8002d50:	e7cc      	b.n	8002cec <HAL_DMA_IRQHandler+0x10c>
 8002d52:	b003      	add	sp, #12
 8002d54:	bdf0      	pop	{r4, r5, r6, r7, pc}
 8002d56:	bf00      	nop
 8002d58:	2000001c 	.word	0x2000001c

08002d5c <HAL_GPIO_Init>:
 8002d5c:	e92d 4ff7 	stmdb	sp!, {r0, r1, r2, r4, r5, r6, r7, r8, r9, sl, fp, lr}
 8002d60:	f8df 91bc 	ldr.w	r9, [pc, #444]	@ 8002f20 <HAL_GPIO_Init+0x1c4>
 8002d64:	4a6c      	ldr	r2, [pc, #432]	@ (8002f18 <HAL_GPIO_Init+0x1bc>)
 8002d66:	2300      	movs	r3, #0
 8002d68:	680d      	ldr	r5, [r1, #0]
 8002d6a:	2401      	movs	r4, #1
 8002d6c:	409c      	lsls	r4, r3
 8002d6e:	ea04 0605 	and.w	r6, r4, r5
 8002d72:	43ac      	bics	r4, r5
 8002d74:	f040 80b7 	bne.w	8002ee6 <HAL_GPIO_Init+0x18a>
 8002d78:	684d      	ldr	r5, [r1, #4]
 8002d7a:	2703      	movs	r7, #3
 8002d7c:	f005 0403 	and.w	r4, r5, #3
 8002d80:	ea4f 0843 	mov.w	r8, r3, lsl #1
 8002d84:	fa07 fc08 	lsl.w	ip, r7, r8
 8002d88:	1e67      	subs	r7, r4, #1
 8002d8a:	2f01      	cmp	r7, #1
 8002d8c:	ea6f 0c0c 	mvn.w	ip, ip
 8002d90:	d834      	bhi.n	8002dfc <HAL_GPIO_Init+0xa0>
 8002d92:	6887      	ldr	r7, [r0, #8]
 8002d94:	ea07 0e0c 	and.w	lr, r7, ip
 8002d98:	68cf      	ldr	r7, [r1, #12]
 8002d9a:	fa07 f708 	lsl.w	r7, r7, r8
 8002d9e:	ea47 070e 	orr.w	r7, r7, lr
 8002da2:	6087      	str	r7, [r0, #8]
 8002da4:	6847      	ldr	r7, [r0, #4]
 8002da6:	ea27 0e06 	bic.w	lr, r7, r6
 8002daa:	f3c5 1700 	ubfx	r7, r5, #4, #1
 8002dae:	409f      	lsls	r7, r3
 8002db0:	ea47 070e 	orr.w	r7, r7, lr
 8002db4:	6047      	str	r7, [r0, #4]
 8002db6:	68c7      	ldr	r7, [r0, #12]
 8002db8:	ea07 0e0c 	and.w	lr, r7, ip
 8002dbc:	688f      	ldr	r7, [r1, #8]
 8002dbe:	fa07 f708 	lsl.w	r7, r7, r8
 8002dc2:	ea47 070e 	orr.w	r7, r7, lr
 8002dc6:	2c02      	cmp	r4, #2
 8002dc8:	60c7      	str	r7, [r0, #12]
 8002dca:	d119      	bne.n	8002e00 <HAL_GPIO_Init+0xa4>
 8002dcc:	ea4f 0ad3 	mov.w	sl, r3, lsr #3
 8002dd0:	eb00 0a8a 	add.w	sl, r0, sl, lsl #2
 8002dd4:	f003 0b07 	and.w	fp, r3, #7
 8002dd8:	f8da 7020 	ldr.w	r7, [sl, #32]
 8002ddc:	ea4f 0b8b 	mov.w	fp, fp, lsl #2
 8002de0:	f04f 0e0f 	mov.w	lr, #15
 8002de4:	fa0e fe0b 	lsl.w	lr, lr, fp
 8002de8:	ea27 0e0e 	bic.w	lr, r7, lr
 8002dec:	690f      	ldr	r7, [r1, #16]
 8002dee:	fa07 f70b 	lsl.w	r7, r7, fp
 8002df2:	ea47 070e 	orr.w	r7, r7, lr
 8002df6:	f8ca 7020 	str.w	r7, [sl, #32]
 8002dfa:	e001      	b.n	8002e00 <HAL_GPIO_Init+0xa4>
 8002dfc:	2c03      	cmp	r4, #3
 8002dfe:	d1da      	bne.n	8002db6 <HAL_GPIO_Init+0x5a>
 8002e00:	6807      	ldr	r7, [r0, #0]
 8002e02:	fa04 f408 	lsl.w	r4, r4, r8
 8002e06:	ea07 070c 	and.w	r7, r7, ip
 8002e0a:	433c      	orrs	r4, r7
 8002e0c:	f415 3f40 	tst.w	r5, #196608	@ 0x30000
 8002e10:	6004      	str	r4, [r0, #0]
 8002e12:	d068      	beq.n	8002ee6 <HAL_GPIO_Init+0x18a>
 8002e14:	2400      	movs	r4, #0
 8002e16:	9401      	str	r4, [sp, #4]
 8002e18:	f8d9 4044 	ldr.w	r4, [r9, #68]	@ 0x44
 8002e1c:	f444 4480 	orr.w	r4, r4, #16384	@ 0x4000
 8002e20:	f8c9 4044 	str.w	r4, [r9, #68]	@ 0x44
 8002e24:	f8d9 4044 	ldr.w	r4, [r9, #68]	@ 0x44
 8002e28:	f023 0703 	bic.w	r7, r3, #3
 8002e2c:	f107 4780 	add.w	r7, r7, #1073741824	@ 0x40000000
 8002e30:	f404 4480 	and.w	r4, r4, #16384	@ 0x4000
 8002e34:	f507 379c 	add.w	r7, r7, #79872	@ 0x13800
 8002e38:	9401      	str	r4, [sp, #4]
 8002e3a:	f003 0c03 	and.w	ip, r3, #3
 8002e3e:	9c01      	ldr	r4, [sp, #4]
 8002e40:	f8d7 e008 	ldr.w	lr, [r7, #8]
 8002e44:	ea4f 0c8c 	mov.w	ip, ip, lsl #2
 8002e48:	240f      	movs	r4, #15
 8002e4a:	fa04 f40c 	lsl.w	r4, r4, ip
 8002e4e:	ea2e 0e04 	bic.w	lr, lr, r4
 8002e52:	4c32      	ldr	r4, [pc, #200]	@ (8002f1c <HAL_GPIO_Init+0x1c0>)
 8002e54:	42a0      	cmp	r0, r4
 8002e56:	d04d      	beq.n	8002ef4 <HAL_GPIO_Init+0x198>
 8002e58:	f504 6480 	add.w	r4, r4, #1024	@ 0x400
 8002e5c:	42a0      	cmp	r0, r4
 8002e5e:	d04b      	beq.n	8002ef8 <HAL_GPIO_Init+0x19c>
 8002e60:	f504 6480 	add.w	r4, r4, #1024	@ 0x400
 8002e64:	42a0      	cmp	r0, r4
 8002e66:	d049      	beq.n	8002efc <HAL_GPIO_Init+0x1a0>
 8002e68:	f504 6480 	add.w	r4, r4, #1024	@ 0x400
 8002e6c:	42a0      	cmp	r0, r4
 8002e6e:	d047      	beq.n	8002f00 <HAL_GPIO_Init+0x1a4>
 8002e70:	f504 6480 	add.w	r4, r4, #1024	@ 0x400
 8002e74:	42a0      	cmp	r0, r4
 8002e76:	d045      	beq.n	8002f04 <HAL_GPIO_Init+0x1a8>
 8002e78:	f504 6480 	add.w	r4, r4, #1024	@ 0x400
 8002e7c:	42a0      	cmp	r0, r4
 8002e7e:	d043      	beq.n	8002f08 <HAL_GPIO_Init+0x1ac>
 8002e80:	f504 6480 	add.w	r4, r4, #1024	@ 0x400
 8002e84:	42a0      	cmp	r0, r4
 8002e86:	d041      	beq.n	8002f0c <HAL_GPIO_Init+0x1b0>
 8002e88:	f504 6480 	add.w	r4, r4, #1024	@ 0x400
 8002e8c:	42a0      	cmp	r0, r4
 8002e8e:	d03f      	beq.n	8002f10 <HAL_GPIO_Init+0x1b4>
 8002e90:	f504 6480 	add.w	r4, r4, #1024	@ 0x400
 8002e94:	42a0      	cmp	r0, r4
 8002e96:	d03d      	beq.n	8002f14 <HAL_GPIO_Init+0x1b8>
 8002e98:	f504 6480 	add.w	r4, r4, #1024	@ 0x400
 8002e9c:	42a0      	cmp	r0, r4
 8002e9e:	bf14      	ite	ne
 8002ea0:	240a      	movne	r4, #10
 8002ea2:	2409      	moveq	r4, #9
 8002ea4:	fa04 f40c 	lsl.w	r4, r4, ip
 8002ea8:	ea44 040e 	orr.w	r4, r4, lr
 8002eac:	60bc      	str	r4, [r7, #8]
 8002eae:	6894      	ldr	r4, [r2, #8]
 8002eb0:	43f7      	mvns	r7, r6
 8002eb2:	f415 1f80 	tst.w	r5, #1048576	@ 0x100000
 8002eb6:	bf0c      	ite	eq
 8002eb8:	403c      	andeq	r4, r7
 8002eba:	4334      	orrne	r4, r6
 8002ebc:	6094      	str	r4, [r2, #8]
 8002ebe:	68d4      	ldr	r4, [r2, #12]
 8002ec0:	f415 1f00 	tst.w	r5, #2097152	@ 0x200000
 8002ec4:	bf0c      	ite	eq
 8002ec6:	403c      	andeq	r4, r7
 8002ec8:	4334      	orrne	r4, r6
 8002eca:	60d4      	str	r4, [r2, #12]
 8002ecc:	6854      	ldr	r4, [r2, #4]
 8002ece:	f415 3f00 	tst.w	r5, #131072	@ 0x20000
 8002ed2:	bf0c      	ite	eq
 8002ed4:	403c      	andeq	r4, r7
 8002ed6:	4334      	orrne	r4, r6
 8002ed8:	6054      	str	r4, [r2, #4]
 8002eda:	6814      	ldr	r4, [r2, #0]
 8002edc:	03ed      	lsls	r5, r5, #15
 8002ede:	bf54      	ite	pl
 8002ee0:	403c      	andpl	r4, r7
 8002ee2:	4334      	orrmi	r4, r6
 8002ee4:	6014      	str	r4, [r2, #0]
 8002ee6:	3301      	adds	r3, #1
 8002ee8:	2b10      	cmp	r3, #16
 8002eea:	f47f af3d 	bne.w	8002d68 <HAL_GPIO_Init+0xc>
 8002eee:	b003      	add	sp, #12
 8002ef0:	e8bd 8ff0 	ldmia.w	sp!, {r4, r5, r6, r7, r8, r9, sl, fp, pc}
 8002ef4:	2400      	movs	r4, #0
 8002ef6:	e7d5      	b.n	8002ea4 <HAL_GPIO_Init+0x148>
 8002ef8:	2401      	movs	r4, #1
 8002efa:	e7d3      	b.n	8002ea4 <HAL_GPIO_Init+0x148>
 8002efc:	2402      	movs	r4, #2
 8002efe:	e7d1      	b.n	8002ea4 <HAL_GPIO_Init+0x148>
 8002f00:	2403      	movs	r4, #3
 8002f02:	e7cf      	b.n	8002ea4 <HAL_GPIO_Init+0x148>
 8002f04:	2404      	movs	r4, #4
 8002f06:	e7cd      	b.n	8002ea4 <HAL_GPIO_Init+0x148>
 8002f08:	2405      	movs	r4, #5
 8002f0a:	e7cb      	b.n	8002ea4 <HAL_GPIO_Init+0x148>
 8002f0c:	2406      	movs	r4, #6
 8002f0e:	e7c9      	b.n	8002ea4 <HAL_GPIO_Init+0x148>
 8002f10:	2407      	movs	r4, #7
 8002f12:	e7c7      	b.n	8002ea4 <HAL_GPIO_Init+0x148>
 8002f14:	2408      	movs	r4, #8
 8002f16:	e7c5      	b.n	8002ea4 <HAL_GPIO_Init+0x148>
 8002f18:	40013c00 	.word	0x40013c00
 8002f1c:	40020000 	.word	0x40020000
 8002f20:	40023800 	.word	0x40023800

08002f24 <HAL_GPIO_ReadPin>:
 8002f24:	6903      	ldr	r3, [r0, #16]
 8002f26:	4219      	tst	r1, r3
 8002f28:	bf14      	ite	ne
 8002f2a:	2001      	movne	r0, #1
 8002f2c:	2000      	moveq	r0, #0
 8002f2e:	4770      	bx	lr

08002f30 <HAL_GPIO_WritePin>:
 8002f30:	b10a      	cbz	r2, 8002f36 <HAL_GPIO_WritePin+0x6>
 8002f32:	6181      	str	r1, [r0, #24]
 8002f34:	4770      	bx	lr
 8002f36:	0409      	lsls	r1, r1, #16
 8002f38:	e7fb      	b.n	8002f32 <HAL_GPIO_WritePin+0x2>

08002f3a <HAL_GPIO_TogglePin>:
 8002f3a:	6943      	ldr	r3, [r0, #20]
 8002f3c:	ea01 0203 	and.w	r2, r1, r3
 8002f40:	ea21 0103 	bic.w	r1, r1, r3
 8002f44:	ea41 4102 	orr.w	r1, r1, r2, lsl #16
 8002f48:	6181      	str	r1, [r0, #24]
 8002f4a:	4770      	bx	lr

08002f4c <HAL_GPIO_EXTI_IRQHandler>:
 8002f4c:	4a04      	ldr	r2, [pc, #16]	@ (8002f60 <HAL_GPIO_EXTI_IRQHandler+0x14>)
 8002f4e:	6951      	ldr	r1, [r2, #20]
 8002f50:	4201      	tst	r1, r0
 8002f52:	b508      	push	{r3, lr}
 8002f54:	d002      	beq.n	8002f5c <HAL_GPIO_EXTI_IRQHandler+0x10>
 8002f56:	6150      	str	r0, [r2, #20]
 8002f58:	f7ff f8a2 	bl	80020a0 <HAL_GPIO_EXTI_Callback>
 8002f5c:	bd08      	pop	{r3, pc}
 8002f5e:	bf00      	nop
 8002f60:	40013c00 	.word	0x40013c00

08002f64 <I2C_IsAcknowledgeFailed>:
 8002f64:	6801      	ldr	r1, [r0, #0]
 8002f66:	694b      	ldr	r3, [r1, #20]
 8002f68:	f413 6380 	ands.w	r3, r3, #1024	@ 0x400
 8002f6c:	f04f 0200 	mov.w	r2, #0
 8002f70:	d010      	beq.n	8002f94 <I2C_IsAcknowledgeFailed+0x30>
 8002f72:	f46f 6380 	mvn.w	r3, #1024	@ 0x400
 8002f76:	614b      	str	r3, [r1, #20]
 8002f78:	2320      	movs	r3, #32
 8002f7a:	6302      	str	r2, [r0, #48]	@ 0x30
 8002f7c:	f880 303d 	strb.w	r3, [r0, #61]	@ 0x3d
 8002f80:	f880 203e 	strb.w	r2, [r0, #62]	@ 0x3e
 8002f84:	6c03      	ldr	r3, [r0, #64]	@ 0x40
 8002f86:	f880 203c 	strb.w	r2, [r0, #60]	@ 0x3c
 8002f8a:	f043 0304 	orr.w	r3, r3, #4
 8002f8e:	6403      	str	r3, [r0, #64]	@ 0x40
 8002f90:	2001      	movs	r0, #1
 8002f92:	4770      	bx	lr
 8002f94:	4618      	mov	r0, r3
 8002f96:	4770      	bx	lr

08002f98 <I2C_WaitOnFlagUntilTimeout>:
 8002f98:	e92d 46f8 	stmdb	sp!, {r3, r4, r5, r6, r7, r9, sl, lr}
 8002f9c:	4606      	mov	r6, r0
 8002f9e:	460f      	mov	r7, r1
 8002fa0:	4691      	mov	r9, r2
 8002fa2:	461d      	mov	r5, r3
 8002fa4:	ea4f 4a11 	mov.w	sl, r1, lsr #16
 8002fa8:	6833      	ldr	r3, [r6, #0]
 8002faa:	f1ba 0f01 	cmp.w	sl, #1
 8002fae:	bf0c      	ite	eq
 8002fb0:	695c      	ldreq	r4, [r3, #20]
 8002fb2:	699c      	ldrne	r4, [r3, #24]
 8002fb4:	ea27 0404 	bic.w	r4, r7, r4
 8002fb8:	b2a4      	uxth	r4, r4
 8002fba:	fab4 f484 	clz	r4, r4
 8002fbe:	0964      	lsrs	r4, r4, #5
 8002fc0:	45a1      	cmp	r9, r4
 8002fc2:	d001      	beq.n	8002fc8 <I2C_WaitOnFlagUntilTimeout+0x30>
 8002fc4:	2000      	movs	r0, #0
 8002fc6:	e025      	b.n	8003014 <I2C_WaitOnFlagUntilTimeout+0x7c>
 8002fc8:	1c6a      	adds	r2, r5, #1
 8002fca:	d0ee      	beq.n	8002faa <I2C_WaitOnFlagUntilTimeout+0x12>
 8002fcc:	f7ff f954 	bl	8002278 <HAL_GetTick>
 8002fd0:	9b08      	ldr	r3, [sp, #32]
 8002fd2:	1ac0      	subs	r0, r0, r3
 8002fd4:	42a8      	cmp	r0, r5
 8002fd6:	d801      	bhi.n	8002fdc <I2C_WaitOnFlagUntilTimeout+0x44>
 8002fd8:	2d00      	cmp	r5, #0
 8002fda:	d1e5      	bne.n	8002fa8 <I2C_WaitOnFlagUntilTimeout+0x10>
 8002fdc:	6833      	ldr	r3, [r6, #0]
 8002fde:	f1ba 0f01 	cmp.w	sl, #1
 8002fe2:	bf0c      	ite	eq
 8002fe4:	695b      	ldreq	r3, [r3, #20]
 8002fe6:	699b      	ldrne	r3, [r3, #24]
 8002fe8:	ea27 0303 	bic.w	r3, r7, r3
 8002fec:	b29b      	uxth	r3, r3
 8002fee:	fab3 f383 	clz	r3, r3
 8002ff2:	095b      	lsrs	r3, r3, #5
 8002ff4:	4599      	cmp	r9, r3
 8002ff6:	d1d7      	bne.n	8002fa8 <I2C_WaitOnFlagUntilTimeout+0x10>
 8002ff8:	2300      	movs	r3, #0
 8002ffa:	2220      	movs	r2, #32
 8002ffc:	6333      	str	r3, [r6, #48]	@ 0x30
 8002ffe:	f886 203d 	strb.w	r2, [r6, #61]	@ 0x3d
 8003002:	f886 303e 	strb.w	r3, [r6, #62]	@ 0x3e
 8003006:	6c32      	ldr	r2, [r6, #64]	@ 0x40
 8003008:	f886 303c 	strb.w	r3, [r6, #60]	@ 0x3c
 800300c:	f042 0220 	orr.w	r2, r2, #32
 8003010:	6432      	str	r2, [r6, #64]	@ 0x40
 8003012:	2001      	movs	r0, #1
 8003014:	e8bd 86f8 	ldmia.w	sp!, {r3, r4, r5, r6, r7, r9, sl, pc}

08003018 <I2C_WaitOnMasterAddressFlagUntilTimeout>:
 8003018:	e92d 41f0 	stmdb	sp!, {r4, r5, r6, r7, r8, lr}
 800301c:	4604      	mov	r4, r0
 800301e:	460f      	mov	r7, r1
 8003020:	4616      	mov	r6, r2
 8003022:	4698      	mov	r8, r3
 8003024:	6825      	ldr	r5, [r4, #0]
 8003026:	6968      	ldr	r0, [r5, #20]
 8003028:	ea27 0000 	bic.w	r0, r7, r0
 800302c:	b280      	uxth	r0, r0
 800302e:	b1c0      	cbz	r0, 8003062 <I2C_WaitOnMasterAddressFlagUntilTimeout+0x4a>
 8003030:	696b      	ldr	r3, [r5, #20]
 8003032:	055a      	lsls	r2, r3, #21
 8003034:	d517      	bpl.n	8003066 <I2C_WaitOnMasterAddressFlagUntilTimeout+0x4e>
 8003036:	682b      	ldr	r3, [r5, #0]
 8003038:	f443 7300 	orr.w	r3, r3, #512	@ 0x200
 800303c:	602b      	str	r3, [r5, #0]
 800303e:	f46f 6380 	mvn.w	r3, #1024	@ 0x400
 8003042:	616b      	str	r3, [r5, #20]
 8003044:	2220      	movs	r2, #32
 8003046:	2300      	movs	r3, #0
 8003048:	6323      	str	r3, [r4, #48]	@ 0x30
 800304a:	f884 203d 	strb.w	r2, [r4, #61]	@ 0x3d
 800304e:	f884 303e 	strb.w	r3, [r4, #62]	@ 0x3e
 8003052:	6c23      	ldr	r3, [r4, #64]	@ 0x40
 8003054:	f043 0304 	orr.w	r3, r3, #4
 8003058:	6423      	str	r3, [r4, #64]	@ 0x40
 800305a:	2300      	movs	r3, #0
 800305c:	f884 303c 	strb.w	r3, [r4, #60]	@ 0x3c
 8003060:	2001      	movs	r0, #1
 8003062:	e8bd 81f0 	ldmia.w	sp!, {r4, r5, r6, r7, r8, pc}
 8003066:	1c73      	adds	r3, r6, #1
 8003068:	d0dd      	beq.n	8003026 <I2C_WaitOnMasterAddressFlagUntilTimeout+0xe>
 800306a:	f7ff f905 	bl	8002278 <HAL_GetTick>
 800306e:	eba0 0008 	sub.w	r0, r0, r8
 8003072:	42b0      	cmp	r0, r6
 8003074:	d801      	bhi.n	800307a <I2C_WaitOnMasterAddressFlagUntilTimeout+0x62>
 8003076:	2e00      	cmp	r6, #0
 8003078:	d1d4      	bne.n	8003024 <I2C_WaitOnMasterAddressFlagUntilTimeout+0xc>
 800307a:	6823      	ldr	r3, [r4, #0]
 800307c:	695a      	ldr	r2, [r3, #20]
 800307e:	ea27 0202 	bic.w	r2, r7, r2
 8003082:	b292      	uxth	r2, r2
 8003084:	2a00      	cmp	r2, #0
 8003086:	d0cd      	beq.n	8003024 <I2C_WaitOnMasterAddressFlagUntilTimeout+0xc>
 8003088:	2300      	movs	r3, #0
 800308a:	2220      	movs	r2, #32
 800308c:	6323      	str	r3, [r4, #48]	@ 0x30
 800308e:	f884 203d 	strb.w	r2, [r4, #61]	@ 0x3d
 8003092:	f884 303e 	strb.w	r3, [r4, #62]	@ 0x3e
 8003096:	6c23      	ldr	r3, [r4, #64]	@ 0x40
 8003098:	4313      	orrs	r3, r2
 800309a:	e7dd      	b.n	8003058 <I2C_WaitOnMasterAddressFlagUntilTimeout+0x40>

0800309c <I2C_WaitOnTXEFlagUntilTimeout>:
 800309c:	b570      	push	{r4, r5, r6, lr}
 800309e:	4604      	mov	r4, r0
 80030a0:	460d      	mov	r5, r1
 80030a2:	4616      	mov	r6, r2
 80030a4:	6823      	ldr	r3, [r4, #0]
 80030a6:	695b      	ldr	r3, [r3, #20]
 80030a8:	061b      	lsls	r3, r3, #24
 80030aa:	d501      	bpl.n	80030b0 <I2C_WaitOnTXEFlagUntilTimeout+0x14>
 80030ac:	2000      	movs	r0, #0
 80030ae:	e01e      	b.n	80030ee <I2C_WaitOnTXEFlagUntilTimeout+0x52>
 80030b0:	4620      	mov	r0, r4
 80030b2:	f7ff ff57 	bl	8002f64 <I2C_IsAcknowledgeFailed>
 80030b6:	b9c8      	cbnz	r0, 80030ec <I2C_WaitOnTXEFlagUntilTimeout+0x50>
 80030b8:	1c6a      	adds	r2, r5, #1
 80030ba:	d0f3      	beq.n	80030a4 <I2C_WaitOnTXEFlagUntilTimeout+0x8>
 80030bc:	f7ff f8dc 	bl	8002278 <HAL_GetTick>
 80030c0:	1b80      	subs	r0, r0, r6
 80030c2:	42a8      	cmp	r0, r5
 80030c4:	d801      	bhi.n	80030ca <I2C_WaitOnTXEFlagUntilTimeout+0x2e>
 80030c6:	2d00      	cmp	r5, #0
 80030c8:	d1ec      	bne.n	80030a4 <I2C_WaitOnTXEFlagUntilTimeout+0x8>
 80030ca:	6823      	ldr	r3, [r4, #0]
 80030cc:	695b      	ldr	r3, [r3, #20]
 80030ce:	f013 0380 	ands.w	r3, r3, #128	@ 0x80
 80030d2:	d1e7      	bne.n	80030a4 <I2C_WaitOnTXEFlagUntilTimeout+0x8>
 80030d4:	2220      	movs	r2, #32
 80030d6:	6323      	str	r3, [r4, #48]	@ 0x30
 80030d8:	f884 203d 	strb.w	r2, [r4, #61]	@ 0x3d
 80030dc:	f884 303e 	strb.w	r3, [r4, #62]	@ 0x3e
 80030e0:	6c22      	ldr	r2, [r4, #64]	@ 0x40
 80030e2:	f884 303c 	strb.w	r3, [r4, #60]	@ 0x3c
 80030e6:	f042 0220 	orr.w	r2, r2, #32
 80030ea:	6422      	str	r2, [r4, #64]	@ 0x40
 80030ec:	2001      	movs	r0, #1
 80030ee:	bd70      	pop	{r4, r5, r6, pc}

080030f0 <I2C_WaitOnBTFFlagUntilTimeout>:
 80030f0:	b570      	push	{r4, r5, r6, lr}
 80030f2:	4604      	mov	r4, r0
 80030f4:	460d      	mov	r5, r1
 80030f6:	4616      	mov	r6, r2
 80030f8:	6823      	ldr	r3, [r4, #0]
 80030fa:	695b      	ldr	r3, [r3, #20]
 80030fc:	075b      	lsls	r3, r3, #29
 80030fe:	d501      	bpl.n	8003104 <I2C_WaitOnBTFFlagUntilTimeout+0x14>
 8003100:	2000      	movs	r0, #0
 8003102:	e01e      	b.n	8003142 <I2C_WaitOnBTFFlagUntilTimeout+0x52>
 8003104:	4620      	mov	r0, r4
 8003106:	f7ff ff2d 	bl	8002f64 <I2C_IsAcknowledgeFailed>
 800310a:	b9c8      	cbnz	r0, 8003140 <I2C_WaitOnBTFFlagUntilTimeout+0x50>
 800310c:	1c6a      	adds	r2, r5, #1
 800310e:	d0f3      	beq.n	80030f8 <I2C_WaitOnBTFFlagUntilTimeout+0x8>
 8003110:	f7ff f8b2 	bl	8002278 <HAL_GetTick>
 8003114:	1b80      	subs	r0, r0, r6
 8003116:	42a8      	cmp	r0, r5
 8003118:	d801      	bhi.n	800311e <I2C_WaitOnBTFFlagUntilTimeout+0x2e>
 800311a:	2d00      	cmp	r5, #0
 800311c:	d1ec      	bne.n	80030f8 <I2C_WaitOnBTFFlagUntilTimeout+0x8>
 800311e:	6823      	ldr	r3, [r4, #0]
 8003120:	695b      	ldr	r3, [r3, #20]
 8003122:	f013 0304 	ands.w	r3, r3, #4
 8003126:	d1e7      	bne.n	80030f8 <I2C_WaitOnBTFFlagUntilTimeout+0x8>
 8003128:	2220      	movs	r2, #32
 800312a:	6323      	str	r3, [r4, #48]	@ 0x30
 800312c:	f884 203d 	strb.w	r2, [r4, #61]	@ 0x3d
 8003130:	f884 303e 	strb.w	r3, [r4, #62]	@ 0x3e
 8003134:	6c22      	ldr	r2, [r4, #64]	@ 0x40
 8003136:	f884 303c 	strb.w	r3, [r4, #60]	@ 0x3c
 800313a:	f042 0220 	orr.w	r2, r2, #32
 800313e:	6422      	str	r2, [r4, #64]	@ 0x40
 8003140:	2001      	movs	r0, #1
 8003142:	bd70      	pop	{r4, r5, r6, pc}

08003144 <I2C_WaitOnRXNEFlagUntilTimeout>:
 8003144:	b570      	push	{r4, r5, r6, lr}
 8003146:	4604      	mov	r4, r0
 8003148:	460d      	mov	r5, r1
 800314a:	4616      	mov	r6, r2
 800314c:	6821      	ldr	r1, [r4, #0]
 800314e:	694b      	ldr	r3, [r1, #20]
 8003150:	f013 0340 	ands.w	r3, r3, #64	@ 0x40
 8003154:	d001      	beq.n	800315a <I2C_WaitOnRXNEFlagUntilTimeout+0x16>
 8003156:	2000      	movs	r0, #0
 8003158:	e011      	b.n	800317e <I2C_WaitOnRXNEFlagUntilTimeout+0x3a>
 800315a:	694a      	ldr	r2, [r1, #20]
 800315c:	06d2      	lsls	r2, r2, #27
 800315e:	d50f      	bpl.n	8003180 <I2C_WaitOnRXNEFlagUntilTimeout+0x3c>
 8003160:	f06f 0210 	mvn.w	r2, #16
 8003164:	614a      	str	r2, [r1, #20]
 8003166:	2220      	movs	r2, #32
 8003168:	6323      	str	r3, [r4, #48]	@ 0x30
 800316a:	f884 203d 	strb.w	r2, [r4, #61]	@ 0x3d
 800316e:	f884 303e 	strb.w	r3, [r4, #62]	@ 0x3e
 8003172:	6c23      	ldr	r3, [r4, #64]	@ 0x40
 8003174:	6423      	str	r3, [r4, #64]	@ 0x40
 8003176:	2300      	movs	r3, #0
 8003178:	f884 303c 	strb.w	r3, [r4, #60]	@ 0x3c
 800317c:	2001      	movs	r0, #1
 800317e:	bd70      	pop	{r4, r5, r6, pc}
 8003180:	f7ff f87a 	bl	8002278 <HAL_GetTick>
 8003184:	1b80      	subs	r0, r0, r6
 8003186:	42a8      	cmp	r0, r5
 8003188:	d801      	bhi.n	800318e <I2C_WaitOnRXNEFlagUntilTimeout+0x4a>
 800318a:	2d00      	cmp	r5, #0
 800318c:	d1de      	bne.n	800314c <I2C_WaitOnRXNEFlagUntilTimeout+0x8>
 800318e:	6823      	ldr	r3, [r4, #0]
 8003190:	695b      	ldr	r3, [r3, #20]
 8003192:	f013 0340 	ands.w	r3, r3, #64	@ 0x40
 8003196:	d1d9      	bne.n	800314c <I2C_WaitOnRXNEFlagUntilTimeout+0x8>
 8003198:	2220      	movs	r2, #32
 800319a:	6323      	str	r3, [r4, #48]	@ 0x30
 800319c:	f884 203d 	strb.w	r2, [r4, #61]	@ 0x3d
 80031a0:	f884 303e 	strb.w	r3, [r4, #62]	@ 0x3e
 80031a4:	6c23      	ldr	r3, [r4, #64]	@ 0x40
 80031a6:	4313      	orrs	r3, r2
 80031a8:	e7e4      	b.n	8003174 <I2C_WaitOnRXNEFlagUntilTimeout+0x30>
	...

080031ac <HAL_I2C_Init>:
 80031ac:	b570      	push	{r4, r5, r6, lr}
 80031ae:	4604      	mov	r4, r0
 80031b0:	b908      	cbnz	r0, 80031b6 <HAL_I2C_Init+0xa>
 80031b2:	2001      	movs	r0, #1
 80031b4:	bd70      	pop	{r4, r5, r6, pc}
 80031b6:	f890 303d 	ldrb.w	r3, [r0, #61]	@ 0x3d
 80031ba:	f003 02ff 	and.w	r2, r3, #255	@ 0xff
 80031be:	b91b      	cbnz	r3, 80031c8 <HAL_I2C_Init+0x1c>
 80031c0:	f880 203c 	strb.w	r2, [r0, #60]	@ 0x3c
 80031c4:	f7fe fd5e 	bl	8001c84 <HAL_I2C_MspInit>
 80031c8:	2324      	movs	r3, #36	@ 0x24
 80031ca:	f884 303d 	strb.w	r3, [r4, #61]	@ 0x3d
 80031ce:	6823      	ldr	r3, [r4, #0]
 80031d0:	681a      	ldr	r2, [r3, #0]
 80031d2:	f022 0201 	bic.w	r2, r2, #1
 80031d6:	601a      	str	r2, [r3, #0]
 80031d8:	681a      	ldr	r2, [r3, #0]
 80031da:	f442 4200 	orr.w	r2, r2, #32768	@ 0x8000
 80031de:	601a      	str	r2, [r3, #0]
 80031e0:	681a      	ldr	r2, [r3, #0]
 80031e2:	f422 4200 	bic.w	r2, r2, #32768	@ 0x8000
 80031e6:	601a      	str	r2, [r3, #0]
 80031e8:	f000 fdac 	bl	8003d44 <HAL_RCC_GetPCLK1Freq>
 80031ec:	4b3f      	ldr	r3, [pc, #252]	@ (80032ec <HAL_I2C_Init+0x140>)
 80031ee:	6865      	ldr	r5, [r4, #4]
 80031f0:	429d      	cmp	r5, r3
 80031f2:	bf94      	ite	ls
 80031f4:	4b3e      	ldrls	r3, [pc, #248]	@ (80032f0 <HAL_I2C_Init+0x144>)
 80031f6:	4b3f      	ldrhi	r3, [pc, #252]	@ (80032f4 <HAL_I2C_Init+0x148>)
 80031f8:	4298      	cmp	r0, r3
 80031fa:	bf8c      	ite	hi
 80031fc:	2300      	movhi	r3, #0
 80031fe:	2301      	movls	r3, #1
 8003200:	2b00      	cmp	r3, #0
 8003202:	d1d6      	bne.n	80031b2 <HAL_I2C_Init+0x6>
 8003204:	6822      	ldr	r2, [r4, #0]
 8003206:	4e39      	ldr	r6, [pc, #228]	@ (80032ec <HAL_I2C_Init+0x140>)
 8003208:	6851      	ldr	r1, [r2, #4]
 800320a:	4b3b      	ldr	r3, [pc, #236]	@ (80032f8 <HAL_I2C_Init+0x14c>)
 800320c:	fbb0 f3f3 	udiv	r3, r0, r3
 8003210:	f021 013f 	bic.w	r1, r1, #63	@ 0x3f
 8003214:	4319      	orrs	r1, r3
 8003216:	42b5      	cmp	r5, r6
 8003218:	6051      	str	r1, [r2, #4]
 800321a:	bf88      	it	hi
 800321c:	f44f 7696 	movhi.w	r6, #300	@ 0x12c
 8003220:	6a11      	ldr	r1, [r2, #32]
 8003222:	bf88      	it	hi
 8003224:	4373      	mulhi	r3, r6
 8003226:	f021 013f 	bic.w	r1, r1, #63	@ 0x3f
 800322a:	bf84      	itt	hi
 800322c:	f44f 767a 	movhi.w	r6, #1000	@ 0x3e8
 8003230:	fbb3 f3f6 	udivhi	r3, r3, r6
 8003234:	3301      	adds	r3, #1
 8003236:	430b      	orrs	r3, r1
 8003238:	6213      	str	r3, [r2, #32]
 800323a:	69d1      	ldr	r1, [r2, #28]
 800323c:	1e43      	subs	r3, r0, #1
 800323e:	482b      	ldr	r0, [pc, #172]	@ (80032ec <HAL_I2C_Init+0x140>)
 8003240:	f421 414f 	bic.w	r1, r1, #52992	@ 0xcf00
 8003244:	4285      	cmp	r5, r0
 8003246:	f021 01ff 	bic.w	r1, r1, #255	@ 0xff
 800324a:	d832      	bhi.n	80032b2 <HAL_I2C_Init+0x106>
 800324c:	006d      	lsls	r5, r5, #1
 800324e:	f640 70fc 	movw	r0, #4092	@ 0xffc
 8003252:	fbb3 f3f5 	udiv	r3, r3, r5
 8003256:	3301      	adds	r3, #1
 8003258:	4203      	tst	r3, r0
 800325a:	d042      	beq.n	80032e2 <HAL_I2C_Init+0x136>
 800325c:	f3c3 030b 	ubfx	r3, r3, #0, #12
 8003260:	4319      	orrs	r1, r3
 8003262:	61d1      	str	r1, [r2, #28]
 8003264:	e9d4 3007 	ldrd	r3, r0, [r4, #28]
 8003268:	6811      	ldr	r1, [r2, #0]
 800326a:	4303      	orrs	r3, r0
 800326c:	f021 01c0 	bic.w	r1, r1, #192	@ 0xc0
 8003270:	430b      	orrs	r3, r1
 8003272:	6013      	str	r3, [r2, #0]
 8003274:	6891      	ldr	r1, [r2, #8]
 8003276:	e9d4 0303 	ldrd	r0, r3, [r4, #12]
 800327a:	f421 4103 	bic.w	r1, r1, #33536	@ 0x8300
 800327e:	4303      	orrs	r3, r0
 8003280:	f021 01ff 	bic.w	r1, r1, #255	@ 0xff
 8003284:	430b      	orrs	r3, r1
 8003286:	6093      	str	r3, [r2, #8]
 8003288:	e9d4 3005 	ldrd	r3, r0, [r4, #20]
 800328c:	68d1      	ldr	r1, [r2, #12]
 800328e:	4303      	orrs	r3, r0
 8003290:	f021 01ff 	bic.w	r1, r1, #255	@ 0xff
 8003294:	430b      	orrs	r3, r1
 8003296:	60d3      	str	r3, [r2, #12]
 8003298:	6813      	ldr	r3, [r2, #0]
 800329a:	f043 0301 	orr.w	r3, r3, #1
 800329e:	6013      	str	r3, [r2, #0]
 80032a0:	2000      	movs	r0, #0
 80032a2:	2320      	movs	r3, #32
 80032a4:	6420      	str	r0, [r4, #64]	@ 0x40
 80032a6:	f884 303d 	strb.w	r3, [r4, #61]	@ 0x3d
 80032aa:	6320      	str	r0, [r4, #48]	@ 0x30
 80032ac:	f884 003e 	strb.w	r0, [r4, #62]	@ 0x3e
 80032b0:	e780      	b.n	80031b4 <HAL_I2C_Init+0x8>
 80032b2:	68a0      	ldr	r0, [r4, #8]
 80032b4:	b950      	cbnz	r0, 80032cc <HAL_I2C_Init+0x120>
 80032b6:	eb05 0545 	add.w	r5, r5, r5, lsl #1
 80032ba:	fbb3 f3f5 	udiv	r3, r3, r5
 80032be:	3301      	adds	r3, #1
 80032c0:	f3c3 030b 	ubfx	r3, r3, #0, #12
 80032c4:	b17b      	cbz	r3, 80032e6 <HAL_I2C_Init+0x13a>
 80032c6:	f443 4300 	orr.w	r3, r3, #32768	@ 0x8000
 80032ca:	e7c9      	b.n	8003260 <HAL_I2C_Init+0xb4>
 80032cc:	2019      	movs	r0, #25
 80032ce:	4368      	muls	r0, r5
 80032d0:	fbb3 f3f0 	udiv	r3, r3, r0
 80032d4:	3301      	adds	r3, #1
 80032d6:	f3c3 030b 	ubfx	r3, r3, #0, #12
 80032da:	b123      	cbz	r3, 80032e6 <HAL_I2C_Init+0x13a>
 80032dc:	f443 4340 	orr.w	r3, r3, #49152	@ 0xc000
 80032e0:	e7be      	b.n	8003260 <HAL_I2C_Init+0xb4>
 80032e2:	2304      	movs	r3, #4
 80032e4:	e7bc      	b.n	8003260 <HAL_I2C_Init+0xb4>
 80032e6:	2301      	movs	r3, #1
 80032e8:	e7ba      	b.n	8003260 <HAL_I2C_Init+0xb4>
 80032ea:	bf00      	nop
 80032ec:	000186a0 	.word	0x000186a0
 80032f0:	001e847f 	.word	0x001e847f
 80032f4:	003d08ff 	.word	0x003d08ff
 80032f8:	000f4240 	.word	0x000f4240

080032fc <HAL_I2C_Master_Transmit>:
 80032fc:	e92d 43f0 	stmdb	sp!, {r4, r5, r6, r7, r8, r9, lr}
 8003300:	4604      	mov	r4, r0
 8003302:	b085      	sub	sp, #20
 8003304:	4698      	mov	r8, r3
 8003306:	9f0c      	ldr	r7, [sp, #48]	@ 0x30
 8003308:	460d      	mov	r5, r1
 800330a:	4691      	mov	r9, r2
 800330c:	f7fe ffb4 	bl	8002278 <HAL_GetTick>
 8003310:	f894 303d 	ldrb.w	r3, [r4, #61]	@ 0x3d
 8003314:	2b20      	cmp	r3, #32
 8003316:	4606      	mov	r6, r0
 8003318:	d004      	beq.n	8003324 <HAL_I2C_Master_Transmit+0x28>
 800331a:	2502      	movs	r5, #2
 800331c:	4628      	mov	r0, r5
 800331e:	b005      	add	sp, #20
 8003320:	e8bd 83f0 	ldmia.w	sp!, {r4, r5, r6, r7, r8, r9, pc}
 8003324:	9000      	str	r0, [sp, #0]
 8003326:	495e      	ldr	r1, [pc, #376]	@ (80034a0 <HAL_I2C_Master_Transmit+0x1a4>)
 8003328:	2319      	movs	r3, #25
 800332a:	2201      	movs	r2, #1
 800332c:	4620      	mov	r0, r4
 800332e:	f7ff fe33 	bl	8002f98 <I2C_WaitOnFlagUntilTimeout>
 8003332:	2800      	cmp	r0, #0
 8003334:	d1f1      	bne.n	800331a <HAL_I2C_Master_Transmit+0x1e>
 8003336:	f894 303c 	ldrb.w	r3, [r4, #60]	@ 0x3c
 800333a:	2b01      	cmp	r3, #1
 800333c:	d0ed      	beq.n	800331a <HAL_I2C_Master_Transmit+0x1e>
 800333e:	6821      	ldr	r1, [r4, #0]
 8003340:	2301      	movs	r3, #1
 8003342:	f884 303c 	strb.w	r3, [r4, #60]	@ 0x3c
 8003346:	680b      	ldr	r3, [r1, #0]
 8003348:	07da      	lsls	r2, r3, #31
 800334a:	bf5e      	ittt	pl
 800334c:	680b      	ldrpl	r3, [r1, #0]
 800334e:	f043 0301 	orrpl.w	r3, r3, #1
 8003352:	600b      	strpl	r3, [r1, #0]
 8003354:	680b      	ldr	r3, [r1, #0]
 8003356:	f423 6300 	bic.w	r3, r3, #2048	@ 0x800
 800335a:	600b      	str	r3, [r1, #0]
 800335c:	2321      	movs	r3, #33	@ 0x21
 800335e:	f884 303d 	strb.w	r3, [r4, #61]	@ 0x3d
 8003362:	2310      	movs	r3, #16
 8003364:	f884 303e 	strb.w	r3, [r4, #62]	@ 0x3e
 8003368:	2300      	movs	r3, #0
 800336a:	6423      	str	r3, [r4, #64]	@ 0x40
 800336c:	f8a4 802a 	strh.w	r8, [r4, #42]	@ 0x2a
 8003370:	8d63      	ldrh	r3, [r4, #42]	@ 0x2a
 8003372:	8523      	strh	r3, [r4, #40]	@ 0x28
 8003374:	4b4b      	ldr	r3, [pc, #300]	@ (80034a4 <HAL_I2C_Master_Transmit+0x1a8>)
 8003376:	62e3      	str	r3, [r4, #44]	@ 0x2c
 8003378:	6ae3      	ldr	r3, [r4, #44]	@ 0x2c
 800337a:	f8c4 9024 	str.w	r9, [r4, #36]	@ 0x24
 800337e:	2b08      	cmp	r3, #8
 8003380:	d004      	beq.n	800338c <HAL_I2C_Master_Transmit+0x90>
 8003382:	2b01      	cmp	r3, #1
 8003384:	d002      	beq.n	800338c <HAL_I2C_Master_Transmit+0x90>
 8003386:	f513 3f80 	cmn.w	r3, #65536	@ 0x10000
 800338a:	d104      	bne.n	8003396 <HAL_I2C_Master_Transmit+0x9a>
 800338c:	680b      	ldr	r3, [r1, #0]
 800338e:	f443 7380 	orr.w	r3, r3, #256	@ 0x100
 8003392:	600b      	str	r3, [r1, #0]
 8003394:	e002      	b.n	800339c <HAL_I2C_Master_Transmit+0xa0>
 8003396:	6b23      	ldr	r3, [r4, #48]	@ 0x30
 8003398:	2b12      	cmp	r3, #18
 800339a:	d0f7      	beq.n	800338c <HAL_I2C_Master_Transmit+0x90>
 800339c:	2200      	movs	r2, #0
 800339e:	9600      	str	r6, [sp, #0]
 80033a0:	463b      	mov	r3, r7
 80033a2:	f04f 1101 	mov.w	r1, #65537	@ 0x10001
 80033a6:	4620      	mov	r0, r4
 80033a8:	f7ff fdf6 	bl	8002f98 <I2C_WaitOnFlagUntilTimeout>
 80033ac:	6822      	ldr	r2, [r4, #0]
 80033ae:	b140      	cbz	r0, 80033c2 <HAL_I2C_Master_Transmit+0xc6>
 80033b0:	6813      	ldr	r3, [r2, #0]
 80033b2:	05db      	lsls	r3, r3, #23
 80033b4:	d401      	bmi.n	80033ba <HAL_I2C_Master_Transmit+0xbe>
 80033b6:	2501      	movs	r5, #1
 80033b8:	e7b0      	b.n	800331c <HAL_I2C_Master_Transmit+0x20>
 80033ba:	f44f 7300 	mov.w	r3, #512	@ 0x200
 80033be:	6423      	str	r3, [r4, #64]	@ 0x40
 80033c0:	e7f9      	b.n	80033b6 <HAL_I2C_Master_Transmit+0xba>
 80033c2:	6923      	ldr	r3, [r4, #16]
 80033c4:	f5b3 4f80 	cmp.w	r3, #16384	@ 0x4000
 80033c8:	d121      	bne.n	800340e <HAL_I2C_Master_Transmit+0x112>
 80033ca:	f005 05fe 	and.w	r5, r5, #254	@ 0xfe
 80033ce:	6115      	str	r5, [r2, #16]
 80033d0:	4935      	ldr	r1, [pc, #212]	@ (80034a8 <HAL_I2C_Master_Transmit+0x1ac>)
 80033d2:	4633      	mov	r3, r6
 80033d4:	463a      	mov	r2, r7
 80033d6:	4620      	mov	r0, r4
 80033d8:	f7ff fe1e 	bl	8003018 <I2C_WaitOnMasterAddressFlagUntilTimeout>
 80033dc:	4605      	mov	r5, r0
 80033de:	2800      	cmp	r0, #0
 80033e0:	d1e9      	bne.n	80033b6 <HAL_I2C_Master_Transmit+0xba>
 80033e2:	6823      	ldr	r3, [r4, #0]
 80033e4:	9003      	str	r0, [sp, #12]
 80033e6:	695a      	ldr	r2, [r3, #20]
 80033e8:	9203      	str	r2, [sp, #12]
 80033ea:	699b      	ldr	r3, [r3, #24]
 80033ec:	9303      	str	r3, [sp, #12]
 80033ee:	9b03      	ldr	r3, [sp, #12]
 80033f0:	8d23      	ldrh	r3, [r4, #40]	@ 0x28
 80033f2:	b9f3      	cbnz	r3, 8003432 <HAL_I2C_Master_Transmit+0x136>
 80033f4:	6821      	ldr	r1, [r4, #0]
 80033f6:	680a      	ldr	r2, [r1, #0]
 80033f8:	f442 7200 	orr.w	r2, r2, #512	@ 0x200
 80033fc:	600a      	str	r2, [r1, #0]
 80033fe:	2220      	movs	r2, #32
 8003400:	f884 203d 	strb.w	r2, [r4, #61]	@ 0x3d
 8003404:	f884 303c 	strb.w	r3, [r4, #60]	@ 0x3c
 8003408:	f884 303e 	strb.w	r3, [r4, #62]	@ 0x3e
 800340c:	e786      	b.n	800331c <HAL_I2C_Master_Transmit+0x20>
 800340e:	11eb      	asrs	r3, r5, #7
 8003410:	f003 0306 	and.w	r3, r3, #6
 8003414:	f043 03f0 	orr.w	r3, r3, #240	@ 0xf0
 8003418:	6113      	str	r3, [r2, #16]
 800341a:	4924      	ldr	r1, [pc, #144]	@ (80034ac <HAL_I2C_Master_Transmit+0x1b0>)
 800341c:	4633      	mov	r3, r6
 800341e:	463a      	mov	r2, r7
 8003420:	4620      	mov	r0, r4
 8003422:	f7ff fdf9 	bl	8003018 <I2C_WaitOnMasterAddressFlagUntilTimeout>
 8003426:	2800      	cmp	r0, #0
 8003428:	d1c5      	bne.n	80033b6 <HAL_I2C_Master_Transmit+0xba>
 800342a:	6823      	ldr	r3, [r4, #0]
 800342c:	b2ed      	uxtb	r5, r5
 800342e:	611d      	str	r5, [r3, #16]
 8003430:	e7ce      	b.n	80033d0 <HAL_I2C_Master_Transmit+0xd4>
 8003432:	4632      	mov	r2, r6
 8003434:	4639      	mov	r1, r7
 8003436:	4620      	mov	r0, r4
 8003438:	f7ff fe30 	bl	800309c <I2C_WaitOnTXEFlagUntilTimeout>
 800343c:	b140      	cbz	r0, 8003450 <HAL_I2C_Master_Transmit+0x154>
 800343e:	6c23      	ldr	r3, [r4, #64]	@ 0x40
 8003440:	2b04      	cmp	r3, #4
 8003442:	d1b8      	bne.n	80033b6 <HAL_I2C_Master_Transmit+0xba>
 8003444:	6822      	ldr	r2, [r4, #0]
 8003446:	6813      	ldr	r3, [r2, #0]
 8003448:	f443 7300 	orr.w	r3, r3, #512	@ 0x200
 800344c:	6013      	str	r3, [r2, #0]
 800344e:	e7b2      	b.n	80033b6 <HAL_I2C_Master_Transmit+0xba>
 8003450:	6a63      	ldr	r3, [r4, #36]	@ 0x24
 8003452:	6820      	ldr	r0, [r4, #0]
 8003454:	461a      	mov	r2, r3
 8003456:	f812 1b01 	ldrb.w	r1, [r2], #1
 800345a:	6101      	str	r1, [r0, #16]
 800345c:	6262      	str	r2, [r4, #36]	@ 0x24
 800345e:	8d62      	ldrh	r2, [r4, #42]	@ 0x2a
 8003460:	3a01      	subs	r2, #1
 8003462:	b292      	uxth	r2, r2
 8003464:	8562      	strh	r2, [r4, #42]	@ 0x2a
 8003466:	8d22      	ldrh	r2, [r4, #40]	@ 0x28
 8003468:	f8d0 c014 	ldr.w	ip, [r0, #20]
 800346c:	1e51      	subs	r1, r2, #1
 800346e:	b289      	uxth	r1, r1
 8003470:	f01c 0f04 	tst.w	ip, #4
 8003474:	8521      	strh	r1, [r4, #40]	@ 0x28
 8003476:	d00a      	beq.n	800348e <HAL_I2C_Master_Transmit+0x192>
 8003478:	b149      	cbz	r1, 800348e <HAL_I2C_Master_Transmit+0x192>
 800347a:	7859      	ldrb	r1, [r3, #1]
 800347c:	6101      	str	r1, [r0, #16]
 800347e:	3302      	adds	r3, #2
 8003480:	6263      	str	r3, [r4, #36]	@ 0x24
 8003482:	8d63      	ldrh	r3, [r4, #42]	@ 0x2a
 8003484:	3b01      	subs	r3, #1
 8003486:	b29b      	uxth	r3, r3
 8003488:	3a02      	subs	r2, #2
 800348a:	8563      	strh	r3, [r4, #42]	@ 0x2a
 800348c:	8522      	strh	r2, [r4, #40]	@ 0x28
 800348e:	4632      	mov	r2, r6
 8003490:	4639      	mov	r1, r7
 8003492:	4620      	mov	r0, r4
 8003494:	f7ff fe2c 	bl	80030f0 <I2C_WaitOnBTFFlagUntilTimeout>
 8003498:	2800      	cmp	r0, #0
 800349a:	d0a9      	beq.n	80033f0 <HAL_I2C_Master_Transmit+0xf4>
 800349c:	e7cf      	b.n	800343e <HAL_I2C_Master_Transmit+0x142>
 800349e:	bf00      	nop
 80034a0:	00100002 	.word	0x00100002
 80034a4:	ffff0000 	.word	0xffff0000
 80034a8:	00010002 	.word	0x00010002
 80034ac:	00010008 	.word	0x00010008

080034b0 <HAL_I2C_Master_Receive>:
 80034b0:	e92d 43f0 	stmdb	sp!, {r4, r5, r6, r7, r8, r9, lr}
 80034b4:	4604      	mov	r4, r0
 80034b6:	b089      	sub	sp, #36	@ 0x24
 80034b8:	4698      	mov	r8, r3
 80034ba:	9f10      	ldr	r7, [sp, #64]	@ 0x40
 80034bc:	460e      	mov	r6, r1
 80034be:	4691      	mov	r9, r2
 80034c0:	f7fe feda 	bl	8002278 <HAL_GetTick>
 80034c4:	f894 303d 	ldrb.w	r3, [r4, #61]	@ 0x3d
 80034c8:	2b20      	cmp	r3, #32
 80034ca:	4605      	mov	r5, r0
 80034cc:	d004      	beq.n	80034d8 <HAL_I2C_Master_Receive+0x28>
 80034ce:	2602      	movs	r6, #2
 80034d0:	4630      	mov	r0, r6
 80034d2:	b009      	add	sp, #36	@ 0x24
 80034d4:	e8bd 83f0 	ldmia.w	sp!, {r4, r5, r6, r7, r8, r9, pc}
 80034d8:	9000      	str	r0, [sp, #0]
 80034da:	499a      	ldr	r1, [pc, #616]	@ (8003744 <HAL_I2C_Master_Receive+0x294>)
 80034dc:	2319      	movs	r3, #25
 80034de:	2201      	movs	r2, #1
 80034e0:	4620      	mov	r0, r4
 80034e2:	f7ff fd59 	bl	8002f98 <I2C_WaitOnFlagUntilTimeout>
 80034e6:	2800      	cmp	r0, #0
 80034e8:	d1f1      	bne.n	80034ce <HAL_I2C_Master_Receive+0x1e>
 80034ea:	f894 303c 	ldrb.w	r3, [r4, #60]	@ 0x3c
 80034ee:	2b01      	cmp	r3, #1
 80034f0:	d0ed      	beq.n	80034ce <HAL_I2C_Master_Receive+0x1e>
 80034f2:	6821      	ldr	r1, [r4, #0]
 80034f4:	2301      	movs	r3, #1
 80034f6:	f884 303c 	strb.w	r3, [r4, #60]	@ 0x3c
 80034fa:	680b      	ldr	r3, [r1, #0]
 80034fc:	07db      	lsls	r3, r3, #31
 80034fe:	bf5e      	ittt	pl
 8003500:	680b      	ldrpl	r3, [r1, #0]
 8003502:	f043 0301 	orrpl.w	r3, r3, #1
 8003506:	600b      	strpl	r3, [r1, #0]
 8003508:	680b      	ldr	r3, [r1, #0]
 800350a:	f423 6300 	bic.w	r3, r3, #2048	@ 0x800
 800350e:	600b      	str	r3, [r1, #0]
 8003510:	2322      	movs	r3, #34	@ 0x22
 8003512:	f884 303d 	strb.w	r3, [r4, #61]	@ 0x3d
 8003516:	2310      	movs	r3, #16
 8003518:	f884 303e 	strb.w	r3, [r4, #62]	@ 0x3e
 800351c:	2300      	movs	r3, #0
 800351e:	6423      	str	r3, [r4, #64]	@ 0x40
 8003520:	f8a4 802a 	strh.w	r8, [r4, #42]	@ 0x2a
 8003524:	8d63      	ldrh	r3, [r4, #42]	@ 0x2a
 8003526:	8523      	strh	r3, [r4, #40]	@ 0x28
 8003528:	4b87      	ldr	r3, [pc, #540]	@ (8003748 <HAL_I2C_Master_Receive+0x298>)
 800352a:	62e3      	str	r3, [r4, #44]	@ 0x2c
 800352c:	6ae3      	ldr	r3, [r4, #44]	@ 0x2c
 800352e:	680a      	ldr	r2, [r1, #0]
 8003530:	f8c4 9024 	str.w	r9, [r4, #36]	@ 0x24
 8003534:	f442 6280 	orr.w	r2, r2, #1024	@ 0x400
 8003538:	2b08      	cmp	r3, #8
 800353a:	600a      	str	r2, [r1, #0]
 800353c:	d004      	beq.n	8003548 <HAL_I2C_Master_Receive+0x98>
 800353e:	2b01      	cmp	r3, #1
 8003540:	d002      	beq.n	8003548 <HAL_I2C_Master_Receive+0x98>
 8003542:	f513 3f80 	cmn.w	r3, #65536	@ 0x10000
 8003546:	d104      	bne.n	8003552 <HAL_I2C_Master_Receive+0xa2>
 8003548:	680b      	ldr	r3, [r1, #0]
 800354a:	f443 7380 	orr.w	r3, r3, #256	@ 0x100
 800354e:	600b      	str	r3, [r1, #0]
 8003550:	e002      	b.n	8003558 <HAL_I2C_Master_Receive+0xa8>
 8003552:	6b23      	ldr	r3, [r4, #48]	@ 0x30
 8003554:	2b11      	cmp	r3, #17
 8003556:	d0f7      	beq.n	8003548 <HAL_I2C_Master_Receive+0x98>
 8003558:	463b      	mov	r3, r7
 800355a:	9500      	str	r5, [sp, #0]
 800355c:	2200      	movs	r2, #0
 800355e:	f04f 1101 	mov.w	r1, #65537	@ 0x10001
 8003562:	4620      	mov	r0, r4
 8003564:	f7ff fd18 	bl	8002f98 <I2C_WaitOnFlagUntilTimeout>
 8003568:	6823      	ldr	r3, [r4, #0]
 800356a:	b138      	cbz	r0, 800357c <HAL_I2C_Master_Receive+0xcc>
 800356c:	681b      	ldr	r3, [r3, #0]
 800356e:	05dd      	lsls	r5, r3, #23
 8003570:	bf44      	itt	mi
 8003572:	f44f 7300 	movmi.w	r3, #512	@ 0x200
 8003576:	6423      	strmi	r3, [r4, #64]	@ 0x40
 8003578:	2601      	movs	r6, #1
 800357a:	e7a9      	b.n	80034d0 <HAL_I2C_Master_Receive+0x20>
 800357c:	6922      	ldr	r2, [r4, #16]
 800357e:	f5b2 4f80 	cmp.w	r2, #16384	@ 0x4000
 8003582:	d127      	bne.n	80035d4 <HAL_I2C_Master_Receive+0x124>
 8003584:	f046 0601 	orr.w	r6, r6, #1
 8003588:	b2f6      	uxtb	r6, r6
 800358a:	611e      	str	r6, [r3, #16]
 800358c:	496f      	ldr	r1, [pc, #444]	@ (800374c <HAL_I2C_Master_Receive+0x29c>)
 800358e:	462b      	mov	r3, r5
 8003590:	463a      	mov	r2, r7
 8003592:	4620      	mov	r0, r4
 8003594:	f7ff fd40 	bl	8003018 <I2C_WaitOnMasterAddressFlagUntilTimeout>
 8003598:	4606      	mov	r6, r0
 800359a:	2800      	cmp	r0, #0
 800359c:	d1ec      	bne.n	8003578 <HAL_I2C_Master_Receive+0xc8>
 800359e:	8d23      	ldrh	r3, [r4, #40]	@ 0x28
 80035a0:	6821      	ldr	r1, [r4, #0]
 80035a2:	2b00      	cmp	r3, #0
 80035a4:	d14b      	bne.n	800363e <HAL_I2C_Master_Receive+0x18e>
 80035a6:	9003      	str	r0, [sp, #12]
 80035a8:	694b      	ldr	r3, [r1, #20]
 80035aa:	9303      	str	r3, [sp, #12]
 80035ac:	698b      	ldr	r3, [r1, #24]
 80035ae:	9303      	str	r3, [sp, #12]
 80035b0:	9b03      	ldr	r3, [sp, #12]
 80035b2:	680b      	ldr	r3, [r1, #0]
 80035b4:	f443 7300 	orr.w	r3, r3, #512	@ 0x200
 80035b8:	600b      	str	r3, [r1, #0]
 80035ba:	f8df 8198 	ldr.w	r8, [pc, #408]	@ 8003754 <HAL_I2C_Master_Receive+0x2a4>
 80035be:	8d23      	ldrh	r3, [r4, #40]	@ 0x28
 80035c0:	2b00      	cmp	r3, #0
 80035c2:	d164      	bne.n	800368e <HAL_I2C_Master_Receive+0x1de>
 80035c4:	2220      	movs	r2, #32
 80035c6:	f884 203d 	strb.w	r2, [r4, #61]	@ 0x3d
 80035ca:	f884 303c 	strb.w	r3, [r4, #60]	@ 0x3c
 80035ce:	f884 303e 	strb.w	r3, [r4, #62]	@ 0x3e
 80035d2:	e77d      	b.n	80034d0 <HAL_I2C_Master_Receive+0x20>
 80035d4:	ea4f 18e6 	mov.w	r8, r6, asr #7
 80035d8:	f008 0806 	and.w	r8, r8, #6
 80035dc:	f048 02f0 	orr.w	r2, r8, #240	@ 0xf0
 80035e0:	611a      	str	r2, [r3, #16]
 80035e2:	495b      	ldr	r1, [pc, #364]	@ (8003750 <HAL_I2C_Master_Receive+0x2a0>)
 80035e4:	462b      	mov	r3, r5
 80035e6:	463a      	mov	r2, r7
 80035e8:	4620      	mov	r0, r4
 80035ea:	f7ff fd15 	bl	8003018 <I2C_WaitOnMasterAddressFlagUntilTimeout>
 80035ee:	2800      	cmp	r0, #0
 80035f0:	d1c2      	bne.n	8003578 <HAL_I2C_Master_Receive+0xc8>
 80035f2:	6823      	ldr	r3, [r4, #0]
 80035f4:	4955      	ldr	r1, [pc, #340]	@ (800374c <HAL_I2C_Master_Receive+0x29c>)
 80035f6:	b2f6      	uxtb	r6, r6
 80035f8:	611e      	str	r6, [r3, #16]
 80035fa:	463a      	mov	r2, r7
 80035fc:	462b      	mov	r3, r5
 80035fe:	4620      	mov	r0, r4
 8003600:	f7ff fd0a 	bl	8003018 <I2C_WaitOnMasterAddressFlagUntilTimeout>
 8003604:	4602      	mov	r2, r0
 8003606:	2800      	cmp	r0, #0
 8003608:	d1b6      	bne.n	8003578 <HAL_I2C_Master_Receive+0xc8>
 800360a:	6823      	ldr	r3, [r4, #0]
 800360c:	9007      	str	r0, [sp, #28]
 800360e:	6959      	ldr	r1, [r3, #20]
 8003610:	9107      	str	r1, [sp, #28]
 8003612:	6999      	ldr	r1, [r3, #24]
 8003614:	9107      	str	r1, [sp, #28]
 8003616:	9907      	ldr	r1, [sp, #28]
 8003618:	6819      	ldr	r1, [r3, #0]
 800361a:	f441 7180 	orr.w	r1, r1, #256	@ 0x100
 800361e:	6019      	str	r1, [r3, #0]
 8003620:	4620      	mov	r0, r4
 8003622:	9500      	str	r5, [sp, #0]
 8003624:	463b      	mov	r3, r7
 8003626:	f04f 1101 	mov.w	r1, #65537	@ 0x10001
 800362a:	f7ff fcb5 	bl	8002f98 <I2C_WaitOnFlagUntilTimeout>
 800362e:	6822      	ldr	r2, [r4, #0]
 8003630:	b108      	cbz	r0, 8003636 <HAL_I2C_Master_Receive+0x186>
 8003632:	6813      	ldr	r3, [r2, #0]
 8003634:	e79b      	b.n	800356e <HAL_I2C_Master_Receive+0xbe>
 8003636:	f048 03f1 	orr.w	r3, r8, #241	@ 0xf1
 800363a:	6113      	str	r3, [r2, #16]
 800363c:	e7a6      	b.n	800358c <HAL_I2C_Master_Receive+0xdc>
 800363e:	2b01      	cmp	r3, #1
 8003640:	d10a      	bne.n	8003658 <HAL_I2C_Master_Receive+0x1a8>
 8003642:	680b      	ldr	r3, [r1, #0]
 8003644:	f423 6380 	bic.w	r3, r3, #1024	@ 0x400
 8003648:	600b      	str	r3, [r1, #0]
 800364a:	9004      	str	r0, [sp, #16]
 800364c:	694b      	ldr	r3, [r1, #20]
 800364e:	9304      	str	r3, [sp, #16]
 8003650:	698b      	ldr	r3, [r1, #24]
 8003652:	9304      	str	r3, [sp, #16]
 8003654:	9b04      	ldr	r3, [sp, #16]
 8003656:	e7ac      	b.n	80035b2 <HAL_I2C_Master_Receive+0x102>
 8003658:	2b02      	cmp	r3, #2
 800365a:	680b      	ldr	r3, [r1, #0]
 800365c:	d10d      	bne.n	800367a <HAL_I2C_Master_Receive+0x1ca>
 800365e:	f423 6380 	bic.w	r3, r3, #1024	@ 0x400
 8003662:	600b      	str	r3, [r1, #0]
 8003664:	680b      	ldr	r3, [r1, #0]
 8003666:	f443 6300 	orr.w	r3, r3, #2048	@ 0x800
 800366a:	600b      	str	r3, [r1, #0]
 800366c:	9005      	str	r0, [sp, #20]
 800366e:	694b      	ldr	r3, [r1, #20]
 8003670:	9305      	str	r3, [sp, #20]
 8003672:	698b      	ldr	r3, [r1, #24]
 8003674:	9305      	str	r3, [sp, #20]
 8003676:	9b05      	ldr	r3, [sp, #20]
 8003678:	e79f      	b.n	80035ba <HAL_I2C_Master_Receive+0x10a>
 800367a:	f443 6380 	orr.w	r3, r3, #1024	@ 0x400
 800367e:	600b      	str	r3, [r1, #0]
 8003680:	9006      	str	r0, [sp, #24]
 8003682:	694b      	ldr	r3, [r1, #20]
 8003684:	9306      	str	r3, [sp, #24]
 8003686:	698b      	ldr	r3, [r1, #24]
 8003688:	9306      	str	r3, [sp, #24]
 800368a:	9b06      	ldr	r3, [sp, #24]
 800368c:	e795      	b.n	80035ba <HAL_I2C_Master_Receive+0x10a>
 800368e:	2b03      	cmp	r3, #3
 8003690:	d862      	bhi.n	8003758 <HAL_I2C_Master_Receive+0x2a8>
 8003692:	2b01      	cmp	r3, #1
 8003694:	d116      	bne.n	80036c4 <HAL_I2C_Master_Receive+0x214>
 8003696:	462a      	mov	r2, r5
 8003698:	4639      	mov	r1, r7
 800369a:	4620      	mov	r0, r4
 800369c:	f7ff fd52 	bl	8003144 <I2C_WaitOnRXNEFlagUntilTimeout>
 80036a0:	2800      	cmp	r0, #0
 80036a2:	f47f af69 	bne.w	8003578 <HAL_I2C_Master_Receive+0xc8>
 80036a6:	6823      	ldr	r3, [r4, #0]
 80036a8:	691a      	ldr	r2, [r3, #16]
 80036aa:	6a63      	ldr	r3, [r4, #36]	@ 0x24
 80036ac:	701a      	strb	r2, [r3, #0]
 80036ae:	6a63      	ldr	r3, [r4, #36]	@ 0x24
 80036b0:	3301      	adds	r3, #1
 80036b2:	6263      	str	r3, [r4, #36]	@ 0x24
 80036b4:	8d23      	ldrh	r3, [r4, #40]	@ 0x28
 80036b6:	3b01      	subs	r3, #1
 80036b8:	8523      	strh	r3, [r4, #40]	@ 0x28
 80036ba:	8d63      	ldrh	r3, [r4, #42]	@ 0x2a
 80036bc:	3b01      	subs	r3, #1
 80036be:	b29b      	uxth	r3, r3
 80036c0:	8563      	strh	r3, [r4, #42]	@ 0x2a
 80036c2:	e77c      	b.n	80035be <HAL_I2C_Master_Receive+0x10e>
 80036c4:	2b02      	cmp	r3, #2
 80036c6:	9500      	str	r5, [sp, #0]
 80036c8:	463b      	mov	r3, r7
 80036ca:	f04f 0200 	mov.w	r2, #0
 80036ce:	4641      	mov	r1, r8
 80036d0:	4620      	mov	r0, r4
 80036d2:	d11a      	bne.n	800370a <HAL_I2C_Master_Receive+0x25a>
 80036d4:	f7ff fc60 	bl	8002f98 <I2C_WaitOnFlagUntilTimeout>
 80036d8:	2800      	cmp	r0, #0
 80036da:	f47f af4d 	bne.w	8003578 <HAL_I2C_Master_Receive+0xc8>
 80036de:	6823      	ldr	r3, [r4, #0]
 80036e0:	681a      	ldr	r2, [r3, #0]
 80036e2:	f442 7200 	orr.w	r2, r2, #512	@ 0x200
 80036e6:	601a      	str	r2, [r3, #0]
 80036e8:	691a      	ldr	r2, [r3, #16]
 80036ea:	6a63      	ldr	r3, [r4, #36]	@ 0x24
 80036ec:	701a      	strb	r2, [r3, #0]
 80036ee:	6a62      	ldr	r2, [r4, #36]	@ 0x24
 80036f0:	1c53      	adds	r3, r2, #1
 80036f2:	6263      	str	r3, [r4, #36]	@ 0x24
 80036f4:	8d23      	ldrh	r3, [r4, #40]	@ 0x28
 80036f6:	3b01      	subs	r3, #1
 80036f8:	8523      	strh	r3, [r4, #40]	@ 0x28
 80036fa:	8d63      	ldrh	r3, [r4, #42]	@ 0x2a
 80036fc:	3b01      	subs	r3, #1
 80036fe:	b29b      	uxth	r3, r3
 8003700:	8563      	strh	r3, [r4, #42]	@ 0x2a
 8003702:	6823      	ldr	r3, [r4, #0]
 8003704:	691b      	ldr	r3, [r3, #16]
 8003706:	7053      	strb	r3, [r2, #1]
 8003708:	e7d1      	b.n	80036ae <HAL_I2C_Master_Receive+0x1fe>
 800370a:	f7ff fc45 	bl	8002f98 <I2C_WaitOnFlagUntilTimeout>
 800370e:	4602      	mov	r2, r0
 8003710:	2800      	cmp	r0, #0
 8003712:	f47f af31 	bne.w	8003578 <HAL_I2C_Master_Receive+0xc8>
 8003716:	6823      	ldr	r3, [r4, #0]
 8003718:	6819      	ldr	r1, [r3, #0]
 800371a:	f421 6180 	bic.w	r1, r1, #1024	@ 0x400
 800371e:	6019      	str	r1, [r3, #0]
 8003720:	6919      	ldr	r1, [r3, #16]
 8003722:	6a63      	ldr	r3, [r4, #36]	@ 0x24
 8003724:	7019      	strb	r1, [r3, #0]
 8003726:	6a63      	ldr	r3, [r4, #36]	@ 0x24
 8003728:	3301      	adds	r3, #1
 800372a:	6263      	str	r3, [r4, #36]	@ 0x24
 800372c:	8d23      	ldrh	r3, [r4, #40]	@ 0x28
 800372e:	3b01      	subs	r3, #1
 8003730:	8523      	strh	r3, [r4, #40]	@ 0x28
 8003732:	8d63      	ldrh	r3, [r4, #42]	@ 0x2a
 8003734:	3b01      	subs	r3, #1
 8003736:	b29b      	uxth	r3, r3
 8003738:	8563      	strh	r3, [r4, #42]	@ 0x2a
 800373a:	4641      	mov	r1, r8
 800373c:	9500      	str	r5, [sp, #0]
 800373e:	463b      	mov	r3, r7
 8003740:	4620      	mov	r0, r4
 8003742:	e7c7      	b.n	80036d4 <HAL_I2C_Master_Receive+0x224>
 8003744:	00100002 	.word	0x00100002
 8003748:	ffff0000 	.word	0xffff0000
 800374c:	00010002 	.word	0x00010002
 8003750:	00010008 	.word	0x00010008
 8003754:	00010004 	.word	0x00010004
 8003758:	462a      	mov	r2, r5
 800375a:	4639      	mov	r1, r7
 800375c:	4620      	mov	r0, r4
 800375e:	f7ff fcf1 	bl	8003144 <I2C_WaitOnRXNEFlagUntilTimeout>
 8003762:	2800      	cmp	r0, #0
 8003764:	f47f af08 	bne.w	8003578 <HAL_I2C_Master_Receive+0xc8>
 8003768:	6823      	ldr	r3, [r4, #0]
 800376a:	691a      	ldr	r2, [r3, #16]
 800376c:	6a63      	ldr	r3, [r4, #36]	@ 0x24
 800376e:	701a      	strb	r2, [r3, #0]
 8003770:	8d62      	ldrh	r2, [r4, #42]	@ 0x2a
 8003772:	6a61      	ldr	r1, [r4, #36]	@ 0x24
 8003774:	3a01      	subs	r2, #1
 8003776:	b292      	uxth	r2, r2
 8003778:	1c4b      	adds	r3, r1, #1
 800377a:	8562      	strh	r2, [r4, #42]	@ 0x2a
 800377c:	6822      	ldr	r2, [r4, #0]
 800377e:	6263      	str	r3, [r4, #36]	@ 0x24
 8003780:	8d23      	ldrh	r3, [r4, #40]	@ 0x28
 8003782:	6950      	ldr	r0, [r2, #20]
 8003784:	3b01      	subs	r3, #1
 8003786:	b29b      	uxth	r3, r3
 8003788:	0740      	lsls	r0, r0, #29
 800378a:	8523      	strh	r3, [r4, #40]	@ 0x28
 800378c:	f57f af17 	bpl.w	80035be <HAL_I2C_Master_Receive+0x10e>
 8003790:	2b03      	cmp	r3, #3
 8003792:	bf02      	ittt	eq
 8003794:	6813      	ldreq	r3, [r2, #0]
 8003796:	f423 6380 	biceq.w	r3, r3, #1024	@ 0x400
 800379a:	6013      	streq	r3, [r2, #0]
 800379c:	6913      	ldr	r3, [r2, #16]
 800379e:	704b      	strb	r3, [r1, #1]
 80037a0:	e785      	b.n	80036ae <HAL_I2C_Master_Receive+0x1fe>
 80037a2:	bf00      	nop

080037a4 <HAL_I2CEx_ConfigAnalogFilter>:
 80037a4:	b510      	push	{r4, lr}
 80037a6:	f890 303d 	ldrb.w	r3, [r0, #61]	@ 0x3d
 80037aa:	2b20      	cmp	r3, #32
 80037ac:	b2dc      	uxtb	r4, r3
 80037ae:	d116      	bne.n	80037de <HAL_I2CEx_ConfigAnalogFilter+0x3a>
 80037b0:	2324      	movs	r3, #36	@ 0x24
 80037b2:	f880 303d 	strb.w	r3, [r0, #61]	@ 0x3d
 80037b6:	6803      	ldr	r3, [r0, #0]
 80037b8:	681a      	ldr	r2, [r3, #0]
 80037ba:	f022 0201 	bic.w	r2, r2, #1
 80037be:	601a      	str	r2, [r3, #0]
 80037c0:	6a5a      	ldr	r2, [r3, #36]	@ 0x24
 80037c2:	f022 0210 	bic.w	r2, r2, #16
 80037c6:	625a      	str	r2, [r3, #36]	@ 0x24
 80037c8:	6a5a      	ldr	r2, [r3, #36]	@ 0x24
 80037ca:	4311      	orrs	r1, r2
 80037cc:	6259      	str	r1, [r3, #36]	@ 0x24
 80037ce:	681a      	ldr	r2, [r3, #0]
 80037d0:	f042 0201 	orr.w	r2, r2, #1
 80037d4:	601a      	str	r2, [r3, #0]
 80037d6:	f880 403d 	strb.w	r4, [r0, #61]	@ 0x3d
 80037da:	2000      	movs	r0, #0
 80037dc:	bd10      	pop	{r4, pc}
 80037de:	2002      	movs	r0, #2
 80037e0:	e7fc      	b.n	80037dc <HAL_I2CEx_ConfigAnalogFilter+0x38>

080037e2 <HAL_I2CEx_ConfigDigitalFilter>:
 80037e2:	b530      	push	{r4, r5, lr}
 80037e4:	f890 303d 	ldrb.w	r3, [r0, #61]	@ 0x3d
 80037e8:	2b20      	cmp	r3, #32
 80037ea:	b2dc      	uxtb	r4, r3
 80037ec:	d116      	bne.n	800381c <HAL_I2CEx_ConfigDigitalFilter+0x3a>
 80037ee:	6802      	ldr	r2, [r0, #0]
 80037f0:	2324      	movs	r3, #36	@ 0x24
 80037f2:	f880 303d 	strb.w	r3, [r0, #61]	@ 0x3d
 80037f6:	6813      	ldr	r3, [r2, #0]
 80037f8:	f023 0301 	bic.w	r3, r3, #1
 80037fc:	6013      	str	r3, [r2, #0]
 80037fe:	6a55      	ldr	r5, [r2, #36]	@ 0x24
 8003800:	f64f 73f0 	movw	r3, #65520	@ 0xfff0
 8003804:	402b      	ands	r3, r5
 8003806:	430b      	orrs	r3, r1
 8003808:	b29b      	uxth	r3, r3
 800380a:	6253      	str	r3, [r2, #36]	@ 0x24
 800380c:	6813      	ldr	r3, [r2, #0]
 800380e:	f043 0301 	orr.w	r3, r3, #1
 8003812:	6013      	str	r3, [r2, #0]
 8003814:	f880 403d 	strb.w	r4, [r0, #61]	@ 0x3d
 8003818:	2000      	movs	r0, #0
 800381a:	bd30      	pop	{r4, r5, pc}
 800381c:	2002      	movs	r0, #2
 800381e:	e7fc      	b.n	800381a <HAL_I2CEx_ConfigDigitalFilter+0x38>

08003820 <HAL_PWR_EnableBkUpAccess>:
 8003820:	4b04      	ldr	r3, [pc, #16]	@ (8003834 <HAL_PWR_EnableBkUpAccess+0x14>)
 8003822:	2201      	movs	r2, #1
 8003824:	621a      	str	r2, [r3, #32]
 8003826:	4b04      	ldr	r3, [pc, #16]	@ (8003838 <HAL_PWR_EnableBkUpAccess+0x18>)
 8003828:	b082      	sub	sp, #8
 800382a:	681b      	ldr	r3, [r3, #0]
 800382c:	9301      	str	r3, [sp, #4]
 800382e:	9b01      	ldr	r3, [sp, #4]
 8003830:	b002      	add	sp, #8
 8003832:	4770      	bx	lr
 8003834:	420e0000 	.word	0x420e0000
 8003838:	40007000 	.word	0x40007000

0800383c <HAL_PWR_DisableBkUpAccess>:
 800383c:	4b04      	ldr	r3, [pc, #16]	@ (8003850 <HAL_PWR_DisableBkUpAccess+0x14>)
 800383e:	2200      	movs	r2, #0
 8003840:	621a      	str	r2, [r3, #32]
 8003842:	4b04      	ldr	r3, [pc, #16]	@ (8003854 <HAL_PWR_DisableBkUpAccess+0x18>)
 8003844:	b082      	sub	sp, #8
 8003846:	681b      	ldr	r3, [r3, #0]
 8003848:	9301      	str	r3, [sp, #4]
 800384a:	9b01      	ldr	r3, [sp, #4]
 800384c:	b002      	add	sp, #8
 800384e:	4770      	bx	lr
 8003850:	420e0000 	.word	0x420e0000
 8003854:	40007000 	.word	0x40007000

08003858 <HAL_RCC_OscConfig>:
 8003858:	e92d 41f3 	stmdb	sp!, {r0, r1, r4, r5, r6, r7, r8, lr}
 800385c:	4604      	mov	r4, r0
 800385e:	b340      	cbz	r0, 80038b2 <HAL_RCC_OscConfig+0x5a>
 8003860:	6803      	ldr	r3, [r0, #0]
 8003862:	07de      	lsls	r6, r3, #31
 8003864:	d410      	bmi.n	8003888 <HAL_RCC_OscConfig+0x30>
 8003866:	6823      	ldr	r3, [r4, #0]
 8003868:	079d      	lsls	r5, r3, #30
 800386a:	d45b      	bmi.n	8003924 <HAL_RCC_OscConfig+0xcc>
 800386c:	6823      	ldr	r3, [r4, #0]
 800386e:	0719      	lsls	r1, r3, #28
 8003870:	f100 809d 	bmi.w	80039ae <HAL_RCC_OscConfig+0x156>
 8003874:	6823      	ldr	r3, [r4, #0]
 8003876:	075a      	lsls	r2, r3, #29
 8003878:	f100 80bd 	bmi.w	80039f6 <HAL_RCC_OscConfig+0x19e>
 800387c:	69a3      	ldr	r3, [r4, #24]
 800387e:	2b00      	cmp	r3, #0
 8003880:	f040 8124 	bne.w	8003acc <HAL_RCC_OscConfig+0x274>
 8003884:	2000      	movs	r0, #0
 8003886:	e02c      	b.n	80038e2 <HAL_RCC_OscConfig+0x8a>
 8003888:	4b8d      	ldr	r3, [pc, #564]	@ (8003ac0 <HAL_RCC_OscConfig+0x268>)
 800388a:	689a      	ldr	r2, [r3, #8]
 800388c:	f002 020c 	and.w	r2, r2, #12
 8003890:	2a04      	cmp	r2, #4
 8003892:	d007      	beq.n	80038a4 <HAL_RCC_OscConfig+0x4c>
 8003894:	689a      	ldr	r2, [r3, #8]
 8003896:	f002 020c 	and.w	r2, r2, #12
 800389a:	2a08      	cmp	r2, #8
 800389c:	d10b      	bne.n	80038b6 <HAL_RCC_OscConfig+0x5e>
 800389e:	685b      	ldr	r3, [r3, #4]
 80038a0:	0259      	lsls	r1, r3, #9
 80038a2:	d508      	bpl.n	80038b6 <HAL_RCC_OscConfig+0x5e>
 80038a4:	4b86      	ldr	r3, [pc, #536]	@ (8003ac0 <HAL_RCC_OscConfig+0x268>)
 80038a6:	681b      	ldr	r3, [r3, #0]
 80038a8:	039a      	lsls	r2, r3, #14
 80038aa:	d5dc      	bpl.n	8003866 <HAL_RCC_OscConfig+0xe>
 80038ac:	6863      	ldr	r3, [r4, #4]
 80038ae:	2b00      	cmp	r3, #0
 80038b0:	d1d9      	bne.n	8003866 <HAL_RCC_OscConfig+0xe>
 80038b2:	2001      	movs	r0, #1
 80038b4:	e015      	b.n	80038e2 <HAL_RCC_OscConfig+0x8a>
 80038b6:	6863      	ldr	r3, [r4, #4]
 80038b8:	4d81      	ldr	r5, [pc, #516]	@ (8003ac0 <HAL_RCC_OscConfig+0x268>)
 80038ba:	f5b3 3f80 	cmp.w	r3, #65536	@ 0x10000
 80038be:	d113      	bne.n	80038e8 <HAL_RCC_OscConfig+0x90>
 80038c0:	682b      	ldr	r3, [r5, #0]
 80038c2:	f443 3380 	orr.w	r3, r3, #65536	@ 0x10000
 80038c6:	602b      	str	r3, [r5, #0]
 80038c8:	f7fe fcd6 	bl	8002278 <HAL_GetTick>
 80038cc:	4e7c      	ldr	r6, [pc, #496]	@ (8003ac0 <HAL_RCC_OscConfig+0x268>)
 80038ce:	4605      	mov	r5, r0
 80038d0:	6833      	ldr	r3, [r6, #0]
 80038d2:	039b      	lsls	r3, r3, #14
 80038d4:	d4c7      	bmi.n	8003866 <HAL_RCC_OscConfig+0xe>
 80038d6:	f7fe fccf 	bl	8002278 <HAL_GetTick>
 80038da:	1b40      	subs	r0, r0, r5
 80038dc:	2864      	cmp	r0, #100	@ 0x64
 80038de:	d9f7      	bls.n	80038d0 <HAL_RCC_OscConfig+0x78>
 80038e0:	2003      	movs	r0, #3
 80038e2:	b002      	add	sp, #8
 80038e4:	e8bd 81f0 	ldmia.w	sp!, {r4, r5, r6, r7, r8, pc}
 80038e8:	f5b3 2fa0 	cmp.w	r3, #327680	@ 0x50000
 80038ec:	d104      	bne.n	80038f8 <HAL_RCC_OscConfig+0xa0>
 80038ee:	682b      	ldr	r3, [r5, #0]
 80038f0:	f443 2380 	orr.w	r3, r3, #262144	@ 0x40000
 80038f4:	602b      	str	r3, [r5, #0]
 80038f6:	e7e3      	b.n	80038c0 <HAL_RCC_OscConfig+0x68>
 80038f8:	682a      	ldr	r2, [r5, #0]
 80038fa:	f422 3280 	bic.w	r2, r2, #65536	@ 0x10000
 80038fe:	602a      	str	r2, [r5, #0]
 8003900:	682a      	ldr	r2, [r5, #0]
 8003902:	f422 2280 	bic.w	r2, r2, #262144	@ 0x40000
 8003906:	602a      	str	r2, [r5, #0]
 8003908:	2b00      	cmp	r3, #0
 800390a:	d1dd      	bne.n	80038c8 <HAL_RCC_OscConfig+0x70>
 800390c:	f7fe fcb4 	bl	8002278 <HAL_GetTick>
 8003910:	4606      	mov	r6, r0
 8003912:	682b      	ldr	r3, [r5, #0]
 8003914:	039f      	lsls	r7, r3, #14
 8003916:	d5a6      	bpl.n	8003866 <HAL_RCC_OscConfig+0xe>
 8003918:	f7fe fcae 	bl	8002278 <HAL_GetTick>
 800391c:	1b80      	subs	r0, r0, r6
 800391e:	2864      	cmp	r0, #100	@ 0x64
 8003920:	d9f7      	bls.n	8003912 <HAL_RCC_OscConfig+0xba>
 8003922:	e7dd      	b.n	80038e0 <HAL_RCC_OscConfig+0x88>
 8003924:	4b66      	ldr	r3, [pc, #408]	@ (8003ac0 <HAL_RCC_OscConfig+0x268>)
 8003926:	689a      	ldr	r2, [r3, #8]
 8003928:	f012 0f0c 	tst.w	r2, #12
 800392c:	d007      	beq.n	800393e <HAL_RCC_OscConfig+0xe6>
 800392e:	689a      	ldr	r2, [r3, #8]
 8003930:	f002 020c 	and.w	r2, r2, #12
 8003934:	2a08      	cmp	r2, #8
 8003936:	d111      	bne.n	800395c <HAL_RCC_OscConfig+0x104>
 8003938:	685b      	ldr	r3, [r3, #4]
 800393a:	025d      	lsls	r5, r3, #9
 800393c:	d40e      	bmi.n	800395c <HAL_RCC_OscConfig+0x104>
 800393e:	4a60      	ldr	r2, [pc, #384]	@ (8003ac0 <HAL_RCC_OscConfig+0x268>)
 8003940:	6813      	ldr	r3, [r2, #0]
 8003942:	0799      	lsls	r1, r3, #30
 8003944:	d502      	bpl.n	800394c <HAL_RCC_OscConfig+0xf4>
 8003946:	68e3      	ldr	r3, [r4, #12]
 8003948:	2b01      	cmp	r3, #1
 800394a:	d1b2      	bne.n	80038b2 <HAL_RCC_OscConfig+0x5a>
 800394c:	6813      	ldr	r3, [r2, #0]
 800394e:	6921      	ldr	r1, [r4, #16]
 8003950:	f023 03f8 	bic.w	r3, r3, #248	@ 0xf8
 8003954:	ea43 03c1 	orr.w	r3, r3, r1, lsl #3
 8003958:	6013      	str	r3, [r2, #0]
 800395a:	e787      	b.n	800386c <HAL_RCC_OscConfig+0x14>
 800395c:	68e2      	ldr	r2, [r4, #12]
 800395e:	4b59      	ldr	r3, [pc, #356]	@ (8003ac4 <HAL_RCC_OscConfig+0x26c>)
 8003960:	b1b2      	cbz	r2, 8003990 <HAL_RCC_OscConfig+0x138>
 8003962:	2201      	movs	r2, #1
 8003964:	601a      	str	r2, [r3, #0]
 8003966:	f7fe fc87 	bl	8002278 <HAL_GetTick>
 800396a:	4d55      	ldr	r5, [pc, #340]	@ (8003ac0 <HAL_RCC_OscConfig+0x268>)
 800396c:	4606      	mov	r6, r0
 800396e:	682b      	ldr	r3, [r5, #0]
 8003970:	079b      	lsls	r3, r3, #30
 8003972:	d507      	bpl.n	8003984 <HAL_RCC_OscConfig+0x12c>
 8003974:	682b      	ldr	r3, [r5, #0]
 8003976:	6922      	ldr	r2, [r4, #16]
 8003978:	f023 03f8 	bic.w	r3, r3, #248	@ 0xf8
 800397c:	ea43 03c2 	orr.w	r3, r3, r2, lsl #3
 8003980:	602b      	str	r3, [r5, #0]
 8003982:	e773      	b.n	800386c <HAL_RCC_OscConfig+0x14>
 8003984:	f7fe fc78 	bl	8002278 <HAL_GetTick>
 8003988:	1b80      	subs	r0, r0, r6
 800398a:	2802      	cmp	r0, #2
 800398c:	d9ef      	bls.n	800396e <HAL_RCC_OscConfig+0x116>
 800398e:	e7a7      	b.n	80038e0 <HAL_RCC_OscConfig+0x88>
 8003990:	601a      	str	r2, [r3, #0]
 8003992:	f7fe fc71 	bl	8002278 <HAL_GetTick>
 8003996:	4e4a      	ldr	r6, [pc, #296]	@ (8003ac0 <HAL_RCC_OscConfig+0x268>)
 8003998:	4605      	mov	r5, r0
 800399a:	6833      	ldr	r3, [r6, #0]
 800399c:	079f      	lsls	r7, r3, #30
 800399e:	f57f af65 	bpl.w	800386c <HAL_RCC_OscConfig+0x14>
 80039a2:	f7fe fc69 	bl	8002278 <HAL_GetTick>
 80039a6:	1b40      	subs	r0, r0, r5
 80039a8:	2802      	cmp	r0, #2
 80039aa:	d9f6      	bls.n	800399a <HAL_RCC_OscConfig+0x142>
 80039ac:	e798      	b.n	80038e0 <HAL_RCC_OscConfig+0x88>
 80039ae:	6962      	ldr	r2, [r4, #20]
 80039b0:	4b44      	ldr	r3, [pc, #272]	@ (8003ac4 <HAL_RCC_OscConfig+0x26c>)
 80039b2:	b182      	cbz	r2, 80039d6 <HAL_RCC_OscConfig+0x17e>
 80039b4:	2201      	movs	r2, #1
 80039b6:	f8c3 2e80 	str.w	r2, [r3, #3712]	@ 0xe80
 80039ba:	f7fe fc5d 	bl	8002278 <HAL_GetTick>
 80039be:	4e40      	ldr	r6, [pc, #256]	@ (8003ac0 <HAL_RCC_OscConfig+0x268>)
 80039c0:	4605      	mov	r5, r0
 80039c2:	6f73      	ldr	r3, [r6, #116]	@ 0x74
 80039c4:	079b      	lsls	r3, r3, #30
 80039c6:	f53f af55 	bmi.w	8003874 <HAL_RCC_OscConfig+0x1c>
 80039ca:	f7fe fc55 	bl	8002278 <HAL_GetTick>
 80039ce:	1b40      	subs	r0, r0, r5
 80039d0:	2802      	cmp	r0, #2
 80039d2:	d9f6      	bls.n	80039c2 <HAL_RCC_OscConfig+0x16a>
 80039d4:	e784      	b.n	80038e0 <HAL_RCC_OscConfig+0x88>
 80039d6:	f8c3 2e80 	str.w	r2, [r3, #3712]	@ 0xe80
 80039da:	f7fe fc4d 	bl	8002278 <HAL_GetTick>
 80039de:	4e38      	ldr	r6, [pc, #224]	@ (8003ac0 <HAL_RCC_OscConfig+0x268>)
 80039e0:	4605      	mov	r5, r0
 80039e2:	6f73      	ldr	r3, [r6, #116]	@ 0x74
 80039e4:	079f      	lsls	r7, r3, #30
 80039e6:	f57f af45 	bpl.w	8003874 <HAL_RCC_OscConfig+0x1c>
 80039ea:	f7fe fc45 	bl	8002278 <HAL_GetTick>
 80039ee:	1b40      	subs	r0, r0, r5
 80039f0:	2802      	cmp	r0, #2
 80039f2:	d9f6      	bls.n	80039e2 <HAL_RCC_OscConfig+0x18a>
 80039f4:	e774      	b.n	80038e0 <HAL_RCC_OscConfig+0x88>
 80039f6:	4b32      	ldr	r3, [pc, #200]	@ (8003ac0 <HAL_RCC_OscConfig+0x268>)
 80039f8:	6c1a      	ldr	r2, [r3, #64]	@ 0x40
 80039fa:	f012 5280 	ands.w	r2, r2, #268435456	@ 0x10000000
 80039fe:	d128      	bne.n	8003a52 <HAL_RCC_OscConfig+0x1fa>
 8003a00:	9201      	str	r2, [sp, #4]
 8003a02:	6c1a      	ldr	r2, [r3, #64]	@ 0x40
 8003a04:	f042 5280 	orr.w	r2, r2, #268435456	@ 0x10000000
 8003a08:	641a      	str	r2, [r3, #64]	@ 0x40
 8003a0a:	6c1b      	ldr	r3, [r3, #64]	@ 0x40
 8003a0c:	f003 5380 	and.w	r3, r3, #268435456	@ 0x10000000
 8003a10:	9301      	str	r3, [sp, #4]
 8003a12:	9b01      	ldr	r3, [sp, #4]
 8003a14:	2701      	movs	r7, #1
 8003a16:	4d2c      	ldr	r5, [pc, #176]	@ (8003ac8 <HAL_RCC_OscConfig+0x270>)
 8003a18:	682b      	ldr	r3, [r5, #0]
 8003a1a:	05d8      	lsls	r0, r3, #23
 8003a1c:	d51b      	bpl.n	8003a56 <HAL_RCC_OscConfig+0x1fe>
 8003a1e:	68a3      	ldr	r3, [r4, #8]
 8003a20:	4d27      	ldr	r5, [pc, #156]	@ (8003ac0 <HAL_RCC_OscConfig+0x268>)
 8003a22:	2b01      	cmp	r3, #1
 8003a24:	d127      	bne.n	8003a76 <HAL_RCC_OscConfig+0x21e>
 8003a26:	6f2b      	ldr	r3, [r5, #112]	@ 0x70
 8003a28:	f043 0301 	orr.w	r3, r3, #1
 8003a2c:	672b      	str	r3, [r5, #112]	@ 0x70
 8003a2e:	f7fe fc23 	bl	8002278 <HAL_GetTick>
 8003a32:	4e23      	ldr	r6, [pc, #140]	@ (8003ac0 <HAL_RCC_OscConfig+0x268>)
 8003a34:	4605      	mov	r5, r0
 8003a36:	f241 3888 	movw	r8, #5000	@ 0x1388
 8003a3a:	6f33      	ldr	r3, [r6, #112]	@ 0x70
 8003a3c:	079a      	lsls	r2, r3, #30
 8003a3e:	d539      	bpl.n	8003ab4 <HAL_RCC_OscConfig+0x25c>
 8003a40:	2f00      	cmp	r7, #0
 8003a42:	f43f af1b 	beq.w	800387c <HAL_RCC_OscConfig+0x24>
 8003a46:	4a1e      	ldr	r2, [pc, #120]	@ (8003ac0 <HAL_RCC_OscConfig+0x268>)
 8003a48:	6c13      	ldr	r3, [r2, #64]	@ 0x40
 8003a4a:	f023 5380 	bic.w	r3, r3, #268435456	@ 0x10000000
 8003a4e:	6413      	str	r3, [r2, #64]	@ 0x40
 8003a50:	e714      	b.n	800387c <HAL_RCC_OscConfig+0x24>
 8003a52:	2700      	movs	r7, #0
 8003a54:	e7df      	b.n	8003a16 <HAL_RCC_OscConfig+0x1be>
 8003a56:	682b      	ldr	r3, [r5, #0]
 8003a58:	f443 7380 	orr.w	r3, r3, #256	@ 0x100
 8003a5c:	602b      	str	r3, [r5, #0]
 8003a5e:	f7fe fc0b 	bl	8002278 <HAL_GetTick>
 8003a62:	4606      	mov	r6, r0
 8003a64:	682b      	ldr	r3, [r5, #0]
 8003a66:	05d9      	lsls	r1, r3, #23
 8003a68:	d4d9      	bmi.n	8003a1e <HAL_RCC_OscConfig+0x1c6>
 8003a6a:	f7fe fc05 	bl	8002278 <HAL_GetTick>
 8003a6e:	1b80      	subs	r0, r0, r6
 8003a70:	2802      	cmp	r0, #2
 8003a72:	d9f7      	bls.n	8003a64 <HAL_RCC_OscConfig+0x20c>
 8003a74:	e734      	b.n	80038e0 <HAL_RCC_OscConfig+0x88>
 8003a76:	2b05      	cmp	r3, #5
 8003a78:	d104      	bne.n	8003a84 <HAL_RCC_OscConfig+0x22c>
 8003a7a:	6f2b      	ldr	r3, [r5, #112]	@ 0x70
 8003a7c:	f043 0304 	orr.w	r3, r3, #4
 8003a80:	672b      	str	r3, [r5, #112]	@ 0x70
 8003a82:	e7d0      	b.n	8003a26 <HAL_RCC_OscConfig+0x1ce>
 8003a84:	6f2a      	ldr	r2, [r5, #112]	@ 0x70
 8003a86:	f022 0201 	bic.w	r2, r2, #1
 8003a8a:	672a      	str	r2, [r5, #112]	@ 0x70
 8003a8c:	6f2a      	ldr	r2, [r5, #112]	@ 0x70
 8003a8e:	f022 0204 	bic.w	r2, r2, #4
 8003a92:	672a      	str	r2, [r5, #112]	@ 0x70
 8003a94:	2b00      	cmp	r3, #0
 8003a96:	d1ca      	bne.n	8003a2e <HAL_RCC_OscConfig+0x1d6>
 8003a98:	f7fe fbee 	bl	8002278 <HAL_GetTick>
 8003a9c:	f241 3888 	movw	r8, #5000	@ 0x1388
 8003aa0:	4606      	mov	r6, r0
 8003aa2:	6f2b      	ldr	r3, [r5, #112]	@ 0x70
 8003aa4:	079b      	lsls	r3, r3, #30
 8003aa6:	d5cb      	bpl.n	8003a40 <HAL_RCC_OscConfig+0x1e8>
 8003aa8:	f7fe fbe6 	bl	8002278 <HAL_GetTick>
 8003aac:	1b80      	subs	r0, r0, r6
 8003aae:	4540      	cmp	r0, r8
 8003ab0:	d9f7      	bls.n	8003aa2 <HAL_RCC_OscConfig+0x24a>
 8003ab2:	e715      	b.n	80038e0 <HAL_RCC_OscConfig+0x88>
 8003ab4:	f7fe fbe0 	bl	8002278 <HAL_GetTick>
 8003ab8:	1b40      	subs	r0, r0, r5
 8003aba:	4540      	cmp	r0, r8
 8003abc:	d9bd      	bls.n	8003a3a <HAL_RCC_OscConfig+0x1e2>
 8003abe:	e70f      	b.n	80038e0 <HAL_RCC_OscConfig+0x88>
 8003ac0:	40023800 	.word	0x40023800
 8003ac4:	42470000 	.word	0x42470000
 8003ac8:	40007000 	.word	0x40007000
 8003acc:	4d37      	ldr	r5, [pc, #220]	@ (8003bac <HAL_RCC_OscConfig+0x354>)
 8003ace:	68aa      	ldr	r2, [r5, #8]
 8003ad0:	f002 020c 	and.w	r2, r2, #12
 8003ad4:	2a08      	cmp	r2, #8
 8003ad6:	d03e      	beq.n	8003b56 <HAL_RCC_OscConfig+0x2fe>
 8003ad8:	2b02      	cmp	r3, #2
 8003ada:	4b35      	ldr	r3, [pc, #212]	@ (8003bb0 <HAL_RCC_OscConfig+0x358>)
 8003adc:	f04f 0200 	mov.w	r2, #0
 8003ae0:	661a      	str	r2, [r3, #96]	@ 0x60
 8003ae2:	d12b      	bne.n	8003b3c <HAL_RCC_OscConfig+0x2e4>
 8003ae4:	f7fe fbc8 	bl	8002278 <HAL_GetTick>
 8003ae8:	4606      	mov	r6, r0
 8003aea:	682b      	ldr	r3, [r5, #0]
 8003aec:	0199      	lsls	r1, r3, #6
 8003aee:	d41f      	bmi.n	8003b30 <HAL_RCC_OscConfig+0x2d8>
 8003af0:	e9d4 3207 	ldrd	r3, r2, [r4, #28]
 8003af4:	4313      	orrs	r3, r2
 8003af6:	6a62      	ldr	r2, [r4, #36]	@ 0x24
 8003af8:	ea43 1382 	orr.w	r3, r3, r2, lsl #6
 8003afc:	6ae2      	ldr	r2, [r4, #44]	@ 0x2c
 8003afe:	ea43 6302 	orr.w	r3, r3, r2, lsl #24
 8003b02:	6aa2      	ldr	r2, [r4, #40]	@ 0x28
 8003b04:	0852      	lsrs	r2, r2, #1
 8003b06:	3a01      	subs	r2, #1
 8003b08:	ea43 4302 	orr.w	r3, r3, r2, lsl #16
 8003b0c:	606b      	str	r3, [r5, #4]
 8003b0e:	4b28      	ldr	r3, [pc, #160]	@ (8003bb0 <HAL_RCC_OscConfig+0x358>)
 8003b10:	4d26      	ldr	r5, [pc, #152]	@ (8003bac <HAL_RCC_OscConfig+0x354>)
 8003b12:	2201      	movs	r2, #1
 8003b14:	661a      	str	r2, [r3, #96]	@ 0x60
 8003b16:	f7fe fbaf 	bl	8002278 <HAL_GetTick>
 8003b1a:	4604      	mov	r4, r0
 8003b1c:	682b      	ldr	r3, [r5, #0]
 8003b1e:	019a      	lsls	r2, r3, #6
 8003b20:	f53f aeb0 	bmi.w	8003884 <HAL_RCC_OscConfig+0x2c>
 8003b24:	f7fe fba8 	bl	8002278 <HAL_GetTick>
 8003b28:	1b00      	subs	r0, r0, r4
 8003b2a:	2802      	cmp	r0, #2
 8003b2c:	d9f6      	bls.n	8003b1c <HAL_RCC_OscConfig+0x2c4>
 8003b2e:	e6d7      	b.n	80038e0 <HAL_RCC_OscConfig+0x88>
 8003b30:	f7fe fba2 	bl	8002278 <HAL_GetTick>
 8003b34:	1b80      	subs	r0, r0, r6
 8003b36:	2802      	cmp	r0, #2
 8003b38:	d9d7      	bls.n	8003aea <HAL_RCC_OscConfig+0x292>
 8003b3a:	e6d1      	b.n	80038e0 <HAL_RCC_OscConfig+0x88>
 8003b3c:	f7fe fb9c 	bl	8002278 <HAL_GetTick>
 8003b40:	4604      	mov	r4, r0
 8003b42:	682b      	ldr	r3, [r5, #0]
 8003b44:	019b      	lsls	r3, r3, #6
 8003b46:	f57f ae9d 	bpl.w	8003884 <HAL_RCC_OscConfig+0x2c>
 8003b4a:	f7fe fb95 	bl	8002278 <HAL_GetTick>
 8003b4e:	1b00      	subs	r0, r0, r4
 8003b50:	2802      	cmp	r0, #2
 8003b52:	d9f6      	bls.n	8003b42 <HAL_RCC_OscConfig+0x2ea>
 8003b54:	e6c4      	b.n	80038e0 <HAL_RCC_OscConfig+0x88>
 8003b56:	2b01      	cmp	r3, #1
 8003b58:	f43f aeab 	beq.w	80038b2 <HAL_RCC_OscConfig+0x5a>
 8003b5c:	686b      	ldr	r3, [r5, #4]
 8003b5e:	69e2      	ldr	r2, [r4, #28]
 8003b60:	f403 0180 	and.w	r1, r3, #4194304	@ 0x400000
 8003b64:	4291      	cmp	r1, r2
 8003b66:	f47f aea4 	bne.w	80038b2 <HAL_RCC_OscConfig+0x5a>
 8003b6a:	6a21      	ldr	r1, [r4, #32]
 8003b6c:	f003 023f 	and.w	r2, r3, #63	@ 0x3f
 8003b70:	428a      	cmp	r2, r1
 8003b72:	f47f ae9e 	bne.w	80038b2 <HAL_RCC_OscConfig+0x5a>
 8003b76:	6a61      	ldr	r1, [r4, #36]	@ 0x24
 8003b78:	f647 72c0 	movw	r2, #32704	@ 0x7fc0
 8003b7c:	401a      	ands	r2, r3
 8003b7e:	ebb2 1f81 	cmp.w	r2, r1, lsl #6
 8003b82:	f47f ae96 	bne.w	80038b2 <HAL_RCC_OscConfig+0x5a>
 8003b86:	6aa2      	ldr	r2, [r4, #40]	@ 0x28
 8003b88:	0852      	lsrs	r2, r2, #1
 8003b8a:	f403 3140 	and.w	r1, r3, #196608	@ 0x30000
 8003b8e:	3a01      	subs	r2, #1
 8003b90:	ebb1 4f02 	cmp.w	r1, r2, lsl #16
 8003b94:	f47f ae8d 	bne.w	80038b2 <HAL_RCC_OscConfig+0x5a>
 8003b98:	6ae2      	ldr	r2, [r4, #44]	@ 0x2c
 8003b9a:	f003 6370 	and.w	r3, r3, #251658240	@ 0xf000000
 8003b9e:	ebb3 6f02 	cmp.w	r3, r2, lsl #24
 8003ba2:	bf14      	ite	ne
 8003ba4:	2001      	movne	r0, #1
 8003ba6:	2000      	moveq	r0, #0
 8003ba8:	e69b      	b.n	80038e2 <HAL_RCC_OscConfig+0x8a>
 8003baa:	bf00      	nop
 8003bac:	40023800 	.word	0x40023800
 8003bb0:	42470000 	.word	0x42470000

08003bb4 <HAL_RCC_GetSysClockFreq>:
 8003bb4:	4913      	ldr	r1, [pc, #76]	@ (8003c04 <HAL_RCC_GetSysClockFreq+0x50>)
 8003bb6:	b508      	push	{r3, lr}
 8003bb8:	688b      	ldr	r3, [r1, #8]
 8003bba:	f003 030c 	and.w	r3, r3, #12
 8003bbe:	2b04      	cmp	r3, #4
 8003bc0:	d01c      	beq.n	8003bfc <HAL_RCC_GetSysClockFreq+0x48>
 8003bc2:	2b08      	cmp	r3, #8
 8003bc4:	d11c      	bne.n	8003c00 <HAL_RCC_GetSysClockFreq+0x4c>
 8003bc6:	684a      	ldr	r2, [r1, #4]
 8003bc8:	684b      	ldr	r3, [r1, #4]
 8003bca:	6849      	ldr	r1, [r1, #4]
 8003bcc:	f413 0380 	ands.w	r3, r3, #4194304	@ 0x400000
 8003bd0:	bf14      	ite	ne
 8003bd2:	480d      	ldrne	r0, [pc, #52]	@ (8003c08 <HAL_RCC_GetSysClockFreq+0x54>)
 8003bd4:	480d      	ldreq	r0, [pc, #52]	@ (8003c0c <HAL_RCC_GetSysClockFreq+0x58>)
 8003bd6:	f3c1 1188 	ubfx	r1, r1, #6, #9
 8003bda:	bf18      	it	ne
 8003bdc:	2300      	movne	r3, #0
 8003bde:	f002 023f 	and.w	r2, r2, #63	@ 0x3f
 8003be2:	fba1 0100 	umull	r0, r1, r1, r0
 8003be6:	f7fc fb09 	bl	80001fc <__aeabi_uldivmod>
 8003bea:	4b06      	ldr	r3, [pc, #24]	@ (8003c04 <HAL_RCC_GetSysClockFreq+0x50>)
 8003bec:	685b      	ldr	r3, [r3, #4]
 8003bee:	f3c3 4301 	ubfx	r3, r3, #16, #2
 8003bf2:	3301      	adds	r3, #1
 8003bf4:	005b      	lsls	r3, r3, #1
 8003bf6:	fbb0 f0f3 	udiv	r0, r0, r3
 8003bfa:	bd08      	pop	{r3, pc}
 8003bfc:	4802      	ldr	r0, [pc, #8]	@ (8003c08 <HAL_RCC_GetSysClockFreq+0x54>)
 8003bfe:	e7fc      	b.n	8003bfa <HAL_RCC_GetSysClockFreq+0x46>
 8003c00:	4802      	ldr	r0, [pc, #8]	@ (8003c0c <HAL_RCC_GetSysClockFreq+0x58>)
 8003c02:	e7fa      	b.n	8003bfa <HAL_RCC_GetSysClockFreq+0x46>
 8003c04:	40023800 	.word	0x40023800
 8003c08:	017d7840 	.word	0x017d7840
 8003c0c:	00f42400 	.word	0x00f42400

08003c10 <HAL_RCC_ClockConfig>:
 8003c10:	e92d 41f0 	stmdb	sp!, {r4, r5, r6, r7, r8, lr}
 8003c14:	460d      	mov	r5, r1
 8003c16:	4604      	mov	r4, r0
 8003c18:	b910      	cbnz	r0, 8003c20 <HAL_RCC_ClockConfig+0x10>
 8003c1a:	2001      	movs	r0, #1
 8003c1c:	e8bd 81f0 	ldmia.w	sp!, {r4, r5, r6, r7, r8, pc}
 8003c20:	4b43      	ldr	r3, [pc, #268]	@ (8003d30 <HAL_RCC_ClockConfig+0x120>)
 8003c22:	681a      	ldr	r2, [r3, #0]
 8003c24:	f002 020f 	and.w	r2, r2, #15
 8003c28:	428a      	cmp	r2, r1
 8003c2a:	d328      	bcc.n	8003c7e <HAL_RCC_ClockConfig+0x6e>
 8003c2c:	6821      	ldr	r1, [r4, #0]
 8003c2e:	078f      	lsls	r7, r1, #30
 8003c30:	d42d      	bmi.n	8003c8e <HAL_RCC_ClockConfig+0x7e>
 8003c32:	07c8      	lsls	r0, r1, #31
 8003c34:	d440      	bmi.n	8003cb8 <HAL_RCC_ClockConfig+0xa8>
 8003c36:	4b3e      	ldr	r3, [pc, #248]	@ (8003d30 <HAL_RCC_ClockConfig+0x120>)
 8003c38:	681a      	ldr	r2, [r3, #0]
 8003c3a:	f002 020f 	and.w	r2, r2, #15
 8003c3e:	42aa      	cmp	r2, r5
 8003c40:	d865      	bhi.n	8003d0e <HAL_RCC_ClockConfig+0xfe>
 8003c42:	6822      	ldr	r2, [r4, #0]
 8003c44:	0751      	lsls	r1, r2, #29
 8003c46:	d46b      	bmi.n	8003d20 <HAL_RCC_ClockConfig+0x110>
 8003c48:	0713      	lsls	r3, r2, #28
 8003c4a:	d507      	bpl.n	8003c5c <HAL_RCC_ClockConfig+0x4c>
 8003c4c:	4a39      	ldr	r2, [pc, #228]	@ (8003d34 <HAL_RCC_ClockConfig+0x124>)
 8003c4e:	6921      	ldr	r1, [r4, #16]
 8003c50:	6893      	ldr	r3, [r2, #8]
 8003c52:	f423 4360 	bic.w	r3, r3, #57344	@ 0xe000
 8003c56:	ea43 03c1 	orr.w	r3, r3, r1, lsl #3
 8003c5a:	6093      	str	r3, [r2, #8]
 8003c5c:	f7ff ffaa 	bl	8003bb4 <HAL_RCC_GetSysClockFreq>
 8003c60:	4b34      	ldr	r3, [pc, #208]	@ (8003d34 <HAL_RCC_ClockConfig+0x124>)
 8003c62:	4a35      	ldr	r2, [pc, #212]	@ (8003d38 <HAL_RCC_ClockConfig+0x128>)
 8003c64:	689b      	ldr	r3, [r3, #8]
 8003c66:	f3c3 1303 	ubfx	r3, r3, #4, #4
 8003c6a:	5cd3      	ldrb	r3, [r2, r3]
 8003c6c:	40d8      	lsrs	r0, r3
 8003c6e:	4b33      	ldr	r3, [pc, #204]	@ (8003d3c <HAL_RCC_ClockConfig+0x12c>)
 8003c70:	6018      	str	r0, [r3, #0]
 8003c72:	4b33      	ldr	r3, [pc, #204]	@ (8003d40 <HAL_RCC_ClockConfig+0x130>)
 8003c74:	6818      	ldr	r0, [r3, #0]
 8003c76:	f7fe fab5 	bl	80021e4 <HAL_InitTick>
 8003c7a:	2000      	movs	r0, #0
 8003c7c:	e7ce      	b.n	8003c1c <HAL_RCC_ClockConfig+0xc>
 8003c7e:	b2ca      	uxtb	r2, r1
 8003c80:	701a      	strb	r2, [r3, #0]
 8003c82:	681b      	ldr	r3, [r3, #0]
 8003c84:	f003 030f 	and.w	r3, r3, #15
 8003c88:	428b      	cmp	r3, r1
 8003c8a:	d1c6      	bne.n	8003c1a <HAL_RCC_ClockConfig+0xa>
 8003c8c:	e7ce      	b.n	8003c2c <HAL_RCC_ClockConfig+0x1c>
 8003c8e:	4b29      	ldr	r3, [pc, #164]	@ (8003d34 <HAL_RCC_ClockConfig+0x124>)
 8003c90:	f011 0f04 	tst.w	r1, #4
 8003c94:	bf1e      	ittt	ne
 8003c96:	689a      	ldrne	r2, [r3, #8]
 8003c98:	f442 52e0 	orrne.w	r2, r2, #7168	@ 0x1c00
 8003c9c:	609a      	strne	r2, [r3, #8]
 8003c9e:	070e      	lsls	r6, r1, #28
 8003ca0:	bf42      	ittt	mi
 8003ca2:	689a      	ldrmi	r2, [r3, #8]
 8003ca4:	f442 4260 	orrmi.w	r2, r2, #57344	@ 0xe000
 8003ca8:	609a      	strmi	r2, [r3, #8]
 8003caa:	689a      	ldr	r2, [r3, #8]
 8003cac:	68a0      	ldr	r0, [r4, #8]
 8003cae:	f022 02f0 	bic.w	r2, r2, #240	@ 0xf0
 8003cb2:	4302      	orrs	r2, r0
 8003cb4:	609a      	str	r2, [r3, #8]
 8003cb6:	e7bc      	b.n	8003c32 <HAL_RCC_ClockConfig+0x22>
 8003cb8:	6862      	ldr	r2, [r4, #4]
 8003cba:	4b1e      	ldr	r3, [pc, #120]	@ (8003d34 <HAL_RCC_ClockConfig+0x124>)
 8003cbc:	2a01      	cmp	r2, #1
 8003cbe:	d11c      	bne.n	8003cfa <HAL_RCC_ClockConfig+0xea>
 8003cc0:	681b      	ldr	r3, [r3, #0]
 8003cc2:	f413 3f00 	tst.w	r3, #131072	@ 0x20000
 8003cc6:	d0a8      	beq.n	8003c1a <HAL_RCC_ClockConfig+0xa>
 8003cc8:	4e1a      	ldr	r6, [pc, #104]	@ (8003d34 <HAL_RCC_ClockConfig+0x124>)
 8003cca:	68b3      	ldr	r3, [r6, #8]
 8003ccc:	f023 0303 	bic.w	r3, r3, #3
 8003cd0:	4313      	orrs	r3, r2
 8003cd2:	60b3      	str	r3, [r6, #8]
 8003cd4:	f7fe fad0 	bl	8002278 <HAL_GetTick>
 8003cd8:	f241 3888 	movw	r8, #5000	@ 0x1388
 8003cdc:	4607      	mov	r7, r0
 8003cde:	68b3      	ldr	r3, [r6, #8]
 8003ce0:	6862      	ldr	r2, [r4, #4]
 8003ce2:	f003 030c 	and.w	r3, r3, #12
 8003ce6:	ebb3 0f82 	cmp.w	r3, r2, lsl #2
 8003cea:	d0a4      	beq.n	8003c36 <HAL_RCC_ClockConfig+0x26>
 8003cec:	f7fe fac4 	bl	8002278 <HAL_GetTick>
 8003cf0:	1bc0      	subs	r0, r0, r7
 8003cf2:	4540      	cmp	r0, r8
 8003cf4:	d9f3      	bls.n	8003cde <HAL_RCC_ClockConfig+0xce>
 8003cf6:	2003      	movs	r0, #3
 8003cf8:	e790      	b.n	8003c1c <HAL_RCC_ClockConfig+0xc>
 8003cfa:	1e91      	subs	r1, r2, #2
 8003cfc:	2901      	cmp	r1, #1
 8003cfe:	681b      	ldr	r3, [r3, #0]
 8003d00:	d802      	bhi.n	8003d08 <HAL_RCC_ClockConfig+0xf8>
 8003d02:	f013 7f00 	tst.w	r3, #33554432	@ 0x2000000
 8003d06:	e7de      	b.n	8003cc6 <HAL_RCC_ClockConfig+0xb6>
 8003d08:	f013 0f02 	tst.w	r3, #2
 8003d0c:	e7db      	b.n	8003cc6 <HAL_RCC_ClockConfig+0xb6>
 8003d0e:	b2ea      	uxtb	r2, r5
 8003d10:	701a      	strb	r2, [r3, #0]
 8003d12:	681b      	ldr	r3, [r3, #0]
 8003d14:	f003 030f 	and.w	r3, r3, #15
 8003d18:	42ab      	cmp	r3, r5
 8003d1a:	f47f af7e 	bne.w	8003c1a <HAL_RCC_ClockConfig+0xa>
 8003d1e:	e790      	b.n	8003c42 <HAL_RCC_ClockConfig+0x32>
 8003d20:	4904      	ldr	r1, [pc, #16]	@ (8003d34 <HAL_RCC_ClockConfig+0x124>)
 8003d22:	68e0      	ldr	r0, [r4, #12]
 8003d24:	688b      	ldr	r3, [r1, #8]
 8003d26:	f423 53e0 	bic.w	r3, r3, #7168	@ 0x1c00
 8003d2a:	4303      	orrs	r3, r0
 8003d2c:	608b      	str	r3, [r1, #8]
 8003d2e:	e78b      	b.n	8003c48 <HAL_RCC_ClockConfig+0x38>
 8003d30:	40023c00 	.word	0x40023c00
 8003d34:	40023800 	.word	0x40023800
 8003d38:	080055bf 	.word	0x080055bf
 8003d3c:	2000001c 	.word	0x2000001c
 8003d40:	20000024 	.word	0x20000024

08003d44 <HAL_RCC_GetPCLK1Freq>:
 8003d44:	4b04      	ldr	r3, [pc, #16]	@ (8003d58 <HAL_RCC_GetPCLK1Freq+0x14>)
 8003d46:	4a05      	ldr	r2, [pc, #20]	@ (8003d5c <HAL_RCC_GetPCLK1Freq+0x18>)
 8003d48:	689b      	ldr	r3, [r3, #8]
 8003d4a:	f3c3 2382 	ubfx	r3, r3, #10, #3
 8003d4e:	5cd3      	ldrb	r3, [r2, r3]
 8003d50:	4a03      	ldr	r2, [pc, #12]	@ (8003d60 <HAL_RCC_GetPCLK1Freq+0x1c>)
 8003d52:	6810      	ldr	r0, [r2, #0]
 8003d54:	40d8      	lsrs	r0, r3
 8003d56:	4770      	bx	lr
 8003d58:	40023800 	.word	0x40023800
 8003d5c:	080055b7 	.word	0x080055b7
 8003d60:	2000001c 	.word	0x2000001c

08003d64 <HAL_RCC_GetPCLK2Freq>:
 8003d64:	4b04      	ldr	r3, [pc, #16]	@ (8003d78 <HAL_RCC_GetPCLK2Freq+0x14>)
 8003d66:	4a05      	ldr	r2, [pc, #20]	@ (8003d7c <HAL_RCC_GetPCLK2Freq+0x18>)
 8003d68:	689b      	ldr	r3, [r3, #8]
 8003d6a:	f3c3 3342 	ubfx	r3, r3, #13, #3
 8003d6e:	5cd3      	ldrb	r3, [r2, r3]
 8003d70:	4a03      	ldr	r2, [pc, #12]	@ (8003d80 <HAL_RCC_GetPCLK2Freq+0x1c>)
 8003d72:	6810      	ldr	r0, [r2, #0]
 8003d74:	40d8      	lsrs	r0, r3
 8003d76:	4770      	bx	lr
 8003d78:	40023800 	.word	0x40023800
 8003d7c:	080055b7 	.word	0x080055b7
 8003d80:	2000001c 	.word	0x2000001c

08003d84 <HAL_RCCEx_PeriphCLKConfig>:
 8003d84:	6803      	ldr	r3, [r0, #0]
 8003d86:	f013 0f43 	tst.w	r3, #67	@ 0x43
 8003d8a:	b5f7      	push	{r0, r1, r2, r4, r5, r6, r7, lr}
 8003d8c:	4604      	mov	r4, r0
 8003d8e:	f040 8088 	bne.w	8003ea2 <HAL_RCCEx_PeriphCLKConfig+0x11e>
 8003d92:	6823      	ldr	r3, [r4, #0]
 8003d94:	f013 0f0c 	tst.w	r3, #12
 8003d98:	d045      	beq.n	8003e26 <HAL_RCCEx_PeriphCLKConfig+0xa2>
 8003d9a:	4b8c      	ldr	r3, [pc, #560]	@ (8003fcc <HAL_RCCEx_PeriphCLKConfig+0x248>)
 8003d9c:	4d8c      	ldr	r5, [pc, #560]	@ (8003fd0 <HAL_RCCEx_PeriphCLKConfig+0x24c>)
 8003d9e:	2200      	movs	r2, #0
 8003da0:	671a      	str	r2, [r3, #112]	@ 0x70
 8003da2:	f7fe fa69 	bl	8002278 <HAL_GetTick>
 8003da6:	4606      	mov	r6, r0
 8003da8:	682b      	ldr	r3, [r5, #0]
 8003daa:	0099      	lsls	r1, r3, #2
 8003dac:	f100 80cb 	bmi.w	8003f46 <HAL_RCCEx_PeriphCLKConfig+0x1c2>
 8003db0:	6821      	ldr	r1, [r4, #0]
 8003db2:	074a      	lsls	r2, r1, #29
 8003db4:	d515      	bpl.n	8003de2 <HAL_RCCEx_PeriphCLKConfig+0x5e>
 8003db6:	e9d4 0304 	ldrd	r0, r3, [r4, #16]
 8003dba:	f8d5 2088 	ldr.w	r2, [r5, #136]	@ 0x88
 8003dbe:	061b      	lsls	r3, r3, #24
 8003dc0:	f002 42e0 	and.w	r2, r2, #1879048192	@ 0x70000000
 8003dc4:	ea43 1380 	orr.w	r3, r3, r0, lsl #6
 8003dc8:	4313      	orrs	r3, r2
 8003dca:	f8c5 3088 	str.w	r3, [r5, #136]	@ 0x88
 8003dce:	f8d5 308c 	ldr.w	r3, [r5, #140]	@ 0x8c
 8003dd2:	6a22      	ldr	r2, [r4, #32]
 8003dd4:	f423 53f8 	bic.w	r3, r3, #7936	@ 0x1f00
 8003dd8:	3a01      	subs	r2, #1
 8003dda:	ea43 2302 	orr.w	r3, r3, r2, lsl #8
 8003dde:	f8c5 308c 	str.w	r3, [r5, #140]	@ 0x8c
 8003de2:	070b      	lsls	r3, r1, #28
 8003de4:	d514      	bpl.n	8003e10 <HAL_RCCEx_PeriphCLKConfig+0x8c>
 8003de6:	4a7a      	ldr	r2, [pc, #488]	@ (8003fd0 <HAL_RCCEx_PeriphCLKConfig+0x24c>)
 8003de8:	69a3      	ldr	r3, [r4, #24]
 8003dea:	f8d2 1088 	ldr.w	r1, [r2, #136]	@ 0x88
 8003dee:	6920      	ldr	r0, [r4, #16]
 8003df0:	071b      	lsls	r3, r3, #28
 8003df2:	f001 6170 	and.w	r1, r1, #251658240	@ 0xf000000
 8003df6:	ea43 1380 	orr.w	r3, r3, r0, lsl #6
 8003dfa:	430b      	orrs	r3, r1
 8003dfc:	f8c2 3088 	str.w	r3, [r2, #136]	@ 0x88
 8003e00:	f8d2 308c 	ldr.w	r3, [r2, #140]	@ 0x8c
 8003e04:	6a61      	ldr	r1, [r4, #36]	@ 0x24
 8003e06:	f423 3340 	bic.w	r3, r3, #196608	@ 0x30000
 8003e0a:	430b      	orrs	r3, r1
 8003e0c:	f8c2 308c 	str.w	r3, [r2, #140]	@ 0x8c
 8003e10:	4b6e      	ldr	r3, [pc, #440]	@ (8003fcc <HAL_RCCEx_PeriphCLKConfig+0x248>)
 8003e12:	4e6f      	ldr	r6, [pc, #444]	@ (8003fd0 <HAL_RCCEx_PeriphCLKConfig+0x24c>)
 8003e14:	2201      	movs	r2, #1
 8003e16:	671a      	str	r2, [r3, #112]	@ 0x70
 8003e18:	f7fe fa2e 	bl	8002278 <HAL_GetTick>
 8003e1c:	4605      	mov	r5, r0
 8003e1e:	6833      	ldr	r3, [r6, #0]
 8003e20:	009f      	lsls	r7, r3, #2
 8003e22:	f140 8097 	bpl.w	8003f54 <HAL_RCCEx_PeriphCLKConfig+0x1d0>
 8003e26:	6823      	ldr	r3, [r4, #0]
 8003e28:	0698      	lsls	r0, r3, #26
 8003e2a:	d534      	bpl.n	8003e96 <HAL_RCCEx_PeriphCLKConfig+0x112>
 8003e2c:	2300      	movs	r3, #0
 8003e2e:	9301      	str	r3, [sp, #4]
 8003e30:	4b67      	ldr	r3, [pc, #412]	@ (8003fd0 <HAL_RCCEx_PeriphCLKConfig+0x24c>)
 8003e32:	4d68      	ldr	r5, [pc, #416]	@ (8003fd4 <HAL_RCCEx_PeriphCLKConfig+0x250>)
 8003e34:	6c1a      	ldr	r2, [r3, #64]	@ 0x40
 8003e36:	f042 5280 	orr.w	r2, r2, #268435456	@ 0x10000000
 8003e3a:	641a      	str	r2, [r3, #64]	@ 0x40
 8003e3c:	6c1b      	ldr	r3, [r3, #64]	@ 0x40
 8003e3e:	f003 5380 	and.w	r3, r3, #268435456	@ 0x10000000
 8003e42:	9301      	str	r3, [sp, #4]
 8003e44:	9b01      	ldr	r3, [sp, #4]
 8003e46:	682b      	ldr	r3, [r5, #0]
 8003e48:	f443 7380 	orr.w	r3, r3, #256	@ 0x100
 8003e4c:	602b      	str	r3, [r5, #0]
 8003e4e:	f7fe fa13 	bl	8002278 <HAL_GetTick>
 8003e52:	4606      	mov	r6, r0
 8003e54:	682b      	ldr	r3, [r5, #0]
 8003e56:	05d8      	lsls	r0, r3, #23
 8003e58:	f140 8083 	bpl.w	8003f62 <HAL_RCCEx_PeriphCLKConfig+0x1de>
 8003e5c:	4d5c      	ldr	r5, [pc, #368]	@ (8003fd0 <HAL_RCCEx_PeriphCLKConfig+0x24c>)
 8003e5e:	6aa2      	ldr	r2, [r4, #40]	@ 0x28
 8003e60:	6f2b      	ldr	r3, [r5, #112]	@ 0x70
 8003e62:	f413 7340 	ands.w	r3, r3, #768	@ 0x300
 8003e66:	f040 8083 	bne.w	8003f70 <HAL_RCCEx_PeriphCLKConfig+0x1ec>
 8003e6a:	6aa3      	ldr	r3, [r4, #40]	@ 0x28
 8003e6c:	f403 7240 	and.w	r2, r3, #768	@ 0x300
 8003e70:	f5b2 7f40 	cmp.w	r2, #768	@ 0x300
 8003e74:	4a56      	ldr	r2, [pc, #344]	@ (8003fd0 <HAL_RCCEx_PeriphCLKConfig+0x24c>)
 8003e76:	f040 809e 	bne.w	8003fb6 <HAL_RCCEx_PeriphCLKConfig+0x232>
 8003e7a:	6891      	ldr	r1, [r2, #8]
 8003e7c:	f023 4070 	bic.w	r0, r3, #4026531840	@ 0xf0000000
 8003e80:	f421 11f8 	bic.w	r1, r1, #2031616	@ 0x1f0000
 8003e84:	f420 7040 	bic.w	r0, r0, #768	@ 0x300
 8003e88:	4301      	orrs	r1, r0
 8003e8a:	6091      	str	r1, [r2, #8]
 8003e8c:	6f11      	ldr	r1, [r2, #112]	@ 0x70
 8003e8e:	f3c3 030b 	ubfx	r3, r3, #0, #12
 8003e92:	430b      	orrs	r3, r1
 8003e94:	6713      	str	r3, [r2, #112]	@ 0x70
 8003e96:	6823      	ldr	r3, [r4, #0]
 8003e98:	06db      	lsls	r3, r3, #27
 8003e9a:	f100 8090 	bmi.w	8003fbe <HAL_RCCEx_PeriphCLKConfig+0x23a>
 8003e9e:	2000      	movs	r0, #0
 8003ea0:	e04f      	b.n	8003f42 <HAL_RCCEx_PeriphCLKConfig+0x1be>
 8003ea2:	4b4a      	ldr	r3, [pc, #296]	@ (8003fcc <HAL_RCCEx_PeriphCLKConfig+0x248>)
 8003ea4:	4e4a      	ldr	r6, [pc, #296]	@ (8003fd0 <HAL_RCCEx_PeriphCLKConfig+0x24c>)
 8003ea6:	2200      	movs	r2, #0
 8003ea8:	669a      	str	r2, [r3, #104]	@ 0x68
 8003eaa:	f7fe f9e5 	bl	8002278 <HAL_GetTick>
 8003eae:	4605      	mov	r5, r0
 8003eb0:	6833      	ldr	r3, [r6, #0]
 8003eb2:	011f      	lsls	r7, r3, #4
 8003eb4:	d43f      	bmi.n	8003f36 <HAL_RCCEx_PeriphCLKConfig+0x1b2>
 8003eb6:	6821      	ldr	r1, [r4, #0]
 8003eb8:	07c8      	lsls	r0, r1, #31
 8003eba:	bf41      	itttt	mi
 8003ebc:	e9d4 2301 	ldrdmi	r2, r3, [r4, #4]
 8003ec0:	071b      	lslmi	r3, r3, #28
 8003ec2:	ea43 1382 	orrmi.w	r3, r3, r2, lsl #6
 8003ec6:	f8c6 3084 	strmi.w	r3, [r6, #132]	@ 0x84
 8003eca:	078a      	lsls	r2, r1, #30
 8003ecc:	d515      	bpl.n	8003efa <HAL_RCCEx_PeriphCLKConfig+0x176>
 8003ece:	4a40      	ldr	r2, [pc, #256]	@ (8003fd0 <HAL_RCCEx_PeriphCLKConfig+0x24c>)
 8003ed0:	68e3      	ldr	r3, [r4, #12]
 8003ed2:	f8d2 0084 	ldr.w	r0, [r2, #132]	@ 0x84
 8003ed6:	6865      	ldr	r5, [r4, #4]
 8003ed8:	061b      	lsls	r3, r3, #24
 8003eda:	f000 40e0 	and.w	r0, r0, #1879048192	@ 0x70000000
 8003ede:	ea43 1385 	orr.w	r3, r3, r5, lsl #6
 8003ee2:	4303      	orrs	r3, r0
 8003ee4:	f8c2 3084 	str.w	r3, [r2, #132]	@ 0x84
 8003ee8:	f8d2 008c 	ldr.w	r0, [r2, #140]	@ 0x8c
 8003eec:	69e3      	ldr	r3, [r4, #28]
 8003eee:	f020 001f 	bic.w	r0, r0, #31
 8003ef2:	3b01      	subs	r3, #1
 8003ef4:	4303      	orrs	r3, r0
 8003ef6:	f8c2 308c 	str.w	r3, [r2, #140]	@ 0x8c
 8003efa:	064b      	lsls	r3, r1, #25
 8003efc:	d50a      	bpl.n	8003f14 <HAL_RCCEx_PeriphCLKConfig+0x190>
 8003efe:	68e3      	ldr	r3, [r4, #12]
 8003f00:	6862      	ldr	r2, [r4, #4]
 8003f02:	061b      	lsls	r3, r3, #24
 8003f04:	ea43 1382 	orr.w	r3, r3, r2, lsl #6
 8003f08:	68a2      	ldr	r2, [r4, #8]
 8003f0a:	ea43 7302 	orr.w	r3, r3, r2, lsl #28
 8003f0e:	4a30      	ldr	r2, [pc, #192]	@ (8003fd0 <HAL_RCCEx_PeriphCLKConfig+0x24c>)
 8003f10:	f8c2 3084 	str.w	r3, [r2, #132]	@ 0x84
 8003f14:	4b2d      	ldr	r3, [pc, #180]	@ (8003fcc <HAL_RCCEx_PeriphCLKConfig+0x248>)
 8003f16:	4e2e      	ldr	r6, [pc, #184]	@ (8003fd0 <HAL_RCCEx_PeriphCLKConfig+0x24c>)
 8003f18:	2201      	movs	r2, #1
 8003f1a:	669a      	str	r2, [r3, #104]	@ 0x68
 8003f1c:	f7fe f9ac 	bl	8002278 <HAL_GetTick>
 8003f20:	4605      	mov	r5, r0
 8003f22:	6833      	ldr	r3, [r6, #0]
 8003f24:	011f      	lsls	r7, r3, #4
 8003f26:	f53f af34 	bmi.w	8003d92 <HAL_RCCEx_PeriphCLKConfig+0xe>
 8003f2a:	f7fe f9a5 	bl	8002278 <HAL_GetTick>
 8003f2e:	1b40      	subs	r0, r0, r5
 8003f30:	2802      	cmp	r0, #2
 8003f32:	d9f6      	bls.n	8003f22 <HAL_RCCEx_PeriphCLKConfig+0x19e>
 8003f34:	e004      	b.n	8003f40 <HAL_RCCEx_PeriphCLKConfig+0x1bc>
 8003f36:	f7fe f99f 	bl	8002278 <HAL_GetTick>
 8003f3a:	1b40      	subs	r0, r0, r5
 8003f3c:	2802      	cmp	r0, #2
 8003f3e:	d9b7      	bls.n	8003eb0 <HAL_RCCEx_PeriphCLKConfig+0x12c>
 8003f40:	2003      	movs	r0, #3
 8003f42:	b003      	add	sp, #12
 8003f44:	bdf0      	pop	{r4, r5, r6, r7, pc}
 8003f46:	f7fe f997 	bl	8002278 <HAL_GetTick>
 8003f4a:	1b80      	subs	r0, r0, r6
 8003f4c:	2802      	cmp	r0, #2
 8003f4e:	f67f af2b 	bls.w	8003da8 <HAL_RCCEx_PeriphCLKConfig+0x24>
 8003f52:	e7f5      	b.n	8003f40 <HAL_RCCEx_PeriphCLKConfig+0x1bc>
 8003f54:	f7fe f990 	bl	8002278 <HAL_GetTick>
 8003f58:	1b40      	subs	r0, r0, r5
 8003f5a:	2802      	cmp	r0, #2
 8003f5c:	f67f af5f 	bls.w	8003e1e <HAL_RCCEx_PeriphCLKConfig+0x9a>
 8003f60:	e7ee      	b.n	8003f40 <HAL_RCCEx_PeriphCLKConfig+0x1bc>
 8003f62:	f7fe f989 	bl	8002278 <HAL_GetTick>
 8003f66:	1b80      	subs	r0, r0, r6
 8003f68:	2802      	cmp	r0, #2
 8003f6a:	f67f af73 	bls.w	8003e54 <HAL_RCCEx_PeriphCLKConfig+0xd0>
 8003f6e:	e7e7      	b.n	8003f40 <HAL_RCCEx_PeriphCLKConfig+0x1bc>
 8003f70:	f402 7240 	and.w	r2, r2, #768	@ 0x300
 8003f74:	4293      	cmp	r3, r2
 8003f76:	f43f af78 	beq.w	8003e6a <HAL_RCCEx_PeriphCLKConfig+0xe6>
 8003f7a:	6f2b      	ldr	r3, [r5, #112]	@ 0x70
 8003f7c:	4a13      	ldr	r2, [pc, #76]	@ (8003fcc <HAL_RCCEx_PeriphCLKConfig+0x248>)
 8003f7e:	2101      	movs	r1, #1
 8003f80:	f8c2 1e40 	str.w	r1, [r2, #3648]	@ 0xe40
 8003f84:	f423 7340 	bic.w	r3, r3, #768	@ 0x300
 8003f88:	2100      	movs	r1, #0
 8003f8a:	f8c2 1e40 	str.w	r1, [r2, #3648]	@ 0xe40
 8003f8e:	672b      	str	r3, [r5, #112]	@ 0x70
 8003f90:	6f2b      	ldr	r3, [r5, #112]	@ 0x70
 8003f92:	07d9      	lsls	r1, r3, #31
 8003f94:	f57f af69 	bpl.w	8003e6a <HAL_RCCEx_PeriphCLKConfig+0xe6>
 8003f98:	f7fe f96e 	bl	8002278 <HAL_GetTick>
 8003f9c:	f241 3788 	movw	r7, #5000	@ 0x1388
 8003fa0:	4606      	mov	r6, r0
 8003fa2:	6f2b      	ldr	r3, [r5, #112]	@ 0x70
 8003fa4:	079a      	lsls	r2, r3, #30
 8003fa6:	f53f af60 	bmi.w	8003e6a <HAL_RCCEx_PeriphCLKConfig+0xe6>
 8003faa:	f7fe f965 	bl	8002278 <HAL_GetTick>
 8003fae:	1b80      	subs	r0, r0, r6
 8003fb0:	42b8      	cmp	r0, r7
 8003fb2:	d9f6      	bls.n	8003fa2 <HAL_RCCEx_PeriphCLKConfig+0x21e>
 8003fb4:	e7c4      	b.n	8003f40 <HAL_RCCEx_PeriphCLKConfig+0x1bc>
 8003fb6:	6891      	ldr	r1, [r2, #8]
 8003fb8:	f421 11f8 	bic.w	r1, r1, #2031616	@ 0x1f0000
 8003fbc:	e765      	b.n	8003e8a <HAL_RCCEx_PeriphCLKConfig+0x106>
 8003fbe:	4b06      	ldr	r3, [pc, #24]	@ (8003fd8 <HAL_RCCEx_PeriphCLKConfig+0x254>)
 8003fc0:	f894 202c 	ldrb.w	r2, [r4, #44]	@ 0x2c
 8003fc4:	f8c3 21e0 	str.w	r2, [r3, #480]	@ 0x1e0
 8003fc8:	e769      	b.n	8003e9e <HAL_RCCEx_PeriphCLKConfig+0x11a>
 8003fca:	bf00      	nop
 8003fcc:	42470000 	.word	0x42470000
 8003fd0:	40023800 	.word	0x40023800
 8003fd4:	40007000 	.word	0x40007000
 8003fd8:	42471000 	.word	0x42471000

08003fdc <HAL_RTC_WaitForSynchro>:
 8003fdc:	b538      	push	{r3, r4, r5, lr}
 8003fde:	6803      	ldr	r3, [r0, #0]
 8003fe0:	4a09      	ldr	r2, [pc, #36]	@ (8004008 <HAL_RTC_WaitForSynchro+0x2c>)
 8003fe2:	60da      	str	r2, [r3, #12]
 8003fe4:	4604      	mov	r4, r0
 8003fe6:	f7fe f947 	bl	8002278 <HAL_GetTick>
 8003fea:	4605      	mov	r5, r0
 8003fec:	6823      	ldr	r3, [r4, #0]
 8003fee:	68db      	ldr	r3, [r3, #12]
 8003ff0:	069b      	lsls	r3, r3, #26
 8003ff2:	d501      	bpl.n	8003ff8 <HAL_RTC_WaitForSynchro+0x1c>
 8003ff4:	2000      	movs	r0, #0
 8003ff6:	bd38      	pop	{r3, r4, r5, pc}
 8003ff8:	f7fe f93e 	bl	8002278 <HAL_GetTick>
 8003ffc:	1b40      	subs	r0, r0, r5
 8003ffe:	f5b0 7f7a 	cmp.w	r0, #1000	@ 0x3e8
 8004002:	d9f3      	bls.n	8003fec <HAL_RTC_WaitForSynchro+0x10>
 8004004:	2003      	movs	r0, #3
 8004006:	e7f6      	b.n	8003ff6 <HAL_RTC_WaitForSynchro+0x1a>
 8004008:	00017f5f 	.word	0x00017f5f

0800400c <RTC_EnterInitMode>:
 800400c:	6803      	ldr	r3, [r0, #0]
 800400e:	b570      	push	{r4, r5, r6, lr}
 8004010:	68dc      	ldr	r4, [r3, #12]
 8004012:	f014 0440 	ands.w	r4, r4, #64	@ 0x40
 8004016:	4605      	mov	r5, r0
 8004018:	d117      	bne.n	800404a <RTC_EnterInitMode+0x3e>
 800401a:	68da      	ldr	r2, [r3, #12]
 800401c:	f042 0280 	orr.w	r2, r2, #128	@ 0x80
 8004020:	60da      	str	r2, [r3, #12]
 8004022:	f7fe f929 	bl	8002278 <HAL_GetTick>
 8004026:	4606      	mov	r6, r0
 8004028:	682b      	ldr	r3, [r5, #0]
 800402a:	68db      	ldr	r3, [r3, #12]
 800402c:	065b      	lsls	r3, r3, #25
 800402e:	d400      	bmi.n	8004032 <RTC_EnterInitMode+0x26>
 8004030:	b10c      	cbz	r4, 8004036 <RTC_EnterInitMode+0x2a>
 8004032:	4620      	mov	r0, r4
 8004034:	bd70      	pop	{r4, r5, r6, pc}
 8004036:	f7fe f91f 	bl	8002278 <HAL_GetTick>
 800403a:	1b80      	subs	r0, r0, r6
 800403c:	f5b0 7f7a 	cmp.w	r0, #1000	@ 0x3e8
 8004040:	bf82      	ittt	hi
 8004042:	2304      	movhi	r3, #4
 8004044:	776b      	strbhi	r3, [r5, #29]
 8004046:	2401      	movhi	r4, #1
 8004048:	e7ee      	b.n	8004028 <RTC_EnterInitMode+0x1c>
 800404a:	2400      	movs	r4, #0
 800404c:	e7f1      	b.n	8004032 <RTC_EnterInitMode+0x26>

0800404e <RTC_ExitInitMode>:
 800404e:	6803      	ldr	r3, [r0, #0]
 8004050:	68da      	ldr	r2, [r3, #12]
 8004052:	f022 0280 	bic.w	r2, r2, #128	@ 0x80
 8004056:	b510      	push	{r4, lr}
 8004058:	60da      	str	r2, [r3, #12]
 800405a:	689b      	ldr	r3, [r3, #8]
 800405c:	069b      	lsls	r3, r3, #26
 800405e:	4604      	mov	r4, r0
 8004060:	d501      	bpl.n	8004066 <RTC_ExitInitMode+0x18>
 8004062:	2000      	movs	r0, #0
 8004064:	bd10      	pop	{r4, pc}
 8004066:	f7ff ffb9 	bl	8003fdc <HAL_RTC_WaitForSynchro>
 800406a:	2800      	cmp	r0, #0
 800406c:	d0f9      	beq.n	8004062 <RTC_ExitInitMode+0x14>
 800406e:	2304      	movs	r3, #4
 8004070:	7763      	strb	r3, [r4, #29]
 8004072:	2001      	movs	r0, #1
 8004074:	e7f6      	b.n	8004064 <RTC_ExitInitMode+0x16>

08004076 <HAL_RTC_Init>:
 8004076:	b510      	push	{r4, lr}
 8004078:	4604      	mov	r4, r0
 800407a:	2800      	cmp	r0, #0
 800407c:	d041      	beq.n	8004102 <HAL_RTC_Init+0x8c>
 800407e:	7f43      	ldrb	r3, [r0, #29]
 8004080:	f003 02ff 	and.w	r2, r3, #255	@ 0xff
 8004084:	b913      	cbnz	r3, 800408c <HAL_RTC_Init+0x16>
 8004086:	7702      	strb	r2, [r0, #28]
 8004088:	f7fd fe7a 	bl	8001d80 <HAL_RTC_MspInit>
 800408c:	2302      	movs	r3, #2
 800408e:	7763      	strb	r3, [r4, #29]
 8004090:	6823      	ldr	r3, [r4, #0]
 8004092:	68da      	ldr	r2, [r3, #12]
 8004094:	06d2      	lsls	r2, r2, #27
 8004096:	d503      	bpl.n	80040a0 <HAL_RTC_Init+0x2a>
 8004098:	2301      	movs	r3, #1
 800409a:	7763      	strb	r3, [r4, #29]
 800409c:	2000      	movs	r0, #0
 800409e:	bd10      	pop	{r4, pc}
 80040a0:	22ca      	movs	r2, #202	@ 0xca
 80040a2:	625a      	str	r2, [r3, #36]	@ 0x24
 80040a4:	2253      	movs	r2, #83	@ 0x53
 80040a6:	625a      	str	r2, [r3, #36]	@ 0x24
 80040a8:	4620      	mov	r0, r4
 80040aa:	f7ff ffaf 	bl	800400c <RTC_EnterInitMode>
 80040ae:	bb10      	cbnz	r0, 80040f6 <HAL_RTC_Init+0x80>
 80040b0:	6823      	ldr	r3, [r4, #0]
 80040b2:	6920      	ldr	r0, [r4, #16]
 80040b4:	689a      	ldr	r2, [r3, #8]
 80040b6:	f422 02e0 	bic.w	r2, r2, #7340032	@ 0x700000
 80040ba:	f022 0240 	bic.w	r2, r2, #64	@ 0x40
 80040be:	609a      	str	r2, [r3, #8]
 80040c0:	6862      	ldr	r2, [r4, #4]
 80040c2:	6899      	ldr	r1, [r3, #8]
 80040c4:	4302      	orrs	r2, r0
 80040c6:	6960      	ldr	r0, [r4, #20]
 80040c8:	4302      	orrs	r2, r0
 80040ca:	430a      	orrs	r2, r1
 80040cc:	609a      	str	r2, [r3, #8]
 80040ce:	68e2      	ldr	r2, [r4, #12]
 80040d0:	611a      	str	r2, [r3, #16]
 80040d2:	691a      	ldr	r2, [r3, #16]
 80040d4:	68a1      	ldr	r1, [r4, #8]
 80040d6:	ea42 4201 	orr.w	r2, r2, r1, lsl #16
 80040da:	611a      	str	r2, [r3, #16]
 80040dc:	4620      	mov	r0, r4
 80040de:	f7ff ffb6 	bl	800404e <RTC_ExitInitMode>
 80040e2:	b940      	cbnz	r0, 80040f6 <HAL_RTC_Init+0x80>
 80040e4:	6823      	ldr	r3, [r4, #0]
 80040e6:	69a1      	ldr	r1, [r4, #24]
 80040e8:	6c1a      	ldr	r2, [r3, #64]	@ 0x40
 80040ea:	f422 2280 	bic.w	r2, r2, #262144	@ 0x40000
 80040ee:	641a      	str	r2, [r3, #64]	@ 0x40
 80040f0:	6c1a      	ldr	r2, [r3, #64]	@ 0x40
 80040f2:	430a      	orrs	r2, r1
 80040f4:	641a      	str	r2, [r3, #64]	@ 0x40
 80040f6:	6823      	ldr	r3, [r4, #0]
 80040f8:	22ff      	movs	r2, #255	@ 0xff
 80040fa:	625a      	str	r2, [r3, #36]	@ 0x24
 80040fc:	2800      	cmp	r0, #0
 80040fe:	d0cb      	beq.n	8004098 <HAL_RTC_Init+0x22>
 8004100:	e7cd      	b.n	800409e <HAL_RTC_Init+0x28>
 8004102:	2001      	movs	r0, #1
 8004104:	e7cb      	b.n	800409e <HAL_RTC_Init+0x28>

08004106 <RTC_ByteToBcd2>:
 8004106:	2300      	movs	r3, #0
 8004108:	2809      	cmp	r0, #9
 800410a:	d803      	bhi.n	8004114 <RTC_ByteToBcd2+0xe>
 800410c:	ea40 1003 	orr.w	r0, r0, r3, lsl #4
 8004110:	b2c0      	uxtb	r0, r0
 8004112:	4770      	bx	lr
 8004114:	380a      	subs	r0, #10
 8004116:	3301      	adds	r3, #1
 8004118:	b2c0      	uxtb	r0, r0
 800411a:	e7f5      	b.n	8004108 <RTC_ByteToBcd2+0x2>

0800411c <HAL_RTC_SetTime>:
 800411c:	e92d 41f0 	stmdb	sp!, {r4, r5, r6, r7, r8, lr}
 8004120:	7f03      	ldrb	r3, [r0, #28]
 8004122:	2b01      	cmp	r3, #1
 8004124:	4606      	mov	r6, r0
 8004126:	460f      	mov	r7, r1
 8004128:	f04f 0002 	mov.w	r0, #2
 800412c:	d041      	beq.n	80041b2 <HAL_RTC_SetTime+0x96>
 800412e:	2301      	movs	r3, #1
 8004130:	6831      	ldr	r1, [r6, #0]
 8004132:	7733      	strb	r3, [r6, #28]
 8004134:	7770      	strb	r0, [r6, #29]
 8004136:	7838      	ldrb	r0, [r7, #0]
 8004138:	787d      	ldrb	r5, [r7, #1]
 800413a:	78bc      	ldrb	r4, [r7, #2]
 800413c:	688b      	ldr	r3, [r1, #8]
 800413e:	2a00      	cmp	r2, #0
 8004140:	d139      	bne.n	80041b6 <HAL_RTC_SetTime+0x9a>
 8004142:	f013 0340 	ands.w	r3, r3, #64	@ 0x40
 8004146:	bf08      	it	eq
 8004148:	70fb      	strbeq	r3, [r7, #3]
 800414a:	f7ff ffdc 	bl	8004106 <RTC_ByteToBcd2>
 800414e:	4680      	mov	r8, r0
 8004150:	4628      	mov	r0, r5
 8004152:	f7ff ffd8 	bl	8004106 <RTC_ByteToBcd2>
 8004156:	4602      	mov	r2, r0
 8004158:	4620      	mov	r0, r4
 800415a:	f7ff ffd4 	bl	8004106 <RTC_ByteToBcd2>
 800415e:	78fb      	ldrb	r3, [r7, #3]
 8004160:	ea40 5383 	orr.w	r3, r0, r3, lsl #22
 8004164:	ea43 4308 	orr.w	r3, r3, r8, lsl #16
 8004168:	ea43 2402 	orr.w	r4, r3, r2, lsl #8
 800416c:	23ca      	movs	r3, #202	@ 0xca
 800416e:	624b      	str	r3, [r1, #36]	@ 0x24
 8004170:	2353      	movs	r3, #83	@ 0x53
 8004172:	624b      	str	r3, [r1, #36]	@ 0x24
 8004174:	4630      	mov	r0, r6
 8004176:	f7ff ff49 	bl	800400c <RTC_EnterInitMode>
 800417a:	b9a8      	cbnz	r0, 80041a8 <HAL_RTC_SetTime+0x8c>
 800417c:	6832      	ldr	r2, [r6, #0]
 800417e:	f004 347f 	and.w	r4, r4, #2139062143	@ 0x7f7f7f7f
 8004182:	f024 44fe 	bic.w	r4, r4, #2130706432	@ 0x7f000000
 8004186:	6014      	str	r4, [r2, #0]
 8004188:	6893      	ldr	r3, [r2, #8]
 800418a:	f423 2380 	bic.w	r3, r3, #262144	@ 0x40000
 800418e:	6093      	str	r3, [r2, #8]
 8004190:	e9d7 3003 	ldrd	r3, r0, [r7, #12]
 8004194:	6891      	ldr	r1, [r2, #8]
 8004196:	4303      	orrs	r3, r0
 8004198:	430b      	orrs	r3, r1
 800419a:	6093      	str	r3, [r2, #8]
 800419c:	4630      	mov	r0, r6
 800419e:	f7ff ff56 	bl	800404e <RTC_ExitInitMode>
 80041a2:	b908      	cbnz	r0, 80041a8 <HAL_RTC_SetTime+0x8c>
 80041a4:	2301      	movs	r3, #1
 80041a6:	7773      	strb	r3, [r6, #29]
 80041a8:	6833      	ldr	r3, [r6, #0]
 80041aa:	22ff      	movs	r2, #255	@ 0xff
 80041ac:	625a      	str	r2, [r3, #36]	@ 0x24
 80041ae:	2300      	movs	r3, #0
 80041b0:	7733      	strb	r3, [r6, #28]
 80041b2:	e8bd 81f0 	ldmia.w	sp!, {r4, r5, r6, r7, r8, pc}
 80041b6:	f013 0340 	ands.w	r3, r3, #64	@ 0x40
 80041ba:	bf08      	it	eq
 80041bc:	70fb      	strbeq	r3, [r7, #3]
 80041be:	022d      	lsls	r5, r5, #8
 80041c0:	78fa      	ldrb	r2, [r7, #3]
 80041c2:	ea45 4500 	orr.w	r5, r5, r0, lsl #16
 80041c6:	ea45 0304 	orr.w	r3, r5, r4
 80041ca:	ea43 5482 	orr.w	r4, r3, r2, lsl #22
 80041ce:	e7cd      	b.n	800416c <HAL_RTC_SetTime+0x50>

080041d0 <HAL_RTC_SetDate>:
 80041d0:	b5f8      	push	{r3, r4, r5, r6, r7, lr}
 80041d2:	7f03      	ldrb	r3, [r0, #28]
 80041d4:	2b01      	cmp	r3, #1
 80041d6:	4605      	mov	r5, r0
 80041d8:	f04f 0002 	mov.w	r0, #2
 80041dc:	d027      	beq.n	800422e <HAL_RTC_SetDate+0x5e>
 80041de:	2301      	movs	r3, #1
 80041e0:	772b      	strb	r3, [r5, #28]
 80041e2:	7768      	strb	r0, [r5, #29]
 80041e4:	780e      	ldrb	r6, [r1, #0]
 80041e6:	78c8      	ldrb	r0, [r1, #3]
 80041e8:	784c      	ldrb	r4, [r1, #1]
 80041ea:	788f      	ldrb	r7, [r1, #2]
 80041ec:	0376      	lsls	r6, r6, #13
 80041ee:	b1fa      	cbz	r2, 8004230 <HAL_RTC_SetDate+0x60>
 80041f0:	ea46 4300 	orr.w	r3, r6, r0, lsl #16
 80041f4:	433b      	orrs	r3, r7
 80041f6:	ea43 2404 	orr.w	r4, r3, r4, lsl #8
 80041fa:	682b      	ldr	r3, [r5, #0]
 80041fc:	22ca      	movs	r2, #202	@ 0xca
 80041fe:	625a      	str	r2, [r3, #36]	@ 0x24
 8004200:	2253      	movs	r2, #83	@ 0x53
 8004202:	625a      	str	r2, [r3, #36]	@ 0x24
 8004204:	4628      	mov	r0, r5
 8004206:	f7ff ff01 	bl	800400c <RTC_EnterInitMode>
 800420a:	b958      	cbnz	r0, 8004224 <HAL_RTC_SetDate+0x54>
 800420c:	682a      	ldr	r2, [r5, #0]
 800420e:	f024 447f 	bic.w	r4, r4, #4278190080	@ 0xff000000
 8004212:	f024 04c0 	bic.w	r4, r4, #192	@ 0xc0
 8004216:	6054      	str	r4, [r2, #4]
 8004218:	4628      	mov	r0, r5
 800421a:	f7ff ff18 	bl	800404e <RTC_ExitInitMode>
 800421e:	b908      	cbnz	r0, 8004224 <HAL_RTC_SetDate+0x54>
 8004220:	2301      	movs	r3, #1
 8004222:	776b      	strb	r3, [r5, #29]
 8004224:	682b      	ldr	r3, [r5, #0]
 8004226:	22ff      	movs	r2, #255	@ 0xff
 8004228:	625a      	str	r2, [r3, #36]	@ 0x24
 800422a:	2300      	movs	r3, #0
 800422c:	772b      	strb	r3, [r5, #28]
 800422e:	bdf8      	pop	{r3, r4, r5, r6, r7, pc}
 8004230:	06e3      	lsls	r3, r4, #27
 8004232:	bf42      	ittt	mi
 8004234:	f024 0410 	bicmi.w	r4, r4, #16
 8004238:	340a      	addmi	r4, #10
 800423a:	704c      	strbmi	r4, [r1, #1]
 800423c:	f7ff ff63 	bl	8004106 <RTC_ByteToBcd2>
 8004240:	4604      	mov	r4, r0
 8004242:	7848      	ldrb	r0, [r1, #1]
 8004244:	f7ff ff5f 	bl	8004106 <RTC_ByteToBcd2>
 8004248:	4602      	mov	r2, r0
 800424a:	4638      	mov	r0, r7
 800424c:	f7ff ff5b 	bl	8004106 <RTC_ByteToBcd2>
 8004250:	ea40 0306 	orr.w	r3, r0, r6
 8004254:	ea43 4304 	orr.w	r3, r3, r4, lsl #16
 8004258:	ea43 2402 	orr.w	r4, r3, r2, lsl #8
 800425c:	e7cd      	b.n	80041fa <HAL_RTC_SetDate+0x2a>

0800425e <RTC_Bcd2ToByte>:
 800425e:	0903      	lsrs	r3, r0, #4
 8004260:	eb03 0383 	add.w	r3, r3, r3, lsl #2
 8004264:	f000 000f 	and.w	r0, r0, #15
 8004268:	eb00 0043 	add.w	r0, r0, r3, lsl #1
 800426c:	b2c0      	uxtb	r0, r0
 800426e:	4770      	bx	lr

08004270 <HAL_RTC_GetTime>:
 8004270:	b538      	push	{r3, r4, r5, lr}
 8004272:	6803      	ldr	r3, [r0, #0]
 8004274:	6a98      	ldr	r0, [r3, #40]	@ 0x28
 8004276:	6048      	str	r0, [r1, #4]
 8004278:	6918      	ldr	r0, [r3, #16]
 800427a:	681b      	ldr	r3, [r3, #0]
 800427c:	f3c0 000e 	ubfx	r0, r0, #0, #15
 8004280:	f3c3 2506 	ubfx	r5, r3, #8, #7
 8004284:	f003 047f 	and.w	r4, r3, #127	@ 0x7f
 8004288:	6088      	str	r0, [r1, #8]
 800428a:	f3c3 4005 	ubfx	r0, r3, #16, #6
 800428e:	f3c3 5380 	ubfx	r3, r3, #22, #1
 8004292:	7008      	strb	r0, [r1, #0]
 8004294:	704d      	strb	r5, [r1, #1]
 8004296:	708c      	strb	r4, [r1, #2]
 8004298:	70cb      	strb	r3, [r1, #3]
 800429a:	b952      	cbnz	r2, 80042b2 <HAL_RTC_GetTime+0x42>
 800429c:	f7ff ffdf 	bl	800425e <RTC_Bcd2ToByte>
 80042a0:	7008      	strb	r0, [r1, #0]
 80042a2:	4628      	mov	r0, r5
 80042a4:	f7ff ffdb 	bl	800425e <RTC_Bcd2ToByte>
 80042a8:	7048      	strb	r0, [r1, #1]
 80042aa:	4620      	mov	r0, r4
 80042ac:	f7ff ffd7 	bl	800425e <RTC_Bcd2ToByte>
 80042b0:	7088      	strb	r0, [r1, #2]
 80042b2:	2000      	movs	r0, #0
 80042b4:	bd38      	pop	{r3, r4, r5, pc}

080042b6 <HAL_RTC_GetDate>:
 80042b6:	b538      	push	{r3, r4, r5, lr}
 80042b8:	6803      	ldr	r3, [r0, #0]
 80042ba:	685b      	ldr	r3, [r3, #4]
 80042bc:	f3c3 4007 	ubfx	r0, r3, #16, #8
 80042c0:	f3c3 2504 	ubfx	r5, r3, #8, #5
 80042c4:	f003 043f 	and.w	r4, r3, #63	@ 0x3f
 80042c8:	f3c3 3342 	ubfx	r3, r3, #13, #3
 80042cc:	70c8      	strb	r0, [r1, #3]
 80042ce:	704d      	strb	r5, [r1, #1]
 80042d0:	708c      	strb	r4, [r1, #2]
 80042d2:	700b      	strb	r3, [r1, #0]
 80042d4:	b952      	cbnz	r2, 80042ec <HAL_RTC_GetDate+0x36>
 80042d6:	f7ff ffc2 	bl	800425e <RTC_Bcd2ToByte>
 80042da:	70c8      	strb	r0, [r1, #3]
 80042dc:	4628      	mov	r0, r5
 80042de:	f7ff ffbe 	bl	800425e <RTC_Bcd2ToByte>
 80042e2:	7048      	strb	r0, [r1, #1]
 80042e4:	4620      	mov	r0, r4
 80042e6:	f7ff ffba 	bl	800425e <RTC_Bcd2ToByte>
 80042ea:	7088      	strb	r0, [r1, #2]
 80042ec:	2000      	movs	r0, #0
 80042ee:	bd38      	pop	{r3, r4, r5, pc}

080042f0 <SPI_WaitFlagStateUntilTimeout>:
 80042f0:	e92d 47f3 	stmdb	sp!, {r0, r1, r4, r5, r6, r7, r8, r9, sl, lr}
 80042f4:	461f      	mov	r7, r3
 80042f6:	4689      	mov	r9, r1
 80042f8:	4690      	mov	r8, r2
 80042fa:	4604      	mov	r4, r0
 80042fc:	f7fd ffbc 	bl	8002278 <HAL_GetTick>
 8004300:	9d0a      	ldr	r5, [sp, #40]	@ 0x28
 8004302:	443d      	add	r5, r7
 8004304:	1a2d      	subs	r5, r5, r0
 8004306:	f7fd ffb7 	bl	8002278 <HAL_GetTick>
 800430a:	4b26      	ldr	r3, [pc, #152]	@ (80043a4 <SPI_WaitFlagStateUntilTimeout+0xb4>)
 800430c:	681e      	ldr	r6, [r3, #0]
 800430e:	f3c6 36cb 	ubfx	r6, r6, #15, #12
 8004312:	436e      	muls	r6, r5
 8004314:	4682      	mov	sl, r0
 8004316:	9601      	str	r6, [sp, #4]
 8004318:	6822      	ldr	r2, [r4, #0]
 800431a:	6893      	ldr	r3, [r2, #8]
 800431c:	ea39 0303 	bics.w	r3, r9, r3
 8004320:	bf0c      	ite	eq
 8004322:	2301      	moveq	r3, #1
 8004324:	2300      	movne	r3, #0
 8004326:	4543      	cmp	r3, r8
 8004328:	d101      	bne.n	800432e <SPI_WaitFlagStateUntilTimeout+0x3e>
 800432a:	2000      	movs	r0, #0
 800432c:	e02e      	b.n	800438c <SPI_WaitFlagStateUntilTimeout+0x9c>
 800432e:	1c7b      	adds	r3, r7, #1
 8004330:	d0f3      	beq.n	800431a <SPI_WaitFlagStateUntilTimeout+0x2a>
 8004332:	f7fd ffa1 	bl	8002278 <HAL_GetTick>
 8004336:	eba0 000a 	sub.w	r0, r0, sl
 800433a:	42a8      	cmp	r0, r5
 800433c:	d329      	bcc.n	8004392 <SPI_WaitFlagStateUntilTimeout+0xa2>
 800433e:	6823      	ldr	r3, [r4, #0]
 8004340:	685a      	ldr	r2, [r3, #4]
 8004342:	f022 02e0 	bic.w	r2, r2, #224	@ 0xe0
 8004346:	605a      	str	r2, [r3, #4]
 8004348:	6862      	ldr	r2, [r4, #4]
 800434a:	f5b2 7f82 	cmp.w	r2, #260	@ 0x104
 800434e:	d10a      	bne.n	8004366 <SPI_WaitFlagStateUntilTimeout+0x76>
 8004350:	68a2      	ldr	r2, [r4, #8]
 8004352:	f5b2 4f00 	cmp.w	r2, #32768	@ 0x8000
 8004356:	d002      	beq.n	800435e <SPI_WaitFlagStateUntilTimeout+0x6e>
 8004358:	f5b2 6f80 	cmp.w	r2, #1024	@ 0x400
 800435c:	d103      	bne.n	8004366 <SPI_WaitFlagStateUntilTimeout+0x76>
 800435e:	681a      	ldr	r2, [r3, #0]
 8004360:	f022 0240 	bic.w	r2, r2, #64	@ 0x40
 8004364:	601a      	str	r2, [r3, #0]
 8004366:	6aa2      	ldr	r2, [r4, #40]	@ 0x28
 8004368:	f5b2 5f00 	cmp.w	r2, #8192	@ 0x2000
 800436c:	d107      	bne.n	800437e <SPI_WaitFlagStateUntilTimeout+0x8e>
 800436e:	681a      	ldr	r2, [r3, #0]
 8004370:	f422 5200 	bic.w	r2, r2, #8192	@ 0x2000
 8004374:	601a      	str	r2, [r3, #0]
 8004376:	681a      	ldr	r2, [r3, #0]
 8004378:	f442 5200 	orr.w	r2, r2, #8192	@ 0x2000
 800437c:	601a      	str	r2, [r3, #0]
 800437e:	2301      	movs	r3, #1
 8004380:	f884 3051 	strb.w	r3, [r4, #81]	@ 0x51
 8004384:	2300      	movs	r3, #0
 8004386:	f884 3050 	strb.w	r3, [r4, #80]	@ 0x50
 800438a:	2003      	movs	r0, #3
 800438c:	b002      	add	sp, #8
 800438e:	e8bd 87f0 	ldmia.w	sp!, {r4, r5, r6, r7, r8, r9, sl, pc}
 8004392:	9a01      	ldr	r2, [sp, #4]
 8004394:	9b01      	ldr	r3, [sp, #4]
 8004396:	2a00      	cmp	r2, #0
 8004398:	f103 33ff 	add.w	r3, r3, #4294967295	@ 0xffffffff
 800439c:	9301      	str	r3, [sp, #4]
 800439e:	bf08      	it	eq
 80043a0:	4615      	moveq	r5, r2
 80043a2:	e7b9      	b.n	8004318 <SPI_WaitFlagStateUntilTimeout+0x28>
 80043a4:	2000001c 	.word	0x2000001c

080043a8 <SPI_EndRxTxTransaction>:
 80043a8:	b5f0      	push	{r4, r5, r6, r7, lr}
 80043aa:	b085      	sub	sp, #20
 80043ac:	460b      	mov	r3, r1
 80043ae:	9200      	str	r2, [sp, #0]
 80043b0:	460e      	mov	r6, r1
 80043b2:	4617      	mov	r7, r2
 80043b4:	2102      	movs	r1, #2
 80043b6:	2201      	movs	r2, #1
 80043b8:	4604      	mov	r4, r0
 80043ba:	f7ff ff99 	bl	80042f0 <SPI_WaitFlagStateUntilTimeout>
 80043be:	4605      	mov	r5, r0
 80043c0:	b128      	cbz	r0, 80043ce <SPI_EndRxTxTransaction+0x26>
 80043c2:	6d63      	ldr	r3, [r4, #84]	@ 0x54
 80043c4:	f043 0320 	orr.w	r3, r3, #32
 80043c8:	6563      	str	r3, [r4, #84]	@ 0x54
 80043ca:	2503      	movs	r5, #3
 80043cc:	e015      	b.n	80043fa <SPI_EndRxTxTransaction+0x52>
 80043ce:	4b12      	ldr	r3, [pc, #72]	@ (8004418 <SPI_EndRxTxTransaction+0x70>)
 80043d0:	6818      	ldr	r0, [r3, #0]
 80043d2:	4b12      	ldr	r3, [pc, #72]	@ (800441c <SPI_EndRxTxTransaction+0x74>)
 80043d4:	fbb0 f0f3 	udiv	r0, r0, r3
 80043d8:	f44f 737a 	mov.w	r3, #1000	@ 0x3e8
 80043dc:	4358      	muls	r0, r3
 80043de:	6863      	ldr	r3, [r4, #4]
 80043e0:	9003      	str	r0, [sp, #12]
 80043e2:	f5b3 7f82 	cmp.w	r3, #260	@ 0x104
 80043e6:	d10b      	bne.n	8004400 <SPI_EndRxTxTransaction+0x58>
 80043e8:	9700      	str	r7, [sp, #0]
 80043ea:	4633      	mov	r3, r6
 80043ec:	462a      	mov	r2, r5
 80043ee:	2180      	movs	r1, #128	@ 0x80
 80043f0:	4620      	mov	r0, r4
 80043f2:	f7ff ff7d 	bl	80042f0 <SPI_WaitFlagStateUntilTimeout>
 80043f6:	2800      	cmp	r0, #0
 80043f8:	d1e3      	bne.n	80043c2 <SPI_EndRxTxTransaction+0x1a>
 80043fa:	4628      	mov	r0, r5
 80043fc:	b005      	add	sp, #20
 80043fe:	bdf0      	pop	{r4, r5, r6, r7, pc}
 8004400:	9b03      	ldr	r3, [sp, #12]
 8004402:	2b00      	cmp	r3, #0
 8004404:	d0f9      	beq.n	80043fa <SPI_EndRxTxTransaction+0x52>
 8004406:	9b03      	ldr	r3, [sp, #12]
 8004408:	3b01      	subs	r3, #1
 800440a:	9303      	str	r3, [sp, #12]
 800440c:	6823      	ldr	r3, [r4, #0]
 800440e:	689b      	ldr	r3, [r3, #8]
 8004410:	061b      	lsls	r3, r3, #24
 8004412:	d4f5      	bmi.n	8004400 <SPI_EndRxTxTransaction+0x58>
 8004414:	e7f1      	b.n	80043fa <SPI_EndRxTxTransaction+0x52>
 8004416:	bf00      	nop
 8004418:	2000001c 	.word	0x2000001c
 800441c:	016e3600 	.word	0x016e3600

08004420 <SPI_EndRxTransaction>:
 8004420:	b537      	push	{r0, r1, r2, r4, r5, lr}
 8004422:	460b      	mov	r3, r1
 8004424:	6841      	ldr	r1, [r0, #4]
 8004426:	f5b1 7f82 	cmp.w	r1, #260	@ 0x104
 800442a:	4604      	mov	r4, r0
 800442c:	d008      	beq.n	8004440 <SPI_EndRxTransaction+0x20>
 800442e:	9200      	str	r2, [sp, #0]
 8004430:	2101      	movs	r1, #1
 8004432:	2200      	movs	r2, #0
 8004434:	f7ff ff5c 	bl	80042f0 <SPI_WaitFlagStateUntilTimeout>
 8004438:	b9d0      	cbnz	r0, 8004470 <SPI_EndRxTransaction+0x50>
 800443a:	2000      	movs	r0, #0
 800443c:	b003      	add	sp, #12
 800443e:	bd30      	pop	{r4, r5, pc}
 8004440:	6881      	ldr	r1, [r0, #8]
 8004442:	f5b1 4f00 	cmp.w	r1, #32768	@ 0x8000
 8004446:	d002      	beq.n	800444e <SPI_EndRxTransaction+0x2e>
 8004448:	f5b1 6f80 	cmp.w	r1, #1024	@ 0x400
 800444c:	d107      	bne.n	800445e <SPI_EndRxTransaction+0x3e>
 800444e:	6825      	ldr	r5, [r4, #0]
 8004450:	6828      	ldr	r0, [r5, #0]
 8004452:	f5b1 6f80 	cmp.w	r1, #1024	@ 0x400
 8004456:	f020 0040 	bic.w	r0, r0, #64	@ 0x40
 800445a:	6028      	str	r0, [r5, #0]
 800445c:	d004      	beq.n	8004468 <SPI_EndRxTransaction+0x48>
 800445e:	9200      	str	r2, [sp, #0]
 8004460:	2180      	movs	r1, #128	@ 0x80
 8004462:	2200      	movs	r2, #0
 8004464:	4620      	mov	r0, r4
 8004466:	e7e5      	b.n	8004434 <SPI_EndRxTransaction+0x14>
 8004468:	9200      	str	r2, [sp, #0]
 800446a:	2101      	movs	r1, #1
 800446c:	2200      	movs	r2, #0
 800446e:	e7f9      	b.n	8004464 <SPI_EndRxTransaction+0x44>
 8004470:	6d63      	ldr	r3, [r4, #84]	@ 0x54
 8004472:	f043 0320 	orr.w	r3, r3, #32
 8004476:	6563      	str	r3, [r4, #84]	@ 0x54
 8004478:	2003      	movs	r0, #3
 800447a:	e7df      	b.n	800443c <SPI_EndRxTransaction+0x1c>

0800447c <HAL_SPI_Init>:
 800447c:	b510      	push	{r4, lr}
 800447e:	4604      	mov	r4, r0
 8004480:	2800      	cmp	r0, #0
 8004482:	d055      	beq.n	8004530 <HAL_SPI_Init+0xb4>
 8004484:	6a43      	ldr	r3, [r0, #36]	@ 0x24
 8004486:	2b00      	cmp	r3, #0
 8004488:	d14e      	bne.n	8004528 <HAL_SPI_Init+0xac>
 800448a:	6842      	ldr	r2, [r0, #4]
 800448c:	f5b2 7f82 	cmp.w	r2, #260	@ 0x104
 8004490:	d000      	beq.n	8004494 <HAL_SPI_Init+0x18>
 8004492:	61c3      	str	r3, [r0, #28]
 8004494:	2300      	movs	r3, #0
 8004496:	62a3      	str	r3, [r4, #40]	@ 0x28
 8004498:	f894 3051 	ldrb.w	r3, [r4, #81]	@ 0x51
 800449c:	f003 02ff 	and.w	r2, r3, #255	@ 0xff
 80044a0:	b923      	cbnz	r3, 80044ac <HAL_SPI_Init+0x30>
 80044a2:	f884 2050 	strb.w	r2, [r4, #80]	@ 0x50
 80044a6:	4620      	mov	r0, r4
 80044a8:	f7fd fc8c 	bl	8001dc4 <HAL_SPI_MspInit>
 80044ac:	6821      	ldr	r1, [r4, #0]
 80044ae:	68a0      	ldr	r0, [r4, #8]
 80044b0:	69a2      	ldr	r2, [r4, #24]
 80044b2:	2302      	movs	r3, #2
 80044b4:	f884 3051 	strb.w	r3, [r4, #81]	@ 0x51
 80044b8:	680b      	ldr	r3, [r1, #0]
 80044ba:	f023 0340 	bic.w	r3, r3, #64	@ 0x40
 80044be:	600b      	str	r3, [r1, #0]
 80044c0:	6863      	ldr	r3, [r4, #4]
 80044c2:	f400 4004 	and.w	r0, r0, #33792	@ 0x8400
 80044c6:	f403 7382 	and.w	r3, r3, #260	@ 0x104
 80044ca:	4303      	orrs	r3, r0
 80044cc:	68e0      	ldr	r0, [r4, #12]
 80044ce:	f400 6000 	and.w	r0, r0, #2048	@ 0x800
 80044d2:	4303      	orrs	r3, r0
 80044d4:	6920      	ldr	r0, [r4, #16]
 80044d6:	f000 0002 	and.w	r0, r0, #2
 80044da:	4303      	orrs	r3, r0
 80044dc:	6960      	ldr	r0, [r4, #20]
 80044de:	f000 0001 	and.w	r0, r0, #1
 80044e2:	4303      	orrs	r3, r0
 80044e4:	f402 7000 	and.w	r0, r2, #512	@ 0x200
 80044e8:	4303      	orrs	r3, r0
 80044ea:	69e0      	ldr	r0, [r4, #28]
 80044ec:	f000 0038 	and.w	r0, r0, #56	@ 0x38
 80044f0:	4303      	orrs	r3, r0
 80044f2:	6a20      	ldr	r0, [r4, #32]
 80044f4:	f000 0080 	and.w	r0, r0, #128	@ 0x80
 80044f8:	4303      	orrs	r3, r0
 80044fa:	6aa0      	ldr	r0, [r4, #40]	@ 0x28
 80044fc:	f400 5000 	and.w	r0, r0, #8192	@ 0x2000
 8004500:	4303      	orrs	r3, r0
 8004502:	600b      	str	r3, [r1, #0]
 8004504:	6a63      	ldr	r3, [r4, #36]	@ 0x24
 8004506:	0c12      	lsrs	r2, r2, #16
 8004508:	f003 0310 	and.w	r3, r3, #16
 800450c:	f002 0204 	and.w	r2, r2, #4
 8004510:	431a      	orrs	r2, r3
 8004512:	604a      	str	r2, [r1, #4]
 8004514:	69cb      	ldr	r3, [r1, #28]
 8004516:	f423 6300 	bic.w	r3, r3, #2048	@ 0x800
 800451a:	61cb      	str	r3, [r1, #28]
 800451c:	2000      	movs	r0, #0
 800451e:	2301      	movs	r3, #1
 8004520:	6560      	str	r0, [r4, #84]	@ 0x54
 8004522:	f884 3051 	strb.w	r3, [r4, #81]	@ 0x51
 8004526:	bd10      	pop	{r4, pc}
 8004528:	2300      	movs	r3, #0
 800452a:	e9c0 3304 	strd	r3, r3, [r0, #16]
 800452e:	e7b1      	b.n	8004494 <HAL_SPI_Init+0x18>
 8004530:	2001      	movs	r0, #1
 8004532:	e7f8      	b.n	8004526 <HAL_SPI_Init+0xaa>

08004534 <HAL_SPI_Transmit>:
 8004534:	e92d 47f3 	stmdb	sp!, {r0, r1, r4, r5, r6, r7, r8, r9, sl, lr}
 8004538:	461f      	mov	r7, r3
 800453a:	f890 3050 	ldrb.w	r3, [r0, #80]	@ 0x50
 800453e:	2b01      	cmp	r3, #1
 8004540:	4604      	mov	r4, r0
 8004542:	460d      	mov	r5, r1
 8004544:	4690      	mov	r8, r2
 8004546:	f000 80a6 	beq.w	8004696 <HAL_SPI_Transmit+0x162>
 800454a:	2301      	movs	r3, #1
 800454c:	f880 3050 	strb.w	r3, [r0, #80]	@ 0x50
 8004550:	f7fd fe92 	bl	8002278 <HAL_GetTick>
 8004554:	f894 3051 	ldrb.w	r3, [r4, #81]	@ 0x51
 8004558:	2b01      	cmp	r3, #1
 800455a:	4682      	mov	sl, r0
 800455c:	fa5f f983 	uxtb.w	r9, r3
 8004560:	f040 8096 	bne.w	8004690 <HAL_SPI_Transmit+0x15c>
 8004564:	2d00      	cmp	r5, #0
 8004566:	d067      	beq.n	8004638 <HAL_SPI_Transmit+0x104>
 8004568:	f1b8 0f00 	cmp.w	r8, #0
 800456c:	d064      	beq.n	8004638 <HAL_SPI_Transmit+0x104>
 800456e:	2303      	movs	r3, #3
 8004570:	f884 3051 	strb.w	r3, [r4, #81]	@ 0x51
 8004574:	2300      	movs	r3, #0
 8004576:	6563      	str	r3, [r4, #84]	@ 0x54
 8004578:	e9c4 3310 	strd	r3, r3, [r4, #64]	@ 0x40
 800457c:	f8a4 8036 	strh.w	r8, [r4, #54]	@ 0x36
 8004580:	63a3      	str	r3, [r4, #56]	@ 0x38
 8004582:	87a3      	strh	r3, [r4, #60]	@ 0x3c
 8004584:	87e3      	strh	r3, [r4, #62]	@ 0x3e
 8004586:	68a3      	ldr	r3, [r4, #8]
 8004588:	6826      	ldr	r6, [r4, #0]
 800458a:	6325      	str	r5, [r4, #48]	@ 0x30
 800458c:	f5b3 4f00 	cmp.w	r3, #32768	@ 0x8000
 8004590:	f8a4 8034 	strh.w	r8, [r4, #52]	@ 0x34
 8004594:	d107      	bne.n	80045a6 <HAL_SPI_Transmit+0x72>
 8004596:	6833      	ldr	r3, [r6, #0]
 8004598:	f023 0340 	bic.w	r3, r3, #64	@ 0x40
 800459c:	6033      	str	r3, [r6, #0]
 800459e:	6833      	ldr	r3, [r6, #0]
 80045a0:	f443 4380 	orr.w	r3, r3, #16384	@ 0x4000
 80045a4:	6033      	str	r3, [r6, #0]
 80045a6:	6833      	ldr	r3, [r6, #0]
 80045a8:	6862      	ldr	r2, [r4, #4]
 80045aa:	065b      	lsls	r3, r3, #25
 80045ac:	bf5e      	ittt	pl
 80045ae:	6833      	ldrpl	r3, [r6, #0]
 80045b0:	f043 0340 	orrpl.w	r3, r3, #64	@ 0x40
 80045b4:	6033      	strpl	r3, [r6, #0]
 80045b6:	68e3      	ldr	r3, [r4, #12]
 80045b8:	f5b3 6f00 	cmp.w	r3, #2048	@ 0x800
 80045bc:	d143      	bne.n	8004646 <HAL_SPI_Transmit+0x112>
 80045be:	b112      	cbz	r2, 80045c6 <HAL_SPI_Transmit+0x92>
 80045c0:	f1b8 0f01 	cmp.w	r8, #1
 80045c4:	d107      	bne.n	80045d6 <HAL_SPI_Transmit+0xa2>
 80045c6:	f835 3b02 	ldrh.w	r3, [r5], #2
 80045ca:	60f3      	str	r3, [r6, #12]
 80045cc:	6325      	str	r5, [r4, #48]	@ 0x30
 80045ce:	8ee3      	ldrh	r3, [r4, #54]	@ 0x36
 80045d0:	3b01      	subs	r3, #1
 80045d2:	b29b      	uxth	r3, r3
 80045d4:	86e3      	strh	r3, [r4, #54]	@ 0x36
 80045d6:	8ee3      	ldrh	r3, [r4, #54]	@ 0x36
 80045d8:	b29b      	uxth	r3, r3
 80045da:	b9b3      	cbnz	r3, 800460a <HAL_SPI_Transmit+0xd6>
 80045dc:	4652      	mov	r2, sl
 80045de:	4639      	mov	r1, r7
 80045e0:	4620      	mov	r0, r4
 80045e2:	f7ff fee1 	bl	80043a8 <SPI_EndRxTxTransaction>
 80045e6:	2800      	cmp	r0, #0
 80045e8:	d14f      	bne.n	800468a <HAL_SPI_Transmit+0x156>
 80045ea:	68a3      	ldr	r3, [r4, #8]
 80045ec:	b933      	cbnz	r3, 80045fc <HAL_SPI_Transmit+0xc8>
 80045ee:	9301      	str	r3, [sp, #4]
 80045f0:	6823      	ldr	r3, [r4, #0]
 80045f2:	68da      	ldr	r2, [r3, #12]
 80045f4:	9201      	str	r2, [sp, #4]
 80045f6:	689b      	ldr	r3, [r3, #8]
 80045f8:	9301      	str	r3, [sp, #4]
 80045fa:	9b01      	ldr	r3, [sp, #4]
 80045fc:	6d63      	ldr	r3, [r4, #84]	@ 0x54
 80045fe:	b9db      	cbnz	r3, 8004638 <HAL_SPI_Transmit+0x104>
 8004600:	2201      	movs	r2, #1
 8004602:	f884 2051 	strb.w	r2, [r4, #81]	@ 0x51
 8004606:	4699      	mov	r9, r3
 8004608:	e016      	b.n	8004638 <HAL_SPI_Transmit+0x104>
 800460a:	6822      	ldr	r2, [r4, #0]
 800460c:	6893      	ldr	r3, [r2, #8]
 800460e:	0798      	lsls	r0, r3, #30
 8004610:	d505      	bpl.n	800461e <HAL_SPI_Transmit+0xea>
 8004612:	6b23      	ldr	r3, [r4, #48]	@ 0x30
 8004614:	f833 1b02 	ldrh.w	r1, [r3], #2
 8004618:	60d1      	str	r1, [r2, #12]
 800461a:	6323      	str	r3, [r4, #48]	@ 0x30
 800461c:	e7d7      	b.n	80045ce <HAL_SPI_Transmit+0x9a>
 800461e:	f7fd fe2b 	bl	8002278 <HAL_GetTick>
 8004622:	eba0 000a 	sub.w	r0, r0, sl
 8004626:	42b8      	cmp	r0, r7
 8004628:	d3d5      	bcc.n	80045d6 <HAL_SPI_Transmit+0xa2>
 800462a:	1c79      	adds	r1, r7, #1
 800462c:	d0d3      	beq.n	80045d6 <HAL_SPI_Transmit+0xa2>
 800462e:	2301      	movs	r3, #1
 8004630:	f884 3051 	strb.w	r3, [r4, #81]	@ 0x51
 8004634:	f04f 0903 	mov.w	r9, #3
 8004638:	2300      	movs	r3, #0
 800463a:	f884 3050 	strb.w	r3, [r4, #80]	@ 0x50
 800463e:	4648      	mov	r0, r9
 8004640:	b002      	add	sp, #8
 8004642:	e8bd 87f0 	ldmia.w	sp!, {r4, r5, r6, r7, r8, r9, sl, pc}
 8004646:	b112      	cbz	r2, 800464e <HAL_SPI_Transmit+0x11a>
 8004648:	f1b8 0f01 	cmp.w	r8, #1
 800464c:	d108      	bne.n	8004660 <HAL_SPI_Transmit+0x12c>
 800464e:	782b      	ldrb	r3, [r5, #0]
 8004650:	7333      	strb	r3, [r6, #12]
 8004652:	6b23      	ldr	r3, [r4, #48]	@ 0x30
 8004654:	3301      	adds	r3, #1
 8004656:	6323      	str	r3, [r4, #48]	@ 0x30
 8004658:	8ee3      	ldrh	r3, [r4, #54]	@ 0x36
 800465a:	3b01      	subs	r3, #1
 800465c:	b29b      	uxth	r3, r3
 800465e:	86e3      	strh	r3, [r4, #54]	@ 0x36
 8004660:	8ee3      	ldrh	r3, [r4, #54]	@ 0x36
 8004662:	b29b      	uxth	r3, r3
 8004664:	2b00      	cmp	r3, #0
 8004666:	d0b9      	beq.n	80045dc <HAL_SPI_Transmit+0xa8>
 8004668:	6823      	ldr	r3, [r4, #0]
 800466a:	689a      	ldr	r2, [r3, #8]
 800466c:	0792      	lsls	r2, r2, #30
 800466e:	d503      	bpl.n	8004678 <HAL_SPI_Transmit+0x144>
 8004670:	6b22      	ldr	r2, [r4, #48]	@ 0x30
 8004672:	7812      	ldrb	r2, [r2, #0]
 8004674:	731a      	strb	r2, [r3, #12]
 8004676:	e7ec      	b.n	8004652 <HAL_SPI_Transmit+0x11e>
 8004678:	f7fd fdfe 	bl	8002278 <HAL_GetTick>
 800467c:	eba0 000a 	sub.w	r0, r0, sl
 8004680:	42b8      	cmp	r0, r7
 8004682:	d3ed      	bcc.n	8004660 <HAL_SPI_Transmit+0x12c>
 8004684:	1c7b      	adds	r3, r7, #1
 8004686:	d0eb      	beq.n	8004660 <HAL_SPI_Transmit+0x12c>
 8004688:	e7d1      	b.n	800462e <HAL_SPI_Transmit+0xfa>
 800468a:	2320      	movs	r3, #32
 800468c:	6563      	str	r3, [r4, #84]	@ 0x54
 800468e:	e7ac      	b.n	80045ea <HAL_SPI_Transmit+0xb6>
 8004690:	f04f 0902 	mov.w	r9, #2
 8004694:	e7d0      	b.n	8004638 <HAL_SPI_Transmit+0x104>
 8004696:	f04f 0902 	mov.w	r9, #2
 800469a:	e7d0      	b.n	800463e <HAL_SPI_Transmit+0x10a>

0800469c <HAL_SPI_TransmitReceive>:
 800469c:	e92d 43f7 	stmdb	sp!, {r0, r1, r2, r4, r5, r6, r7, r8, r9, lr}
 80046a0:	461e      	mov	r6, r3
 80046a2:	f890 3050 	ldrb.w	r3, [r0, #80]	@ 0x50
 80046a6:	f8dd 8028 	ldr.w	r8, [sp, #40]	@ 0x28
 80046aa:	2b01      	cmp	r3, #1
 80046ac:	4604      	mov	r4, r0
 80046ae:	460d      	mov	r5, r1
 80046b0:	4691      	mov	r9, r2
 80046b2:	f000 80e8 	beq.w	8004886 <HAL_SPI_TransmitReceive+0x1ea>
 80046b6:	2301      	movs	r3, #1
 80046b8:	f880 3050 	strb.w	r3, [r0, #80]	@ 0x50
 80046bc:	f7fd fddc 	bl	8002278 <HAL_GetTick>
 80046c0:	f894 3051 	ldrb.w	r3, [r4, #81]	@ 0x51
 80046c4:	6862      	ldr	r2, [r4, #4]
 80046c6:	2b01      	cmp	r3, #1
 80046c8:	4607      	mov	r7, r0
 80046ca:	b2d9      	uxtb	r1, r3
 80046cc:	d00a      	beq.n	80046e4 <HAL_SPI_TransmitReceive+0x48>
 80046ce:	f5b2 7f82 	cmp.w	r2, #260	@ 0x104
 80046d2:	f040 80d6 	bne.w	8004882 <HAL_SPI_TransmitReceive+0x1e6>
 80046d6:	68a3      	ldr	r3, [r4, #8]
 80046d8:	2b00      	cmp	r3, #0
 80046da:	f040 80d2 	bne.w	8004882 <HAL_SPI_TransmitReceive+0x1e6>
 80046de:	2904      	cmp	r1, #4
 80046e0:	f040 80cf 	bne.w	8004882 <HAL_SPI_TransmitReceive+0x1e6>
 80046e4:	2d00      	cmp	r5, #0
 80046e6:	d03f      	beq.n	8004768 <HAL_SPI_TransmitReceive+0xcc>
 80046e8:	f1b9 0f00 	cmp.w	r9, #0
 80046ec:	d03c      	beq.n	8004768 <HAL_SPI_TransmitReceive+0xcc>
 80046ee:	2e00      	cmp	r6, #0
 80046f0:	d03a      	beq.n	8004768 <HAL_SPI_TransmitReceive+0xcc>
 80046f2:	f894 3051 	ldrb.w	r3, [r4, #81]	@ 0x51
 80046f6:	f8c4 9038 	str.w	r9, [r4, #56]	@ 0x38
 80046fa:	2b04      	cmp	r3, #4
 80046fc:	bf1c      	itt	ne
 80046fe:	2305      	movne	r3, #5
 8004700:	f884 3051 	strbne.w	r3, [r4, #81]	@ 0x51
 8004704:	2300      	movs	r3, #0
 8004706:	6563      	str	r3, [r4, #84]	@ 0x54
 8004708:	e9c4 3310 	strd	r3, r3, [r4, #64]	@ 0x40
 800470c:	6823      	ldr	r3, [r4, #0]
 800470e:	87e6      	strh	r6, [r4, #62]	@ 0x3e
 8004710:	86e6      	strh	r6, [r4, #54]	@ 0x36
 8004712:	6819      	ldr	r1, [r3, #0]
 8004714:	87a6      	strh	r6, [r4, #60]	@ 0x3c
 8004716:	0649      	lsls	r1, r1, #25
 8004718:	bf58      	it	pl
 800471a:	6819      	ldrpl	r1, [r3, #0]
 800471c:	6325      	str	r5, [r4, #48]	@ 0x30
 800471e:	bf58      	it	pl
 8004720:	f041 0140 	orrpl.w	r1, r1, #64	@ 0x40
 8004724:	86a6      	strh	r6, [r4, #52]	@ 0x34
 8004726:	bf58      	it	pl
 8004728:	6019      	strpl	r1, [r3, #0]
 800472a:	68e1      	ldr	r1, [r4, #12]
 800472c:	f5b1 6f00 	cmp.w	r1, #2048	@ 0x800
 8004730:	d151      	bne.n	80047d6 <HAL_SPI_TransmitReceive+0x13a>
 8004732:	b10a      	cbz	r2, 8004738 <HAL_SPI_TransmitReceive+0x9c>
 8004734:	2e01      	cmp	r6, #1
 8004736:	d107      	bne.n	8004748 <HAL_SPI_TransmitReceive+0xac>
 8004738:	f835 2b02 	ldrh.w	r2, [r5], #2
 800473c:	60da      	str	r2, [r3, #12]
 800473e:	8ee3      	ldrh	r3, [r4, #54]	@ 0x36
 8004740:	6325      	str	r5, [r4, #48]	@ 0x30
 8004742:	3b01      	subs	r3, #1
 8004744:	b29b      	uxth	r3, r3
 8004746:	86e3      	strh	r3, [r4, #54]	@ 0x36
 8004748:	2501      	movs	r5, #1
 800474a:	8ee3      	ldrh	r3, [r4, #54]	@ 0x36
 800474c:	b29b      	uxth	r3, r3
 800474e:	b96b      	cbnz	r3, 800476c <HAL_SPI_TransmitReceive+0xd0>
 8004750:	8fe3      	ldrh	r3, [r4, #62]	@ 0x3e
 8004752:	b29b      	uxth	r3, r3
 8004754:	b953      	cbnz	r3, 800476c <HAL_SPI_TransmitReceive+0xd0>
 8004756:	463a      	mov	r2, r7
 8004758:	4641      	mov	r1, r8
 800475a:	4620      	mov	r0, r4
 800475c:	f7ff fe24 	bl	80043a8 <SPI_EndRxTxTransaction>
 8004760:	2800      	cmp	r0, #0
 8004762:	d07d      	beq.n	8004860 <HAL_SPI_TransmitReceive+0x1c4>
 8004764:	2320      	movs	r3, #32
 8004766:	6563      	str	r3, [r4, #84]	@ 0x54
 8004768:	2001      	movs	r0, #1
 800476a:	e02e      	b.n	80047ca <HAL_SPI_TransmitReceive+0x12e>
 800476c:	6821      	ldr	r1, [r4, #0]
 800476e:	688b      	ldr	r3, [r1, #8]
 8004770:	079a      	lsls	r2, r3, #30
 8004772:	d50d      	bpl.n	8004790 <HAL_SPI_TransmitReceive+0xf4>
 8004774:	8ee3      	ldrh	r3, [r4, #54]	@ 0x36
 8004776:	b29b      	uxth	r3, r3
 8004778:	b153      	cbz	r3, 8004790 <HAL_SPI_TransmitReceive+0xf4>
 800477a:	b145      	cbz	r5, 800478e <HAL_SPI_TransmitReceive+0xf2>
 800477c:	6b23      	ldr	r3, [r4, #48]	@ 0x30
 800477e:	f833 2b02 	ldrh.w	r2, [r3], #2
 8004782:	60ca      	str	r2, [r1, #12]
 8004784:	6323      	str	r3, [r4, #48]	@ 0x30
 8004786:	8ee3      	ldrh	r3, [r4, #54]	@ 0x36
 8004788:	3b01      	subs	r3, #1
 800478a:	b29b      	uxth	r3, r3
 800478c:	86e3      	strh	r3, [r4, #54]	@ 0x36
 800478e:	2500      	movs	r5, #0
 8004790:	688a      	ldr	r2, [r1, #8]
 8004792:	f012 0201 	ands.w	r2, r2, #1
 8004796:	d00c      	beq.n	80047b2 <HAL_SPI_TransmitReceive+0x116>
 8004798:	8fe3      	ldrh	r3, [r4, #62]	@ 0x3e
 800479a:	b29b      	uxth	r3, r3
 800479c:	b14b      	cbz	r3, 80047b2 <HAL_SPI_TransmitReceive+0x116>
 800479e:	6ba3      	ldr	r3, [r4, #56]	@ 0x38
 80047a0:	68c9      	ldr	r1, [r1, #12]
 80047a2:	f823 1b02 	strh.w	r1, [r3], #2
 80047a6:	63a3      	str	r3, [r4, #56]	@ 0x38
 80047a8:	8fe3      	ldrh	r3, [r4, #62]	@ 0x3e
 80047aa:	3b01      	subs	r3, #1
 80047ac:	b29b      	uxth	r3, r3
 80047ae:	87e3      	strh	r3, [r4, #62]	@ 0x3e
 80047b0:	4615      	mov	r5, r2
 80047b2:	f7fd fd61 	bl	8002278 <HAL_GetTick>
 80047b6:	1bc0      	subs	r0, r0, r7
 80047b8:	4540      	cmp	r0, r8
 80047ba:	d3c6      	bcc.n	800474a <HAL_SPI_TransmitReceive+0xae>
 80047bc:	f1b8 3fff 	cmp.w	r8, #4294967295	@ 0xffffffff
 80047c0:	d0c3      	beq.n	800474a <HAL_SPI_TransmitReceive+0xae>
 80047c2:	2301      	movs	r3, #1
 80047c4:	f884 3051 	strb.w	r3, [r4, #81]	@ 0x51
 80047c8:	2003      	movs	r0, #3
 80047ca:	2300      	movs	r3, #0
 80047cc:	f884 3050 	strb.w	r3, [r4, #80]	@ 0x50
 80047d0:	b003      	add	sp, #12
 80047d2:	e8bd 83f0 	ldmia.w	sp!, {r4, r5, r6, r7, r8, r9, pc}
 80047d6:	b10a      	cbz	r2, 80047dc <HAL_SPI_TransmitReceive+0x140>
 80047d8:	2e01      	cmp	r6, #1
 80047da:	d108      	bne.n	80047ee <HAL_SPI_TransmitReceive+0x152>
 80047dc:	782a      	ldrb	r2, [r5, #0]
 80047de:	731a      	strb	r2, [r3, #12]
 80047e0:	6b23      	ldr	r3, [r4, #48]	@ 0x30
 80047e2:	3301      	adds	r3, #1
 80047e4:	6323      	str	r3, [r4, #48]	@ 0x30
 80047e6:	8ee3      	ldrh	r3, [r4, #54]	@ 0x36
 80047e8:	3b01      	subs	r3, #1
 80047ea:	b29b      	uxth	r3, r3
 80047ec:	86e3      	strh	r3, [r4, #54]	@ 0x36
 80047ee:	2501      	movs	r5, #1
 80047f0:	e02d      	b.n	800484e <HAL_SPI_TransmitReceive+0x1b2>
 80047f2:	6822      	ldr	r2, [r4, #0]
 80047f4:	6893      	ldr	r3, [r2, #8]
 80047f6:	079b      	lsls	r3, r3, #30
 80047f8:	d50e      	bpl.n	8004818 <HAL_SPI_TransmitReceive+0x17c>
 80047fa:	8ee3      	ldrh	r3, [r4, #54]	@ 0x36
 80047fc:	b29b      	uxth	r3, r3
 80047fe:	b15b      	cbz	r3, 8004818 <HAL_SPI_TransmitReceive+0x17c>
 8004800:	b14d      	cbz	r5, 8004816 <HAL_SPI_TransmitReceive+0x17a>
 8004802:	6b23      	ldr	r3, [r4, #48]	@ 0x30
 8004804:	781b      	ldrb	r3, [r3, #0]
 8004806:	7313      	strb	r3, [r2, #12]
 8004808:	6b23      	ldr	r3, [r4, #48]	@ 0x30
 800480a:	3301      	adds	r3, #1
 800480c:	6323      	str	r3, [r4, #48]	@ 0x30
 800480e:	8ee3      	ldrh	r3, [r4, #54]	@ 0x36
 8004810:	3b01      	subs	r3, #1
 8004812:	b29b      	uxth	r3, r3
 8004814:	86e3      	strh	r3, [r4, #54]	@ 0x36
 8004816:	2500      	movs	r5, #0
 8004818:	6822      	ldr	r2, [r4, #0]
 800481a:	6891      	ldr	r1, [r2, #8]
 800481c:	f011 0101 	ands.w	r1, r1, #1
 8004820:	d00d      	beq.n	800483e <HAL_SPI_TransmitReceive+0x1a2>
 8004822:	8fe3      	ldrh	r3, [r4, #62]	@ 0x3e
 8004824:	b29b      	uxth	r3, r3
 8004826:	b153      	cbz	r3, 800483e <HAL_SPI_TransmitReceive+0x1a2>
 8004828:	6ba3      	ldr	r3, [r4, #56]	@ 0x38
 800482a:	68d2      	ldr	r2, [r2, #12]
 800482c:	701a      	strb	r2, [r3, #0]
 800482e:	6ba3      	ldr	r3, [r4, #56]	@ 0x38
 8004830:	3301      	adds	r3, #1
 8004832:	63a3      	str	r3, [r4, #56]	@ 0x38
 8004834:	8fe3      	ldrh	r3, [r4, #62]	@ 0x3e
 8004836:	3b01      	subs	r3, #1
 8004838:	b29b      	uxth	r3, r3
 800483a:	87e3      	strh	r3, [r4, #62]	@ 0x3e
 800483c:	460d      	mov	r5, r1
 800483e:	f7fd fd1b 	bl	8002278 <HAL_GetTick>
 8004842:	1bc0      	subs	r0, r0, r7
 8004844:	4540      	cmp	r0, r8
 8004846:	d302      	bcc.n	800484e <HAL_SPI_TransmitReceive+0x1b2>
 8004848:	f1b8 3fff 	cmp.w	r8, #4294967295	@ 0xffffffff
 800484c:	d1b9      	bne.n	80047c2 <HAL_SPI_TransmitReceive+0x126>
 800484e:	8ee3      	ldrh	r3, [r4, #54]	@ 0x36
 8004850:	b29b      	uxth	r3, r3
 8004852:	2b00      	cmp	r3, #0
 8004854:	d1cd      	bne.n	80047f2 <HAL_SPI_TransmitReceive+0x156>
 8004856:	8fe3      	ldrh	r3, [r4, #62]	@ 0x3e
 8004858:	b29b      	uxth	r3, r3
 800485a:	2b00      	cmp	r3, #0
 800485c:	d1c9      	bne.n	80047f2 <HAL_SPI_TransmitReceive+0x156>
 800485e:	e77a      	b.n	8004756 <HAL_SPI_TransmitReceive+0xba>
 8004860:	68a3      	ldr	r3, [r4, #8]
 8004862:	b933      	cbnz	r3, 8004872 <HAL_SPI_TransmitReceive+0x1d6>
 8004864:	6823      	ldr	r3, [r4, #0]
 8004866:	9001      	str	r0, [sp, #4]
 8004868:	68da      	ldr	r2, [r3, #12]
 800486a:	9201      	str	r2, [sp, #4]
 800486c:	689b      	ldr	r3, [r3, #8]
 800486e:	9301      	str	r3, [sp, #4]
 8004870:	9b01      	ldr	r3, [sp, #4]
 8004872:	6d63      	ldr	r3, [r4, #84]	@ 0x54
 8004874:	2b00      	cmp	r3, #0
 8004876:	f47f af77 	bne.w	8004768 <HAL_SPI_TransmitReceive+0xcc>
 800487a:	2301      	movs	r3, #1
 800487c:	f884 3051 	strb.w	r3, [r4, #81]	@ 0x51
 8004880:	e7a3      	b.n	80047ca <HAL_SPI_TransmitReceive+0x12e>
 8004882:	2002      	movs	r0, #2
 8004884:	e7a1      	b.n	80047ca <HAL_SPI_TransmitReceive+0x12e>
 8004886:	2002      	movs	r0, #2
 8004888:	e7a2      	b.n	80047d0 <HAL_SPI_TransmitReceive+0x134>

0800488a <HAL_SPI_Receive>:
 800488a:	e92d 47f3 	stmdb	sp!, {r0, r1, r4, r5, r6, r7, r8, r9, sl, lr}
 800488e:	461e      	mov	r6, r3
 8004890:	f890 3051 	ldrb.w	r3, [r0, #81]	@ 0x51
 8004894:	2b01      	cmp	r3, #1
 8004896:	4604      	mov	r4, r0
 8004898:	468a      	mov	sl, r1
 800489a:	4690      	mov	r8, r2
 800489c:	b2dd      	uxtb	r5, r3
 800489e:	f040 8095 	bne.w	80049cc <HAL_SPI_Receive+0x142>
 80048a2:	6843      	ldr	r3, [r0, #4]
 80048a4:	f5b3 7f82 	cmp.w	r3, #260	@ 0x104
 80048a8:	d10e      	bne.n	80048c8 <HAL_SPI_Receive+0x3e>
 80048aa:	6883      	ldr	r3, [r0, #8]
 80048ac:	b963      	cbnz	r3, 80048c8 <HAL_SPI_Receive+0x3e>
 80048ae:	2304      	movs	r3, #4
 80048b0:	f880 3051 	strb.w	r3, [r0, #81]	@ 0x51
 80048b4:	4613      	mov	r3, r2
 80048b6:	9600      	str	r6, [sp, #0]
 80048b8:	460a      	mov	r2, r1
 80048ba:	f7ff feef 	bl	800469c <HAL_SPI_TransmitReceive>
 80048be:	4605      	mov	r5, r0
 80048c0:	4628      	mov	r0, r5
 80048c2:	b002      	add	sp, #8
 80048c4:	e8bd 87f0 	ldmia.w	sp!, {r4, r5, r6, r7, r8, r9, sl, pc}
 80048c8:	f894 3050 	ldrb.w	r3, [r4, #80]	@ 0x50
 80048cc:	2b01      	cmp	r3, #1
 80048ce:	d07f      	beq.n	80049d0 <HAL_SPI_Receive+0x146>
 80048d0:	2301      	movs	r3, #1
 80048d2:	f884 3050 	strb.w	r3, [r4, #80]	@ 0x50
 80048d6:	f7fd fccf 	bl	8002278 <HAL_GetTick>
 80048da:	4681      	mov	r9, r0
 80048dc:	f1ba 0f00 	cmp.w	sl, #0
 80048e0:	d064      	beq.n	80049ac <HAL_SPI_Receive+0x122>
 80048e2:	f1b8 0f00 	cmp.w	r8, #0
 80048e6:	d061      	beq.n	80049ac <HAL_SPI_Receive+0x122>
 80048e8:	68a2      	ldr	r2, [r4, #8]
 80048ea:	f8c4 a038 	str.w	sl, [r4, #56]	@ 0x38
 80048ee:	2700      	movs	r7, #0
 80048f0:	2304      	movs	r3, #4
 80048f2:	f5b2 4f00 	cmp.w	r2, #32768	@ 0x8000
 80048f6:	f884 3051 	strb.w	r3, [r4, #81]	@ 0x51
 80048fa:	e9c4 7710 	strd	r7, r7, [r4, #64]	@ 0x40
 80048fe:	6567      	str	r7, [r4, #84]	@ 0x54
 8004900:	6823      	ldr	r3, [r4, #0]
 8004902:	f8a4 803e 	strh.w	r8, [r4, #62]	@ 0x3e
 8004906:	f8a4 803c 	strh.w	r8, [r4, #60]	@ 0x3c
 800490a:	6327      	str	r7, [r4, #48]	@ 0x30
 800490c:	86a7      	strh	r7, [r4, #52]	@ 0x34
 800490e:	86e7      	strh	r7, [r4, #54]	@ 0x36
 8004910:	d107      	bne.n	8004922 <HAL_SPI_Receive+0x98>
 8004912:	681a      	ldr	r2, [r3, #0]
 8004914:	f022 0240 	bic.w	r2, r2, #64	@ 0x40
 8004918:	601a      	str	r2, [r3, #0]
 800491a:	681a      	ldr	r2, [r3, #0]
 800491c:	f422 4280 	bic.w	r2, r2, #16384	@ 0x4000
 8004920:	601a      	str	r2, [r3, #0]
 8004922:	681a      	ldr	r2, [r3, #0]
 8004924:	0657      	lsls	r7, r2, #25
 8004926:	bf5e      	ittt	pl
 8004928:	681a      	ldrpl	r2, [r3, #0]
 800492a:	f042 0240 	orrpl.w	r2, r2, #64	@ 0x40
 800492e:	601a      	strpl	r2, [r3, #0]
 8004930:	68e3      	ldr	r3, [r4, #12]
 8004932:	b1f3      	cbz	r3, 8004972 <HAL_SPI_Receive+0xe8>
 8004934:	8fe3      	ldrh	r3, [r4, #62]	@ 0x3e
 8004936:	b29b      	uxth	r3, r3
 8004938:	b1fb      	cbz	r3, 800497a <HAL_SPI_Receive+0xf0>
 800493a:	6823      	ldr	r3, [r4, #0]
 800493c:	689a      	ldr	r2, [r3, #8]
 800493e:	07d2      	lsls	r2, r2, #31
 8004940:	d538      	bpl.n	80049b4 <HAL_SPI_Receive+0x12a>
 8004942:	68da      	ldr	r2, [r3, #12]
 8004944:	6ba3      	ldr	r3, [r4, #56]	@ 0x38
 8004946:	f823 2b02 	strh.w	r2, [r3], #2
 800494a:	63a3      	str	r3, [r4, #56]	@ 0x38
 800494c:	8fe3      	ldrh	r3, [r4, #62]	@ 0x3e
 800494e:	3b01      	subs	r3, #1
 8004950:	b29b      	uxth	r3, r3
 8004952:	87e3      	strh	r3, [r4, #62]	@ 0x3e
 8004954:	e7ee      	b.n	8004934 <HAL_SPI_Receive+0xaa>
 8004956:	6823      	ldr	r3, [r4, #0]
 8004958:	689a      	ldr	r2, [r3, #8]
 800495a:	07d0      	lsls	r0, r2, #31
 800495c:	d51a      	bpl.n	8004994 <HAL_SPI_Receive+0x10a>
 800495e:	6ba2      	ldr	r2, [r4, #56]	@ 0x38
 8004960:	7b1b      	ldrb	r3, [r3, #12]
 8004962:	7013      	strb	r3, [r2, #0]
 8004964:	6ba3      	ldr	r3, [r4, #56]	@ 0x38
 8004966:	3301      	adds	r3, #1
 8004968:	63a3      	str	r3, [r4, #56]	@ 0x38
 800496a:	8fe3      	ldrh	r3, [r4, #62]	@ 0x3e
 800496c:	3b01      	subs	r3, #1
 800496e:	b29b      	uxth	r3, r3
 8004970:	87e3      	strh	r3, [r4, #62]	@ 0x3e
 8004972:	8fe3      	ldrh	r3, [r4, #62]	@ 0x3e
 8004974:	b29b      	uxth	r3, r3
 8004976:	2b00      	cmp	r3, #0
 8004978:	d1ed      	bne.n	8004956 <HAL_SPI_Receive+0xcc>
 800497a:	464a      	mov	r2, r9
 800497c:	4631      	mov	r1, r6
 800497e:	4620      	mov	r0, r4
 8004980:	f7ff fd4e 	bl	8004420 <SPI_EndRxTransaction>
 8004984:	b9f8      	cbnz	r0, 80049c6 <HAL_SPI_Receive+0x13c>
 8004986:	6d63      	ldr	r3, [r4, #84]	@ 0x54
 8004988:	b983      	cbnz	r3, 80049ac <HAL_SPI_Receive+0x122>
 800498a:	2201      	movs	r2, #1
 800498c:	f884 2051 	strb.w	r2, [r4, #81]	@ 0x51
 8004990:	461d      	mov	r5, r3
 8004992:	e00b      	b.n	80049ac <HAL_SPI_Receive+0x122>
 8004994:	f7fd fc70 	bl	8002278 <HAL_GetTick>
 8004998:	eba0 0009 	sub.w	r0, r0, r9
 800499c:	42b0      	cmp	r0, r6
 800499e:	d3e8      	bcc.n	8004972 <HAL_SPI_Receive+0xe8>
 80049a0:	1c71      	adds	r1, r6, #1
 80049a2:	d0e6      	beq.n	8004972 <HAL_SPI_Receive+0xe8>
 80049a4:	2301      	movs	r3, #1
 80049a6:	f884 3051 	strb.w	r3, [r4, #81]	@ 0x51
 80049aa:	2503      	movs	r5, #3
 80049ac:	2300      	movs	r3, #0
 80049ae:	f884 3050 	strb.w	r3, [r4, #80]	@ 0x50
 80049b2:	e785      	b.n	80048c0 <HAL_SPI_Receive+0x36>
 80049b4:	f7fd fc60 	bl	8002278 <HAL_GetTick>
 80049b8:	eba0 0009 	sub.w	r0, r0, r9
 80049bc:	42b0      	cmp	r0, r6
 80049be:	d3b9      	bcc.n	8004934 <HAL_SPI_Receive+0xaa>
 80049c0:	1c73      	adds	r3, r6, #1
 80049c2:	d0b7      	beq.n	8004934 <HAL_SPI_Receive+0xaa>
 80049c4:	e7ee      	b.n	80049a4 <HAL_SPI_Receive+0x11a>
 80049c6:	2320      	movs	r3, #32
 80049c8:	6563      	str	r3, [r4, #84]	@ 0x54
 80049ca:	e7dc      	b.n	8004986 <HAL_SPI_Receive+0xfc>
 80049cc:	2502      	movs	r5, #2
 80049ce:	e7ed      	b.n	80049ac <HAL_SPI_Receive+0x122>
 80049d0:	2502      	movs	r5, #2
 80049d2:	e775      	b.n	80048c0 <HAL_SPI_Receive+0x36>

080049d4 <HAL_SPI_Transmit_DMA>:
 80049d4:	b538      	push	{r3, r4, r5, lr}
 80049d6:	f890 3050 	ldrb.w	r3, [r0, #80]	@ 0x50
 80049da:	2b01      	cmp	r3, #1
 80049dc:	4604      	mov	r4, r0
 80049de:	d051      	beq.n	8004a84 <HAL_SPI_Transmit_DMA+0xb0>
 80049e0:	2301      	movs	r3, #1
 80049e2:	f880 3050 	strb.w	r3, [r0, #80]	@ 0x50
 80049e6:	f890 3051 	ldrb.w	r3, [r0, #81]	@ 0x51
 80049ea:	2b01      	cmp	r3, #1
 80049ec:	b2dd      	uxtb	r5, r3
 80049ee:	d147      	bne.n	8004a80 <HAL_SPI_Transmit_DMA+0xac>
 80049f0:	2900      	cmp	r1, #0
 80049f2:	d02e      	beq.n	8004a52 <HAL_SPI_Transmit_DMA+0x7e>
 80049f4:	2a00      	cmp	r2, #0
 80049f6:	d02c      	beq.n	8004a52 <HAL_SPI_Transmit_DMA+0x7e>
 80049f8:	2303      	movs	r3, #3
 80049fa:	f880 3051 	strb.w	r3, [r0, #81]	@ 0x51
 80049fe:	2300      	movs	r3, #0
 8004a00:	6543      	str	r3, [r0, #84]	@ 0x54
 8004a02:	e9c0 3310 	strd	r3, r3, [r0, #64]	@ 0x40
 8004a06:	86c2      	strh	r2, [r0, #54]	@ 0x36
 8004a08:	6383      	str	r3, [r0, #56]	@ 0x38
 8004a0a:	8783      	strh	r3, [r0, #60]	@ 0x3c
 8004a0c:	87c3      	strh	r3, [r0, #62]	@ 0x3e
 8004a0e:	6883      	ldr	r3, [r0, #8]
 8004a10:	8682      	strh	r2, [r0, #52]	@ 0x34
 8004a12:	f5b3 4f00 	cmp.w	r3, #32768	@ 0x8000
 8004a16:	6802      	ldr	r2, [r0, #0]
 8004a18:	6301      	str	r1, [r0, #48]	@ 0x30
 8004a1a:	d107      	bne.n	8004a2c <HAL_SPI_Transmit_DMA+0x58>
 8004a1c:	6813      	ldr	r3, [r2, #0]
 8004a1e:	f023 0340 	bic.w	r3, r3, #64	@ 0x40
 8004a22:	6013      	str	r3, [r2, #0]
 8004a24:	6813      	ldr	r3, [r2, #0]
 8004a26:	f443 4380 	orr.w	r3, r3, #16384	@ 0x4000
 8004a2a:	6013      	str	r3, [r2, #0]
 8004a2c:	6ca0      	ldr	r0, [r4, #72]	@ 0x48
 8004a2e:	4b16      	ldr	r3, [pc, #88]	@ (8004a88 <HAL_SPI_Transmit_DMA+0xb4>)
 8004a30:	6403      	str	r3, [r0, #64]	@ 0x40
 8004a32:	4b16      	ldr	r3, [pc, #88]	@ (8004a8c <HAL_SPI_Transmit_DMA+0xb8>)
 8004a34:	63c3      	str	r3, [r0, #60]	@ 0x3c
 8004a36:	4b16      	ldr	r3, [pc, #88]	@ (8004a90 <HAL_SPI_Transmit_DMA+0xbc>)
 8004a38:	64c3      	str	r3, [r0, #76]	@ 0x4c
 8004a3a:	2300      	movs	r3, #0
 8004a3c:	6503      	str	r3, [r0, #80]	@ 0x50
 8004a3e:	8ee3      	ldrh	r3, [r4, #54]	@ 0x36
 8004a40:	320c      	adds	r2, #12
 8004a42:	b29b      	uxth	r3, r3
 8004a44:	f7fe f842 	bl	8002acc <HAL_DMA_Start_IT>
 8004a48:	b140      	cbz	r0, 8004a5c <HAL_SPI_Transmit_DMA+0x88>
 8004a4a:	6d63      	ldr	r3, [r4, #84]	@ 0x54
 8004a4c:	f043 0310 	orr.w	r3, r3, #16
 8004a50:	6563      	str	r3, [r4, #84]	@ 0x54
 8004a52:	2300      	movs	r3, #0
 8004a54:	f884 3050 	strb.w	r3, [r4, #80]	@ 0x50
 8004a58:	4628      	mov	r0, r5
 8004a5a:	bd38      	pop	{r3, r4, r5, pc}
 8004a5c:	6823      	ldr	r3, [r4, #0]
 8004a5e:	681a      	ldr	r2, [r3, #0]
 8004a60:	0652      	lsls	r2, r2, #25
 8004a62:	bf5e      	ittt	pl
 8004a64:	681a      	ldrpl	r2, [r3, #0]
 8004a66:	f042 0240 	orrpl.w	r2, r2, #64	@ 0x40
 8004a6a:	601a      	strpl	r2, [r3, #0]
 8004a6c:	685a      	ldr	r2, [r3, #4]
 8004a6e:	f042 0220 	orr.w	r2, r2, #32
 8004a72:	605a      	str	r2, [r3, #4]
 8004a74:	685a      	ldr	r2, [r3, #4]
 8004a76:	f042 0202 	orr.w	r2, r2, #2
 8004a7a:	605a      	str	r2, [r3, #4]
 8004a7c:	2500      	movs	r5, #0
 8004a7e:	e7e8      	b.n	8004a52 <HAL_SPI_Transmit_DMA+0x7e>
 8004a80:	2502      	movs	r5, #2
 8004a82:	e7e6      	b.n	8004a52 <HAL_SPI_Transmit_DMA+0x7e>
 8004a84:	2502      	movs	r5, #2
 8004a86:	e7e7      	b.n	8004a58 <HAL_SPI_Transmit_DMA+0x84>
 8004a88:	08004a97 	.word	0x08004a97
 8004a8c:	08004ac5 	.word	0x08004ac5
 8004a90:	08004aa3 	.word	0x08004aa3

08004a94 <HAL_SPI_TxHalfCpltCallback>:
 8004a94:	4770      	bx	lr

08004a96 <SPI_DMAHalfTransmitCplt>:
 8004a96:	b508      	push	{r3, lr}
 8004a98:	6b80      	ldr	r0, [r0, #56]	@ 0x38
 8004a9a:	f7ff fffb 	bl	8004a94 <HAL_SPI_TxHalfCpltCallback>
 8004a9e:	bd08      	pop	{r3, pc}

08004aa0 <HAL_SPI_ErrorCallback>:
 8004aa0:	4770      	bx	lr

08004aa2 <SPI_DMAError>:
 8004aa2:	6b80      	ldr	r0, [r0, #56]	@ 0x38
 8004aa4:	6802      	ldr	r2, [r0, #0]
 8004aa6:	b508      	push	{r3, lr}
 8004aa8:	6853      	ldr	r3, [r2, #4]
 8004aaa:	f023 0303 	bic.w	r3, r3, #3
 8004aae:	6053      	str	r3, [r2, #4]
 8004ab0:	6d43      	ldr	r3, [r0, #84]	@ 0x54
 8004ab2:	f043 0310 	orr.w	r3, r3, #16
 8004ab6:	6543      	str	r3, [r0, #84]	@ 0x54
 8004ab8:	2301      	movs	r3, #1
 8004aba:	f880 3051 	strb.w	r3, [r0, #81]	@ 0x51
 8004abe:	f7ff ffef 	bl	8004aa0 <HAL_SPI_ErrorCallback>
 8004ac2:	bd08      	pop	{r3, pc}

08004ac4 <SPI_DMATransmitCplt>:
 8004ac4:	b537      	push	{r0, r1, r2, r4, r5, lr}
 8004ac6:	4605      	mov	r5, r0
 8004ac8:	6b84      	ldr	r4, [r0, #56]	@ 0x38
 8004aca:	f7fd fbd5 	bl	8002278 <HAL_GetTick>
 8004ace:	682b      	ldr	r3, [r5, #0]
 8004ad0:	681b      	ldr	r3, [r3, #0]
 8004ad2:	05db      	lsls	r3, r3, #23
 8004ad4:	4602      	mov	r2, r0
 8004ad6:	d426      	bmi.n	8004b26 <SPI_DMATransmitCplt+0x62>
 8004ad8:	6823      	ldr	r3, [r4, #0]
 8004ada:	6859      	ldr	r1, [r3, #4]
 8004adc:	f021 0120 	bic.w	r1, r1, #32
 8004ae0:	6059      	str	r1, [r3, #4]
 8004ae2:	6859      	ldr	r1, [r3, #4]
 8004ae4:	f021 0102 	bic.w	r1, r1, #2
 8004ae8:	6059      	str	r1, [r3, #4]
 8004aea:	4620      	mov	r0, r4
 8004aec:	2164      	movs	r1, #100	@ 0x64
 8004aee:	f7ff fc5b 	bl	80043a8 <SPI_EndRxTxTransaction>
 8004af2:	b118      	cbz	r0, 8004afc <SPI_DMATransmitCplt+0x38>
 8004af4:	6d63      	ldr	r3, [r4, #84]	@ 0x54
 8004af6:	f043 0320 	orr.w	r3, r3, #32
 8004afa:	6563      	str	r3, [r4, #84]	@ 0x54
 8004afc:	68a3      	ldr	r3, [r4, #8]
 8004afe:	b933      	cbnz	r3, 8004b0e <SPI_DMATransmitCplt+0x4a>
 8004b00:	9301      	str	r3, [sp, #4]
 8004b02:	6823      	ldr	r3, [r4, #0]
 8004b04:	68da      	ldr	r2, [r3, #12]
 8004b06:	9201      	str	r2, [sp, #4]
 8004b08:	689b      	ldr	r3, [r3, #8]
 8004b0a:	9301      	str	r3, [sp, #4]
 8004b0c:	9b01      	ldr	r3, [sp, #4]
 8004b0e:	2300      	movs	r3, #0
 8004b10:	86e3      	strh	r3, [r4, #54]	@ 0x36
 8004b12:	2301      	movs	r3, #1
 8004b14:	f884 3051 	strb.w	r3, [r4, #81]	@ 0x51
 8004b18:	6d63      	ldr	r3, [r4, #84]	@ 0x54
 8004b1a:	b123      	cbz	r3, 8004b26 <SPI_DMATransmitCplt+0x62>
 8004b1c:	4620      	mov	r0, r4
 8004b1e:	f7ff ffbf 	bl	8004aa0 <HAL_SPI_ErrorCallback>
 8004b22:	b003      	add	sp, #12
 8004b24:	bd30      	pop	{r4, r5, pc}
 8004b26:	4620      	mov	r0, r4
 8004b28:	f7fd fac8 	bl	80020bc <HAL_SPI_TxCpltCallback>
 8004b2c:	e7f9      	b.n	8004b22 <SPI_DMATransmitCplt+0x5e>
	...

08004b30 <HAL_TIM_Base_Start_IT>:
 8004b30:	f890 303d 	ldrb.w	r3, [r0, #61]	@ 0x3d
 8004b34:	2b01      	cmp	r3, #1
 8004b36:	d130      	bne.n	8004b9a <HAL_TIM_Base_Start_IT+0x6a>
 8004b38:	2302      	movs	r3, #2
 8004b3a:	f880 303d 	strb.w	r3, [r0, #61]	@ 0x3d
 8004b3e:	6803      	ldr	r3, [r0, #0]
 8004b40:	68da      	ldr	r2, [r3, #12]
 8004b42:	f042 0201 	orr.w	r2, r2, #1
 8004b46:	60da      	str	r2, [r3, #12]
 8004b48:	4a15      	ldr	r2, [pc, #84]	@ (8004ba0 <HAL_TIM_Base_Start_IT+0x70>)
 8004b4a:	4293      	cmp	r3, r2
 8004b4c:	d01a      	beq.n	8004b84 <HAL_TIM_Base_Start_IT+0x54>
 8004b4e:	f1b3 4f80 	cmp.w	r3, #1073741824	@ 0x40000000
 8004b52:	d017      	beq.n	8004b84 <HAL_TIM_Base_Start_IT+0x54>
 8004b54:	f5a2 427c 	sub.w	r2, r2, #64512	@ 0xfc00
 8004b58:	4293      	cmp	r3, r2
 8004b5a:	d013      	beq.n	8004b84 <HAL_TIM_Base_Start_IT+0x54>
 8004b5c:	f502 6280 	add.w	r2, r2, #1024	@ 0x400
 8004b60:	4293      	cmp	r3, r2
 8004b62:	d00f      	beq.n	8004b84 <HAL_TIM_Base_Start_IT+0x54>
 8004b64:	f502 6280 	add.w	r2, r2, #1024	@ 0x400
 8004b68:	4293      	cmp	r3, r2
 8004b6a:	d00b      	beq.n	8004b84 <HAL_TIM_Base_Start_IT+0x54>
 8004b6c:	f502 4278 	add.w	r2, r2, #63488	@ 0xf800
 8004b70:	4293      	cmp	r3, r2
 8004b72:	d007      	beq.n	8004b84 <HAL_TIM_Base_Start_IT+0x54>
 8004b74:	f502 5270 	add.w	r2, r2, #15360	@ 0x3c00
 8004b78:	4293      	cmp	r3, r2
 8004b7a:	d003      	beq.n	8004b84 <HAL_TIM_Base_Start_IT+0x54>
 8004b7c:	f5a2 3294 	sub.w	r2, r2, #75776	@ 0x12800
 8004b80:	4293      	cmp	r3, r2
 8004b82:	d104      	bne.n	8004b8e <HAL_TIM_Base_Start_IT+0x5e>
 8004b84:	689a      	ldr	r2, [r3, #8]
 8004b86:	f002 0207 	and.w	r2, r2, #7
 8004b8a:	2a06      	cmp	r2, #6
 8004b8c:	d003      	beq.n	8004b96 <HAL_TIM_Base_Start_IT+0x66>
 8004b8e:	681a      	ldr	r2, [r3, #0]
 8004b90:	f042 0201 	orr.w	r2, r2, #1
 8004b94:	601a      	str	r2, [r3, #0]
 8004b96:	2000      	movs	r0, #0
 8004b98:	4770      	bx	lr
 8004b9a:	2001      	movs	r0, #1
 8004b9c:	4770      	bx	lr
 8004b9e:	bf00      	nop
 8004ba0:	40010000 	.word	0x40010000

08004ba4 <HAL_TIM_PeriodElapsedCallback>:
 8004ba4:	4770      	bx	lr

08004ba6 <HAL_TIM_OC_DelayElapsedCallback>:
 8004ba6:	4770      	bx	lr

08004ba8 <HAL_TIM_IC_CaptureCallback>:
 8004ba8:	4770      	bx	lr

08004baa <HAL_TIM_PWM_PulseFinishedCallback>:
 8004baa:	4770      	bx	lr

08004bac <HAL_TIM_TriggerCallback>:
 8004bac:	4770      	bx	lr

08004bae <HAL_TIM_IRQHandler>:
 8004bae:	6803      	ldr	r3, [r0, #0]
 8004bb0:	b570      	push	{r4, r5, r6, lr}
 8004bb2:	68dd      	ldr	r5, [r3, #12]
 8004bb4:	691e      	ldr	r6, [r3, #16]
 8004bb6:	07b1      	lsls	r1, r6, #30
 8004bb8:	4604      	mov	r4, r0
 8004bba:	d50d      	bpl.n	8004bd8 <HAL_TIM_IRQHandler+0x2a>
 8004bbc:	07aa      	lsls	r2, r5, #30
 8004bbe:	d50b      	bpl.n	8004bd8 <HAL_TIM_IRQHandler+0x2a>
 8004bc0:	f06f 0202 	mvn.w	r2, #2
 8004bc4:	611a      	str	r2, [r3, #16]
 8004bc6:	2201      	movs	r2, #1
 8004bc8:	7702      	strb	r2, [r0, #28]
 8004bca:	699b      	ldr	r3, [r3, #24]
 8004bcc:	079b      	lsls	r3, r3, #30
 8004bce:	d069      	beq.n	8004ca4 <HAL_TIM_IRQHandler+0xf6>
 8004bd0:	f7ff ffea 	bl	8004ba8 <HAL_TIM_IC_CaptureCallback>
 8004bd4:	2300      	movs	r3, #0
 8004bd6:	7723      	strb	r3, [r4, #28]
 8004bd8:	0771      	lsls	r1, r6, #29
 8004bda:	d510      	bpl.n	8004bfe <HAL_TIM_IRQHandler+0x50>
 8004bdc:	076a      	lsls	r2, r5, #29
 8004bde:	d50e      	bpl.n	8004bfe <HAL_TIM_IRQHandler+0x50>
 8004be0:	6823      	ldr	r3, [r4, #0]
 8004be2:	f06f 0204 	mvn.w	r2, #4
 8004be6:	611a      	str	r2, [r3, #16]
 8004be8:	2202      	movs	r2, #2
 8004bea:	7722      	strb	r2, [r4, #28]
 8004bec:	699b      	ldr	r3, [r3, #24]
 8004bee:	f413 7f40 	tst.w	r3, #768	@ 0x300
 8004bf2:	4620      	mov	r0, r4
 8004bf4:	d05c      	beq.n	8004cb0 <HAL_TIM_IRQHandler+0x102>
 8004bf6:	f7ff ffd7 	bl	8004ba8 <HAL_TIM_IC_CaptureCallback>
 8004bfa:	2300      	movs	r3, #0
 8004bfc:	7723      	strb	r3, [r4, #28]
 8004bfe:	0733      	lsls	r3, r6, #28
 8004c00:	d50f      	bpl.n	8004c22 <HAL_TIM_IRQHandler+0x74>
 8004c02:	0728      	lsls	r0, r5, #28
 8004c04:	d50d      	bpl.n	8004c22 <HAL_TIM_IRQHandler+0x74>
 8004c06:	6823      	ldr	r3, [r4, #0]
 8004c08:	f06f 0208 	mvn.w	r2, #8
 8004c0c:	611a      	str	r2, [r3, #16]
 8004c0e:	2204      	movs	r2, #4
 8004c10:	7722      	strb	r2, [r4, #28]
 8004c12:	69db      	ldr	r3, [r3, #28]
 8004c14:	0799      	lsls	r1, r3, #30
 8004c16:	4620      	mov	r0, r4
 8004c18:	d050      	beq.n	8004cbc <HAL_TIM_IRQHandler+0x10e>
 8004c1a:	f7ff ffc5 	bl	8004ba8 <HAL_TIM_IC_CaptureCallback>
 8004c1e:	2300      	movs	r3, #0
 8004c20:	7723      	strb	r3, [r4, #28]
 8004c22:	06f2      	lsls	r2, r6, #27
 8004c24:	d510      	bpl.n	8004c48 <HAL_TIM_IRQHandler+0x9a>
 8004c26:	06eb      	lsls	r3, r5, #27
 8004c28:	d50e      	bpl.n	8004c48 <HAL_TIM_IRQHandler+0x9a>
 8004c2a:	6823      	ldr	r3, [r4, #0]
 8004c2c:	f06f 0210 	mvn.w	r2, #16
 8004c30:	611a      	str	r2, [r3, #16]
 8004c32:	2208      	movs	r2, #8
 8004c34:	7722      	strb	r2, [r4, #28]
 8004c36:	69db      	ldr	r3, [r3, #28]
 8004c38:	f413 7f40 	tst.w	r3, #768	@ 0x300
 8004c3c:	4620      	mov	r0, r4
 8004c3e:	d043      	beq.n	8004cc8 <HAL_TIM_IRQHandler+0x11a>
 8004c40:	f7ff ffb2 	bl	8004ba8 <HAL_TIM_IC_CaptureCallback>
 8004c44:	2300      	movs	r3, #0
 8004c46:	7723      	strb	r3, [r4, #28]
 8004c48:	07f0      	lsls	r0, r6, #31
 8004c4a:	d508      	bpl.n	8004c5e <HAL_TIM_IRQHandler+0xb0>
 8004c4c:	07e9      	lsls	r1, r5, #31
 8004c4e:	d506      	bpl.n	8004c5e <HAL_TIM_IRQHandler+0xb0>
 8004c50:	6823      	ldr	r3, [r4, #0]
 8004c52:	f06f 0201 	mvn.w	r2, #1
 8004c56:	611a      	str	r2, [r3, #16]
 8004c58:	4620      	mov	r0, r4
 8004c5a:	f7ff ffa3 	bl	8004ba4 <HAL_TIM_PeriodElapsedCallback>
 8004c5e:	0632      	lsls	r2, r6, #24
 8004c60:	d508      	bpl.n	8004c74 <HAL_TIM_IRQHandler+0xc6>
 8004c62:	062b      	lsls	r3, r5, #24
 8004c64:	d506      	bpl.n	8004c74 <HAL_TIM_IRQHandler+0xc6>
 8004c66:	6823      	ldr	r3, [r4, #0]
 8004c68:	f06f 0280 	mvn.w	r2, #128	@ 0x80
 8004c6c:	611a      	str	r2, [r3, #16]
 8004c6e:	4620      	mov	r0, r4
 8004c70:	f000 f909 	bl	8004e86 <HAL_TIMEx_BreakCallback>
 8004c74:	0670      	lsls	r0, r6, #25
 8004c76:	d508      	bpl.n	8004c8a <HAL_TIM_IRQHandler+0xdc>
 8004c78:	0669      	lsls	r1, r5, #25
 8004c7a:	d506      	bpl.n	8004c8a <HAL_TIM_IRQHandler+0xdc>
 8004c7c:	6823      	ldr	r3, [r4, #0]
 8004c7e:	f06f 0240 	mvn.w	r2, #64	@ 0x40
 8004c82:	611a      	str	r2, [r3, #16]
 8004c84:	4620      	mov	r0, r4
 8004c86:	f7ff ff91 	bl	8004bac <HAL_TIM_TriggerCallback>
 8004c8a:	06b2      	lsls	r2, r6, #26
 8004c8c:	d522      	bpl.n	8004cd4 <HAL_TIM_IRQHandler+0x126>
 8004c8e:	06ab      	lsls	r3, r5, #26
 8004c90:	d520      	bpl.n	8004cd4 <HAL_TIM_IRQHandler+0x126>
 8004c92:	6823      	ldr	r3, [r4, #0]
 8004c94:	f06f 0220 	mvn.w	r2, #32
 8004c98:	4620      	mov	r0, r4
 8004c9a:	611a      	str	r2, [r3, #16]
 8004c9c:	e8bd 4070 	ldmia.w	sp!, {r4, r5, r6, lr}
 8004ca0:	f000 b8f0 	b.w	8004e84 <HAL_TIMEx_CommutCallback>
 8004ca4:	f7ff ff7f 	bl	8004ba6 <HAL_TIM_OC_DelayElapsedCallback>
 8004ca8:	4620      	mov	r0, r4
 8004caa:	f7ff ff7e 	bl	8004baa <HAL_TIM_PWM_PulseFinishedCallback>
 8004cae:	e791      	b.n	8004bd4 <HAL_TIM_IRQHandler+0x26>
 8004cb0:	f7ff ff79 	bl	8004ba6 <HAL_TIM_OC_DelayElapsedCallback>
 8004cb4:	4620      	mov	r0, r4
 8004cb6:	f7ff ff78 	bl	8004baa <HAL_TIM_PWM_PulseFinishedCallback>
 8004cba:	e79e      	b.n	8004bfa <HAL_TIM_IRQHandler+0x4c>
 8004cbc:	f7ff ff73 	bl	8004ba6 <HAL_TIM_OC_DelayElapsedCallback>
 8004cc0:	4620      	mov	r0, r4
 8004cc2:	f7ff ff72 	bl	8004baa <HAL_TIM_PWM_PulseFinishedCallback>
 8004cc6:	e7aa      	b.n	8004c1e <HAL_TIM_IRQHandler+0x70>
 8004cc8:	f7ff ff6d 	bl	8004ba6 <HAL_TIM_OC_DelayElapsedCallback>
 8004ccc:	4620      	mov	r0, r4
 8004cce:	f7ff ff6c 	bl	8004baa <HAL_TIM_PWM_PulseFinishedCallback>
 8004cd2:	e7b7      	b.n	8004c44 <HAL_TIM_IRQHandler+0x96>
 8004cd4:	bd70      	pop	{r4, r5, r6, pc}
	...

08004cd8 <TIM_Base_SetConfig>:
 8004cd8:	4a33      	ldr	r2, [pc, #204]	@ (8004da8 <TIM_Base_SetConfig+0xd0>)
 8004cda:	6803      	ldr	r3, [r0, #0]
 8004cdc:	4290      	cmp	r0, r2
 8004cde:	d012      	beq.n	8004d06 <TIM_Base_SetConfig+0x2e>
 8004ce0:	f1b0 4f80 	cmp.w	r0, #1073741824	@ 0x40000000
 8004ce4:	d00f      	beq.n	8004d06 <TIM_Base_SetConfig+0x2e>
 8004ce6:	f5a2 427c 	sub.w	r2, r2, #64512	@ 0xfc00
 8004cea:	4290      	cmp	r0, r2
 8004cec:	d00b      	beq.n	8004d06 <TIM_Base_SetConfig+0x2e>
 8004cee:	f502 6280 	add.w	r2, r2, #1024	@ 0x400
 8004cf2:	4290      	cmp	r0, r2
 8004cf4:	d007      	beq.n	8004d06 <TIM_Base_SetConfig+0x2e>
 8004cf6:	f502 6280 	add.w	r2, r2, #1024	@ 0x400
 8004cfa:	4290      	cmp	r0, r2
 8004cfc:	d003      	beq.n	8004d06 <TIM_Base_SetConfig+0x2e>
 8004cfe:	f502 4278 	add.w	r2, r2, #63488	@ 0xf800
 8004d02:	4290      	cmp	r0, r2
 8004d04:	d119      	bne.n	8004d3a <TIM_Base_SetConfig+0x62>
 8004d06:	684a      	ldr	r2, [r1, #4]
 8004d08:	f023 0370 	bic.w	r3, r3, #112	@ 0x70
 8004d0c:	4313      	orrs	r3, r2
 8004d0e:	4a26      	ldr	r2, [pc, #152]	@ (8004da8 <TIM_Base_SetConfig+0xd0>)
 8004d10:	4290      	cmp	r0, r2
 8004d12:	d029      	beq.n	8004d68 <TIM_Base_SetConfig+0x90>
 8004d14:	f1b0 4f80 	cmp.w	r0, #1073741824	@ 0x40000000
 8004d18:	d026      	beq.n	8004d68 <TIM_Base_SetConfig+0x90>
 8004d1a:	f5a2 427c 	sub.w	r2, r2, #64512	@ 0xfc00
 8004d1e:	4290      	cmp	r0, r2
 8004d20:	d022      	beq.n	8004d68 <TIM_Base_SetConfig+0x90>
 8004d22:	f502 6280 	add.w	r2, r2, #1024	@ 0x400
 8004d26:	4290      	cmp	r0, r2
 8004d28:	d01e      	beq.n	8004d68 <TIM_Base_SetConfig+0x90>
 8004d2a:	f502 6280 	add.w	r2, r2, #1024	@ 0x400
 8004d2e:	4290      	cmp	r0, r2
 8004d30:	d01a      	beq.n	8004d68 <TIM_Base_SetConfig+0x90>
 8004d32:	f502 4278 	add.w	r2, r2, #63488	@ 0xf800
 8004d36:	4290      	cmp	r0, r2
 8004d38:	d016      	beq.n	8004d68 <TIM_Base_SetConfig+0x90>
 8004d3a:	4a1c      	ldr	r2, [pc, #112]	@ (8004dac <TIM_Base_SetConfig+0xd4>)
 8004d3c:	4290      	cmp	r0, r2
 8004d3e:	d013      	beq.n	8004d68 <TIM_Base_SetConfig+0x90>
 8004d40:	f502 6280 	add.w	r2, r2, #1024	@ 0x400
 8004d44:	4290      	cmp	r0, r2
 8004d46:	d00f      	beq.n	8004d68 <TIM_Base_SetConfig+0x90>
 8004d48:	f502 6280 	add.w	r2, r2, #1024	@ 0x400
 8004d4c:	4290      	cmp	r0, r2
 8004d4e:	d00b      	beq.n	8004d68 <TIM_Base_SetConfig+0x90>
 8004d50:	f5a2 3298 	sub.w	r2, r2, #77824	@ 0x13000
 8004d54:	4290      	cmp	r0, r2
 8004d56:	d007      	beq.n	8004d68 <TIM_Base_SetConfig+0x90>
 8004d58:	f502 6280 	add.w	r2, r2, #1024	@ 0x400
 8004d5c:	4290      	cmp	r0, r2
 8004d5e:	d003      	beq.n	8004d68 <TIM_Base_SetConfig+0x90>
 8004d60:	f502 6280 	add.w	r2, r2, #1024	@ 0x400
 8004d64:	4290      	cmp	r0, r2
 8004d66:	d103      	bne.n	8004d70 <TIM_Base_SetConfig+0x98>
 8004d68:	68ca      	ldr	r2, [r1, #12]
 8004d6a:	f423 7340 	bic.w	r3, r3, #768	@ 0x300
 8004d6e:	4313      	orrs	r3, r2
 8004d70:	694a      	ldr	r2, [r1, #20]
 8004d72:	f023 0380 	bic.w	r3, r3, #128	@ 0x80
 8004d76:	4313      	orrs	r3, r2
 8004d78:	6003      	str	r3, [r0, #0]
 8004d7a:	688b      	ldr	r3, [r1, #8]
 8004d7c:	62c3      	str	r3, [r0, #44]	@ 0x2c
 8004d7e:	680b      	ldr	r3, [r1, #0]
 8004d80:	6283      	str	r3, [r0, #40]	@ 0x28
 8004d82:	4b09      	ldr	r3, [pc, #36]	@ (8004da8 <TIM_Base_SetConfig+0xd0>)
 8004d84:	4298      	cmp	r0, r3
 8004d86:	d003      	beq.n	8004d90 <TIM_Base_SetConfig+0xb8>
 8004d88:	f503 6380 	add.w	r3, r3, #1024	@ 0x400
 8004d8c:	4298      	cmp	r0, r3
 8004d8e:	d101      	bne.n	8004d94 <TIM_Base_SetConfig+0xbc>
 8004d90:	690b      	ldr	r3, [r1, #16]
 8004d92:	6303      	str	r3, [r0, #48]	@ 0x30
 8004d94:	2301      	movs	r3, #1
 8004d96:	6143      	str	r3, [r0, #20]
 8004d98:	6903      	ldr	r3, [r0, #16]
 8004d9a:	07db      	lsls	r3, r3, #31
 8004d9c:	bf42      	ittt	mi
 8004d9e:	6903      	ldrmi	r3, [r0, #16]
 8004da0:	f023 0301 	bicmi.w	r3, r3, #1
 8004da4:	6103      	strmi	r3, [r0, #16]
 8004da6:	4770      	bx	lr
 8004da8:	40010000 	.word	0x40010000
 8004dac:	40014000 	.word	0x40014000

08004db0 <HAL_TIM_Base_Init>:
 8004db0:	b510      	push	{r4, lr}
 8004db2:	4604      	mov	r4, r0
 8004db4:	b330      	cbz	r0, 8004e04 <HAL_TIM_Base_Init+0x54>
 8004db6:	f890 303d 	ldrb.w	r3, [r0, #61]	@ 0x3d
 8004dba:	f003 02ff 	and.w	r2, r3, #255	@ 0xff
 8004dbe:	b91b      	cbnz	r3, 8004dc8 <HAL_TIM_Base_Init+0x18>
 8004dc0:	f880 203c 	strb.w	r2, [r0, #60]	@ 0x3c
 8004dc4:	f7fd f8a0 	bl	8001f08 <HAL_TIM_Base_MspInit>
 8004dc8:	2302      	movs	r3, #2
 8004dca:	6820      	ldr	r0, [r4, #0]
 8004dcc:	f884 303d 	strb.w	r3, [r4, #61]	@ 0x3d
 8004dd0:	1d21      	adds	r1, r4, #4
 8004dd2:	f7ff ff81 	bl	8004cd8 <TIM_Base_SetConfig>
 8004dd6:	2301      	movs	r3, #1
 8004dd8:	f884 3046 	strb.w	r3, [r4, #70]	@ 0x46
 8004ddc:	2000      	movs	r0, #0
 8004dde:	f884 303e 	strb.w	r3, [r4, #62]	@ 0x3e
 8004de2:	f884 303f 	strb.w	r3, [r4, #63]	@ 0x3f
 8004de6:	f884 3040 	strb.w	r3, [r4, #64]	@ 0x40
 8004dea:	f884 3041 	strb.w	r3, [r4, #65]	@ 0x41
 8004dee:	f884 3042 	strb.w	r3, [r4, #66]	@ 0x42
 8004df2:	f884 3043 	strb.w	r3, [r4, #67]	@ 0x43
 8004df6:	f884 3044 	strb.w	r3, [r4, #68]	@ 0x44
 8004dfa:	f884 3045 	strb.w	r3, [r4, #69]	@ 0x45
 8004dfe:	f884 303d 	strb.w	r3, [r4, #61]	@ 0x3d
 8004e02:	bd10      	pop	{r4, pc}
 8004e04:	2001      	movs	r0, #1
 8004e06:	e7fc      	b.n	8004e02 <HAL_TIM_Base_Init+0x52>

08004e08 <HAL_TIMEx_MasterConfigSynchronization>:
 8004e08:	b530      	push	{r4, r5, lr}
 8004e0a:	f890 303c 	ldrb.w	r3, [r0, #60]	@ 0x3c
 8004e0e:	2b01      	cmp	r3, #1
 8004e10:	4602      	mov	r2, r0
 8004e12:	f04f 0002 	mov.w	r0, #2
 8004e16:	d032      	beq.n	8004e7e <HAL_TIMEx_MasterConfigSynchronization+0x76>
 8004e18:	6813      	ldr	r3, [r2, #0]
 8004e1a:	f882 003d 	strb.w	r0, [r2, #61]	@ 0x3d
 8004e1e:	685c      	ldr	r4, [r3, #4]
 8004e20:	680d      	ldr	r5, [r1, #0]
 8004e22:	6898      	ldr	r0, [r3, #8]
 8004e24:	f024 0470 	bic.w	r4, r4, #112	@ 0x70
 8004e28:	432c      	orrs	r4, r5
 8004e2a:	605c      	str	r4, [r3, #4]
 8004e2c:	4c14      	ldr	r4, [pc, #80]	@ (8004e80 <HAL_TIMEx_MasterConfigSynchronization+0x78>)
 8004e2e:	42a3      	cmp	r3, r4
 8004e30:	d01a      	beq.n	8004e68 <HAL_TIMEx_MasterConfigSynchronization+0x60>
 8004e32:	f1b3 4f80 	cmp.w	r3, #1073741824	@ 0x40000000
 8004e36:	d017      	beq.n	8004e68 <HAL_TIMEx_MasterConfigSynchronization+0x60>
 8004e38:	f5a4 447c 	sub.w	r4, r4, #64512	@ 0xfc00
 8004e3c:	42a3      	cmp	r3, r4
 8004e3e:	d013      	beq.n	8004e68 <HAL_TIMEx_MasterConfigSynchronization+0x60>
 8004e40:	f504 6480 	add.w	r4, r4, #1024	@ 0x400
 8004e44:	42a3      	cmp	r3, r4
 8004e46:	d00f      	beq.n	8004e68 <HAL_TIMEx_MasterConfigSynchronization+0x60>
 8004e48:	f504 6480 	add.w	r4, r4, #1024	@ 0x400
 8004e4c:	42a3      	cmp	r3, r4
 8004e4e:	d00b      	beq.n	8004e68 <HAL_TIMEx_MasterConfigSynchronization+0x60>
 8004e50:	f504 4478 	add.w	r4, r4, #63488	@ 0xf800
 8004e54:	42a3      	cmp	r3, r4
 8004e56:	d007      	beq.n	8004e68 <HAL_TIMEx_MasterConfigSynchronization+0x60>
 8004e58:	f504 5470 	add.w	r4, r4, #15360	@ 0x3c00
 8004e5c:	42a3      	cmp	r3, r4
 8004e5e:	d003      	beq.n	8004e68 <HAL_TIMEx_MasterConfigSynchronization+0x60>
 8004e60:	f5a4 3494 	sub.w	r4, r4, #75776	@ 0x12800
 8004e64:	42a3      	cmp	r3, r4
 8004e66:	d104      	bne.n	8004e72 <HAL_TIMEx_MasterConfigSynchronization+0x6a>
 8004e68:	6849      	ldr	r1, [r1, #4]
 8004e6a:	f020 0080 	bic.w	r0, r0, #128	@ 0x80
 8004e6e:	4301      	orrs	r1, r0
 8004e70:	6099      	str	r1, [r3, #8]
 8004e72:	2301      	movs	r3, #1
 8004e74:	2000      	movs	r0, #0
 8004e76:	f882 303d 	strb.w	r3, [r2, #61]	@ 0x3d
 8004e7a:	f882 003c 	strb.w	r0, [r2, #60]	@ 0x3c
 8004e7e:	bd30      	pop	{r4, r5, pc}
 8004e80:	40010000 	.word	0x40010000

08004e84 <HAL_TIMEx_CommutCallback>:
 8004e84:	4770      	bx	lr

08004e86 <HAL_TIMEx_BreakCallback>:
 8004e86:	4770      	bx	lr

08004e88 <UART_EndRxTransfer>:
 8004e88:	6802      	ldr	r2, [r0, #0]
 8004e8a:	f102 030c 	add.w	r3, r2, #12
 8004e8e:	e853 3f00 	ldrex	r3, [r3]
 8004e92:	f423 7390 	bic.w	r3, r3, #288	@ 0x120
 8004e96:	320c      	adds	r2, #12
 8004e98:	e842 3100 	strex	r1, r3, [r2]
 8004e9c:	6802      	ldr	r2, [r0, #0]
 8004e9e:	2900      	cmp	r1, #0
 8004ea0:	d1f2      	bne.n	8004e88 <UART_EndRxTransfer>
 8004ea2:	f102 0314 	add.w	r3, r2, #20
 8004ea6:	e853 3f00 	ldrex	r3, [r3]
 8004eaa:	f023 0301 	bic.w	r3, r3, #1
 8004eae:	f102 0c14 	add.w	ip, r2, #20
 8004eb2:	e84c 3100 	strex	r1, r3, [ip]
 8004eb6:	2900      	cmp	r1, #0
 8004eb8:	d1f3      	bne.n	8004ea2 <UART_EndRxTransfer+0x1a>
 8004eba:	6b03      	ldr	r3, [r0, #48]	@ 0x30
 8004ebc:	2b01      	cmp	r3, #1
 8004ebe:	d10b      	bne.n	8004ed8 <UART_EndRxTransfer+0x50>
 8004ec0:	f102 030c 	add.w	r3, r2, #12
 8004ec4:	e853 3f00 	ldrex	r3, [r3]
 8004ec8:	f023 0310 	bic.w	r3, r3, #16
 8004ecc:	f102 0c0c 	add.w	ip, r2, #12
 8004ed0:	e84c 3100 	strex	r1, r3, [ip]
 8004ed4:	2900      	cmp	r1, #0
 8004ed6:	d1f3      	bne.n	8004ec0 <UART_EndRxTransfer+0x38>
 8004ed8:	2320      	movs	r3, #32
 8004eda:	f880 3042 	strb.w	r3, [r0, #66]	@ 0x42
 8004ede:	2300      	movs	r3, #0
 8004ee0:	6303      	str	r3, [r0, #48]	@ 0x30
 8004ee2:	4770      	bx	lr

08004ee4 <UART_SetConfig>:
 8004ee4:	6802      	ldr	r2, [r0, #0]
 8004ee6:	68c1      	ldr	r1, [r0, #12]
 8004ee8:	b538      	push	{r3, r4, r5, lr}
 8004eea:	6913      	ldr	r3, [r2, #16]
 8004eec:	f423 5340 	bic.w	r3, r3, #12288	@ 0x3000
 8004ef0:	430b      	orrs	r3, r1
 8004ef2:	6113      	str	r3, [r2, #16]
 8004ef4:	4605      	mov	r5, r0
 8004ef6:	6883      	ldr	r3, [r0, #8]
 8004ef8:	6900      	ldr	r0, [r0, #16]
 8004efa:	68d1      	ldr	r1, [r2, #12]
 8004efc:	4303      	orrs	r3, r0
 8004efe:	6968      	ldr	r0, [r5, #20]
 8004f00:	4303      	orrs	r3, r0
 8004f02:	69e8      	ldr	r0, [r5, #28]
 8004f04:	f421 4116 	bic.w	r1, r1, #38400	@ 0x9600
 8004f08:	f021 010c 	bic.w	r1, r1, #12
 8004f0c:	4303      	orrs	r3, r0
 8004f0e:	430b      	orrs	r3, r1
 8004f10:	60d3      	str	r3, [r2, #12]
 8004f12:	6953      	ldr	r3, [r2, #20]
 8004f14:	69a9      	ldr	r1, [r5, #24]
 8004f16:	f423 7340 	bic.w	r3, r3, #768	@ 0x300
 8004f1a:	430b      	orrs	r3, r1
 8004f1c:	6153      	str	r3, [r2, #20]
 8004f1e:	4b1f      	ldr	r3, [pc, #124]	@ (8004f9c <UART_SetConfig+0xb8>)
 8004f20:	429a      	cmp	r2, r3
 8004f22:	d003      	beq.n	8004f2c <UART_SetConfig+0x48>
 8004f24:	f503 6380 	add.w	r3, r3, #1024	@ 0x400
 8004f28:	429a      	cmp	r2, r3
 8004f2a:	d124      	bne.n	8004f76 <UART_SetConfig+0x92>
 8004f2c:	f7fe ff1a 	bl	8003d64 <HAL_RCC_GetPCLK2Freq>
 8004f30:	69ea      	ldr	r2, [r5, #28]
 8004f32:	2119      	movs	r1, #25
 8004f34:	f5b2 4f00 	cmp.w	r2, #32768	@ 0x8000
 8004f38:	e9d5 4300 	ldrd	r4, r3, [r5]
 8004f3c:	fba0 0101 	umull	r0, r1, r0, r1
 8004f40:	d11c      	bne.n	8004f7c <UART_SetConfig+0x98>
 8004f42:	18da      	adds	r2, r3, r3
 8004f44:	f04f 0500 	mov.w	r5, #0
 8004f48:	eb45 0305 	adc.w	r3, r5, r5
 8004f4c:	f7fb f956 	bl	80001fc <__aeabi_uldivmod>
 8004f50:	2264      	movs	r2, #100	@ 0x64
 8004f52:	fbb0 f1f2 	udiv	r1, r0, r2
 8004f56:	fb02 0311 	mls	r3, r2, r1, r0
 8004f5a:	00db      	lsls	r3, r3, #3
 8004f5c:	3332      	adds	r3, #50	@ 0x32
 8004f5e:	fbb3 f3f2 	udiv	r3, r3, r2
 8004f62:	f003 0207 	and.w	r2, r3, #7
 8004f66:	005b      	lsls	r3, r3, #1
 8004f68:	eb02 1201 	add.w	r2, r2, r1, lsl #4
 8004f6c:	f403 73f8 	and.w	r3, r3, #496	@ 0x1f0
 8004f70:	4413      	add	r3, r2
 8004f72:	60a3      	str	r3, [r4, #8]
 8004f74:	bd38      	pop	{r3, r4, r5, pc}
 8004f76:	f7fe fee5 	bl	8003d44 <HAL_RCC_GetPCLK1Freq>
 8004f7a:	e7d9      	b.n	8004f30 <UART_SetConfig+0x4c>
 8004f7c:	009a      	lsls	r2, r3, #2
 8004f7e:	0f9b      	lsrs	r3, r3, #30
 8004f80:	f7fb f93c 	bl	80001fc <__aeabi_uldivmod>
 8004f84:	2264      	movs	r2, #100	@ 0x64
 8004f86:	fbb0 f1f2 	udiv	r1, r0, r2
 8004f8a:	fb02 0311 	mls	r3, r2, r1, r0
 8004f8e:	011b      	lsls	r3, r3, #4
 8004f90:	3332      	adds	r3, #50	@ 0x32
 8004f92:	fbb3 f3f2 	udiv	r3, r3, r2
 8004f96:	eb03 1301 	add.w	r3, r3, r1, lsl #4
 8004f9a:	e7ea      	b.n	8004f72 <UART_SetConfig+0x8e>
 8004f9c:	40011000 	.word	0x40011000

08004fa0 <UART_WaitOnFlagUntilTimeout.constprop.0>:
 8004fa0:	b5f7      	push	{r0, r1, r2, r4, r5, r6, r7, lr}
 8004fa2:	4605      	mov	r5, r0
 8004fa4:	460c      	mov	r4, r1
 8004fa6:	4617      	mov	r7, r2
 8004fa8:	461e      	mov	r6, r3
 8004faa:	682a      	ldr	r2, [r5, #0]
 8004fac:	6813      	ldr	r3, [r2, #0]
 8004fae:	ea34 0303 	bics.w	r3, r4, r3
 8004fb2:	d101      	bne.n	8004fb8 <UART_WaitOnFlagUntilTimeout.constprop.0+0x18>
 8004fb4:	2000      	movs	r0, #0
 8004fb6:	e021      	b.n	8004ffc <UART_WaitOnFlagUntilTimeout.constprop.0+0x5c>
 8004fb8:	1c70      	adds	r0, r6, #1
 8004fba:	d0f7      	beq.n	8004fac <UART_WaitOnFlagUntilTimeout.constprop.0+0xc>
 8004fbc:	f7fd f95c 	bl	8002278 <HAL_GetTick>
 8004fc0:	1bc0      	subs	r0, r0, r7
 8004fc2:	4286      	cmp	r6, r0
 8004fc4:	d31c      	bcc.n	8005000 <UART_WaitOnFlagUntilTimeout.constprop.0+0x60>
 8004fc6:	b1de      	cbz	r6, 8005000 <UART_WaitOnFlagUntilTimeout.constprop.0+0x60>
 8004fc8:	682b      	ldr	r3, [r5, #0]
 8004fca:	68da      	ldr	r2, [r3, #12]
 8004fcc:	0751      	lsls	r1, r2, #29
 8004fce:	d5ec      	bpl.n	8004faa <UART_WaitOnFlagUntilTimeout.constprop.0+0xa>
 8004fd0:	2c80      	cmp	r4, #128	@ 0x80
 8004fd2:	d0ea      	beq.n	8004faa <UART_WaitOnFlagUntilTimeout.constprop.0+0xa>
 8004fd4:	2c40      	cmp	r4, #64	@ 0x40
 8004fd6:	d0e8      	beq.n	8004faa <UART_WaitOnFlagUntilTimeout.constprop.0+0xa>
 8004fd8:	681a      	ldr	r2, [r3, #0]
 8004fda:	0712      	lsls	r2, r2, #28
 8004fdc:	d5e5      	bpl.n	8004faa <UART_WaitOnFlagUntilTimeout.constprop.0+0xa>
 8004fde:	2400      	movs	r4, #0
 8004fe0:	9401      	str	r4, [sp, #4]
 8004fe2:	681a      	ldr	r2, [r3, #0]
 8004fe4:	9201      	str	r2, [sp, #4]
 8004fe6:	685b      	ldr	r3, [r3, #4]
 8004fe8:	9301      	str	r3, [sp, #4]
 8004fea:	4628      	mov	r0, r5
 8004fec:	9b01      	ldr	r3, [sp, #4]
 8004fee:	f7ff ff4b 	bl	8004e88 <UART_EndRxTransfer>
 8004ff2:	2308      	movs	r3, #8
 8004ff4:	646b      	str	r3, [r5, #68]	@ 0x44
 8004ff6:	f885 4040 	strb.w	r4, [r5, #64]	@ 0x40
 8004ffa:	2001      	movs	r0, #1
 8004ffc:	b003      	add	sp, #12
 8004ffe:	bdf0      	pop	{r4, r5, r6, r7, pc}
 8005000:	2003      	movs	r0, #3
 8005002:	e7fb      	b.n	8004ffc <UART_WaitOnFlagUntilTimeout.constprop.0+0x5c>

08005004 <HAL_UART_Init>:
 8005004:	b510      	push	{r4, lr}
 8005006:	4604      	mov	r4, r0
 8005008:	b348      	cbz	r0, 800505e <HAL_UART_Init+0x5a>
 800500a:	f890 3041 	ldrb.w	r3, [r0, #65]	@ 0x41
 800500e:	f003 02ff 	and.w	r2, r3, #255	@ 0xff
 8005012:	b91b      	cbnz	r3, 800501c <HAL_UART_Init+0x18>
 8005014:	f880 2040 	strb.w	r2, [r0, #64]	@ 0x40
 8005018:	f7fc ffb0 	bl	8001f7c <HAL_UART_MspInit>
 800501c:	6822      	ldr	r2, [r4, #0]
 800501e:	2324      	movs	r3, #36	@ 0x24
 8005020:	f884 3041 	strb.w	r3, [r4, #65]	@ 0x41
 8005024:	68d3      	ldr	r3, [r2, #12]
 8005026:	f423 5300 	bic.w	r3, r3, #8192	@ 0x2000
 800502a:	60d3      	str	r3, [r2, #12]
 800502c:	4620      	mov	r0, r4
 800502e:	f7ff ff59 	bl	8004ee4 <UART_SetConfig>
 8005032:	6823      	ldr	r3, [r4, #0]
 8005034:	691a      	ldr	r2, [r3, #16]
 8005036:	f422 4290 	bic.w	r2, r2, #18432	@ 0x4800
 800503a:	611a      	str	r2, [r3, #16]
 800503c:	695a      	ldr	r2, [r3, #20]
 800503e:	f022 022a 	bic.w	r2, r2, #42	@ 0x2a
 8005042:	615a      	str	r2, [r3, #20]
 8005044:	68da      	ldr	r2, [r3, #12]
 8005046:	f442 5200 	orr.w	r2, r2, #8192	@ 0x2000
 800504a:	60da      	str	r2, [r3, #12]
 800504c:	2000      	movs	r0, #0
 800504e:	2320      	movs	r3, #32
 8005050:	6460      	str	r0, [r4, #68]	@ 0x44
 8005052:	f884 3041 	strb.w	r3, [r4, #65]	@ 0x41
 8005056:	f884 3042 	strb.w	r3, [r4, #66]	@ 0x42
 800505a:	6360      	str	r0, [r4, #52]	@ 0x34
 800505c:	bd10      	pop	{r4, pc}
 800505e:	2001      	movs	r0, #1
 8005060:	e7fc      	b.n	800505c <HAL_UART_Init+0x58>

08005062 <HAL_UART_Transmit>:
 8005062:	e92d 43f8 	stmdb	sp!, {r3, r4, r5, r6, r7, r8, r9, lr}
 8005066:	4698      	mov	r8, r3
 8005068:	f890 3041 	ldrb.w	r3, [r0, #65]	@ 0x41
 800506c:	2b20      	cmp	r3, #32
 800506e:	4604      	mov	r4, r0
 8005070:	460e      	mov	r6, r1
 8005072:	4617      	mov	r7, r2
 8005074:	d13f      	bne.n	80050f6 <HAL_UART_Transmit+0x94>
 8005076:	2900      	cmp	r1, #0
 8005078:	d03f      	beq.n	80050fa <HAL_UART_Transmit+0x98>
 800507a:	2a00      	cmp	r2, #0
 800507c:	d03d      	beq.n	80050fa <HAL_UART_Transmit+0x98>
 800507e:	2321      	movs	r3, #33	@ 0x21
 8005080:	2500      	movs	r5, #0
 8005082:	6445      	str	r5, [r0, #68]	@ 0x44
 8005084:	f880 3041 	strb.w	r3, [r0, #65]	@ 0x41
 8005088:	f7fd f8f6 	bl	8002278 <HAL_GetTick>
 800508c:	68a3      	ldr	r3, [r4, #8]
 800508e:	84a7      	strh	r7, [r4, #36]	@ 0x24
 8005090:	f5b3 5f80 	cmp.w	r3, #4096	@ 0x1000
 8005094:	4681      	mov	r9, r0
 8005096:	84e7      	strh	r7, [r4, #38]	@ 0x26
 8005098:	d103      	bne.n	80050a2 <HAL_UART_Transmit+0x40>
 800509a:	6923      	ldr	r3, [r4, #16]
 800509c:	b90b      	cbnz	r3, 80050a2 <HAL_UART_Transmit+0x40>
 800509e:	4635      	mov	r5, r6
 80050a0:	461e      	mov	r6, r3
 80050a2:	8ce3      	ldrh	r3, [r4, #38]	@ 0x26
 80050a4:	b29b      	uxth	r3, r3
 80050a6:	b953      	cbnz	r3, 80050be <HAL_UART_Transmit+0x5c>
 80050a8:	4643      	mov	r3, r8
 80050aa:	464a      	mov	r2, r9
 80050ac:	2140      	movs	r1, #64	@ 0x40
 80050ae:	4620      	mov	r0, r4
 80050b0:	f7ff ff76 	bl	8004fa0 <UART_WaitOnFlagUntilTimeout.constprop.0>
 80050b4:	2320      	movs	r3, #32
 80050b6:	b950      	cbnz	r0, 80050ce <HAL_UART_Transmit+0x6c>
 80050b8:	f884 3041 	strb.w	r3, [r4, #65]	@ 0x41
 80050bc:	e00a      	b.n	80050d4 <HAL_UART_Transmit+0x72>
 80050be:	4643      	mov	r3, r8
 80050c0:	464a      	mov	r2, r9
 80050c2:	2180      	movs	r1, #128	@ 0x80
 80050c4:	4620      	mov	r0, r4
 80050c6:	f7ff ff6b 	bl	8004fa0 <UART_WaitOnFlagUntilTimeout.constprop.0>
 80050ca:	b128      	cbz	r0, 80050d8 <HAL_UART_Transmit+0x76>
 80050cc:	2320      	movs	r3, #32
 80050ce:	f884 3041 	strb.w	r3, [r4, #65]	@ 0x41
 80050d2:	2003      	movs	r0, #3
 80050d4:	e8bd 83f8 	ldmia.w	sp!, {r3, r4, r5, r6, r7, r8, r9, pc}
 80050d8:	6822      	ldr	r2, [r4, #0]
 80050da:	b94e      	cbnz	r6, 80050f0 <HAL_UART_Transmit+0x8e>
 80050dc:	f835 3b02 	ldrh.w	r3, [r5], #2
 80050e0:	f3c3 0308 	ubfx	r3, r3, #0, #9
 80050e4:	6053      	str	r3, [r2, #4]
 80050e6:	8ce1      	ldrh	r1, [r4, #38]	@ 0x26
 80050e8:	3901      	subs	r1, #1
 80050ea:	b289      	uxth	r1, r1
 80050ec:	84e1      	strh	r1, [r4, #38]	@ 0x26
 80050ee:	e7d8      	b.n	80050a2 <HAL_UART_Transmit+0x40>
 80050f0:	f816 3b01 	ldrb.w	r3, [r6], #1
 80050f4:	e7f6      	b.n	80050e4 <HAL_UART_Transmit+0x82>
 80050f6:	2002      	movs	r0, #2
 80050f8:	e7ec      	b.n	80050d4 <HAL_UART_Transmit+0x72>
 80050fa:	2001      	movs	r0, #1
 80050fc:	e7ea      	b.n	80050d4 <HAL_UART_Transmit+0x72>

080050fe <HAL_UART_TxCpltCallback>:
 80050fe:	4770      	bx	lr

08005100 <HAL_UART_ErrorCallback>:
 8005100:	4770      	bx	lr

08005102 <UART_DMAAbortOnError>:
 8005102:	b508      	push	{r3, lr}
 8005104:	6b80      	ldr	r0, [r0, #56]	@ 0x38
 8005106:	2300      	movs	r3, #0
 8005108:	85c3      	strh	r3, [r0, #46]	@ 0x2e
 800510a:	84c3      	strh	r3, [r0, #38]	@ 0x26
 800510c:	f7ff fff8 	bl	8005100 <HAL_UART_ErrorCallback>
 8005110:	bd08      	pop	{r3, pc}

08005112 <HAL_UARTEx_RxEventCallback>:
 8005112:	4770      	bx	lr

08005114 <UART_Receive_IT.isra.0>:
 8005114:	f890 3042 	ldrb.w	r3, [r0, #66]	@ 0x42
 8005118:	2b22      	cmp	r3, #34	@ 0x22
 800511a:	b507      	push	{r0, r1, r2, lr}
 800511c:	d142      	bne.n	80051a4 <UART_Receive_IT.isra.0+0x90>
 800511e:	6881      	ldr	r1, [r0, #8]
 8005120:	6802      	ldr	r2, [r0, #0]
 8005122:	6a83      	ldr	r3, [r0, #40]	@ 0x28
 8005124:	f5b1 5f80 	cmp.w	r1, #4096	@ 0x1000
 8005128:	d13f      	bne.n	80051aa <UART_Receive_IT.isra.0+0x96>
 800512a:	6901      	ldr	r1, [r0, #16]
 800512c:	2900      	cmp	r1, #0
 800512e:	d13f      	bne.n	80051b0 <UART_Receive_IT.isra.0+0x9c>
 8005130:	6852      	ldr	r2, [r2, #4]
 8005132:	f3c2 0208 	ubfx	r2, r2, #0, #9
 8005136:	f823 2b02 	strh.w	r2, [r3], #2
 800513a:	6283      	str	r3, [r0, #40]	@ 0x28
 800513c:	8dc3      	ldrh	r3, [r0, #46]	@ 0x2e
 800513e:	3b01      	subs	r3, #1
 8005140:	b29b      	uxth	r3, r3
 8005142:	85c3      	strh	r3, [r0, #46]	@ 0x2e
 8005144:	2b00      	cmp	r3, #0
 8005146:	d12d      	bne.n	80051a4 <UART_Receive_IT.isra.0+0x90>
 8005148:	6802      	ldr	r2, [r0, #0]
 800514a:	68d1      	ldr	r1, [r2, #12]
 800514c:	f021 0120 	bic.w	r1, r1, #32
 8005150:	60d1      	str	r1, [r2, #12]
 8005152:	68d1      	ldr	r1, [r2, #12]
 8005154:	f421 7180 	bic.w	r1, r1, #256	@ 0x100
 8005158:	60d1      	str	r1, [r2, #12]
 800515a:	6951      	ldr	r1, [r2, #20]
 800515c:	f021 0101 	bic.w	r1, r1, #1
 8005160:	6151      	str	r1, [r2, #20]
 8005162:	2220      	movs	r2, #32
 8005164:	f880 2042 	strb.w	r2, [r0, #66]	@ 0x42
 8005168:	6343      	str	r3, [r0, #52]	@ 0x34
 800516a:	6b02      	ldr	r2, [r0, #48]	@ 0x30
 800516c:	2a01      	cmp	r2, #1
 800516e:	6802      	ldr	r2, [r0, #0]
 8005170:	d128      	bne.n	80051c4 <UART_Receive_IT.isra.0+0xb0>
 8005172:	6303      	str	r3, [r0, #48]	@ 0x30
 8005174:	f102 030c 	add.w	r3, r2, #12
 8005178:	e853 3f00 	ldrex	r3, [r3]
 800517c:	f023 0310 	bic.w	r3, r3, #16
 8005180:	f102 0c0c 	add.w	ip, r2, #12
 8005184:	e84c 3100 	strex	r1, r3, [ip]
 8005188:	2900      	cmp	r1, #0
 800518a:	d1f3      	bne.n	8005174 <UART_Receive_IT.isra.0+0x60>
 800518c:	6813      	ldr	r3, [r2, #0]
 800518e:	06db      	lsls	r3, r3, #27
 8005190:	d505      	bpl.n	800519e <UART_Receive_IT.isra.0+0x8a>
 8005192:	9101      	str	r1, [sp, #4]
 8005194:	6813      	ldr	r3, [r2, #0]
 8005196:	9301      	str	r3, [sp, #4]
 8005198:	6853      	ldr	r3, [r2, #4]
 800519a:	9301      	str	r3, [sp, #4]
 800519c:	9b01      	ldr	r3, [sp, #4]
 800519e:	8d81      	ldrh	r1, [r0, #44]	@ 0x2c
 80051a0:	f7ff ffb7 	bl	8005112 <HAL_UARTEx_RxEventCallback>
 80051a4:	b003      	add	sp, #12
 80051a6:	f85d fb04 	ldr.w	pc, [sp], #4
 80051aa:	b939      	cbnz	r1, 80051bc <UART_Receive_IT.isra.0+0xa8>
 80051ac:	6901      	ldr	r1, [r0, #16]
 80051ae:	b929      	cbnz	r1, 80051bc <UART_Receive_IT.isra.0+0xa8>
 80051b0:	6852      	ldr	r2, [r2, #4]
 80051b2:	b2d2      	uxtb	r2, r2
 80051b4:	701a      	strb	r2, [r3, #0]
 80051b6:	6a83      	ldr	r3, [r0, #40]	@ 0x28
 80051b8:	3301      	adds	r3, #1
 80051ba:	e7be      	b.n	800513a <UART_Receive_IT.isra.0+0x26>
 80051bc:	6852      	ldr	r2, [r2, #4]
 80051be:	f002 027f 	and.w	r2, r2, #127	@ 0x7f
 80051c2:	e7f7      	b.n	80051b4 <UART_Receive_IT.isra.0+0xa0>
 80051c4:	f7fc ffaa 	bl	800211c <HAL_UART_RxCpltCallback>
 80051c8:	e7ec      	b.n	80051a4 <UART_Receive_IT.isra.0+0x90>
	...

080051cc <HAL_UART_IRQHandler>:
 80051cc:	6803      	ldr	r3, [r0, #0]
 80051ce:	681a      	ldr	r2, [r3, #0]
 80051d0:	b573      	push	{r0, r1, r4, r5, r6, lr}
 80051d2:	0716      	lsls	r6, r2, #28
 80051d4:	68d9      	ldr	r1, [r3, #12]
 80051d6:	695d      	ldr	r5, [r3, #20]
 80051d8:	4604      	mov	r4, r0
 80051da:	d108      	bne.n	80051ee <HAL_UART_IRQHandler+0x22>
 80051dc:	0696      	lsls	r6, r2, #26
 80051de:	d568      	bpl.n	80052b2 <HAL_UART_IRQHandler+0xe6>
 80051e0:	068d      	lsls	r5, r1, #26
 80051e2:	d566      	bpl.n	80052b2 <HAL_UART_IRQHandler+0xe6>
 80051e4:	b002      	add	sp, #8
 80051e6:	e8bd 4070 	ldmia.w	sp!, {r4, r5, r6, lr}
 80051ea:	f7ff bf93 	b.w	8005114 <UART_Receive_IT.isra.0>
 80051ee:	f005 0001 	and.w	r0, r5, #1
 80051f2:	f401 7590 	and.w	r5, r1, #288	@ 0x120
 80051f6:	4305      	orrs	r5, r0
 80051f8:	d05b      	beq.n	80052b2 <HAL_UART_IRQHandler+0xe6>
 80051fa:	07d6      	lsls	r6, r2, #31
 80051fc:	d505      	bpl.n	800520a <HAL_UART_IRQHandler+0x3e>
 80051fe:	05cd      	lsls	r5, r1, #23
 8005200:	bf42      	ittt	mi
 8005202:	6c63      	ldrmi	r3, [r4, #68]	@ 0x44
 8005204:	f043 0301 	orrmi.w	r3, r3, #1
 8005208:	6463      	strmi	r3, [r4, #68]	@ 0x44
 800520a:	0753      	lsls	r3, r2, #29
 800520c:	d504      	bpl.n	8005218 <HAL_UART_IRQHandler+0x4c>
 800520e:	b118      	cbz	r0, 8005218 <HAL_UART_IRQHandler+0x4c>
 8005210:	6c63      	ldr	r3, [r4, #68]	@ 0x44
 8005212:	f043 0302 	orr.w	r3, r3, #2
 8005216:	6463      	str	r3, [r4, #68]	@ 0x44
 8005218:	0796      	lsls	r6, r2, #30
 800521a:	d504      	bpl.n	8005226 <HAL_UART_IRQHandler+0x5a>
 800521c:	b118      	cbz	r0, 8005226 <HAL_UART_IRQHandler+0x5a>
 800521e:	6c63      	ldr	r3, [r4, #68]	@ 0x44
 8005220:	f043 0304 	orr.w	r3, r3, #4
 8005224:	6463      	str	r3, [r4, #68]	@ 0x44
 8005226:	0715      	lsls	r5, r2, #28
 8005228:	d507      	bpl.n	800523a <HAL_UART_IRQHandler+0x6e>
 800522a:	f001 0320 	and.w	r3, r1, #32
 800522e:	4303      	orrs	r3, r0
 8005230:	bf1e      	ittt	ne
 8005232:	6c63      	ldrne	r3, [r4, #68]	@ 0x44
 8005234:	f043 0308 	orrne.w	r3, r3, #8
 8005238:	6463      	strne	r3, [r4, #68]	@ 0x44
 800523a:	6c63      	ldr	r3, [r4, #68]	@ 0x44
 800523c:	2b00      	cmp	r3, #0
 800523e:	d032      	beq.n	80052a6 <HAL_UART_IRQHandler+0xda>
 8005240:	0692      	lsls	r2, r2, #26
 8005242:	d504      	bpl.n	800524e <HAL_UART_IRQHandler+0x82>
 8005244:	068b      	lsls	r3, r1, #26
 8005246:	d502      	bpl.n	800524e <HAL_UART_IRQHandler+0x82>
 8005248:	4620      	mov	r0, r4
 800524a:	f7ff ff63 	bl	8005114 <UART_Receive_IT.isra.0>
 800524e:	6826      	ldr	r6, [r4, #0]
 8005250:	6973      	ldr	r3, [r6, #20]
 8005252:	6c62      	ldr	r2, [r4, #68]	@ 0x44
 8005254:	f003 0340 	and.w	r3, r3, #64	@ 0x40
 8005258:	f002 0208 	and.w	r2, r2, #8
 800525c:	ea53 0502 	orrs.w	r5, r3, r2
 8005260:	4620      	mov	r0, r4
 8005262:	d022      	beq.n	80052aa <HAL_UART_IRQHandler+0xde>
 8005264:	f7ff fe10 	bl	8004e88 <UART_EndRxTransfer>
 8005268:	6973      	ldr	r3, [r6, #20]
 800526a:	065e      	lsls	r6, r3, #25
 800526c:	d518      	bpl.n	80052a0 <HAL_UART_IRQHandler+0xd4>
 800526e:	6822      	ldr	r2, [r4, #0]
 8005270:	f102 0314 	add.w	r3, r2, #20
 8005274:	e853 3f00 	ldrex	r3, [r3]
 8005278:	f023 0340 	bic.w	r3, r3, #64	@ 0x40
 800527c:	3214      	adds	r2, #20
 800527e:	e842 3100 	strex	r1, r3, [r2]
 8005282:	2900      	cmp	r1, #0
 8005284:	d1f3      	bne.n	800526e <HAL_UART_IRQHandler+0xa2>
 8005286:	6be0      	ldr	r0, [r4, #60]	@ 0x3c
 8005288:	b150      	cbz	r0, 80052a0 <HAL_UART_IRQHandler+0xd4>
 800528a:	4b74      	ldr	r3, [pc, #464]	@ (800545c <HAL_UART_IRQHandler+0x290>)
 800528c:	6503      	str	r3, [r0, #80]	@ 0x50
 800528e:	f7fd fc94 	bl	8002bba <HAL_DMA_Abort_IT>
 8005292:	b140      	cbz	r0, 80052a6 <HAL_UART_IRQHandler+0xda>
 8005294:	6be0      	ldr	r0, [r4, #60]	@ 0x3c
 8005296:	6d03      	ldr	r3, [r0, #80]	@ 0x50
 8005298:	b002      	add	sp, #8
 800529a:	e8bd 4070 	ldmia.w	sp!, {r4, r5, r6, lr}
 800529e:	4718      	bx	r3
 80052a0:	4620      	mov	r0, r4
 80052a2:	f7ff ff2d 	bl	8005100 <HAL_UART_ErrorCallback>
 80052a6:	b002      	add	sp, #8
 80052a8:	bd70      	pop	{r4, r5, r6, pc}
 80052aa:	f7ff ff29 	bl	8005100 <HAL_UART_ErrorCallback>
 80052ae:	6465      	str	r5, [r4, #68]	@ 0x44
 80052b0:	e7f9      	b.n	80052a6 <HAL_UART_IRQHandler+0xda>
 80052b2:	6b20      	ldr	r0, [r4, #48]	@ 0x30
 80052b4:	2801      	cmp	r0, #1
 80052b6:	f040 8095 	bne.w	80053e4 <HAL_UART_IRQHandler+0x218>
 80052ba:	06d5      	lsls	r5, r2, #27
 80052bc:	f140 8092 	bpl.w	80053e4 <HAL_UART_IRQHandler+0x218>
 80052c0:	06c8      	lsls	r0, r1, #27
 80052c2:	f140 808f 	bpl.w	80053e4 <HAL_UART_IRQHandler+0x218>
 80052c6:	2200      	movs	r2, #0
 80052c8:	9201      	str	r2, [sp, #4]
 80052ca:	681a      	ldr	r2, [r3, #0]
 80052cc:	9201      	str	r2, [sp, #4]
 80052ce:	685a      	ldr	r2, [r3, #4]
 80052d0:	9201      	str	r2, [sp, #4]
 80052d2:	9a01      	ldr	r2, [sp, #4]
 80052d4:	695a      	ldr	r2, [r3, #20]
 80052d6:	0652      	lsls	r2, r2, #25
 80052d8:	d54e      	bpl.n	8005378 <HAL_UART_IRQHandler+0x1ac>
 80052da:	6be1      	ldr	r1, [r4, #60]	@ 0x3c
 80052dc:	680a      	ldr	r2, [r1, #0]
 80052de:	6852      	ldr	r2, [r2, #4]
 80052e0:	b292      	uxth	r2, r2
 80052e2:	2a00      	cmp	r2, #0
 80052e4:	d0df      	beq.n	80052a6 <HAL_UART_IRQHandler+0xda>
 80052e6:	8da0      	ldrh	r0, [r4, #44]	@ 0x2c
 80052e8:	4290      	cmp	r0, r2
 80052ea:	d9dc      	bls.n	80052a6 <HAL_UART_IRQHandler+0xda>
 80052ec:	85e2      	strh	r2, [r4, #46]	@ 0x2e
 80052ee:	69ca      	ldr	r2, [r1, #28]
 80052f0:	f5b2 7f80 	cmp.w	r2, #256	@ 0x100
 80052f4:	d036      	beq.n	8005364 <HAL_UART_IRQHandler+0x198>
 80052f6:	f103 020c 	add.w	r2, r3, #12
 80052fa:	e852 2f00 	ldrex	r2, [r2]
 80052fe:	f422 7280 	bic.w	r2, r2, #256	@ 0x100
 8005302:	f103 000c 	add.w	r0, r3, #12
 8005306:	e840 2100 	strex	r1, r2, [r0]
 800530a:	2900      	cmp	r1, #0
 800530c:	d1f3      	bne.n	80052f6 <HAL_UART_IRQHandler+0x12a>
 800530e:	f103 0214 	add.w	r2, r3, #20
 8005312:	e852 2f00 	ldrex	r2, [r2]
 8005316:	f022 0201 	bic.w	r2, r2, #1
 800531a:	f103 0014 	add.w	r0, r3, #20
 800531e:	e840 2100 	strex	r1, r2, [r0]
 8005322:	2900      	cmp	r1, #0
 8005324:	d1f3      	bne.n	800530e <HAL_UART_IRQHandler+0x142>
 8005326:	f103 0214 	add.w	r2, r3, #20
 800532a:	e852 2f00 	ldrex	r2, [r2]
 800532e:	f022 0240 	bic.w	r2, r2, #64	@ 0x40
 8005332:	f103 0014 	add.w	r0, r3, #20
 8005336:	e840 2100 	strex	r1, r2, [r0]
 800533a:	2900      	cmp	r1, #0
 800533c:	d1f3      	bne.n	8005326 <HAL_UART_IRQHandler+0x15a>
 800533e:	2220      	movs	r2, #32
 8005340:	f884 2042 	strb.w	r2, [r4, #66]	@ 0x42
 8005344:	6321      	str	r1, [r4, #48]	@ 0x30
 8005346:	f103 020c 	add.w	r2, r3, #12
 800534a:	e852 2f00 	ldrex	r2, [r2]
 800534e:	f022 0210 	bic.w	r2, r2, #16
 8005352:	f103 000c 	add.w	r0, r3, #12
 8005356:	e840 2100 	strex	r1, r2, [r0]
 800535a:	2900      	cmp	r1, #0
 800535c:	d1f3      	bne.n	8005346 <HAL_UART_IRQHandler+0x17a>
 800535e:	6be0      	ldr	r0, [r4, #60]	@ 0x3c
 8005360:	f7fd fbed 	bl	8002b3e <HAL_DMA_Abort>
 8005364:	2302      	movs	r3, #2
 8005366:	6363      	str	r3, [r4, #52]	@ 0x34
 8005368:	8de3      	ldrh	r3, [r4, #46]	@ 0x2e
 800536a:	8da1      	ldrh	r1, [r4, #44]	@ 0x2c
 800536c:	1ac9      	subs	r1, r1, r3
 800536e:	b289      	uxth	r1, r1
 8005370:	4620      	mov	r0, r4
 8005372:	f7ff fece 	bl	8005112 <HAL_UARTEx_RxEventCallback>
 8005376:	e796      	b.n	80052a6 <HAL_UART_IRQHandler+0xda>
 8005378:	8de2      	ldrh	r2, [r4, #46]	@ 0x2e
 800537a:	8de0      	ldrh	r0, [r4, #46]	@ 0x2e
 800537c:	8da1      	ldrh	r1, [r4, #44]	@ 0x2c
 800537e:	b280      	uxth	r0, r0
 8005380:	b292      	uxth	r2, r2
 8005382:	2800      	cmp	r0, #0
 8005384:	d08f      	beq.n	80052a6 <HAL_UART_IRQHandler+0xda>
 8005386:	1a89      	subs	r1, r1, r2
 8005388:	b289      	uxth	r1, r1
 800538a:	2900      	cmp	r1, #0
 800538c:	d08b      	beq.n	80052a6 <HAL_UART_IRQHandler+0xda>
 800538e:	f103 020c 	add.w	r2, r3, #12
 8005392:	e852 2f00 	ldrex	r2, [r2]
 8005396:	f422 7290 	bic.w	r2, r2, #288	@ 0x120
 800539a:	f103 050c 	add.w	r5, r3, #12
 800539e:	e845 2000 	strex	r0, r2, [r5]
 80053a2:	2800      	cmp	r0, #0
 80053a4:	d1f3      	bne.n	800538e <HAL_UART_IRQHandler+0x1c2>
 80053a6:	f103 0214 	add.w	r2, r3, #20
 80053aa:	e852 2f00 	ldrex	r2, [r2]
 80053ae:	f022 0201 	bic.w	r2, r2, #1
 80053b2:	f103 0514 	add.w	r5, r3, #20
 80053b6:	e845 2000 	strex	r0, r2, [r5]
 80053ba:	2800      	cmp	r0, #0
 80053bc:	d1f3      	bne.n	80053a6 <HAL_UART_IRQHandler+0x1da>
 80053be:	2220      	movs	r2, #32
 80053c0:	f884 2042 	strb.w	r2, [r4, #66]	@ 0x42
 80053c4:	6320      	str	r0, [r4, #48]	@ 0x30
 80053c6:	f103 020c 	add.w	r2, r3, #12
 80053ca:	e852 2f00 	ldrex	r2, [r2]
 80053ce:	f022 0210 	bic.w	r2, r2, #16
 80053d2:	f103 050c 	add.w	r5, r3, #12
 80053d6:	e845 2000 	strex	r0, r2, [r5]
 80053da:	2800      	cmp	r0, #0
 80053dc:	d1f3      	bne.n	80053c6 <HAL_UART_IRQHandler+0x1fa>
 80053de:	2302      	movs	r3, #2
 80053e0:	6363      	str	r3, [r4, #52]	@ 0x34
 80053e2:	e7c5      	b.n	8005370 <HAL_UART_IRQHandler+0x1a4>
 80053e4:	0616      	lsls	r6, r2, #24
 80053e6:	d528      	bpl.n	800543a <HAL_UART_IRQHandler+0x26e>
 80053e8:	060d      	lsls	r5, r1, #24
 80053ea:	d526      	bpl.n	800543a <HAL_UART_IRQHandler+0x26e>
 80053ec:	f894 2041 	ldrb.w	r2, [r4, #65]	@ 0x41
 80053f0:	2a21      	cmp	r2, #33	@ 0x21
 80053f2:	f47f af58 	bne.w	80052a6 <HAL_UART_IRQHandler+0xda>
 80053f6:	68a1      	ldr	r1, [r4, #8]
 80053f8:	6a22      	ldr	r2, [r4, #32]
 80053fa:	f5b1 5f80 	cmp.w	r1, #4096	@ 0x1000
 80053fe:	d117      	bne.n	8005430 <HAL_UART_IRQHandler+0x264>
 8005400:	6921      	ldr	r1, [r4, #16]
 8005402:	b9a9      	cbnz	r1, 8005430 <HAL_UART_IRQHandler+0x264>
 8005404:	f832 1b02 	ldrh.w	r1, [r2], #2
 8005408:	f3c1 0108 	ubfx	r1, r1, #0, #9
 800540c:	6059      	str	r1, [r3, #4]
 800540e:	6222      	str	r2, [r4, #32]
 8005410:	8ce2      	ldrh	r2, [r4, #38]	@ 0x26
 8005412:	3a01      	subs	r2, #1
 8005414:	b292      	uxth	r2, r2
 8005416:	84e2      	strh	r2, [r4, #38]	@ 0x26
 8005418:	2a00      	cmp	r2, #0
 800541a:	f47f af44 	bne.w	80052a6 <HAL_UART_IRQHandler+0xda>
 800541e:	68da      	ldr	r2, [r3, #12]
 8005420:	f022 0280 	bic.w	r2, r2, #128	@ 0x80
 8005424:	60da      	str	r2, [r3, #12]
 8005426:	68da      	ldr	r2, [r3, #12]
 8005428:	f042 0240 	orr.w	r2, r2, #64	@ 0x40
 800542c:	60da      	str	r2, [r3, #12]
 800542e:	e73a      	b.n	80052a6 <HAL_UART_IRQHandler+0xda>
 8005430:	1c51      	adds	r1, r2, #1
 8005432:	6221      	str	r1, [r4, #32]
 8005434:	7812      	ldrb	r2, [r2, #0]
 8005436:	605a      	str	r2, [r3, #4]
 8005438:	e7ea      	b.n	8005410 <HAL_UART_IRQHandler+0x244>
 800543a:	0650      	lsls	r0, r2, #25
 800543c:	f57f af33 	bpl.w	80052a6 <HAL_UART_IRQHandler+0xda>
 8005440:	064a      	lsls	r2, r1, #25
 8005442:	f57f af30 	bpl.w	80052a6 <HAL_UART_IRQHandler+0xda>
 8005446:	68da      	ldr	r2, [r3, #12]
 8005448:	f022 0240 	bic.w	r2, r2, #64	@ 0x40
 800544c:	60da      	str	r2, [r3, #12]
 800544e:	2320      	movs	r3, #32
 8005450:	f884 3041 	strb.w	r3, [r4, #65]	@ 0x41
 8005454:	4620      	mov	r0, r4
 8005456:	f7ff fe52 	bl	80050fe <HAL_UART_TxCpltCallback>
 800545a:	e724      	b.n	80052a6 <HAL_UART_IRQHandler+0xda>
 800545c:	08005103 	.word	0x08005103

08005460 <UART_Start_Receive_IT>:
 8005460:	85c2      	strh	r2, [r0, #46]	@ 0x2e
 8005462:	2300      	movs	r3, #0
 8005464:	8582      	strh	r2, [r0, #44]	@ 0x2c
 8005466:	6902      	ldr	r2, [r0, #16]
 8005468:	6443      	str	r3, [r0, #68]	@ 0x44
 800546a:	2322      	movs	r3, #34	@ 0x22
 800546c:	f880 3042 	strb.w	r3, [r0, #66]	@ 0x42
 8005470:	6281      	str	r1, [r0, #40]	@ 0x28
 8005472:	6803      	ldr	r3, [r0, #0]
 8005474:	b11a      	cbz	r2, 800547e <UART_Start_Receive_IT+0x1e>
 8005476:	68da      	ldr	r2, [r3, #12]
 8005478:	f442 7280 	orr.w	r2, r2, #256	@ 0x100
 800547c:	60da      	str	r2, [r3, #12]
 800547e:	695a      	ldr	r2, [r3, #20]
 8005480:	f042 0201 	orr.w	r2, r2, #1
 8005484:	615a      	str	r2, [r3, #20]
 8005486:	68da      	ldr	r2, [r3, #12]
 8005488:	f042 0220 	orr.w	r2, r2, #32
 800548c:	60da      	str	r2, [r3, #12]
 800548e:	2000      	movs	r0, #0
 8005490:	4770      	bx	lr

08005492 <HAL_UART_Receive_IT>:
 8005492:	b470      	push	{r4, r5, r6}
 8005494:	f890 6042 	ldrb.w	r6, [r0, #66]	@ 0x42
 8005498:	2e20      	cmp	r6, #32
 800549a:	d106      	bne.n	80054aa <HAL_UART_Receive_IT+0x18>
 800549c:	b141      	cbz	r1, 80054b0 <HAL_UART_Receive_IT+0x1e>
 800549e:	b13a      	cbz	r2, 80054b0 <HAL_UART_Receive_IT+0x1e>
 80054a0:	2400      	movs	r4, #0
 80054a2:	6304      	str	r4, [r0, #48]	@ 0x30
 80054a4:	bc70      	pop	{r4, r5, r6}
 80054a6:	f7ff bfdb 	b.w	8005460 <UART_Start_Receive_IT>
 80054aa:	2002      	movs	r0, #2
 80054ac:	bc70      	pop	{r4, r5, r6}
 80054ae:	4770      	bx	lr
 80054b0:	2001      	movs	r0, #1
 80054b2:	e7fb      	b.n	80054ac <HAL_UART_Receive_IT+0x1a>

080054b4 <memset>:
 80054b4:	4402      	add	r2, r0
 80054b6:	4603      	mov	r3, r0
 80054b8:	4293      	cmp	r3, r2
 80054ba:	d100      	bne.n	80054be <memset+0xa>
 80054bc:	4770      	bx	lr
 80054be:	f803 1b01 	strb.w	r1, [r3], #1
 80054c2:	e7f9      	b.n	80054b8 <memset+0x4>

080054c4 <__libc_init_array>:
 80054c4:	b570      	push	{r4, r5, r6, lr}
 80054c6:	4d0d      	ldr	r5, [pc, #52]	@ (80054fc <__libc_init_array+0x38>)
 80054c8:	4c0d      	ldr	r4, [pc, #52]	@ (8005500 <__libc_init_array+0x3c>)
 80054ca:	1b64      	subs	r4, r4, r5
 80054cc:	10a4      	asrs	r4, r4, #2
 80054ce:	2600      	movs	r6, #0
 80054d0:	42a6      	cmp	r6, r4
 80054d2:	d109      	bne.n	80054e8 <__libc_init_array+0x24>
 80054d4:	4d0b      	ldr	r5, [pc, #44]	@ (8005504 <__libc_init_array+0x40>)
 80054d6:	4c0c      	ldr	r4, [pc, #48]	@ (8005508 <__libc_init_array+0x44>)
 80054d8:	f000 f818 	bl	800550c <_init>
 80054dc:	1b64      	subs	r4, r4, r5
 80054de:	10a4      	asrs	r4, r4, #2
 80054e0:	2600      	movs	r6, #0
 80054e2:	42a6      	cmp	r6, r4
 80054e4:	d105      	bne.n	80054f2 <__libc_init_array+0x2e>
 80054e6:	bd70      	pop	{r4, r5, r6, pc}
 80054e8:	f855 3b04 	ldr.w	r3, [r5], #4
 80054ec:	4798      	blx	r3
 80054ee:	3601      	adds	r6, #1
 80054f0:	e7ee      	b.n	80054d0 <__libc_init_array+0xc>
 80054f2:	f855 3b04 	ldr.w	r3, [r5], #4
 80054f6:	4798      	blx	r3
 80054f8:	3601      	adds	r6, #1
 80054fa:	e7f2      	b.n	80054e2 <__libc_init_array+0x1e>
 80054fc:	080055e0 	.word	0x080055e0
 8005500:	080055e0 	.word	0x080055e0
 8005504:	080055e0 	.word	0x080055e0
 8005508:	080055e4 	.word	0x080055e4

0800550c <_init>:
 800550c:	b5f8      	push	{r3, r4, r5, r6, r7, lr}
 800550e:	bf00      	nop
 8005510:	bcf8      	pop	{r3, r4, r5, r6, r7}
 8005512:	bc08      	pop	{r3}
 8005514:	469e      	mov	lr, r3
 8005516:	4770      	bx	lr

08005518 <_fini>:
 8005518:	b5f8      	push	{r3, r4, r5, r6, r7, lr}
 800551a:	bf00      	nop
 800551c:	bcf8      	pop	{r3, r4, r5, r6, r7}
 800551e:	bc08      	pop	{r3}
 8005520:	469e      	mov	lr, r3
 8005522:	4770      	bx	lr
